Archive member included because of file (symbol)

c:/chibistudio/tools/gnu tools arm embedded/4.7 2014q2/bin/../lib/gcc/arm-none-eabi/4.7.4/armv7e-m\libgcc.a(_arm_addsubsf3.o)
                              build/obj/ginput_mouse.o (__aeabi_fsub)
c:/chibistudio/tools/gnu tools arm embedded/4.7 2014q2/bin/../lib/gcc/arm-none-eabi/4.7.4/armv7e-m\libgcc.a(_arm_muldivsf3.o)
                              build/obj/ginput_mouse.o (__aeabi_fmul)
c:/chibistudio/tools/gnu tools arm embedded/4.7 2014q2/bin/../lib/gcc/arm-none-eabi/4.7.4/armv7e-m\libgcc.a(_arm_fixsfsi.o)
                              build/obj/ginput_mouse.o (__aeabi_f2iz)
c:/chibistudio/tools/gnu tools arm embedded/4.7 2014q2/bin/../lib/gcc/arm-none-eabi/4.7.4/../../../../arm-none-eabi/lib/armv7e-m\libg.a(lib_a-atoi.o)
                              build/obj/sdcard.o (atoi)
c:/chibistudio/tools/gnu tools arm embedded/4.7 2014q2/bin/../lib/gcc/arm-none-eabi/4.7.4/../../../../arm-none-eabi/lib/armv7e-m\libg.a(lib_a-ctype_.o)
                              build/obj/slre.o (__ctype_ptr__)
c:/chibistudio/tools/gnu tools arm embedded/4.7 2014q2/bin/../lib/gcc/arm-none-eabi/4.7.4/../../../../arm-none-eabi/lib/armv7e-m\libg.a(lib_a-memcpy.o)
                              build/obj/sdc_lld.o (memcpy)
c:/chibistudio/tools/gnu tools arm embedded/4.7 2014q2/bin/../lib/gcc/arm-none-eabi/4.7.4/../../../../arm-none-eabi/lib/armv7e-m\libg.a(lib_a-memset.o)
                              build/obj/gdriver.o (memset)
c:/chibistudio/tools/gnu tools arm embedded/4.7 2014q2/bin/../lib/gcc/arm-none-eabi/4.7.4/../../../../arm-none-eabi/lib/armv7e-m\libg.a(lib_a-strcat.o)
                              build/obj/gui_t.o (strcat)
c:/chibistudio/tools/gnu tools arm embedded/4.7 2014q2/bin/../lib/gcc/arm-none-eabi/4.7.4/../../../../arm-none-eabi/lib/armv7e-m\libg.a(lib_a-strchr.o)
                              build/obj/slre.o (strchr)
c:/chibistudio/tools/gnu tools arm embedded/4.7 2014q2/bin/../lib/gcc/arm-none-eabi/4.7.4/../../../../arm-none-eabi/lib/armv7e-m\libg.a(lib_a-strcmp.o)
                              build/obj/gwin_list.o (strcmp)
c:/chibistudio/tools/gnu tools arm embedded/4.7 2014q2/bin/../lib/gcc/arm-none-eabi/4.7.4/../../../../arm-none-eabi/lib/armv7e-m\libg.a(lib_a-strcpy.o)
                              build/obj/gwin_widget.o (strcpy)
c:/chibistudio/tools/gnu tools arm embedded/4.7 2014q2/bin/../lib/gcc/arm-none-eabi/4.7.4/../../../../arm-none-eabi/lib/armv7e-m\libg.a(lib_a-strlcat.o)
                              build/obj/mainScreen.o (strlcat)
c:/chibistudio/tools/gnu tools arm embedded/4.7 2014q2/bin/../lib/gcc/arm-none-eabi/4.7.4/../../../../arm-none-eabi/lib/armv7e-m\libg.a(lib_a-strlcpy.o)
                              build/obj/calls_t.o (strlcpy)
c:/chibistudio/tools/gnu tools arm embedded/4.7 2014q2/bin/../lib/gcc/arm-none-eabi/4.7.4/../../../../arm-none-eabi/lib/armv7e-m\libg.a(lib_a-strlen.o)
                              build/obj/gwin_widget.o (strlen)
c:/chibistudio/tools/gnu tools arm embedded/4.7 2014q2/bin/../lib/gcc/arm-none-eabi/4.7.4/../../../../arm-none-eabi/lib/armv7e-m\libg.a(lib_a-strncpy.o)
                              build/obj/uart_t.o (strncpy)
c:/chibistudio/tools/gnu tools arm embedded/4.7 2014q2/bin/../lib/gcc/arm-none-eabi/4.7.4/../../../../arm-none-eabi/lib/armv7e-m\libg.a(lib_a-strstr.o)
                              build/obj/uart_t.o (strstr)
c:/chibistudio/tools/gnu tools arm embedded/4.7 2014q2/bin/../lib/gcc/arm-none-eabi/4.7.4/../../../../arm-none-eabi/lib/armv7e-m\libg.a(lib_a-strtol.o)
                              c:/chibistudio/tools/gnu tools arm embedded/4.7 2014q2/bin/../lib/gcc/arm-none-eabi/4.7.4/../../../../arm-none-eabi/lib/armv7e-m\libg.a(lib_a-atoi.o) (_strtol_r)
c:/chibistudio/tools/gnu tools arm embedded/4.7 2014q2/bin/../lib/gcc/arm-none-eabi/4.7.4/../../../../arm-none-eabi/lib/armv7e-m\libg.a(lib_a-impure.o)
                              c:/chibistudio/tools/gnu tools arm embedded/4.7 2014q2/bin/../lib/gcc/arm-none-eabi/4.7.4/../../../../arm-none-eabi/lib/armv7e-m\libg.a(lib_a-strtol.o) (_impure_ptr)
c:/chibistudio/tools/gnu tools arm embedded/4.7 2014q2/bin/../lib/gcc/arm-none-eabi/4.7.4/../../../../arm-none-eabi/lib/armv7e-m\libg.a(lib_a-memchr.o)
                              c:/chibistudio/tools/gnu tools arm embedded/4.7 2014q2/bin/../lib/gcc/arm-none-eabi/4.7.4/../../../../arm-none-eabi/lib/armv7e-m\libg.a(lib_a-strstr.o) (memchr)
c:/chibistudio/tools/gnu tools arm embedded/4.7 2014q2/bin/../lib/gcc/arm-none-eabi/4.7.4/../../../../arm-none-eabi/lib/armv7e-m\libg.a(lib_a-memcmp.o)
                              c:/chibistudio/tools/gnu tools arm embedded/4.7 2014q2/bin/../lib/gcc/arm-none-eabi/4.7.4/../../../../arm-none-eabi/lib/armv7e-m\libg.a(lib_a-strstr.o) (memcmp)

Discarded input sections

 .text          0x00000000        0x0 build/obj/crt0.o
 .data          0x00000000        0x0 build/obj/crt0.o
 .bss           0x00000000        0x0 build/obj/crt0.o
 .text.__early_init
                0x00000000       0x10 build/obj/crt0.o
 .text          0x00000000        0x0 build/obj/vectors.o
 .data          0x00000000        0x0 build/obj/vectors.o
 .bss           0x00000000        0x0 build/obj/vectors.o
 .text          0x00000000        0x0 build/obj/chcore.o
 .data          0x00000000        0x0 build/obj/chcore.o
 .bss           0x00000000        0x0 build/obj/chcore.o
 .text          0x00000000        0x0 build/obj/chcore_v7m.o
 .data          0x00000000        0x0 build/obj/chcore_v7m.o
 .bss           0x00000000        0x0 build/obj/chcore_v7m.o
 .text          0x00000000        0x0 build/obj/nvic.o
 .data          0x00000000        0x0 build/obj/nvic.o
 .bss           0x00000000        0x0 build/obj/nvic.o
 .text.nvicDisableVector
                0x00000000       0x40 build/obj/nvic.o
 .text          0x00000000        0x0 build/obj/chsys.o
 .data          0x00000000        0x0 build/obj/chsys.o
 .bss           0x00000000        0x0 build/obj/chsys.o
 .text          0x00000000        0x0 build/obj/chdebug.o
 .data          0x00000000        0x0 build/obj/chdebug.o
 .bss           0x00000000        0x0 build/obj/chdebug.o
 .text.dbg_check_disable
                0x00000000       0x30 build/obj/chdebug.o
 .text.dbg_check_suspend
                0x00000000       0x30 build/obj/chdebug.o
 .text.chDbgPanic
                0x00000000       0x10 build/obj/chdebug.o
 .text          0x00000000        0x0 build/obj/chlists.o
 .data          0x00000000        0x0 build/obj/chlists.o
 .bss           0x00000000        0x0 build/obj/chlists.o
 .debug_info    0x00000000       0x79 build/obj/chlists.o
 .debug_abbrev  0x00000000       0x26 build/obj/chlists.o
 .debug_aranges
                0x00000000       0x18 build/obj/chlists.o
 .debug_line    0x00000000       0x1d build/obj/chlists.o
 .debug_str     0x00000000      0x12f build/obj/chlists.o
 .comment       0x00000000       0x71 build/obj/chlists.o
 .ARM.attributes
                0x00000000       0x33 build/obj/chlists.o
 .text          0x00000000        0x0 build/obj/chvt.o
 .data          0x00000000        0x0 build/obj/chvt.o
 .bss           0x00000000        0x0 build/obj/chvt.o
 .text          0x00000000        0x0 build/obj/chschd.o
 .data          0x00000000        0x0 build/obj/chschd.o
 .bss           0x00000000        0x0 build/obj/chschd.o
 .text          0x00000000        0x0 build/obj/chthreads.o
 .data          0x00000000        0x0 build/obj/chthreads.o
 .bss           0x00000000        0x0 build/obj/chthreads.o
 .text.chThdResume
                0x00000000       0x30 build/obj/chthreads.o
 .text.chThdTerminate
                0x00000000       0x30 build/obj/chthreads.o
 .text.chThdSleepUntil
                0x00000000       0x30 build/obj/chthreads.o
 .text.chThdWait
                0x00000000       0x40 build/obj/chthreads.o
 .text          0x00000000        0x0 build/obj/chdynamic.o
 .data          0x00000000        0x0 build/obj/chdynamic.o
 .bss           0x00000000        0x0 build/obj/chdynamic.o
 .text.chThdAddRef
                0x00000000       0x30 build/obj/chdynamic.o
 .text.chThdRelease
                0x00000000       0x70 build/obj/chdynamic.o
 .text.chThdCreateFromMemoryPool
                0x00000000       0x50 build/obj/chdynamic.o
 .text          0x00000000        0x0 build/obj/chregistry.o
 .data          0x00000000        0x0 build/obj/chregistry.o
 .bss           0x00000000        0x0 build/obj/chregistry.o
 .text.chRegFirstThread
                0x00000000       0x30 build/obj/chregistry.o
 .text.chRegNextThread
                0x00000000       0x40 build/obj/chregistry.o
 .text          0x00000000        0x0 build/obj/chsem.o
 .data          0x00000000        0x0 build/obj/chsem.o
 .bss           0x00000000        0x0 build/obj/chsem.o
 .text.chSemResetI
                0x00000000       0x70 build/obj/chsem.o
 .text.chSemReset
                0x00000000       0x30 build/obj/chsem.o
 .text.chSemSignal
                0x00000000       0x40 build/obj/chsem.o
 .text.chSemAddCounterI
                0x00000000       0xb0 build/obj/chsem.o
 .text.chSemSignalWait
                0x00000000       0x70 build/obj/chsem.o
 .text          0x00000000        0x0 build/obj/chmtx.o
 .data          0x00000000        0x0 build/obj/chmtx.o
 .bss           0x00000000        0x0 build/obj/chmtx.o
 .text.chMtxTryLockS
                0x00000000       0x30 build/obj/chmtx.o
 .text.chMtxTryLock
                0x00000000       0x30 build/obj/chmtx.o
 .text.chMtxUnlockS
                0x00000000       0x60 build/obj/chmtx.o
 .text.chMtxUnlockAll
                0x00000000       0x60 build/obj/chmtx.o
 .text          0x00000000        0x0 build/obj/chcond.o
 .data          0x00000000        0x0 build/obj/chcond.o
 .bss           0x00000000        0x0 build/obj/chcond.o
 .text.chCondInit
                0x00000000       0x10 build/obj/chcond.o
 .text.chCondSignal
                0x00000000       0x30 build/obj/chcond.o
 .text.chCondSignalI
                0x00000000       0x20 build/obj/chcond.o
 .text.chCondBroadcastI
                0x00000000       0x30 build/obj/chcond.o
 .text.chCondBroadcast
                0x00000000       0x30 build/obj/chcond.o
 .text.chCondWaitS
                0x00000000       0x50 build/obj/chcond.o
 .text.chCondWait
                0x00000000       0x30 build/obj/chcond.o
 .text.chCondWaitTimeoutS
                0x00000000       0x50 build/obj/chcond.o
 .text.chCondWaitTimeout
                0x00000000       0x30 build/obj/chcond.o
 .debug_info    0x00000000      0xa95 build/obj/chcond.o
 .debug_abbrev  0x00000000      0x2f4 build/obj/chcond.o
 .debug_loc     0x00000000      0x486 build/obj/chcond.o
 .debug_aranges
                0x00000000       0x60 build/obj/chcond.o
 .debug_ranges  0x00000000      0x138 build/obj/chcond.o
 .debug_line    0x00000000      0x2be build/obj/chcond.o
 .debug_str     0x00000000      0x434 build/obj/chcond.o
 .comment       0x00000000       0x71 build/obj/chcond.o
 .ARM.attributes
                0x00000000       0x33 build/obj/chcond.o
 .debug_frame   0x00000000      0x120 build/obj/chcond.o
 .text          0x00000000        0x0 build/obj/chevents.o
 .data          0x00000000        0x0 build/obj/chevents.o
 .bss           0x00000000        0x0 build/obj/chevents.o
 .text.chEvtRegisterMask
                0x00000000       0x40 build/obj/chevents.o
 .text.chEvtUnregister
                0x00000000       0x30 build/obj/chevents.o
 .text.chEvtGetAndClearEvents
                0x00000000       0x30 build/obj/chevents.o
 .text.chEvtAddEvents
                0x00000000       0x30 build/obj/chevents.o
 .text.chEvtGetAndClearFlags
                0x00000000       0x30 build/obj/chevents.o
 .text.chEvtSignal
                0x00000000       0x30 build/obj/chevents.o
 .text.chEvtBroadcastFlags
                0x00000000       0x30 build/obj/chevents.o
 .text.chEvtGetAndClearFlagsI
                0x00000000       0x10 build/obj/chevents.o
 .text.chEvtDispatch
                0x00000000       0x30 build/obj/chevents.o
 .text.chEvtWaitOne
                0x00000000       0x50 build/obj/chevents.o
 .text.chEvtWaitAny
                0x00000000       0x40 build/obj/chevents.o
 .text.chEvtWaitAll
                0x00000000       0x40 build/obj/chevents.o
 .text.chEvtWaitOneTimeout
                0x00000000       0x60 build/obj/chevents.o
 .text.chEvtWaitAnyTimeout
                0x00000000       0x60 build/obj/chevents.o
 .text.chEvtWaitAllTimeout
                0x00000000       0x70 build/obj/chevents.o
 .text          0x00000000        0x0 build/obj/chmsg.o
 .data          0x00000000        0x0 build/obj/chmsg.o
 .bss           0x00000000        0x0 build/obj/chmsg.o
 .text          0x00000000        0x0 build/obj/chmboxes.o
 .data          0x00000000        0x0 build/obj/chmboxes.o
 .bss           0x00000000        0x0 build/obj/chmboxes.o
 .text.chMBReset
                0x00000000       0x40 build/obj/chmboxes.o
 .text.chMBPostI
                0x00000000       0x40 build/obj/chmboxes.o
 .text.chMBPostAheadS
                0x00000000       0x40 build/obj/chmboxes.o
 .text.chMBPostAhead
                0x00000000       0x30 build/obj/chmboxes.o
 .text.chMBPostAheadI
                0x00000000       0x40 build/obj/chmboxes.o
 .text.chMBFetchI
                0x00000000       0x40 build/obj/chmboxes.o
 .text          0x00000000        0x0 build/obj/chqueues.o
 .data          0x00000000        0x0 build/obj/chqueues.o
 .bss           0x00000000        0x0 build/obj/chqueues.o
 .text.chIQResetI
                0x00000000       0x30 build/obj/chqueues.o
 .text.chOQResetI
                0x00000000       0x40 build/obj/chqueues.o
 .text          0x00000000        0x0 build/obj/chmemcore.o
 .data          0x00000000        0x0 build/obj/chmemcore.o
 .bss           0x00000000        0x0 build/obj/chmemcore.o
 .text.chCoreStatus
                0x00000000       0x20 build/obj/chmemcore.o
 .text          0x00000000        0x0 build/obj/chheap.o
 .data          0x00000000        0x0 build/obj/chheap.o
 .bss           0x00000000        0x0 build/obj/chheap.o
 .text.chHeapInit
                0x00000000       0x20 build/obj/chheap.o
 .text.chHeapStatus
                0x00000000       0x40 build/obj/chheap.o
 .text          0x00000000        0x0 build/obj/chmempools.o
 .data          0x00000000        0x0 build/obj/chmempools.o
 .bss           0x00000000        0x0 build/obj/chmempools.o
 .text.chPoolInit
                0x00000000       0x10 build/obj/chmempools.o
 .text.chPoolAllocI
                0x00000000       0x20 build/obj/chmempools.o
 .text.chPoolAlloc
                0x00000000       0x30 build/obj/chmempools.o
 .text.chPoolFreeI
                0x00000000       0x20 build/obj/chmempools.o
 .text.chPoolFree
                0x00000000       0x30 build/obj/chmempools.o
 .text.chPoolLoadArray
                0x00000000       0x50 build/obj/chmempools.o
 .debug_info    0x00000000      0x43a build/obj/chmempools.o
 .debug_abbrev  0x00000000      0x22a build/obj/chmempools.o
 .debug_loc     0x00000000      0x2b3 build/obj/chmempools.o
 .debug_aranges
                0x00000000       0x48 build/obj/chmempools.o
 .debug_ranges  0x00000000       0x50 build/obj/chmempools.o
 .debug_line    0x00000000      0x21c build/obj/chmempools.o
 .debug_str     0x00000000      0x228 build/obj/chmempools.o
 .comment       0x00000000       0x71 build/obj/chmempools.o
 .ARM.attributes
                0x00000000       0x33 build/obj/chmempools.o
 .debug_frame   0x00000000       0xc0 build/obj/chmempools.o
 .text          0x00000000        0x0 build/obj/hal.o
 .data          0x00000000        0x0 build/obj/hal.o
 .bss           0x00000000        0x0 build/obj/hal.o
 .text.halIsCounterWithin
                0x00000000       0x30 build/obj/hal.o
 .text.halPolledDelay
                0x00000000       0x30 build/obj/hal.o
 .text          0x00000000        0x0 build/obj/adc.o
 .data          0x00000000        0x0 build/obj/adc.o
 .bss           0x00000000        0x0 build/obj/adc.o
 .debug_info    0x00000000       0x97 build/obj/adc.o
 .debug_abbrev  0x00000000       0x4b build/obj/adc.o
 .debug_aranges
                0x00000000       0x18 build/obj/adc.o
 .debug_line    0x00000000       0xe6 build/obj/adc.o
 .debug_str     0x00000000      0x13d build/obj/adc.o
 .comment       0x00000000       0x71 build/obj/adc.o
 .ARM.attributes
                0x00000000       0x33 build/obj/adc.o
 .text          0x00000000        0x0 build/obj/can.o
 .data          0x00000000        0x0 build/obj/can.o
 .bss           0x00000000        0x0 build/obj/can.o
 .debug_info    0x00000000       0x97 build/obj/can.o
 .debug_abbrev  0x00000000       0x4b build/obj/can.o
 .debug_aranges
                0x00000000       0x18 build/obj/can.o
 .debug_line    0x00000000       0xe6 build/obj/can.o
 .debug_str     0x00000000      0x13d build/obj/can.o
 .comment       0x00000000       0x71 build/obj/can.o
 .ARM.attributes
                0x00000000       0x33 build/obj/can.o
 .text          0x00000000        0x0 build/obj/ext.o
 .data          0x00000000        0x0 build/obj/ext.o
 .bss           0x00000000        0x0 build/obj/ext.o
 .debug_info    0x00000000       0x97 build/obj/ext.o
 .debug_abbrev  0x00000000       0x4b build/obj/ext.o
 .debug_aranges
                0x00000000       0x18 build/obj/ext.o
 .debug_line    0x00000000       0xe6 build/obj/ext.o
 .debug_str     0x00000000      0x13d build/obj/ext.o
 .comment       0x00000000       0x71 build/obj/ext.o
 .ARM.attributes
                0x00000000       0x33 build/obj/ext.o
 .text          0x00000000        0x0 build/obj/gpt.o
 .data          0x00000000        0x0 build/obj/gpt.o
 .bss           0x00000000        0x0 build/obj/gpt.o
 .debug_info    0x00000000       0x97 build/obj/gpt.o
 .debug_abbrev  0x00000000       0x4b build/obj/gpt.o
 .debug_aranges
                0x00000000       0x18 build/obj/gpt.o
 .debug_line    0x00000000       0xe6 build/obj/gpt.o
 .debug_str     0x00000000      0x13d build/obj/gpt.o
 .comment       0x00000000       0x71 build/obj/gpt.o
 .ARM.attributes
                0x00000000       0x33 build/obj/gpt.o
 .text          0x00000000        0x0 build/obj/i2c.o
 .data          0x00000000        0x0 build/obj/i2c.o
 .bss           0x00000000        0x0 build/obj/i2c.o
 .debug_info    0x00000000       0x97 build/obj/i2c.o
 .debug_abbrev  0x00000000       0x4b build/obj/i2c.o
 .debug_aranges
                0x00000000       0x18 build/obj/i2c.o
 .debug_line    0x00000000       0xe6 build/obj/i2c.o
 .debug_str     0x00000000      0x13d build/obj/i2c.o
 .comment       0x00000000       0x71 build/obj/i2c.o
 .ARM.attributes
                0x00000000       0x33 build/obj/i2c.o
 .text          0x00000000        0x0 build/obj/icu.o
 .data          0x00000000        0x0 build/obj/icu.o
 .bss           0x00000000        0x0 build/obj/icu.o
 .debug_info    0x00000000       0x97 build/obj/icu.o
 .debug_abbrev  0x00000000       0x4b build/obj/icu.o
 .debug_aranges
                0x00000000       0x18 build/obj/icu.o
 .debug_line    0x00000000       0xe6 build/obj/icu.o
 .debug_str     0x00000000      0x13d build/obj/icu.o
 .comment       0x00000000       0x71 build/obj/icu.o
 .ARM.attributes
                0x00000000       0x33 build/obj/icu.o
 .text          0x00000000        0x0 build/obj/mac.o
 .data          0x00000000        0x0 build/obj/mac.o
 .bss           0x00000000        0x0 build/obj/mac.o
 .debug_info    0x00000000       0x97 build/obj/mac.o
 .debug_abbrev  0x00000000       0x4b build/obj/mac.o
 .debug_aranges
                0x00000000       0x18 build/obj/mac.o
 .debug_line    0x00000000       0xe6 build/obj/mac.o
 .debug_str     0x00000000      0x13d build/obj/mac.o
 .comment       0x00000000       0x71 build/obj/mac.o
 .ARM.attributes
                0x00000000       0x33 build/obj/mac.o
 .text          0x00000000        0x0 build/obj/mmc_spi.o
 .data          0x00000000        0x0 build/obj/mmc_spi.o
 .bss           0x00000000        0x0 build/obj/mmc_spi.o
 .debug_info    0x00000000       0x97 build/obj/mmc_spi.o
 .debug_abbrev  0x00000000       0x4b build/obj/mmc_spi.o
 .debug_aranges
                0x00000000       0x18 build/obj/mmc_spi.o
 .debug_line    0x00000000       0xe6 build/obj/mmc_spi.o
 .debug_str     0x00000000      0x141 build/obj/mmc_spi.o
 .comment       0x00000000       0x71 build/obj/mmc_spi.o
 .ARM.attributes
                0x00000000       0x33 build/obj/mmc_spi.o
 .text          0x00000000        0x0 build/obj/mmcsd.o
 .data          0x00000000        0x0 build/obj/mmcsd.o
 .bss           0x00000000        0x0 build/obj/mmcsd.o
 .text          0x00000000        0x0 build/obj/pal.o
 .data          0x00000000        0x0 build/obj/pal.o
 .bss           0x00000000        0x0 build/obj/pal.o
 .text.palReadBus
                0x00000000       0x10 build/obj/pal.o
 .text.palWriteBus
                0x00000000       0x20 build/obj/pal.o
 .text          0x00000000        0x0 build/obj/pwm.o
 .data          0x00000000        0x0 build/obj/pwm.o
 .bss           0x00000000        0x0 build/obj/pwm.o
 .text.pwmStop  0x00000000       0x30 build/obj/pwm.o
 .text.pwmChangePeriod
                0x00000000       0x30 build/obj/pwm.o
 .text.pwmDisableChannel
                0x00000000       0x30 build/obj/pwm.o
 .text          0x00000000        0x0 build/obj/rtc.o
 .data          0x00000000        0x0 build/obj/rtc.o
 .bss           0x00000000        0x0 build/obj/rtc.o
 .debug_info    0x00000000       0x97 build/obj/rtc.o
 .debug_abbrev  0x00000000       0x4b build/obj/rtc.o
 .debug_aranges
                0x00000000       0x18 build/obj/rtc.o
 .debug_line    0x00000000       0xe6 build/obj/rtc.o
 .debug_str     0x00000000      0x13d build/obj/rtc.o
 .comment       0x00000000       0x71 build/obj/rtc.o
 .ARM.attributes
                0x00000000       0x33 build/obj/rtc.o
 .text          0x00000000        0x0 build/obj/sdc.o
 .data          0x00000000        0x0 build/obj/sdc.o
 .bss           0x00000000        0x0 build/obj/sdc.o
 .text.sdcStop  0x00000000       0x30 build/obj/sdc.o
 .text.sdcGetAndClearErrors
                0x00000000       0x30 build/obj/sdc.o
 .text.sdcErase
                0x00000000       0x90 build/obj/sdc.o
 .text          0x00000000        0x0 build/obj/serial.o
 .data          0x00000000        0x0 build/obj/serial.o
 .bss           0x00000000        0x0 build/obj/serial.o
 .text.sdStop   0x00000000       0x40 build/obj/serial.o
 .text.sdRequestDataI
                0x00000000       0x30 build/obj/serial.o
 .text          0x00000000        0x0 build/obj/serial_usb.o
 .data          0x00000000        0x0 build/obj/serial_usb.o
 .bss           0x00000000        0x0 build/obj/serial_usb.o
 .debug_info    0x00000000       0x97 build/obj/serial_usb.o
 .debug_abbrev  0x00000000       0x4b build/obj/serial_usb.o
 .debug_aranges
                0x00000000       0x18 build/obj/serial_usb.o
 .debug_line    0x00000000       0xe6 build/obj/serial_usb.o
 .debug_str     0x00000000      0x144 build/obj/serial_usb.o
 .comment       0x00000000       0x71 build/obj/serial_usb.o
 .ARM.attributes
                0x00000000       0x33 build/obj/serial_usb.o
 .text          0x00000000        0x0 build/obj/spi.o
 .data          0x00000000        0x0 build/obj/spi.o
 .bss           0x00000000        0x0 build/obj/spi.o
 .text.spiStop  0x00000000       0x30 build/obj/spi.o
 .text.spiSelect
                0x00000000       0x20 build/obj/spi.o
 .text.spiUnselect
                0x00000000       0x20 build/obj/spi.o
 .text.spiStartIgnore
                0x00000000       0x30 build/obj/spi.o
 .text.spiStartExchange
                0x00000000       0x30 build/obj/spi.o
 .text.spiStartSend
                0x00000000       0x30 build/obj/spi.o
 .text.spiStartReceive
                0x00000000       0x30 build/obj/spi.o
 .text.spiIgnore
                0x00000000       0x40 build/obj/spi.o
 .text.spiSend  0x00000000       0x40 build/obj/spi.o
 .text.spiReceive
                0x00000000       0x40 build/obj/spi.o
 .text          0x00000000        0x0 build/obj/tm.o
 .data          0x00000000        0x0 build/obj/tm.o
 .bss           0x00000000        0x0 build/obj/tm.o
 .debug_info    0x00000000       0x97 build/obj/tm.o
 .debug_abbrev  0x00000000       0x4b build/obj/tm.o
 .debug_aranges
                0x00000000       0x18 build/obj/tm.o
 .debug_line    0x00000000       0xe6 build/obj/tm.o
 .debug_str     0x00000000      0x13c build/obj/tm.o
 .comment       0x00000000       0x71 build/obj/tm.o
 .ARM.attributes
                0x00000000       0x33 build/obj/tm.o
 .text          0x00000000        0x0 build/obj/uart.o
 .data          0x00000000        0x0 build/obj/uart.o
 .bss           0x00000000        0x0 build/obj/uart.o
 .debug_info    0x00000000       0x97 build/obj/uart.o
 .debug_abbrev  0x00000000       0x4b build/obj/uart.o
 .debug_aranges
                0x00000000       0x18 build/obj/uart.o
 .debug_line    0x00000000       0xe6 build/obj/uart.o
 .debug_str     0x00000000      0x13e build/obj/uart.o
 .comment       0x00000000       0x71 build/obj/uart.o
 .ARM.attributes
                0x00000000       0x33 build/obj/uart.o
 .text          0x00000000        0x0 build/obj/usb.o
 .data          0x00000000        0x0 build/obj/usb.o
 .bss           0x00000000        0x0 build/obj/usb.o
 .debug_info    0x00000000       0x97 build/obj/usb.o
 .debug_abbrev  0x00000000       0x4b build/obj/usb.o
 .debug_aranges
                0x00000000       0x18 build/obj/usb.o
 .debug_line    0x00000000       0xe6 build/obj/usb.o
 .debug_str     0x00000000      0x13d build/obj/usb.o
 .comment       0x00000000       0x71 build/obj/usb.o
 .ARM.attributes
                0x00000000       0x33 build/obj/usb.o
 .text          0x00000000        0x0 build/obj/stm32_dma.o
 .data          0x00000000        0x0 build/obj/stm32_dma.o
 .bss           0x00000000        0x0 build/obj/stm32_dma.o
 .text.dmaStreamRelease
                0x00000000       0x50 build/obj/stm32_dma.o
 .text          0x00000000        0x0 build/obj/hal_lld.o
 .data          0x00000000        0x0 build/obj/hal_lld.o
 .bss           0x00000000        0x0 build/obj/hal_lld.o
 .text          0x00000000        0x0 build/obj/adc_lld.o
 .data          0x00000000        0x0 build/obj/adc_lld.o
 .bss           0x00000000        0x0 build/obj/adc_lld.o
 .debug_info    0x00000000       0x97 build/obj/adc_lld.o
 .debug_abbrev  0x00000000       0x4b build/obj/adc_lld.o
 .debug_aranges
                0x00000000       0x18 build/obj/adc_lld.o
 .debug_line    0x00000000       0xe6 build/obj/adc_lld.o
 .debug_str     0x00000000      0x151 build/obj/adc_lld.o
 .comment       0x00000000       0x71 build/obj/adc_lld.o
 .ARM.attributes
                0x00000000       0x33 build/obj/adc_lld.o
 .text          0x00000000        0x0 build/obj/ext_lld_isr.o
 .data          0x00000000        0x0 build/obj/ext_lld_isr.o
 .bss           0x00000000        0x0 build/obj/ext_lld_isr.o
 .debug_info    0x00000000       0x97 build/obj/ext_lld_isr.o
 .debug_abbrev  0x00000000       0x4b build/obj/ext_lld_isr.o
 .debug_aranges
                0x00000000       0x18 build/obj/ext_lld_isr.o
 .debug_line    0x00000000       0xe6 build/obj/ext_lld_isr.o
 .debug_str     0x00000000      0x155 build/obj/ext_lld_isr.o
 .comment       0x00000000       0x71 build/obj/ext_lld_isr.o
 .ARM.attributes
                0x00000000       0x33 build/obj/ext_lld_isr.o
 .text          0x00000000        0x0 build/obj/can_lld.o
 .data          0x00000000        0x0 build/obj/can_lld.o
 .bss           0x00000000        0x0 build/obj/can_lld.o
 .debug_info    0x00000000       0x97 build/obj/can_lld.o
 .debug_abbrev  0x00000000       0x4b build/obj/can_lld.o
 .debug_aranges
                0x00000000       0x18 build/obj/can_lld.o
 .debug_line    0x00000000       0xe6 build/obj/can_lld.o
 .debug_str     0x00000000      0x14d build/obj/can_lld.o
 .comment       0x00000000       0x71 build/obj/can_lld.o
 .ARM.attributes
                0x00000000       0x33 build/obj/can_lld.o
 .text          0x00000000        0x0 build/obj/ext_lld.o
 .data          0x00000000        0x0 build/obj/ext_lld.o
 .bss           0x00000000        0x0 build/obj/ext_lld.o
 .debug_info    0x00000000       0x97 build/obj/ext_lld.o
 .debug_abbrev  0x00000000       0x4b build/obj/ext_lld.o
 .debug_aranges
                0x00000000       0x18 build/obj/ext_lld.o
 .debug_line    0x00000000       0xe6 build/obj/ext_lld.o
 .debug_str     0x00000000      0x14d build/obj/ext_lld.o
 .comment       0x00000000       0x71 build/obj/ext_lld.o
 .ARM.attributes
                0x00000000       0x33 build/obj/ext_lld.o
 .text          0x00000000        0x0 build/obj/mac_lld.o
 .data          0x00000000        0x0 build/obj/mac_lld.o
 .bss           0x00000000        0x0 build/obj/mac_lld.o
 .debug_info    0x00000000       0x97 build/obj/mac_lld.o
 .debug_abbrev  0x00000000       0x4b build/obj/mac_lld.o
 .debug_aranges
                0x00000000       0x18 build/obj/mac_lld.o
 .debug_line    0x00000000       0xe6 build/obj/mac_lld.o
 .debug_str     0x00000000      0x14d build/obj/mac_lld.o
 .comment       0x00000000       0x71 build/obj/mac_lld.o
 .ARM.attributes
                0x00000000       0x33 build/obj/mac_lld.o
 .text          0x00000000        0x0 build/obj/sdc_lld.o
 .data          0x00000000        0x0 build/obj/sdc_lld.o
 .bss           0x00000000        0x0 build/obj/sdc_lld.o
 .text.sdc_lld_stop
                0x00000000       0x40 build/obj/sdc_lld.o
 .text          0x00000000        0x0 build/obj/pal_lld.o
 .data          0x00000000        0x0 build/obj/pal_lld.o
 .bss           0x00000000        0x0 build/obj/pal_lld.o
 .text          0x00000000        0x0 build/obj/i2c_lld.o
 .data          0x00000000        0x0 build/obj/i2c_lld.o
 .bss           0x00000000        0x0 build/obj/i2c_lld.o
 .debug_info    0x00000000       0x97 build/obj/i2c_lld.o
 .debug_abbrev  0x00000000       0x4b build/obj/i2c_lld.o
 .debug_aranges
                0x00000000       0x18 build/obj/i2c_lld.o
 .debug_line    0x00000000       0xe6 build/obj/i2c_lld.o
 .debug_str     0x00000000      0x153 build/obj/i2c_lld.o
 .comment       0x00000000       0x71 build/obj/i2c_lld.o
 .ARM.attributes
                0x00000000       0x33 build/obj/i2c_lld.o
 .text          0x00000000        0x0 build/obj/usb_lld.o
 .data          0x00000000        0x0 build/obj/usb_lld.o
 .bss           0x00000000        0x0 build/obj/usb_lld.o
 .debug_info    0x00000000       0x97 build/obj/usb_lld.o
 .debug_abbrev  0x00000000       0x4b build/obj/usb_lld.o
 .debug_aranges
                0x00000000       0x18 build/obj/usb_lld.o
 .debug_line    0x00000000       0xe6 build/obj/usb_lld.o
 .debug_str     0x00000000      0x153 build/obj/usb_lld.o
 .comment       0x00000000       0x71 build/obj/usb_lld.o
 .ARM.attributes
                0x00000000       0x33 build/obj/usb_lld.o
 .text          0x00000000        0x0 build/obj/rtc_lld.o
 .data          0x00000000        0x0 build/obj/rtc_lld.o
 .bss           0x00000000        0x0 build/obj/rtc_lld.o
 .debug_info    0x00000000       0x97 build/obj/rtc_lld.o
 .debug_abbrev  0x00000000       0x4b build/obj/rtc_lld.o
 .debug_aranges
                0x00000000       0x18 build/obj/rtc_lld.o
 .debug_line    0x00000000       0xe6 build/obj/rtc_lld.o
 .debug_str     0x00000000      0x153 build/obj/rtc_lld.o
 .comment       0x00000000       0x71 build/obj/rtc_lld.o
 .ARM.attributes
                0x00000000       0x33 build/obj/rtc_lld.o
 .text          0x00000000        0x0 build/obj/spi_lld.o
 .data          0x00000000        0x0 build/obj/spi_lld.o
 .bss           0x00000000        0x0 build/obj/spi_lld.o
 .text.spi_lld_stop
                0x00000000       0x40 build/obj/spi_lld.o
 .text.spi_lld_select
                0x00000000       0x20 build/obj/spi_lld.o
 .text.spi_lld_unselect
                0x00000000       0x20 build/obj/spi_lld.o
 .text.spi_lld_ignore
                0x00000000       0x40 build/obj/spi_lld.o
 .text.spi_lld_send
                0x00000000       0x40 build/obj/spi_lld.o
 .text.spi_lld_receive
                0x00000000       0x40 build/obj/spi_lld.o
 .text.spi_lld_polled_exchange
                0x00000000       0x10 build/obj/spi_lld.o
 .bss.dummyrx   0x00000000        0x2 build/obj/spi_lld.o
 .text          0x00000000        0x0 build/obj/gpt_lld.o
 .data          0x00000000        0x0 build/obj/gpt_lld.o
 .bss           0x00000000        0x0 build/obj/gpt_lld.o
 .debug_info    0x00000000       0x97 build/obj/gpt_lld.o
 .debug_abbrev  0x00000000       0x4b build/obj/gpt_lld.o
 .debug_aranges
                0x00000000       0x18 build/obj/gpt_lld.o
 .debug_line    0x00000000       0xe6 build/obj/gpt_lld.o
 .debug_str     0x00000000      0x153 build/obj/gpt_lld.o
 .comment       0x00000000       0x71 build/obj/gpt_lld.o
 .ARM.attributes
                0x00000000       0x33 build/obj/gpt_lld.o
 .text          0x00000000        0x0 build/obj/icu_lld.o
 .data          0x00000000        0x0 build/obj/icu_lld.o
 .bss           0x00000000        0x0 build/obj/icu_lld.o
 .debug_info    0x00000000       0x97 build/obj/icu_lld.o
 .debug_abbrev  0x00000000       0x4b build/obj/icu_lld.o
 .debug_aranges
                0x00000000       0x18 build/obj/icu_lld.o
 .debug_line    0x00000000       0xe6 build/obj/icu_lld.o
 .debug_str     0x00000000      0x153 build/obj/icu_lld.o
 .comment       0x00000000       0x71 build/obj/icu_lld.o
 .ARM.attributes
                0x00000000       0x33 build/obj/icu_lld.o
 .text          0x00000000        0x0 build/obj/pwm_lld.o
 .data          0x00000000        0x0 build/obj/pwm_lld.o
 .bss           0x00000000        0x0 build/obj/pwm_lld.o
 .text.pwm_lld_stop
                0x00000000       0x40 build/obj/pwm_lld.o
 .text.pwm_lld_disable_channel
                0x00000000       0x20 build/obj/pwm_lld.o
 .text          0x00000000        0x0 build/obj/serial_lld.o
 .data          0x00000000        0x0 build/obj/serial_lld.o
 .bss           0x00000000        0x0 build/obj/serial_lld.o
 .text.sd_lld_stop
                0x00000000       0x40 build/obj/serial_lld.o
 .text          0x00000000        0x0 build/obj/uart_lld.o
 .data          0x00000000        0x0 build/obj/uart_lld.o
 .bss           0x00000000        0x0 build/obj/uart_lld.o
 .debug_info    0x00000000       0x97 build/obj/uart_lld.o
 .debug_abbrev  0x00000000       0x4b build/obj/uart_lld.o
 .debug_aranges
                0x00000000       0x18 build/obj/uart_lld.o
 .debug_line    0x00000000       0xe6 build/obj/uart_lld.o
 .debug_str     0x00000000      0x156 build/obj/uart_lld.o
 .comment       0x00000000       0x71 build/obj/uart_lld.o
 .ARM.attributes
                0x00000000       0x33 build/obj/uart_lld.o
 .text          0x00000000        0x0 build/obj/board.o
 .data          0x00000000        0x0 build/obj/board.o
 .bss           0x00000000        0x0 build/obj/board.o
 .text          0x00000000        0x0 build/obj/gfx.o
 .data          0x00000000        0x0 build/obj/gfx.o
 .bss           0x00000000        0x0 build/obj/gfx.o
 .text.gfxDeinit
                0x00000000       0x40 build/obj/gfx.o
 .text          0x00000000        0x0 build/obj/gos_chibios.o
 .data          0x00000000        0x0 build/obj/gos_chibios.o
 .bss           0x00000000        0x0 build/obj/gos_chibios.o
 .text._gosDeinit
                0x00000000       0x10 build/obj/gos_chibios.o
 .text.gfxRealloc
                0x00000000       0x30 build/obj/gos_chibios.o
 .text.gfxSemDestroy
                0x00000000       0x10 build/obj/gos_chibios.o
 .text.gfxSemWaitI
                0x00000000       0x20 build/obj/gos_chibios.o
 .text.gfxSemSignalI
                0x00000000       0x10 build/obj/gos_chibios.o
 .text          0x00000000        0x0 build/obj/gos_freertos.o
 .data          0x00000000        0x0 build/obj/gos_freertos.o
 .bss           0x00000000        0x0 build/obj/gos_freertos.o
 .debug_info    0x00000000       0x97 build/obj/gos_freertos.o
 .debug_abbrev  0x00000000       0x4b build/obj/gos_freertos.o
 .debug_aranges
                0x00000000       0x18 build/obj/gos_freertos.o
 .debug_line    0x00000000       0xe6 build/obj/gos_freertos.o
 .debug_str     0x00000000      0x140 build/obj/gos_freertos.o
 .comment       0x00000000       0x71 build/obj/gos_freertos.o
 .ARM.attributes
                0x00000000       0x33 build/obj/gos_freertos.o
 .text          0x00000000        0x0 build/obj/gos_win32.o
 .data          0x00000000        0x0 build/obj/gos_win32.o
 .bss           0x00000000        0x0 build/obj/gos_win32.o
 .debug_info    0x00000000       0x97 build/obj/gos_win32.o
 .debug_abbrev  0x00000000       0x4b build/obj/gos_win32.o
 .debug_aranges
                0x00000000       0x18 build/obj/gos_win32.o
 .debug_line    0x00000000       0xe6 build/obj/gos_win32.o
 .debug_str     0x00000000      0x13d build/obj/gos_win32.o
 .comment       0x00000000       0x71 build/obj/gos_win32.o
 .ARM.attributes
                0x00000000       0x33 build/obj/gos_win32.o
 .text          0x00000000        0x0 build/obj/gos_linux.o
 .data          0x00000000        0x0 build/obj/gos_linux.o
 .bss           0x00000000        0x0 build/obj/gos_linux.o
 .debug_info    0x00000000       0x97 build/obj/gos_linux.o
 .debug_abbrev  0x00000000       0x4b build/obj/gos_linux.o
 .debug_aranges
                0x00000000       0x18 build/obj/gos_linux.o
 .debug_line    0x00000000       0xe6 build/obj/gos_linux.o
 .debug_str     0x00000000      0x13d build/obj/gos_linux.o
 .comment       0x00000000       0x71 build/obj/gos_linux.o
 .ARM.attributes
                0x00000000       0x33 build/obj/gos_linux.o
 .text          0x00000000        0x0 build/obj/gos_osx.o
 .data          0x00000000        0x0 build/obj/gos_osx.o
 .bss           0x00000000        0x0 build/obj/gos_osx.o
 .debug_info    0x00000000       0x97 build/obj/gos_osx.o
 .debug_abbrev  0x00000000       0x4b build/obj/gos_osx.o
 .debug_aranges
                0x00000000       0x18 build/obj/gos_osx.o
 .debug_line    0x00000000       0xe6 build/obj/gos_osx.o
 .debug_str     0x00000000      0x13b build/obj/gos_osx.o
 .comment       0x00000000       0x71 build/obj/gos_osx.o
 .ARM.attributes
                0x00000000       0x33 build/obj/gos_osx.o
 .text          0x00000000        0x0 build/obj/gos_raw32.o
 .data          0x00000000        0x0 build/obj/gos_raw32.o
 .bss           0x00000000        0x0 build/obj/gos_raw32.o
 .debug_info    0x00000000       0x97 build/obj/gos_raw32.o
 .debug_abbrev  0x00000000       0x4b build/obj/gos_raw32.o
 .debug_aranges
                0x00000000       0x18 build/obj/gos_raw32.o
 .debug_line    0x00000000       0xe6 build/obj/gos_raw32.o
 .debug_str     0x00000000      0x13d build/obj/gos_raw32.o
 .comment       0x00000000       0x71 build/obj/gos_raw32.o
 .ARM.attributes
                0x00000000       0x33 build/obj/gos_raw32.o
 .text          0x00000000        0x0 build/obj/gos_ecos.o
 .data          0x00000000        0x0 build/obj/gos_ecos.o
 .bss           0x00000000        0x0 build/obj/gos_ecos.o
 .debug_info    0x00000000       0x97 build/obj/gos_ecos.o
 .debug_abbrev  0x00000000       0x4b build/obj/gos_ecos.o
 .debug_aranges
                0x00000000       0x18 build/obj/gos_ecos.o
 .debug_line    0x00000000       0xe6 build/obj/gos_ecos.o
 .debug_str     0x00000000      0x13c build/obj/gos_ecos.o
 .comment       0x00000000       0x71 build/obj/gos_ecos.o
 .ARM.attributes
                0x00000000       0x33 build/obj/gos_ecos.o
 .text          0x00000000        0x0 build/obj/gos_rawrtos.o
 .data          0x00000000        0x0 build/obj/gos_rawrtos.o
 .bss           0x00000000        0x0 build/obj/gos_rawrtos.o
 .debug_info    0x00000000       0x97 build/obj/gos_rawrtos.o
 .debug_abbrev  0x00000000       0x4b build/obj/gos_rawrtos.o
 .debug_aranges
                0x00000000       0x18 build/obj/gos_rawrtos.o
 .debug_line    0x00000000       0xe6 build/obj/gos_rawrtos.o
 .debug_str     0x00000000      0x13f build/obj/gos_rawrtos.o
 .comment       0x00000000       0x71 build/obj/gos_rawrtos.o
 .ARM.attributes
                0x00000000       0x33 build/obj/gos_rawrtos.o
 .text          0x00000000        0x0 build/obj/gdriver.o
 .data          0x00000000        0x0 build/obj/gdriver.o
 .bss           0x00000000        0x0 build/obj/gdriver.o
 .text.gdriverUnRegister
                0x00000000       0x40 build/obj/gdriver.o
 .text._gdriverDeinit
                0x00000000       0x20 build/obj/gdriver.o
 .text.gdriverInstanceCount
                0x00000000       0x30 build/obj/gdriver.o
 .text.gdriverGetDriverInstanceNumber
                0x00000000       0x40 build/obj/gdriver.o
 .text          0x00000000        0x0 build/obj/gqueue.o
 .data          0x00000000        0x0 build/obj/gqueue.o
 .bss           0x00000000        0x0 build/obj/gqueue.o
 .text._gqueueDeinit
                0x00000000       0x10 build/obj/gqueue.o
 .text.gfxQueueASyncGetI
                0x00000000       0x10 build/obj/gqueue.o
 .text.gfxQueueASyncPutI
                0x00000000       0x20 build/obj/gqueue.o
 .text.gfxQueueASyncPush
                0x00000000       0x30 build/obj/gqueue.o
 .text.gfxQueueASyncPushI
                0x00000000       0x10 build/obj/gqueue.o
 .text.gfxQueueASyncInsertI
                0x00000000       0x40 build/obj/gqueue.o
 .text.gfxQueueASyncInsert
                0x00000000       0x30 build/obj/gqueue.o
 .text.gfxQueueASyncIsIn
                0x00000000       0x40 build/obj/gqueue.o
 .text.gfxQueueASyncIsInI
                0x00000000       0x20 build/obj/gqueue.o
 .text          0x00000000        0x0 build/obj/gdisp.o
 .data          0x00000000        0x0 build/obj/gdisp.o
 .bss           0x00000000        0x0 build/obj/gdisp.o
 .text._gdispDeinit
                0x00000000       0x10 build/obj/gdisp.o
 .text.gdispGetDisplay
                0x00000000       0x10 build/obj/gdisp.o
 .text.gdispSetDisplay
                0x00000000       0x10 build/obj/gdisp.o
 .text.gdispGetDisplayCount
                0x00000000       0x10 build/obj/gdisp.o
 .text.gdispGGetPowerMode
                0x00000000       0x10 build/obj/gdisp.o
 .text.gdispGGetBacklight
                0x00000000       0x10 build/obj/gdisp.o
 .text.gdispGGetContrast
                0x00000000       0x10 build/obj/gdisp.o
 .text.gdispGFlush
                0x00000000       0x10 build/obj/gdisp.o
 .text.gdispGDrawCircle
                0x00000000      0x8e0 build/obj/gdisp.o
 .text.gdispGFillCircle
                0x00000000      0x270 build/obj/gdisp.o
 .text.gdispGDrawChar
                0x00000000       0x80 build/obj/gdisp.o
 .text.gdispGFillChar
                0x00000000      0x1b0 build/obj/gdisp.o
 .text.gdispGDrawString
                0x00000000       0x90 build/obj/gdisp.o
 .text.gdispGFillString
                0x00000000      0x190 build/obj/gdisp.o
 .text.gdispGetCharWidth
                0x00000000       0x10 build/obj/gdisp.o
 .text.gdispContrastColor
                0x00000000       0x40 build/obj/gdisp.o
 .text          0x00000000        0x0 build/obj/gdisp_fonts.o
 .data          0x00000000        0x0 build/obj/gdisp_fonts.o
 .bss           0x00000000        0x0 build/obj/gdisp_fonts.o
 .text.gdispScaleFont
                0x00000000       0x20 build/obj/gdisp_fonts.o
 .text.gdispGetFontName
                0x00000000       0x10 build/obj/gdisp_fonts.o
 .text          0x00000000        0x0 build/obj/gdisp_pixmap.o
 .data          0x00000000        0x0 build/obj/gdisp_pixmap.o
 .bss           0x00000000        0x0 build/obj/gdisp_pixmap.o
 .debug_info    0x00000000       0x97 build/obj/gdisp_pixmap.o
 .debug_abbrev  0x00000000       0x4b build/obj/gdisp_pixmap.o
 .debug_aranges
                0x00000000       0x18 build/obj/gdisp_pixmap.o
 .debug_line    0x00000000       0xe6 build/obj/gdisp_pixmap.o
 .debug_str     0x00000000      0x142 build/obj/gdisp_pixmap.o
 .comment       0x00000000       0x71 build/obj/gdisp_pixmap.o
 .ARM.attributes
                0x00000000       0x33 build/obj/gdisp_pixmap.o
 .text          0x00000000        0x0 build/obj/gdisp_image.o
 .data          0x00000000        0x0 build/obj/gdisp_image.o
 .bss           0x00000000        0x0 build/obj/gdisp_image.o
 .text.gdispImageOpen
                0x00000000       0x10 build/obj/gdisp_image.o
 .text.gdispImageCache
                0x00000000       0x20 build/obj/gdisp_image.o
 .text.gdispImageNext
                0x00000000       0x20 build/obj/gdisp_image.o
 .text          0x00000000        0x0 build/obj/gdisp_image_native.o
 .data          0x00000000        0x0 build/obj/gdisp_image_native.o
 .bss           0x00000000        0x0 build/obj/gdisp_image_native.o
 .debug_info    0x00000000       0x97 build/obj/gdisp_image_native.o
 .debug_abbrev  0x00000000       0x4b build/obj/gdisp_image_native.o
 .debug_aranges
                0x00000000       0x18 build/obj/gdisp_image_native.o
 .debug_line    0x00000000       0xe6 build/obj/gdisp_image_native.o
 .debug_str     0x00000000      0x148 build/obj/gdisp_image_native.o
 .comment       0x00000000       0x71 build/obj/gdisp_image_native.o
 .ARM.attributes
                0x00000000       0x33 build/obj/gdisp_image_native.o
 .text          0x00000000        0x0 build/obj/gdisp_image_gif.o
 .data          0x00000000        0x0 build/obj/gdisp_image_gif.o
 .bss           0x00000000        0x0 build/obj/gdisp_image_gif.o
 .text          0x00000000        0x0 build/obj/gdisp_image_bmp.o
 .data          0x00000000        0x0 build/obj/gdisp_image_bmp.o
 .bss           0x00000000        0x0 build/obj/gdisp_image_bmp.o
 .debug_info    0x00000000       0x97 build/obj/gdisp_image_bmp.o
 .debug_abbrev  0x00000000       0x4b build/obj/gdisp_image_bmp.o
 .debug_aranges
                0x00000000       0x18 build/obj/gdisp_image_bmp.o
 .debug_line    0x00000000       0xe6 build/obj/gdisp_image_bmp.o
 .debug_str     0x00000000      0x145 build/obj/gdisp_image_bmp.o
 .comment       0x00000000       0x71 build/obj/gdisp_image_bmp.o
 .ARM.attributes
                0x00000000       0x33 build/obj/gdisp_image_bmp.o
 .text          0x00000000        0x0 build/obj/gdisp_image_jpg.o
 .data          0x00000000        0x0 build/obj/gdisp_image_jpg.o
 .bss           0x00000000        0x0 build/obj/gdisp_image_jpg.o
 .debug_info    0x00000000       0x97 build/obj/gdisp_image_jpg.o
 .debug_abbrev  0x00000000       0x4b build/obj/gdisp_image_jpg.o
 .debug_aranges
                0x00000000       0x18 build/obj/gdisp_image_jpg.o
 .debug_line    0x00000000       0xe6 build/obj/gdisp_image_jpg.o
 .debug_str     0x00000000      0x145 build/obj/gdisp_image_jpg.o
 .comment       0x00000000       0x71 build/obj/gdisp_image_jpg.o
 .ARM.attributes
                0x00000000       0x33 build/obj/gdisp_image_jpg.o
 .text          0x00000000        0x0 build/obj/gdisp_image_png.o
 .data          0x00000000        0x0 build/obj/gdisp_image_png.o
 .bss           0x00000000        0x0 build/obj/gdisp_image_png.o
 .debug_info    0x00000000       0x97 build/obj/gdisp_image_png.o
 .debug_abbrev  0x00000000       0x4b build/obj/gdisp_image_png.o
 .debug_aranges
                0x00000000       0x18 build/obj/gdisp_image_png.o
 .debug_line    0x00000000       0xe6 build/obj/gdisp_image_png.o
 .debug_str     0x00000000      0x145 build/obj/gdisp_image_png.o
 .comment       0x00000000       0x71 build/obj/gdisp_image_png.o
 .ARM.attributes
                0x00000000       0x33 build/obj/gdisp_image_png.o
 .text          0x00000000        0x0 build/obj/mf_encoding.o
 .data          0x00000000        0x0 build/obj/mf_encoding.o
 .bss           0x00000000        0x0 build/obj/mf_encoding.o
 .text          0x00000000        0x0 build/obj/mf_font.o
 .data          0x00000000        0x0 build/obj/mf_font.o
 .bss           0x00000000        0x0 build/obj/mf_font.o
 .text.mf_find_font
                0x00000000       0x60 build/obj/mf_font.o
 .text          0x00000000        0x0 build/obj/mf_justify.o
 .data          0x00000000        0x0 build/obj/mf_justify.o
 .bss           0x00000000        0x0 build/obj/mf_justify.o
 .text.mf_render_justified
                0x00000000       0x10 build/obj/mf_justify.o
 .text          0x00000000        0x0 build/obj/mf_kerning.o
 .data          0x00000000        0x0 build/obj/mf_kerning.o
 .bss           0x00000000        0x0 build/obj/mf_kerning.o
 .debug_info    0x00000000       0x97 build/obj/mf_kerning.o
 .debug_abbrev  0x00000000       0x4b build/obj/mf_kerning.o
 .debug_aranges
                0x00000000       0x18 build/obj/mf_kerning.o
 .debug_line    0x00000000       0xe6 build/obj/mf_kerning.o
 .debug_str     0x00000000      0x148 build/obj/mf_kerning.o
 .comment       0x00000000       0x71 build/obj/mf_kerning.o
 .ARM.attributes
                0x00000000       0x33 build/obj/mf_kerning.o
 .text          0x00000000        0x0 build/obj/mf_rlefont.o
 .data          0x00000000        0x0 build/obj/mf_rlefont.o
 .bss           0x00000000        0x0 build/obj/mf_rlefont.o
 .text          0x00000000        0x0 build/obj/mf_bwfont.o
 .data          0x00000000        0x0 build/obj/mf_bwfont.o
 .bss           0x00000000        0x0 build/obj/mf_bwfont.o
 .text.mf_bwfont_render_character
                0x00000000      0x2b0 build/obj/mf_bwfont.o
 .text.mf_bwfont_character_width
                0x00000000       0x90 build/obj/mf_bwfont.o
 .debug_info    0x00000000      0x7b3 build/obj/mf_bwfont.o
 .debug_abbrev  0x00000000      0x1b8 build/obj/mf_bwfont.o
 .debug_loc     0x00000000      0x818 build/obj/mf_bwfont.o
 .debug_aranges
                0x00000000       0x28 build/obj/mf_bwfont.o
 .debug_ranges  0x00000000       0xc0 build/obj/mf_bwfont.o
 .debug_line    0x00000000      0x238 build/obj/mf_bwfont.o
 .debug_str     0x00000000      0x39f build/obj/mf_bwfont.o
 .comment       0x00000000       0x71 build/obj/mf_bwfont.o
 .ARM.attributes
                0x00000000       0x33 build/obj/mf_bwfont.o
 .debug_frame   0x00000000       0x60 build/obj/mf_bwfont.o
 .text          0x00000000        0x0 build/obj/mf_scaledfont.o
 .data          0x00000000        0x0 build/obj/mf_scaledfont.o
 .bss           0x00000000        0x0 build/obj/mf_scaledfont.o
 .text.mf_scale_font
                0x00000000       0x80 build/obj/mf_scaledfont.o
 .text          0x00000000        0x0 build/obj/mf_wordwrap.o
 .data          0x00000000        0x0 build/obj/mf_wordwrap.o
 .bss           0x00000000        0x0 build/obj/mf_wordwrap.o
 .text.mf_wordwrap
                0x00000000       0xb0 build/obj/mf_wordwrap.o
 .debug_info    0x00000000      0x3f4 build/obj/mf_wordwrap.o
 .debug_abbrev  0x00000000      0x19f build/obj/mf_wordwrap.o
 .debug_loc     0x00000000      0x2aa build/obj/mf_wordwrap.o
 .debug_aranges
                0x00000000       0x20 build/obj/mf_wordwrap.o
 .debug_ranges  0x00000000       0x50 build/obj/mf_wordwrap.o
 .debug_line    0x00000000      0x1b5 build/obj/mf_wordwrap.o
 .debug_str     0x00000000      0x2bf build/obj/mf_wordwrap.o
 .comment       0x00000000       0x71 build/obj/mf_wordwrap.o
 .ARM.attributes
                0x00000000       0x33 build/obj/mf_wordwrap.o
 .debug_frame   0x00000000       0x44 build/obj/mf_wordwrap.o
 .text          0x00000000        0x0 build/obj/gevent.o
 .data          0x00000000        0x0 build/obj/gevent.o
 .bss           0x00000000        0x0 build/obj/gevent.o
 .text._geventDeinit
                0x00000000       0x10 build/obj/gevent.o
 .text.geventDetachSource
                0x00000000       0x30 build/obj/gevent.o
 .text.geventEventComplete
                0x00000000       0x10 build/obj/gevent.o
 .text          0x00000000        0x0 build/obj/gtimer.o
 .data          0x00000000        0x0 build/obj/gtimer.o
 .bss           0x00000000        0x0 build/obj/gtimer.o
 .text._gtimerDeinit
                0x00000000       0x10 build/obj/gtimer.o
 .text.gtimerInit
                0x00000000       0x10 build/obj/gtimer.o
 .text.gtimerStop
                0x00000000       0x50 build/obj/gtimer.o
 .text.gtimerDeinit
                0x00000000       0x10 build/obj/gtimer.o
 .text.gtimerJab
                0x00000000       0x30 build/obj/gtimer.o
 .text.gtimerJabI
                0x00000000       0x20 build/obj/gtimer.o
 .text          0x00000000        0x0 build/obj/gwin.o
 .data          0x00000000        0x0 build/obj/gwin.o
 .bss           0x00000000        0x0 build/obj/gwin.o
 .text._gwinDeinit
                0x00000000       0x20 build/obj/gwin.o
 .text.gwinClearInit
                0x00000000       0x30 build/obj/gwin.o
 .text.gwinSetDefaultColor
                0x00000000       0x10 build/obj/gwin.o
 .text.gwinGetDefaultColor
                0x00000000       0x10 build/obj/gwin.o
 .text.gwinGWindowCreate
                0x00000000       0x30 build/obj/gwin.o
 .text.gwinGetClassName
                0x00000000       0x10 build/obj/gwin.o
 .text.gwinGetVisible
                0x00000000       0x10 build/obj/gwin.o
 .text.gwinGetEnabled
                0x00000000       0x10 build/obj/gwin.o
 .text.gwinSetFont
                0x00000000       0x10 build/obj/gwin.o
 .text.gwinClear
                0x00000000       0x40 build/obj/gwin.o
 .text.gwinDrawPixel
                0x00000000       0x30 build/obj/gwin.o
 .text.gwinDrawLine
                0x00000000       0x50 build/obj/gwin.o
 .text.gwinDrawBox
                0x00000000       0x50 build/obj/gwin.o
 .text.gwinFillArea
                0x00000000       0x50 build/obj/gwin.o
 .text.gwinBlitArea
                0x00000000       0x60 build/obj/gwin.o
 .text.gwinDrawCircle
                0x00000000       0x40 build/obj/gwin.o
 .text.gwinFillCircle
                0x00000000       0x40 build/obj/gwin.o
 .text.gwinDrawChar
                0x00000000       0x50 build/obj/gwin.o
 .text.gwinFillChar
                0x00000000       0x50 build/obj/gwin.o
 .text.gwinDrawString
                0x00000000       0x50 build/obj/gwin.o
 .text.gwinFillString
                0x00000000       0x50 build/obj/gwin.o
 .text.gwinDrawStringBox
                0x00000000       0x60 build/obj/gwin.o
 .text.gwinFillStringBox
                0x00000000       0x70 build/obj/gwin.o
 .text.gwinDrawImage
                0x00000000       0x50 build/obj/gwin.o
 .rodata.basegwinVMT
                0x00000000       0x14 build/obj/gwin.o
 .rodata.str1.4
                0x00000000        0x8 build/obj/gwin.o
 .text          0x00000000        0x0 build/obj/gwin_widget.o
 .data          0x00000000        0x0 build/obj/gwin_widget.o
 .bss           0x00000000        0x0 build/obj/gwin_widget.o
 .text._gwidgetDeinit
                0x00000000       0x10 build/obj/gwin_widget.o
 .text.gwinGetDefaultStyle
                0x00000000       0x10 build/obj/gwin_widget.o
 .text.gwinGetStyle
                0x00000000       0x10 build/obj/gwin_widget.o
 .text.gwinSetCustomDraw
                0x00000000       0x20 build/obj/gwin_widget.o
 .text.gwinAttachMouse
                0x00000000       0x10 build/obj/gwin_widget.o
 .text          0x00000000        0x0 build/obj/gwin_wm.o
 .data          0x00000000        0x0 build/obj/gwin_wm.o
 .bss           0x00000000        0x0 build/obj/gwin_wm.o
 .text._gwmDeinit
                0x00000000       0x40 build/obj/gwin_wm.o
 .text._gwinDrawEnd
                0x00000000       0x40 build/obj/gwin_wm.o
 .text._gwinDrawStart
                0x00000000       0x50 build/obj/gwin_wm.o
 .text.gwinSetWindowManager
                0x00000000       0x30 build/obj/gwin_wm.o
 .text.gwinSetEnabled
                0x00000000       0xa0 build/obj/gwin_wm.o
 .text.gwinMove
                0x00000000       0x20 build/obj/gwin_wm.o
 .text.gwinSetMinMax
                0x00000000       0x20 build/obj/gwin_wm.o
 .text.gwinRaise
                0x00000000       0x20 build/obj/gwin_wm.o
 .text.gwinGetMinMax
                0x00000000       0x10 build/obj/gwin_wm.o
 .text.gwinRedrawDisplay
                0x00000000       0x50 build/obj/gwin_wm.o
 .bss._gwinFlashState
                0x00000000        0x1 build/obj/gwin_wm.o
 .text          0x00000000        0x0 build/obj/gwin_console.o
 .data          0x00000000        0x0 build/obj/gwin_console.o
 .bss           0x00000000        0x0 build/obj/gwin_console.o
 .text.AfterClear
                0x00000000       0x10 build/obj/gwin_console.o
 .text.ltoa_wd.constprop.1
                0x00000000       0x70 build/obj/gwin_console.o
 .text.gwinGConsoleCreate
                0x00000000       0x30 build/obj/gwin_console.o
 .text.gwinPutChar
                0x00000000      0x1a0 build/obj/gwin_console.o
 .text.gwinPutString
                0x00000000       0x20 build/obj/gwin_console.o
 .text.gwinPutCharArray
                0x00000000       0x50 build/obj/gwin_console.o
 .text.gwinPrintf
                0x00000000      0x380 build/obj/gwin_console.o
 .rodata.str1.4
                0x00000000       0x10 build/obj/gwin_console.o
 .rodata.consoleVMT
                0x00000000       0x14 build/obj/gwin_console.o
 .debug_info    0x00000000      0xb45 build/obj/gwin_console.o
 .debug_abbrev  0x00000000      0x2d5 build/obj/gwin_console.o
 .debug_loc     0x00000000      0xa68 build/obj/gwin_console.o
 .debug_aranges
                0x00000000       0x50 build/obj/gwin_console.o
 .debug_ranges  0x00000000       0x40 build/obj/gwin_console.o
 .debug_line    0x00000000      0x47b build/obj/gwin_console.o
 .debug_str     0x00000000      0x40e build/obj/gwin_console.o
 .comment       0x00000000       0x71 build/obj/gwin_console.o
 .ARM.attributes
                0x00000000       0x33 build/obj/gwin_console.o
 .debug_frame   0x00000000      0x114 build/obj/gwin_console.o
 .text          0x00000000        0x0 build/obj/gwin_graph.o
 .data          0x00000000        0x0 build/obj/gwin_graph.o
 .bss           0x00000000        0x0 build/obj/gwin_graph.o
 .text.lineto   0x00000000      0x460 build/obj/gwin_graph.o
 .text.pointto  0x00000000       0x90 build/obj/gwin_graph.o
 .text.gwinGraphSetStyle
                0x00000000       0x70 build/obj/gwin_graph.o
 .text.gwinGGraphCreate
                0x00000000       0x40 build/obj/gwin_graph.o
 .text.gwinGraphSetOrigin
                0x00000000       0x20 build/obj/gwin_graph.o
 .text.gwinGraphDrawAxis
                0x00000000      0x320 build/obj/gwin_graph.o
 .text.gwinGraphStartSet
                0x00000000       0x20 build/obj/gwin_graph.o
 .text.gwinGraphDrawPoint
                0x00000000       0x90 build/obj/gwin_graph.o
 .text.gwinGraphDrawPoints
                0x00000000      0x1f0 build/obj/gwin_graph.o
 .rodata.graphVMT
                0x00000000       0x14 build/obj/gwin_graph.o
 .rodata.str1.4
                0x00000000        0x8 build/obj/gwin_graph.o
 .rodata.GGraphDefaultStyle
                0x00000000       0x2c build/obj/gwin_graph.o
 .debug_info    0x00000000     0x1042 build/obj/gwin_graph.o
 .debug_abbrev  0x00000000      0x279 build/obj/gwin_graph.o
 .debug_loc     0x00000000      0xbd9 build/obj/gwin_graph.o
 .debug_aranges
                0x00000000       0x60 build/obj/gwin_graph.o
 .debug_ranges  0x00000000       0x50 build/obj/gwin_graph.o
 .debug_line    0x00000000      0x54e build/obj/gwin_graph.o
 .debug_str     0x00000000      0x557 build/obj/gwin_graph.o
 .comment       0x00000000       0x71 build/obj/gwin_graph.o
 .ARM.attributes
                0x00000000       0x33 build/obj/gwin_graph.o
 .debug_frame   0x00000000      0x170 build/obj/gwin_graph.o
 .text          0x00000000        0x0 build/obj/gwin_button.o
 .data          0x00000000        0x0 build/obj/gwin_button.o
 .bss           0x00000000        0x0 build/obj/gwin_button.o
 .text.gwinButtonIsPressed
                0x00000000       0x20 build/obj/gwin_button.o
 .text          0x00000000        0x0 build/obj/gwin_slider.o
 .data          0x00000000        0x0 build/obj/gwin_slider.o
 .bss           0x00000000        0x0 build/obj/gwin_slider.o
 .text.gwinSliderSendExtendedEvents
                0x00000000       0x30 build/obj/gwin_slider.o
 .text.gwinSliderDraw_Image
                0x00000000      0x240 build/obj/gwin_slider.o
 .text          0x00000000        0x0 build/obj/gwin_checkbox.o
 .data          0x00000000        0x0 build/obj/gwin_checkbox.o
 .bss           0x00000000        0x0 build/obj/gwin_checkbox.o
 .debug_info    0x00000000       0x97 build/obj/gwin_checkbox.o
 .debug_abbrev  0x00000000       0x4b build/obj/gwin_checkbox.o
 .debug_aranges
                0x00000000       0x18 build/obj/gwin_checkbox.o
 .debug_line    0x00000000       0xe6 build/obj/gwin_checkbox.o
 .debug_str     0x00000000      0x142 build/obj/gwin_checkbox.o
 .comment       0x00000000       0x71 build/obj/gwin_checkbox.o
 .ARM.attributes
                0x00000000       0x33 build/obj/gwin_checkbox.o
 .text          0x00000000        0x0 build/obj/gwin_image.o
 .data          0x00000000        0x0 build/obj/gwin_image.o
 .bss           0x00000000        0x0 build/obj/gwin_image.o
 .text.gwinImageCache
                0x00000000       0x20 build/obj/gwin_image.o
 .text          0x00000000        0x0 build/obj/gwin_label.o
 .data          0x00000000        0x0 build/obj/gwin_label.o
 .bss           0x00000000        0x0 build/obj/gwin_label.o
 .text.gwinLabelSetBorder
                0x00000000       0x30 build/obj/gwin_label.o
 .text          0x00000000        0x0 build/obj/gwin_radio.o
 .data          0x00000000        0x0 build/obj/gwin_radio.o
 .bss           0x00000000        0x0 build/obj/gwin_radio.o
 .debug_info    0x00000000       0x97 build/obj/gwin_radio.o
 .debug_abbrev  0x00000000       0x4b build/obj/gwin_radio.o
 .debug_aranges
                0x00000000       0x18 build/obj/gwin_radio.o
 .debug_line    0x00000000       0xe6 build/obj/gwin_radio.o
 .debug_str     0x00000000      0x13f build/obj/gwin_radio.o
 .comment       0x00000000       0x71 build/obj/gwin_radio.o
 .ARM.attributes
                0x00000000       0x33 build/obj/gwin_radio.o
 .text          0x00000000        0x0 build/obj/gwin_list.o
 .data          0x00000000        0x0 build/obj/gwin_list.o
 .bss           0x00000000        0x0 build/obj/gwin_list.o
 .text.gwinListEnableRender
                0x00000000       0x30 build/obj/gwin_list.o
 .text.gwinListItemGetText
                0x00000000       0x50 build/obj/gwin_list.o
 .text.gwinListFindText
                0x00000000       0x40 build/obj/gwin_list.o
 .text.gwinListItemSetParam
                0x00000000       0x60 build/obj/gwin_list.o
 .text.gwinListItemGetParam
                0x00000000       0x60 build/obj/gwin_list.o
 .text.gwinListItemIsSelected
                0x00000000       0x60 build/obj/gwin_list.o
 .text.gwinListItemCount
                0x00000000       0x20 build/obj/gwin_list.o
 .text.gwinListGetSelectedText
                0x00000000       0x60 build/obj/gwin_list.o
 .text          0x00000000        0x0 build/obj/gwin_progressbar.o
 .data          0x00000000        0x0 build/obj/gwin_progressbar.o
 .bss           0x00000000        0x0 build/obj/gwin_progressbar.o
 .text.ResetDisplayPos
                0x00000000       0x50 build/obj/gwin_progressbar.o
 .text._destroy
                0x00000000       0x10 build/obj/gwin_progressbar.o
 .text.gwinProgressbarDraw_Std
                0x00000000      0x180 build/obj/gwin_progressbar.o
 .text.gwinGProgressbarCreate
                0x00000000       0x30 build/obj/gwin_progressbar.o
 .text.gwinProgressbarSetRange
                0x00000000       0x30 build/obj/gwin_progressbar.o
 .text.gwinProgressbarSetPosition
                0x00000000       0x50 build/obj/gwin_progressbar.o
 .text.gwinProgressbarSetResolution
                0x00000000       0x20 build/obj/gwin_progressbar.o
 .text.gwinProgressbarIncrement
                0x00000000       0x40 build/obj/gwin_progressbar.o
 .text.gwinProgressbarDecrement
                0x00000000       0x40 build/obj/gwin_progressbar.o
 .text.gwinProgressbarDraw_Image
                0x00000000      0x240 build/obj/gwin_progressbar.o
 .rodata.progressbarVMT
                0x00000000       0x24 build/obj/gwin_progressbar.o
 .rodata.str1.4
                0x00000000        0xc build/obj/gwin_progressbar.o
 .debug_info    0x00000000      0xda5 build/obj/gwin_progressbar.o
 .debug_abbrev  0x00000000      0x2ec build/obj/gwin_progressbar.o
 .debug_loc     0x00000000      0x4d3 build/obj/gwin_progressbar.o
 .debug_aranges
                0x00000000       0x68 build/obj/gwin_progressbar.o
 .debug_ranges  0x00000000       0x58 build/obj/gwin_progressbar.o
 .debug_line    0x00000000      0x3ce build/obj/gwin_progressbar.o
 .debug_str     0x00000000      0x586 build/obj/gwin_progressbar.o
 .comment       0x00000000       0x71 build/obj/gwin_progressbar.o
 .ARM.attributes
                0x00000000       0x33 build/obj/gwin_progressbar.o
 .debug_frame   0x00000000      0x134 build/obj/gwin_progressbar.o
 .text          0x00000000        0x0 build/obj/gwin_container.o
 .data          0x00000000        0x0 build/obj/gwin_container.o
 .bss           0x00000000        0x0 build/obj/gwin_container.o
 .text._gcontainerDeinit
                0x00000000       0x10 build/obj/gwin_container.o
 .text.gwinGetInnerWidth
                0x00000000       0x30 build/obj/gwin_container.o
 .text.gwinGetInnerHeight
                0x00000000       0x30 build/obj/gwin_container.o
 .text          0x00000000        0x0 build/obj/gwin_frame.o
 .data          0x00000000        0x0 build/obj/gwin_frame.o
 .bss           0x00000000        0x0 build/obj/gwin_frame.o
 .debug_info    0x00000000       0x97 build/obj/gwin_frame.o
 .debug_abbrev  0x00000000       0x4b build/obj/gwin_frame.o
 .debug_aranges
                0x00000000       0x18 build/obj/gwin_frame.o
 .debug_line    0x00000000       0xe6 build/obj/gwin_frame.o
 .debug_str     0x00000000      0x13f build/obj/gwin_frame.o
 .comment       0x00000000       0x71 build/obj/gwin_frame.o
 .ARM.attributes
                0x00000000       0x33 build/obj/gwin_frame.o
 .text          0x00000000        0x0 build/obj/gwin_tabset.o
 .data          0x00000000        0x0 build/obj/gwin_tabset.o
 .bss           0x00000000        0x0 build/obj/gwin_tabset.o
 .debug_info    0x00000000       0x97 build/obj/gwin_tabset.o
 .debug_abbrev  0x00000000       0x4b build/obj/gwin_tabset.o
 .debug_aranges
                0x00000000       0x18 build/obj/gwin_tabset.o
 .debug_line    0x00000000       0xe6 build/obj/gwin_tabset.o
 .debug_str     0x00000000      0x140 build/obj/gwin_tabset.o
 .comment       0x00000000       0x71 build/obj/gwin_tabset.o
 .ARM.attributes
                0x00000000       0x33 build/obj/gwin_tabset.o
 .text          0x00000000        0x0 build/obj/gwin_gl3d.o
 .data          0x00000000        0x0 build/obj/gwin_gl3d.o
 .bss           0x00000000        0x0 build/obj/gwin_gl3d.o
 .debug_info    0x00000000       0x97 build/obj/gwin_gl3d.o
 .debug_abbrev  0x00000000       0x4b build/obj/gwin_gl3d.o
 .debug_aranges
                0x00000000       0x18 build/obj/gwin_gl3d.o
 .debug_line    0x00000000       0xe6 build/obj/gwin_gl3d.o
 .debug_str     0x00000000      0x13e build/obj/gwin_gl3d.o
 .comment       0x00000000       0x71 build/obj/gwin_gl3d.o
 .ARM.attributes
                0x00000000       0x33 build/obj/gwin_gl3d.o
 .text          0x00000000        0x0 build/obj/ginput.o
 .data          0x00000000        0x0 build/obj/ginput.o
 .bss           0x00000000        0x0 build/obj/ginput.o
 .text._ginputDeinit
                0x00000000       0x10 build/obj/ginput.o
 .text          0x00000000        0x0 build/obj/ginput_mouse.o
 .data          0x00000000        0x0 build/obj/ginput_mouse.o
 .bss           0x00000000        0x0 build/obj/ginput_mouse.o
 .text._gmouseDeinit
                0x00000000       0x10 build/obj/ginput_mouse.o
 .text.ginputSetMouseDisplay
                0x00000000       0x20 build/obj/ginput_mouse.o
 .text.ginputGetMouseDisplay
                0x00000000       0x10 build/obj/ginput_mouse.o
 .text.ginputGetMouseStatus
                0x00000000       0x50 build/obj/ginput_mouse.o
 .text.ginputSetFingerMode
                0x00000000       0x30 build/obj/ginput_mouse.o
 .text.ginputCalibrateMouse
                0x00000000       0x30 build/obj/ginput_mouse.o
 .text._gmouseWakeup
                0x00000000       0x20 build/obj/ginput_mouse.o
 .text._gmouseWakeupI
                0x00000000       0x20 build/obj/ginput_mouse.o
 .text          0x00000000        0x0 build/obj/ginput_keyboard.o
 .data          0x00000000        0x0 build/obj/ginput_keyboard.o
 .bss           0x00000000        0x0 build/obj/ginput_keyboard.o
 .debug_info    0x00000000       0x97 build/obj/ginput_keyboard.o
 .debug_abbrev  0x00000000       0x4b build/obj/ginput_keyboard.o
 .debug_aranges
                0x00000000       0x18 build/obj/ginput_keyboard.o
 .debug_line    0x00000000       0xe6 build/obj/ginput_keyboard.o
 .debug_str     0x00000000      0x146 build/obj/ginput_keyboard.o
 .comment       0x00000000       0x71 build/obj/ginput_keyboard.o
 .ARM.attributes
                0x00000000       0x33 build/obj/ginput_keyboard.o
 .text          0x00000000        0x0 build/obj/ginput_keyboard_microcode.o
 .data          0x00000000        0x0 build/obj/ginput_keyboard_microcode.o
 .bss           0x00000000        0x0 build/obj/ginput_keyboard_microcode.o
 .debug_info    0x00000000       0x97 build/obj/ginput_keyboard_microcode.o
 .debug_abbrev  0x00000000       0x4b build/obj/ginput_keyboard_microcode.o
 .debug_aranges
                0x00000000       0x18 build/obj/ginput_keyboard_microcode.o
 .debug_line    0x00000000       0xe6 build/obj/ginput_keyboard_microcode.o
 .debug_str     0x00000000      0x150 build/obj/ginput_keyboard_microcode.o
 .comment       0x00000000       0x71 build/obj/ginput_keyboard_microcode.o
 .ARM.attributes
                0x00000000       0x33 build/obj/ginput_keyboard_microcode.o
 .text          0x00000000        0x0 build/obj/ginput_toggle.o
 .data          0x00000000        0x0 build/obj/ginput_toggle.o
 .bss           0x00000000        0x0 build/obj/ginput_toggle.o
 .debug_info    0x00000000       0x97 build/obj/ginput_toggle.o
 .debug_abbrev  0x00000000       0x4b build/obj/ginput_toggle.o
 .debug_aranges
                0x00000000       0x18 build/obj/ginput_toggle.o
 .debug_line    0x00000000       0xe6 build/obj/ginput_toggle.o
 .debug_str     0x00000000      0x144 build/obj/ginput_toggle.o
 .comment       0x00000000       0x71 build/obj/ginput_toggle.o
 .ARM.attributes
                0x00000000       0x33 build/obj/ginput_toggle.o
 .text          0x00000000        0x0 build/obj/ginput_dial.o
 .data          0x00000000        0x0 build/obj/ginput_dial.o
 .bss           0x00000000        0x0 build/obj/ginput_dial.o
 .debug_info    0x00000000       0x97 build/obj/ginput_dial.o
 .debug_abbrev  0x00000000       0x4b build/obj/ginput_dial.o
 .debug_aranges
                0x00000000       0x18 build/obj/ginput_dial.o
 .debug_line    0x00000000       0xe6 build/obj/ginput_dial.o
 .debug_str     0x00000000      0x142 build/obj/ginput_dial.o
 .comment       0x00000000       0x71 build/obj/ginput_dial.o
 .ARM.attributes
                0x00000000       0x33 build/obj/ginput_dial.o
 .text          0x00000000        0x0 build/obj/gadc.o
 .data          0x00000000        0x0 build/obj/gadc.o
 .bss           0x00000000        0x0 build/obj/gadc.o
 .debug_info    0x00000000       0x97 build/obj/gadc.o
 .debug_abbrev  0x00000000       0x4b build/obj/gadc.o
 .debug_aranges
                0x00000000       0x18 build/obj/gadc.o
 .debug_line    0x00000000       0xe6 build/obj/gadc.o
 .debug_str     0x00000000      0x139 build/obj/gadc.o
 .comment       0x00000000       0x71 build/obj/gadc.o
 .ARM.attributes
                0x00000000       0x33 build/obj/gadc.o
 .text          0x00000000        0x0 build/obj/gaudio.o
 .data          0x00000000        0x0 build/obj/gaudio.o
 .bss           0x00000000        0x0 build/obj/gaudio.o
 .debug_info    0x00000000       0x97 build/obj/gaudio.o
 .debug_abbrev  0x00000000       0x4b build/obj/gaudio.o
 .debug_aranges
                0x00000000       0x18 build/obj/gaudio.o
 .debug_line    0x00000000       0xe6 build/obj/gaudio.o
 .debug_str     0x00000000      0x13d build/obj/gaudio.o
 .comment       0x00000000       0x71 build/obj/gaudio.o
 .ARM.attributes
                0x00000000       0x33 build/obj/gaudio.o
 .text          0x00000000        0x0 build/obj/gmisc.o
 .data          0x00000000        0x0 build/obj/gmisc.o
 .bss           0x00000000        0x0 build/obj/gmisc.o
 .debug_info    0x00000000       0x97 build/obj/gmisc.o
 .debug_abbrev  0x00000000       0x4b build/obj/gmisc.o
 .debug_aranges
                0x00000000       0x18 build/obj/gmisc.o
 .debug_line    0x00000000       0xe6 build/obj/gmisc.o
 .debug_str     0x00000000      0x13b build/obj/gmisc.o
 .comment       0x00000000       0x71 build/obj/gmisc.o
 .ARM.attributes
                0x00000000       0x33 build/obj/gmisc.o
 .text          0x00000000        0x0 build/obj/gmisc_arrayops.o
 .data          0x00000000        0x0 build/obj/gmisc_arrayops.o
 .bss           0x00000000        0x0 build/obj/gmisc_arrayops.o
 .debug_info    0x00000000       0x97 build/obj/gmisc_arrayops.o
 .debug_abbrev  0x00000000       0x4b build/obj/gmisc_arrayops.o
 .debug_aranges
                0x00000000       0x18 build/obj/gmisc_arrayops.o
 .debug_line    0x00000000       0xe6 build/obj/gmisc_arrayops.o
 .debug_str     0x00000000      0x144 build/obj/gmisc_arrayops.o
 .comment       0x00000000       0x71 build/obj/gmisc_arrayops.o
 .ARM.attributes
                0x00000000       0x33 build/obj/gmisc_arrayops.o
 .text          0x00000000        0x0 build/obj/gmisc_matrix2d.o
 .data          0x00000000        0x0 build/obj/gmisc_matrix2d.o
 .bss           0x00000000        0x0 build/obj/gmisc_matrix2d.o
 .debug_info    0x00000000       0x97 build/obj/gmisc_matrix2d.o
 .debug_abbrev  0x00000000       0x4b build/obj/gmisc_matrix2d.o
 .debug_aranges
                0x00000000       0x18 build/obj/gmisc_matrix2d.o
 .debug_line    0x00000000       0xe6 build/obj/gmisc_matrix2d.o
 .debug_str     0x00000000      0x144 build/obj/gmisc_matrix2d.o
 .comment       0x00000000       0x71 build/obj/gmisc_matrix2d.o
 .ARM.attributes
                0x00000000       0x33 build/obj/gmisc_matrix2d.o
 .text          0x00000000        0x0 build/obj/gmisc_trig.o
 .data          0x00000000        0x0 build/obj/gmisc_trig.o
 .bss           0x00000000        0x0 build/obj/gmisc_trig.o
 .debug_info    0x00000000       0x97 build/obj/gmisc_trig.o
 .debug_abbrev  0x00000000       0x4b build/obj/gmisc_trig.o
 .debug_aranges
                0x00000000       0x18 build/obj/gmisc_trig.o
 .debug_line    0x00000000       0xe6 build/obj/gmisc_trig.o
 .debug_str     0x00000000      0x140 build/obj/gmisc_trig.o
 .comment       0x00000000       0x71 build/obj/gmisc_trig.o
 .ARM.attributes
                0x00000000       0x33 build/obj/gmisc_trig.o
 .text          0x00000000        0x0 build/obj/gfile.o
 .data          0x00000000        0x0 build/obj/gfile.o
 .bss           0x00000000        0x0 build/obj/gfile.o
 .text._gfileDeinit
                0x00000000       0x10 build/obj/gfile.o
 .text.gfileExists
                0x00000000       0x20 build/obj/gfile.o
 .text.gfileDelete
                0x00000000       0x20 build/obj/gfile.o
 .text.gfileGetFilesize
                0x00000000       0x20 build/obj/gfile.o
 .text.gfileRename
                0x00000000       0x20 build/obj/gfile.o
 .text.gfileMount
                0x00000000       0x30 build/obj/gfile.o
 .text.gfileUnmount
                0x00000000       0x30 build/obj/gfile.o
 .text.gfileSync
                0x00000000       0x10 build/obj/gfile.o
 .bss.gfileStdOut
                0x00000000        0x4 build/obj/gfile.o
 .bss.gfileStdIn
                0x00000000        0x4 build/obj/gfile.o
 .bss.gfileStdErr
                0x00000000        0x4 build/obj/gfile.o
 .text          0x00000000        0x0 build/obj/gfile_fs_native.o
 .data          0x00000000        0x0 build/obj/gfile_fs_native.o
 .bss           0x00000000        0x0 build/obj/gfile_fs_native.o
 .debug_info    0x00000000       0x97 build/obj/gfile_fs_native.o
 .debug_abbrev  0x00000000       0x4b build/obj/gfile_fs_native.o
 .debug_aranges
                0x00000000       0x18 build/obj/gfile_fs_native.o
 .debug_line    0x00000000       0xe6 build/obj/gfile_fs_native.o
 .debug_str     0x00000000      0x145 build/obj/gfile_fs_native.o
 .comment       0x00000000       0x71 build/obj/gfile_fs_native.o
 .ARM.attributes
                0x00000000       0x33 build/obj/gfile_fs_native.o
 .text          0x00000000        0x0 build/obj/gfile_fs_ram.o
 .data          0x00000000        0x0 build/obj/gfile_fs_ram.o
 .bss           0x00000000        0x0 build/obj/gfile_fs_ram.o
 .debug_info    0x00000000       0x97 build/obj/gfile_fs_ram.o
 .debug_abbrev  0x00000000       0x4b build/obj/gfile_fs_ram.o
 .debug_aranges
                0x00000000       0x18 build/obj/gfile_fs_ram.o
 .debug_line    0x00000000       0xe6 build/obj/gfile_fs_ram.o
 .debug_str     0x00000000      0x142 build/obj/gfile_fs_ram.o
 .comment       0x00000000       0x71 build/obj/gfile_fs_ram.o
 .ARM.attributes
                0x00000000       0x33 build/obj/gfile_fs_ram.o
 .text          0x00000000        0x0 build/obj/gfile_fs_rom.o
 .data          0x00000000        0x0 build/obj/gfile_fs_rom.o
 .bss           0x00000000        0x0 build/obj/gfile_fs_rom.o
 .debug_info    0x00000000       0x97 build/obj/gfile_fs_rom.o
 .debug_abbrev  0x00000000       0x4b build/obj/gfile_fs_rom.o
 .debug_aranges
                0x00000000       0x18 build/obj/gfile_fs_rom.o
 .debug_line    0x00000000       0xe6 build/obj/gfile_fs_rom.o
 .debug_str     0x00000000      0x142 build/obj/gfile_fs_rom.o
 .comment       0x00000000       0x71 build/obj/gfile_fs_rom.o
 .ARM.attributes
                0x00000000       0x33 build/obj/gfile_fs_rom.o
 .text          0x00000000        0x0 build/obj/gfile_fs_fatfs.o
 .data          0x00000000        0x0 build/obj/gfile_fs_fatfs.o
 .bss           0x00000000        0x0 build/obj/gfile_fs_fatfs.o
 .text          0x00000000        0x0 build/obj/gfile_fs_petitfs.o
 .data          0x00000000        0x0 build/obj/gfile_fs_petitfs.o
 .bss           0x00000000        0x0 build/obj/gfile_fs_petitfs.o
 .debug_info    0x00000000       0x97 build/obj/gfile_fs_petitfs.o
 .debug_abbrev  0x00000000       0x4b build/obj/gfile_fs_petitfs.o
 .debug_aranges
                0x00000000       0x18 build/obj/gfile_fs_petitfs.o
 .debug_line    0x00000000       0xe6 build/obj/gfile_fs_petitfs.o
 .debug_str     0x00000000      0x146 build/obj/gfile_fs_petitfs.o
 .comment       0x00000000       0x71 build/obj/gfile_fs_petitfs.o
 .ARM.attributes
                0x00000000       0x33 build/obj/gfile_fs_petitfs.o
 .text          0x00000000        0x0 build/obj/gfile_fs_mem.o
 .data          0x00000000        0x0 build/obj/gfile_fs_mem.o
 .bss           0x00000000        0x0 build/obj/gfile_fs_mem.o
 .debug_info    0x00000000       0x97 build/obj/gfile_fs_mem.o
 .debug_abbrev  0x00000000       0x4b build/obj/gfile_fs_mem.o
 .debug_aranges
                0x00000000       0x18 build/obj/gfile_fs_mem.o
 .debug_line    0x00000000       0xe6 build/obj/gfile_fs_mem.o
 .debug_str     0x00000000      0x142 build/obj/gfile_fs_mem.o
 .comment       0x00000000       0x71 build/obj/gfile_fs_mem.o
 .ARM.attributes
                0x00000000       0x33 build/obj/gfile_fs_mem.o
 .text          0x00000000        0x0 build/obj/gfile_fs_chibios.o
 .data          0x00000000        0x0 build/obj/gfile_fs_chibios.o
 .bss           0x00000000        0x0 build/obj/gfile_fs_chibios.o
 .debug_info    0x00000000       0x97 build/obj/gfile_fs_chibios.o
 .debug_abbrev  0x00000000       0x4b build/obj/gfile_fs_chibios.o
 .debug_aranges
                0x00000000       0x18 build/obj/gfile_fs_chibios.o
 .debug_line    0x00000000       0xe6 build/obj/gfile_fs_chibios.o
 .debug_str     0x00000000      0x146 build/obj/gfile_fs_chibios.o
 .comment       0x00000000       0x71 build/obj/gfile_fs_chibios.o
 .ARM.attributes
                0x00000000       0x33 build/obj/gfile_fs_chibios.o
 .text          0x00000000        0x0 build/obj/gfile_fs_strings.o
 .data          0x00000000        0x0 build/obj/gfile_fs_strings.o
 .bss           0x00000000        0x0 build/obj/gfile_fs_strings.o
 .debug_info    0x00000000       0x97 build/obj/gfile_fs_strings.o
 .debug_abbrev  0x00000000       0x4b build/obj/gfile_fs_strings.o
 .debug_aranges
                0x00000000       0x18 build/obj/gfile_fs_strings.o
 .debug_line    0x00000000       0xe6 build/obj/gfile_fs_strings.o
 .debug_str     0x00000000      0x146 build/obj/gfile_fs_strings.o
 .comment       0x00000000       0x71 build/obj/gfile_fs_strings.o
 .ARM.attributes
                0x00000000       0x33 build/obj/gfile_fs_strings.o
 .text          0x00000000        0x0 build/obj/gfile_printg.o
 .data          0x00000000        0x0 build/obj/gfile_printg.o
 .bss           0x00000000        0x0 build/obj/gfile_printg.o
 .debug_info    0x00000000       0x97 build/obj/gfile_printg.o
 .debug_abbrev  0x00000000       0x4b build/obj/gfile_printg.o
 .debug_aranges
                0x00000000       0x18 build/obj/gfile_printg.o
 .debug_line    0x00000000       0xe6 build/obj/gfile_printg.o
 .debug_str     0x00000000      0x142 build/obj/gfile_printg.o
 .comment       0x00000000       0x71 build/obj/gfile_printg.o
 .ARM.attributes
                0x00000000       0x33 build/obj/gfile_printg.o
 .text          0x00000000        0x0 build/obj/gfile_scang.o
 .data          0x00000000        0x0 build/obj/gfile_scang.o
 .bss           0x00000000        0x0 build/obj/gfile_scang.o
 .debug_info    0x00000000       0x97 build/obj/gfile_scang.o
 .debug_abbrev  0x00000000       0x4b build/obj/gfile_scang.o
 .debug_aranges
                0x00000000       0x18 build/obj/gfile_scang.o
 .debug_line    0x00000000       0xe6 build/obj/gfile_scang.o
 .debug_str     0x00000000      0x141 build/obj/gfile_scang.o
 .comment       0x00000000       0x71 build/obj/gfile_scang.o
 .ARM.attributes
                0x00000000       0x33 build/obj/gfile_scang.o
 .text          0x00000000        0x0 build/obj/gfile_stdio.o
 .data          0x00000000        0x0 build/obj/gfile_stdio.o
 .bss           0x00000000        0x0 build/obj/gfile_stdio.o
 .debug_info    0x00000000       0x97 build/obj/gfile_stdio.o
 .debug_abbrev  0x00000000       0x4b build/obj/gfile_stdio.o
 .debug_aranges
                0x00000000       0x18 build/obj/gfile_stdio.o
 .debug_line    0x00000000       0xe6 build/obj/gfile_stdio.o
 .debug_str     0x00000000      0x141 build/obj/gfile_stdio.o
 .comment       0x00000000       0x71 build/obj/gfile_stdio.o
 .ARM.attributes
                0x00000000       0x33 build/obj/gfile_stdio.o
 .text          0x00000000        0x0 build/obj/gfile_fatfs_wrapper.o
 .data          0x00000000        0x0 build/obj/gfile_fatfs_wrapper.o
 .bss           0x00000000        0x0 build/obj/gfile_fatfs_wrapper.o
 .text.clust2sect
                0x00000000       0x20 build/obj/gfile_fatfs_wrapper.o
 .text.putc_bfd
                0x00000000       0x40 build/obj/gfile_fatfs_wrapper.o
 .text.f_getfree
                0x00000000      0x1f0 build/obj/gfile_fatfs_wrapper.o
 .text.f_truncate
                0x00000000       0xb0 build/obj/gfile_fatfs_wrapper.o
 .text.f_gets   0x00000000       0xa0 build/obj/gfile_fatfs_wrapper.o
 .text.f_putc   0x00000000       0x40 build/obj/gfile_fatfs_wrapper.o
 .text.f_puts   0x00000000       0x50 build/obj/gfile_fatfs_wrapper.o
 .text.f_printf
                0x00000000      0x6f0 build/obj/gfile_fatfs_wrapper.o
 .text.ff_wtoupper
                0x00000000       0x30 build/obj/gfile_fatfs_wrapper.o
 .text.f_utime  0x00000000       0x80 build/obj/gfile_fatfs_wrapper.o
 .text.f_chmod  0x00000000       0x80 build/obj/gfile_fatfs_wrapper.o
 .text.f_mkdir  0x00000000      0x280 build/obj/gfile_fatfs_wrapper.o
 .text.ff_memfree
                0x00000000       0x10 build/obj/gfile_fatfs_wrapper.o
 .text          0x00000000        0x0 build/obj/gfile_fatfs_diskio_chibios.o
 .data          0x00000000        0x0 build/obj/gfile_fatfs_diskio_chibios.o
 .bss           0x00000000        0x0 build/obj/gfile_fatfs_diskio_chibios.o
 .text          0x00000000        0x0 build/obj/gfile_petitfs_wrapper.o
 .data          0x00000000        0x0 build/obj/gfile_petitfs_wrapper.o
 .bss           0x00000000        0x0 build/obj/gfile_petitfs_wrapper.o
 .debug_info    0x00000000       0x97 build/obj/gfile_petitfs_wrapper.o
 .debug_abbrev  0x00000000       0x4b build/obj/gfile_petitfs_wrapper.o
 .debug_aranges
                0x00000000       0x18 build/obj/gfile_petitfs_wrapper.o
 .debug_line    0x00000000       0xe6 build/obj/gfile_petitfs_wrapper.o
 .debug_str     0x00000000      0x14b build/obj/gfile_petitfs_wrapper.o
 .comment       0x00000000       0x71 build/obj/gfile_petitfs_wrapper.o
 .ARM.attributes
                0x00000000       0x33 build/obj/gfile_petitfs_wrapper.o
 .text          0x00000000        0x0 build/obj/gfile_petitfs_diskio_chibios.o
 .data          0x00000000        0x0 build/obj/gfile_petitfs_diskio_chibios.o
 .bss           0x00000000        0x0 build/obj/gfile_petitfs_diskio_chibios.o
 .debug_info    0x00000000       0x97 build/obj/gfile_petitfs_diskio_chibios.o
 .debug_abbrev  0x00000000       0x4b build/obj/gfile_petitfs_diskio_chibios.o
 .debug_aranges
                0x00000000       0x18 build/obj/gfile_petitfs_diskio_chibios.o
 .debug_line    0x00000000       0xe6 build/obj/gfile_petitfs_diskio_chibios.o
 .debug_str     0x00000000      0x152 build/obj/gfile_petitfs_diskio_chibios.o
 .comment       0x00000000       0x71 build/obj/gfile_petitfs_diskio_chibios.o
 .ARM.attributes
                0x00000000       0x33 build/obj/gfile_petitfs_diskio_chibios.o
 .text          0x00000000        0x0 build/obj/gdisp_lld_SSD1289.o
 .data          0x00000000        0x0 build/obj/gdisp_lld_SSD1289.o
 .bss           0x00000000        0x0 build/obj/gdisp_lld_SSD1289.o
 .text          0x00000000        0x0 build/obj/gmouse_lld_ADS7843.o
 .data          0x00000000        0x0 build/obj/gmouse_lld_ADS7843.o
 .bss           0x00000000        0x0 build/obj/gmouse_lld_ADS7843.o
 .text          0x00000000        0x0 build/obj/lis302dl.o
 .data          0x00000000        0x0 build/obj/lis302dl.o
 .bss           0x00000000        0x0 build/obj/lis302dl.o
 .text.lis302dlReadRegister
                0x00000000       0x40 build/obj/lis302dl.o
 .text.lis302dlWriteRegister
                0x00000000       0x50 build/obj/lis302dl.o
 .bss.rxbuf     0x00000000        0x4 build/obj/lis302dl.o
 .bss.txbuf     0x00000000        0x4 build/obj/lis302dl.o
 .debug_info    0x00000000      0xa13 build/obj/lis302dl.o
 .debug_abbrev  0x00000000      0x206 build/obj/lis302dl.o
 .debug_loc     0x00000000       0xea build/obj/lis302dl.o
 .debug_aranges
                0x00000000       0x28 build/obj/lis302dl.o
 .debug_ranges  0x00000000       0x18 build/obj/lis302dl.o
 .debug_line    0x00000000      0x32d build/obj/lis302dl.o
 .debug_str     0x00000000      0x517 build/obj/lis302dl.o
 .comment       0x00000000       0x71 build/obj/lis302dl.o
 .ARM.attributes
                0x00000000       0x33 build/obj/lis302dl.o
 .debug_frame   0x00000000       0x60 build/obj/lis302dl.o
 .text          0x00000000        0x0 build/obj/chprintf.o
 .data          0x00000000        0x0 build/obj/chprintf.o
 .bss           0x00000000        0x0 build/obj/chprintf.o
 .text.long_to_string_with_divisor.constprop.0
                0x00000000       0x70 build/obj/chprintf.o
 .text.chvprintf
                0x00000000      0x380 build/obj/chprintf.o
 .text.chsnprintf
                0x00000000       0x40 build/obj/chprintf.o
 .rodata.str1.4
                0x00000000        0x8 build/obj/chprintf.o
 .debug_info    0x00000000      0x6fb build/obj/chprintf.o
 .debug_abbrev  0x00000000      0x254 build/obj/chprintf.o
 .debug_loc     0x00000000      0x913 build/obj/chprintf.o
 .debug_aranges
                0x00000000       0x30 build/obj/chprintf.o
 .debug_ranges  0x00000000       0x20 build/obj/chprintf.o
 .debug_line    0x00000000      0x362 build/obj/chprintf.o
 .debug_str     0x00000000      0x26e build/obj/chprintf.o
 .comment       0x00000000       0x71 build/obj/chprintf.o
 .ARM.attributes
                0x00000000       0x33 build/obj/chprintf.o
 .debug_frame   0x00000000       0x90 build/obj/chprintf.o
 .text          0x00000000        0x0 build/obj/mainScreen.o
 .data          0x00000000        0x0 build/obj/mainScreen.o
 .bss           0x00000000        0x0 build/obj/mainScreen.o
 .text.showSmsNotification
                0x00000000       0x50 build/obj/mainScreen.o
 .text.showCallNotification
                0x00000000       0x50 build/obj/mainScreen.o
 .text.showSmsCallNotification
                0x00000000       0x50 build/obj/mainScreen.o
 .text.hideNotifications
                0x00000000       0x70 build/obj/mainScreen.o
 .text          0x00000000        0x0 build/obj/callScreen.o
 .data          0x00000000        0x0 build/obj/callScreen.o
 .bss           0x00000000        0x0 build/obj/callScreen.o
 .text          0x00000000        0x0 build/obj/callsScreen.o
 .data          0x00000000        0x0 build/obj/callsScreen.o
 .bss           0x00000000        0x0 build/obj/callsScreen.o
 .text          0x00000000        0x0 build/obj/settingsScreen.o
 .data          0x00000000        0x0 build/obj/settingsScreen.o
 .bss           0x00000000        0x0 build/obj/settingsScreen.o
 .text          0x00000000        0x0 build/obj/gallery.o
 .data          0x00000000        0x0 build/obj/gallery.o
 .bss           0x00000000        0x0 build/obj/gallery.o
 .text          0x00000000        0x0 build/obj/contactsScreen.o
 .data          0x00000000        0x0 build/obj/contactsScreen.o
 .bss           0x00000000        0x0 build/obj/contactsScreen.o
 .text          0x00000000        0x0 build/obj/calls_t.o
 .data          0x00000000        0x0 build/obj/calls_t.o
 .bss           0x00000000        0x0 build/obj/calls_t.o
 .text          0x00000000        0x0 build/obj/messages_t.o
 .data          0x00000000        0x0 build/obj/messages_t.o
 .bss           0x00000000        0x0 build/obj/messages_t.o
 .text          0x00000000        0x0 build/obj/audioPlayer_t.o
 .data          0x00000000        0x0 build/obj/audioPlayer_t.o
 .bss           0x00000000        0x0 build/obj/audioPlayer_t.o
 .text          0x00000000        0x0 build/obj/gallery_t.o
 .data          0x00000000        0x0 build/obj/gallery_t.o
 .bss           0x00000000        0x0 build/obj/gallery_t.o
 .text          0x00000000        0x0 build/obj/contacts_t.o
 .data          0x00000000        0x0 build/obj/contacts_t.o
 .bss           0x00000000        0x0 build/obj/contacts_t.o
 .text          0x00000000        0x0 build/obj/configuration_t.o
 .data          0x00000000        0x0 build/obj/configuration_t.o
 .bss           0x00000000        0x0 build/obj/configuration_t.o
 .text          0x00000000        0x0 build/obj/gui_t.o
 .data          0x00000000        0x0 build/obj/gui_t.o
 .bss           0x00000000        0x0 build/obj/gui_t.o
 .text          0x00000000        0x0 build/obj/uart_t.o
 .data          0x00000000        0x0 build/obj/uart_t.o
 .bss           0x00000000        0x0 build/obj/uart_t.o
 .text          0x00000000        0x0 build/obj/gsm.o
 .data          0x00000000        0x0 build/obj/gsm.o
 .bss           0x00000000        0x0 build/obj/gsm.o
 .text.answerCall
                0x00000000       0x30 build/obj/gsm.o
 .text          0x00000000        0x0 build/obj/slre.o
 .data          0x00000000        0x0 build/obj/slre.o
 .bss           0x00000000        0x0 build/obj/slre.o
 .text          0x00000000        0x0 build/obj/sdcard.o
 .data          0x00000000        0x0 build/obj/sdcard.o
 .bss           0x00000000        0x0 build/obj/sdcard.o
 .text          0x00000000        0x0 build/obj/main.o
 .data          0x00000000        0x0 build/obj/main.o
 .bss           0x00000000        0x0 build/obj/main.o
 .data          0x00000000        0x0 c:/chibistudio/tools/gnu tools arm embedded/4.7 2014q2/bin/../lib/gcc/arm-none-eabi/4.7.4/armv7e-m\libgcc.a(_arm_addsubsf3.o)
 .bss           0x00000000        0x0 c:/chibistudio/tools/gnu tools arm embedded/4.7 2014q2/bin/../lib/gcc/arm-none-eabi/4.7.4/armv7e-m\libgcc.a(_arm_addsubsf3.o)
 .data          0x00000000        0x0 c:/chibistudio/tools/gnu tools arm embedded/4.7 2014q2/bin/../lib/gcc/arm-none-eabi/4.7.4/armv7e-m\libgcc.a(_arm_muldivsf3.o)
 .bss           0x00000000        0x0 c:/chibistudio/tools/gnu tools arm embedded/4.7 2014q2/bin/../lib/gcc/arm-none-eabi/4.7.4/armv7e-m\libgcc.a(_arm_muldivsf3.o)
 .data          0x00000000        0x0 c:/chibistudio/tools/gnu tools arm embedded/4.7 2014q2/bin/../lib/gcc/arm-none-eabi/4.7.4/armv7e-m\libgcc.a(_arm_fixsfsi.o)
 .bss           0x00000000        0x0 c:/chibistudio/tools/gnu tools arm embedded/4.7 2014q2/bin/../lib/gcc/arm-none-eabi/4.7.4/armv7e-m\libgcc.a(_arm_fixsfsi.o)
 .text          0x00000000        0x0 c:/chibistudio/tools/gnu tools arm embedded/4.7 2014q2/bin/../lib/gcc/arm-none-eabi/4.7.4/../../../../arm-none-eabi/lib/armv7e-m\libg.a(lib_a-atoi.o)
 .data          0x00000000        0x0 c:/chibistudio/tools/gnu tools arm embedded/4.7 2014q2/bin/../lib/gcc/arm-none-eabi/4.7.4/../../../../arm-none-eabi/lib/armv7e-m\libg.a(lib_a-atoi.o)
 .bss           0x00000000        0x0 c:/chibistudio/tools/gnu tools arm embedded/4.7 2014q2/bin/../lib/gcc/arm-none-eabi/4.7.4/../../../../arm-none-eabi/lib/armv7e-m\libg.a(lib_a-atoi.o)
 .text._atoi_r  0x00000000        0x8 c:/chibistudio/tools/gnu tools arm embedded/4.7 2014q2/bin/../lib/gcc/arm-none-eabi/4.7.4/../../../../arm-none-eabi/lib/armv7e-m\libg.a(lib_a-atoi.o)
 .text          0x00000000        0x0 c:/chibistudio/tools/gnu tools arm embedded/4.7 2014q2/bin/../lib/gcc/arm-none-eabi/4.7.4/../../../../arm-none-eabi/lib/armv7e-m\libg.a(lib_a-ctype_.o)
 .data          0x00000000        0x0 c:/chibistudio/tools/gnu tools arm embedded/4.7 2014q2/bin/../lib/gcc/arm-none-eabi/4.7.4/../../../../arm-none-eabi/lib/armv7e-m\libg.a(lib_a-ctype_.o)
 .bss           0x00000000        0x0 c:/chibistudio/tools/gnu tools arm embedded/4.7 2014q2/bin/../lib/gcc/arm-none-eabi/4.7.4/../../../../arm-none-eabi/lib/armv7e-m\libg.a(lib_a-ctype_.o)
 .text          0x00000000        0x0 c:/chibistudio/tools/gnu tools arm embedded/4.7 2014q2/bin/../lib/gcc/arm-none-eabi/4.7.4/../../../../arm-none-eabi/lib/armv7e-m\libg.a(lib_a-memcpy.o)
 .data          0x00000000        0x0 c:/chibistudio/tools/gnu tools arm embedded/4.7 2014q2/bin/../lib/gcc/arm-none-eabi/4.7.4/../../../../arm-none-eabi/lib/armv7e-m\libg.a(lib_a-memcpy.o)
 .bss           0x00000000        0x0 c:/chibistudio/tools/gnu tools arm embedded/4.7 2014q2/bin/../lib/gcc/arm-none-eabi/4.7.4/../../../../arm-none-eabi/lib/armv7e-m\libg.a(lib_a-memcpy.o)
 .text          0x00000000        0x0 c:/chibistudio/tools/gnu tools arm embedded/4.7 2014q2/bin/../lib/gcc/arm-none-eabi/4.7.4/../../../../arm-none-eabi/lib/armv7e-m\libg.a(lib_a-memset.o)
 .data          0x00000000        0x0 c:/chibistudio/tools/gnu tools arm embedded/4.7 2014q2/bin/../lib/gcc/arm-none-eabi/4.7.4/../../../../arm-none-eabi/lib/armv7e-m\libg.a(lib_a-memset.o)
 .bss           0x00000000        0x0 c:/chibistudio/tools/gnu tools arm embedded/4.7 2014q2/bin/../lib/gcc/arm-none-eabi/4.7.4/../../../../arm-none-eabi/lib/armv7e-m\libg.a(lib_a-memset.o)
 .text          0x00000000        0x0 c:/chibistudio/tools/gnu tools arm embedded/4.7 2014q2/bin/../lib/gcc/arm-none-eabi/4.7.4/../../../../arm-none-eabi/lib/armv7e-m\libg.a(lib_a-strcat.o)
 .data          0x00000000        0x0 c:/chibistudio/tools/gnu tools arm embedded/4.7 2014q2/bin/../lib/gcc/arm-none-eabi/4.7.4/../../../../arm-none-eabi/lib/armv7e-m\libg.a(lib_a-strcat.o)
 .bss           0x00000000        0x0 c:/chibistudio/tools/gnu tools arm embedded/4.7 2014q2/bin/../lib/gcc/arm-none-eabi/4.7.4/../../../../arm-none-eabi/lib/armv7e-m\libg.a(lib_a-strcat.o)
 .text          0x00000000        0x0 c:/chibistudio/tools/gnu tools arm embedded/4.7 2014q2/bin/../lib/gcc/arm-none-eabi/4.7.4/../../../../arm-none-eabi/lib/armv7e-m\libg.a(lib_a-strchr.o)
 .data          0x00000000        0x0 c:/chibistudio/tools/gnu tools arm embedded/4.7 2014q2/bin/../lib/gcc/arm-none-eabi/4.7.4/../../../../arm-none-eabi/lib/armv7e-m\libg.a(lib_a-strchr.o)
 .bss           0x00000000        0x0 c:/chibistudio/tools/gnu tools arm embedded/4.7 2014q2/bin/../lib/gcc/arm-none-eabi/4.7.4/../../../../arm-none-eabi/lib/armv7e-m\libg.a(lib_a-strchr.o)
 .text          0x00000000        0x0 c:/chibistudio/tools/gnu tools arm embedded/4.7 2014q2/bin/../lib/gcc/arm-none-eabi/4.7.4/../../../../arm-none-eabi/lib/armv7e-m\libg.a(lib_a-strcmp.o)
 .data          0x00000000        0x0 c:/chibistudio/tools/gnu tools arm embedded/4.7 2014q2/bin/../lib/gcc/arm-none-eabi/4.7.4/../../../../arm-none-eabi/lib/armv7e-m\libg.a(lib_a-strcmp.o)
 .bss           0x00000000        0x0 c:/chibistudio/tools/gnu tools arm embedded/4.7 2014q2/bin/../lib/gcc/arm-none-eabi/4.7.4/../../../../arm-none-eabi/lib/armv7e-m\libg.a(lib_a-strcmp.o)
 .text          0x00000000        0x0 c:/chibistudio/tools/gnu tools arm embedded/4.7 2014q2/bin/../lib/gcc/arm-none-eabi/4.7.4/../../../../arm-none-eabi/lib/armv7e-m\libg.a(lib_a-strcpy.o)
 .data          0x00000000        0x0 c:/chibistudio/tools/gnu tools arm embedded/4.7 2014q2/bin/../lib/gcc/arm-none-eabi/4.7.4/../../../../arm-none-eabi/lib/armv7e-m\libg.a(lib_a-strcpy.o)
 .bss           0x00000000        0x0 c:/chibistudio/tools/gnu tools arm embedded/4.7 2014q2/bin/../lib/gcc/arm-none-eabi/4.7.4/../../../../arm-none-eabi/lib/armv7e-m\libg.a(lib_a-strcpy.o)
 .text          0x00000000        0x0 c:/chibistudio/tools/gnu tools arm embedded/4.7 2014q2/bin/../lib/gcc/arm-none-eabi/4.7.4/../../../../arm-none-eabi/lib/armv7e-m\libg.a(lib_a-strlcat.o)
 .data          0x00000000        0x0 c:/chibistudio/tools/gnu tools arm embedded/4.7 2014q2/bin/../lib/gcc/arm-none-eabi/4.7.4/../../../../arm-none-eabi/lib/armv7e-m\libg.a(lib_a-strlcat.o)
 .bss           0x00000000        0x0 c:/chibistudio/tools/gnu tools arm embedded/4.7 2014q2/bin/../lib/gcc/arm-none-eabi/4.7.4/../../../../arm-none-eabi/lib/armv7e-m\libg.a(lib_a-strlcat.o)
 .text          0x00000000        0x0 c:/chibistudio/tools/gnu tools arm embedded/4.7 2014q2/bin/../lib/gcc/arm-none-eabi/4.7.4/../../../../arm-none-eabi/lib/armv7e-m\libg.a(lib_a-strlcpy.o)
 .data          0x00000000        0x0 c:/chibistudio/tools/gnu tools arm embedded/4.7 2014q2/bin/../lib/gcc/arm-none-eabi/4.7.4/../../../../arm-none-eabi/lib/armv7e-m\libg.a(lib_a-strlcpy.o)
 .bss           0x00000000        0x0 c:/chibistudio/tools/gnu tools arm embedded/4.7 2014q2/bin/../lib/gcc/arm-none-eabi/4.7.4/../../../../arm-none-eabi/lib/armv7e-m\libg.a(lib_a-strlcpy.o)
 .text          0x00000000        0x0 c:/chibistudio/tools/gnu tools arm embedded/4.7 2014q2/bin/../lib/gcc/arm-none-eabi/4.7.4/../../../../arm-none-eabi/lib/armv7e-m\libg.a(lib_a-strlen.o)
 .data          0x00000000        0x0 c:/chibistudio/tools/gnu tools arm embedded/4.7 2014q2/bin/../lib/gcc/arm-none-eabi/4.7.4/../../../../arm-none-eabi/lib/armv7e-m\libg.a(lib_a-strlen.o)
 .bss           0x00000000        0x0 c:/chibistudio/tools/gnu tools arm embedded/4.7 2014q2/bin/../lib/gcc/arm-none-eabi/4.7.4/../../../../arm-none-eabi/lib/armv7e-m\libg.a(lib_a-strlen.o)
 .text          0x00000000        0x0 c:/chibistudio/tools/gnu tools arm embedded/4.7 2014q2/bin/../lib/gcc/arm-none-eabi/4.7.4/../../../../arm-none-eabi/lib/armv7e-m\libg.a(lib_a-strncpy.o)
 .data          0x00000000        0x0 c:/chibistudio/tools/gnu tools arm embedded/4.7 2014q2/bin/../lib/gcc/arm-none-eabi/4.7.4/../../../../arm-none-eabi/lib/armv7e-m\libg.a(lib_a-strncpy.o)
 .bss           0x00000000        0x0 c:/chibistudio/tools/gnu tools arm embedded/4.7 2014q2/bin/../lib/gcc/arm-none-eabi/4.7.4/../../../../arm-none-eabi/lib/armv7e-m\libg.a(lib_a-strncpy.o)
 .text          0x00000000        0x0 c:/chibistudio/tools/gnu tools arm embedded/4.7 2014q2/bin/../lib/gcc/arm-none-eabi/4.7.4/../../../../arm-none-eabi/lib/armv7e-m\libg.a(lib_a-strstr.o)
 .data          0x00000000        0x0 c:/chibistudio/tools/gnu tools arm embedded/4.7 2014q2/bin/../lib/gcc/arm-none-eabi/4.7.4/../../../../arm-none-eabi/lib/armv7e-m\libg.a(lib_a-strstr.o)
 .bss           0x00000000        0x0 c:/chibistudio/tools/gnu tools arm embedded/4.7 2014q2/bin/../lib/gcc/arm-none-eabi/4.7.4/../../../../arm-none-eabi/lib/armv7e-m\libg.a(lib_a-strstr.o)
 .text          0x00000000        0x0 c:/chibistudio/tools/gnu tools arm embedded/4.7 2014q2/bin/../lib/gcc/arm-none-eabi/4.7.4/../../../../arm-none-eabi/lib/armv7e-m\libg.a(lib_a-strtol.o)
 .data          0x00000000        0x0 c:/chibistudio/tools/gnu tools arm embedded/4.7 2014q2/bin/../lib/gcc/arm-none-eabi/4.7.4/../../../../arm-none-eabi/lib/armv7e-m\libg.a(lib_a-strtol.o)
 .bss           0x00000000        0x0 c:/chibistudio/tools/gnu tools arm embedded/4.7 2014q2/bin/../lib/gcc/arm-none-eabi/4.7.4/../../../../arm-none-eabi/lib/armv7e-m\libg.a(lib_a-strtol.o)
 .text          0x00000000        0x0 c:/chibistudio/tools/gnu tools arm embedded/4.7 2014q2/bin/../lib/gcc/arm-none-eabi/4.7.4/../../../../arm-none-eabi/lib/armv7e-m\libg.a(lib_a-impure.o)
 .data          0x00000000        0x0 c:/chibistudio/tools/gnu tools arm embedded/4.7 2014q2/bin/../lib/gcc/arm-none-eabi/4.7.4/../../../../arm-none-eabi/lib/armv7e-m\libg.a(lib_a-impure.o)
 .bss           0x00000000        0x0 c:/chibistudio/tools/gnu tools arm embedded/4.7 2014q2/bin/../lib/gcc/arm-none-eabi/4.7.4/../../../../arm-none-eabi/lib/armv7e-m\libg.a(lib_a-impure.o)
 .rodata._global_impure_ptr
                0x00000000        0x4 c:/chibistudio/tools/gnu tools arm embedded/4.7 2014q2/bin/../lib/gcc/arm-none-eabi/4.7.4/../../../../arm-none-eabi/lib/armv7e-m\libg.a(lib_a-impure.o)
 .text          0x00000000        0x0 c:/chibistudio/tools/gnu tools arm embedded/4.7 2014q2/bin/../lib/gcc/arm-none-eabi/4.7.4/../../../../arm-none-eabi/lib/armv7e-m\libg.a(lib_a-memchr.o)
 .data          0x00000000        0x0 c:/chibistudio/tools/gnu tools arm embedded/4.7 2014q2/bin/../lib/gcc/arm-none-eabi/4.7.4/../../../../arm-none-eabi/lib/armv7e-m\libg.a(lib_a-memchr.o)
 .bss           0x00000000        0x0 c:/chibistudio/tools/gnu tools arm embedded/4.7 2014q2/bin/../lib/gcc/arm-none-eabi/4.7.4/../../../../arm-none-eabi/lib/armv7e-m\libg.a(lib_a-memchr.o)
 .text          0x00000000        0x0 c:/chibistudio/tools/gnu tools arm embedded/4.7 2014q2/bin/../lib/gcc/arm-none-eabi/4.7.4/../../../../arm-none-eabi/lib/armv7e-m\libg.a(lib_a-memcmp.o)
 .data          0x00000000        0x0 c:/chibistudio/tools/gnu tools arm embedded/4.7 2014q2/bin/../lib/gcc/arm-none-eabi/4.7.4/../../../../arm-none-eabi/lib/armv7e-m\libg.a(lib_a-memcmp.o)
 .bss           0x00000000        0x0 c:/chibistudio/tools/gnu tools arm embedded/4.7 2014q2/bin/../lib/gcc/arm-none-eabi/4.7.4/../../../../arm-none-eabi/lib/armv7e-m\libg.a(lib_a-memcmp.o)

Memory Configuration

Name             Origin             Length             Attributes
flash            0x08000000         0x00100000
ram              0x20000000         0x0001c000
ethram           0x2001c000         0x00004000
ccmram           0x10000000         0x00010000
*default*        0x00000000         0xffffffff

Linker script and memory map

LOAD build/obj/crt0.o
LOAD build/obj/vectors.o
LOAD build/obj/chcore.o
LOAD build/obj/chcore_v7m.o
LOAD build/obj/nvic.o
LOAD build/obj/chsys.o
LOAD build/obj/chdebug.o
LOAD build/obj/chlists.o
LOAD build/obj/chvt.o
LOAD build/obj/chschd.o
LOAD build/obj/chthreads.o
LOAD build/obj/chdynamic.o
LOAD build/obj/chregistry.o
LOAD build/obj/chsem.o
LOAD build/obj/chmtx.o
LOAD build/obj/chcond.o
LOAD build/obj/chevents.o
LOAD build/obj/chmsg.o
LOAD build/obj/chmboxes.o
LOAD build/obj/chqueues.o
LOAD build/obj/chmemcore.o
LOAD build/obj/chheap.o
LOAD build/obj/chmempools.o
LOAD build/obj/hal.o
LOAD build/obj/adc.o
LOAD build/obj/can.o
LOAD build/obj/ext.o
LOAD build/obj/gpt.o
LOAD build/obj/i2c.o
LOAD build/obj/icu.o
LOAD build/obj/mac.o
LOAD build/obj/mmc_spi.o
LOAD build/obj/mmcsd.o
LOAD build/obj/pal.o
LOAD build/obj/pwm.o
LOAD build/obj/rtc.o
LOAD build/obj/sdc.o
LOAD build/obj/serial.o
LOAD build/obj/serial_usb.o
LOAD build/obj/spi.o
LOAD build/obj/tm.o
LOAD build/obj/uart.o
LOAD build/obj/usb.o
LOAD build/obj/stm32_dma.o
LOAD build/obj/hal_lld.o
LOAD build/obj/adc_lld.o
LOAD build/obj/ext_lld_isr.o
LOAD build/obj/can_lld.o
LOAD build/obj/ext_lld.o
LOAD build/obj/mac_lld.o
LOAD build/obj/sdc_lld.o
LOAD build/obj/pal_lld.o
LOAD build/obj/i2c_lld.o
LOAD build/obj/usb_lld.o
LOAD build/obj/rtc_lld.o
LOAD build/obj/spi_lld.o
LOAD build/obj/gpt_lld.o
LOAD build/obj/icu_lld.o
LOAD build/obj/pwm_lld.o
LOAD build/obj/serial_lld.o
LOAD build/obj/uart_lld.o
LOAD build/obj/board.o
LOAD build/obj/gfx.o
LOAD build/obj/gos_chibios.o
LOAD build/obj/gos_freertos.o
LOAD build/obj/gos_win32.o
LOAD build/obj/gos_linux.o
LOAD build/obj/gos_osx.o
LOAD build/obj/gos_raw32.o
LOAD build/obj/gos_ecos.o
LOAD build/obj/gos_rawrtos.o
LOAD build/obj/gdriver.o
LOAD build/obj/gqueue.o
LOAD build/obj/gdisp.o
LOAD build/obj/gdisp_fonts.o
LOAD build/obj/gdisp_pixmap.o
LOAD build/obj/gdisp_image.o
LOAD build/obj/gdisp_image_native.o
LOAD build/obj/gdisp_image_gif.o
LOAD build/obj/gdisp_image_bmp.o
LOAD build/obj/gdisp_image_jpg.o
LOAD build/obj/gdisp_image_png.o
LOAD build/obj/mf_encoding.o
LOAD build/obj/mf_font.o
LOAD build/obj/mf_justify.o
LOAD build/obj/mf_kerning.o
LOAD build/obj/mf_rlefont.o
LOAD build/obj/mf_bwfont.o
LOAD build/obj/mf_scaledfont.o
LOAD build/obj/mf_wordwrap.o
LOAD build/obj/gevent.o
LOAD build/obj/gtimer.o
LOAD build/obj/gwin.o
LOAD build/obj/gwin_widget.o
LOAD build/obj/gwin_wm.o
LOAD build/obj/gwin_console.o
LOAD build/obj/gwin_graph.o
LOAD build/obj/gwin_button.o
LOAD build/obj/gwin_slider.o
LOAD build/obj/gwin_checkbox.o
LOAD build/obj/gwin_image.o
LOAD build/obj/gwin_label.o
LOAD build/obj/gwin_radio.o
LOAD build/obj/gwin_list.o
LOAD build/obj/gwin_progressbar.o
LOAD build/obj/gwin_container.o
LOAD build/obj/gwin_frame.o
LOAD build/obj/gwin_tabset.o
LOAD build/obj/gwin_gl3d.o
LOAD build/obj/ginput.o
LOAD build/obj/ginput_mouse.o
LOAD build/obj/ginput_keyboard.o
LOAD build/obj/ginput_keyboard_microcode.o
LOAD build/obj/ginput_toggle.o
LOAD build/obj/ginput_dial.o
LOAD build/obj/gadc.o
LOAD build/obj/gaudio.o
LOAD build/obj/gmisc.o
LOAD build/obj/gmisc_arrayops.o
LOAD build/obj/gmisc_matrix2d.o
LOAD build/obj/gmisc_trig.o
LOAD build/obj/gfile.o
LOAD build/obj/gfile_fs_native.o
LOAD build/obj/gfile_fs_ram.o
LOAD build/obj/gfile_fs_rom.o
LOAD build/obj/gfile_fs_fatfs.o
LOAD build/obj/gfile_fs_petitfs.o
LOAD build/obj/gfile_fs_mem.o
LOAD build/obj/gfile_fs_chibios.o
LOAD build/obj/gfile_fs_strings.o
LOAD build/obj/gfile_printg.o
LOAD build/obj/gfile_scang.o
LOAD build/obj/gfile_stdio.o
LOAD build/obj/gfile_fatfs_wrapper.o
LOAD build/obj/gfile_fatfs_diskio_chibios.o
LOAD build/obj/gfile_petitfs_wrapper.o
LOAD build/obj/gfile_petitfs_diskio_chibios.o
LOAD build/obj/gdisp_lld_SSD1289.o
LOAD build/obj/gmouse_lld_ADS7843.o
LOAD build/obj/lis302dl.o
LOAD build/obj/chprintf.o
LOAD build/obj/mainScreen.o
LOAD build/obj/callScreen.o
LOAD build/obj/callsScreen.o
LOAD build/obj/settingsScreen.o
LOAD build/obj/gallery.o
LOAD build/obj/contactsScreen.o
LOAD build/obj/calls_t.o
LOAD build/obj/messages_t.o
LOAD build/obj/audioPlayer_t.o
LOAD build/obj/gallery_t.o
LOAD build/obj/contacts_t.o
LOAD build/obj/configuration_t.o
LOAD build/obj/gui_t.o
LOAD build/obj/uart_t.o
LOAD build/obj/gsm.o
LOAD build/obj/slre.o
LOAD build/obj/sdcard.o
LOAD build/obj/main.o
                0x00000400                __main_stack_size__ = 0x400
                0x00000400                __process_stack_size__ = 0x400
                0x20000000                __ram_start__ = ORIGIN (ram)
                0x0001c000                __ram_size__ = 0x1c000
                0x2001c000                __ram_end__ = (__ram_start__ + __ram_size__)
                0x00000000                . = 0x0
                0x00000000                _text = .

startup         0x08000000      0x1ac
 *(vectors)
 vectors        0x08000000      0x1ac build/obj/vectors.o
                0x08000000                _vectors

constructors    0x080001ac        0x0
                0x080001ac                PROVIDE (__init_array_start, .)
 *(SORT(.init_array.*))
 *(.init_array)
                0x080001ac                PROVIDE (__init_array_end, .)

destructors     0x080001ac        0x0
                0x080001ac                PROVIDE (__fini_array_start, .)
 *(.fini_array)
 *(SORT(.fini_array.*))
                0x080001ac                PROVIDE (__fini_array_end, .)

.text           0x080001b0    0x16cc4
 *(.text.startup.*)
 .text.startup.main
                0x080001b0      0x150 build/obj/main.o
                0x080001b0                main
 *(.text)
 .text          0x08000300      0x21c c:/chibistudio/tools/gnu tools arm embedded/4.7 2014q2/bin/../lib/gcc/arm-none-eabi/4.7.4/armv7e-m\libgcc.a(_arm_addsubsf3.o)
                0x08000300                __aeabi_frsub
                0x08000308                __subsf3
                0x08000308                __aeabi_fsub
                0x0800030c                __aeabi_fadd
                0x0800030c                __addsf3
                0x0800046c                __aeabi_ui2f
                0x0800046c                __floatunsisf
                0x08000474                __aeabi_i2f
                0x08000474                __floatsisf
                0x08000490                __aeabi_ul2f
                0x08000490                __floatundisf
                0x080004a0                __aeabi_l2f
                0x080004a0                __floatdisf
 *fill*         0x0800051c        0x4 00
 .text          0x08000520      0x2a0 c:/chibistudio/tools/gnu tools arm embedded/4.7 2014q2/bin/../lib/gcc/arm-none-eabi/4.7.4/armv7e-m\libgcc.a(_arm_muldivsf3.o)
                0x08000520                __mulsf3
                0x08000520                __aeabi_fmul
                0x08000688                __aeabi_fdiv
                0x08000688                __divsf3
 .text          0x080007c0       0x4c c:/chibistudio/tools/gnu tools arm embedded/4.7 2014q2/bin/../lib/gcc/arm-none-eabi/4.7.4/armv7e-m\libgcc.a(_arm_fixsfsi.o)
                0x080007c0                __aeabi_f2iz
                0x080007c0                __fixsfsi
 *(.text.*)
 *fill*         0x0800080c        0x4 00
 .text.__late_init
                0x08000810       0x10 build/obj/crt0.o
                0x08000810                __late_init
 .text._default_exit
                0x08000820       0x10 build/obj/crt0.o
                0x08000820                _default_exit
 .text.ResetHandler
                0x08000830      0x1d0 build/obj/crt0.o
                0x08000830                ResetHandler
 .text._unhandled_exception
                0x08000a00       0x10 build/obj/vectors.o
                0x08000a00                Vector58
                0x08000a00                VectorE8
                0x08000a00                Vector9C
                0x08000a00                VectorAC
                0x08000a00                Vector1A0
                0x08000a00                Vector5C
                0x08000a00                NMIVector
                0x08000a00                Vector11C
                0x08000a00                Vector19C
                0x08000a00                Vector8C
                0x08000a00                VectorDC
                0x08000a00                Vector168
                0x08000a00                Vector110
                0x08000a00                VectorC8
                0x08000a00                Vector94
                0x08000a00                VectorA8
                0x08000a00                Vector160
                0x08000a00                VectorEC
                0x08000a00                UsageFaultVector
                0x08000a00                DebugMonitorVector
                0x08000a00                Vector40
                0x08000a00                VectorF8
                0x08000a00                Vector108
                0x08000a00                VectorBC
                0x08000a00                Vector190
                0x08000a00                Vector148
                0x08000a00                Vector188
                0x08000a00                PendSVVector
                0x08000a00                Vector198
                0x08000a00                Vector118
                0x08000a00                Vector64
                0x08000a00                VectorCC
                0x08000a00                Vector54
                0x08000a00                Vector98
                0x08000a00                Vector138
                0x08000a00                Vector24
                0x08000a00                Vector178
                0x08000a00                Vector1A4
                0x08000a00                BusFaultVector
                0x08000a00                VectorD0
                0x08000a00                Vector140
                0x08000a00                VectorE4
                0x08000a00                VectorC0
                0x08000a00                HardFaultVector
                0x08000a00                Vector134
                0x08000a00                VectorF0
                0x08000a00                Vector13C
                0x08000a00                Vector100
                0x08000a00                VectorE0
                0x08000a00                VectorF4
                0x08000a00                MemManageVector
                0x08000a00                VectorA0
                0x08000a00                VectorC4
                0x08000a00                Vector180
                0x08000a00                VectorB0
                0x08000a00                Vector90
                0x08000a00                Vector114
                0x08000a00                Vector164
                0x08000a00                Vector60
                0x08000a00                Vector1C
                0x08000a00                Vector17C
                0x08000a00                Vector48
                0x08000a00                Vector1A8
                0x08000a00                Vector16C
                0x08000a00                VectorD4
                0x08000a00                Vector4C
                0x08000a00                Vector144
                0x08000a00                Vector15C
                0x08000a00                Vector68
                0x08000a00                _unhandled_exception
                0x08000a00                Vector170
                0x08000a00                Vector88
                0x08000a00                Vector184
                0x08000a00                Vector10C
                0x08000a00                Vector14C
                0x08000a00                Vector50
                0x08000a00                Vector194
                0x08000a00                Vector44
                0x08000a00                Vector28
                0x08000a00                VectorB8
                0x08000a00                Vector34
                0x08000a00                VectorA4
                0x08000a00                Vector20
                0x08000a00                Vector18C
                0x08000a00                Vector174
 .text.port_halt
                0x08000a10       0x10 build/obj/chcore.o
                0x08000a10                port_halt
 .text._port_switch_from_isr
                0x08000a20       0x10 build/obj/chcore_v7m.o
                0x08000a20                _port_switch_from_isr
 .text.SVCallVector
                0x08000a30       0x20 build/obj/chcore_v7m.o
                0x08000a30                SVCallVector
 .text._port_init
                0x08000a50       0x40 build/obj/chcore_v7m.o
                0x08000a50                _port_init
 .text._port_irq_epilogue
                0x08000a90       0x70 build/obj/chcore_v7m.o
                0x08000a90                _port_irq_epilogue
 .text.SysTickVector
                0x08000b00       0x30 build/obj/chcore_v7m.o
                0x08000b00                SysTickVector
 .text._port_switch
                0x08000b30       0x10 build/obj/chcore_v7m.o
                0x08000b30                _port_switch
 .text._port_thread_start
                0x08000b40       0x20 build/obj/chcore_v7m.o
                0x08000b40                _port_thread_start
 .text.nvicEnableVector
                0x08000b60       0x50 build/obj/nvic.o
                0x08000b60                nvicEnableVector
 .text.nvicSetSystemHandlerPriority
                0x08000bb0       0x30 build/obj/nvic.o
                0x08000bb0                nvicSetSystemHandlerPriority
 .text._idle_thread
                0x08000be0       0x20 build/obj/chsys.o
                0x08000be0                _idle_thread
 .text.chSysInit
                0x08000c00       0x70 build/obj/chsys.o
                0x08000c00                chSysInit
 .text.chSysTimerHandlerI
                0x08000c70       0x70 build/obj/chsys.o
                0x08000c70                chSysTimerHandlerI
 .text.dbg_check_enable
                0x08000ce0       0x30 build/obj/chdebug.o
                0x08000ce0                dbg_check_enable
 .text.dbg_check_lock
                0x08000d10       0x30 build/obj/chdebug.o
                0x08000d10                dbg_check_lock
 .text.dbg_check_unlock
                0x08000d40       0x40 build/obj/chdebug.o
                0x08000d40                dbg_check_unlock
 .text.dbg_check_lock_from_isr
                0x08000d80       0x30 build/obj/chdebug.o
                0x08000d80                dbg_check_lock_from_isr
 .text.dbg_check_unlock_from_isr
                0x08000db0       0x40 build/obj/chdebug.o
                0x08000db0                dbg_check_unlock_from_isr
 .text.dbg_check_enter_isr
                0x08000df0       0x40 build/obj/chdebug.o
                0x08000df0                dbg_check_enter_isr
 .text.dbg_check_leave_isr
                0x08000e30       0x40 build/obj/chdebug.o
                0x08000e30                dbg_check_leave_isr
 .text.chDbgCheckClassI
                0x08000e70       0x30 build/obj/chdebug.o
                0x08000e70                chDbgCheckClassI
 .text.chDbgCheckClassS
                0x08000ea0       0x30 build/obj/chdebug.o
                0x08000ea0                chDbgCheckClassS
 .text._vt_init
                0x08000ed0       0x20 build/obj/chvt.o
                0x08000ed0                _vt_init
 .text.chVTSetI
                0x08000ef0       0x50 build/obj/chvt.o
                0x08000ef0                chVTSetI
 .text.chVTResetI
                0x08000f40       0x30 build/obj/chvt.o
                0x08000f40                chVTResetI
 .text._scheduler_init
                0x08000f70       0x20 build/obj/chschd.o
                0x08000f70                _scheduler_init
 .text.chSchReadyI
                0x08000f90       0x30 build/obj/chschd.o
                0x08000f90                chSchReadyI
 .text.wakeup   0x08000fc0       0x50 build/obj/chschd.o
 .text.chSchGoSleepS
                0x08001010       0x30 build/obj/chschd.o
                0x08001010                chSchGoSleepS
 .text.chSchGoSleepTimeoutS
                0x08001040       0x50 build/obj/chschd.o
                0x08001040                chSchGoSleepTimeoutS
 .text.chSchWakeupS
                0x08001090       0x40 build/obj/chschd.o
                0x08001090                chSchWakeupS
 .text.chSchDoRescheduleBehind
                0x080010d0       0x30 build/obj/chschd.o
                0x080010d0                chSchDoRescheduleBehind
 .text.chSchDoRescheduleAhead
                0x08001100       0x40 build/obj/chschd.o
                0x08001100                chSchDoRescheduleAhead
 .text.chSchRescheduleS
                0x08001140       0x30 build/obj/chschd.o
                0x08001140                chSchRescheduleS
 .text.chSchDoReschedule
                0x08001170       0x20 build/obj/chschd.o
                0x08001170                chSchDoReschedule
 .text._thread_init
                0x08001190       0x50 build/obj/chthreads.o
                0x08001190                _thread_init
 .text.chThdCreateI
                0x080011e0       0x70 build/obj/chthreads.o
                0x080011e0                chThdCreateI
 .text.chThdCreateStatic
                0x08001250       0x40 build/obj/chthreads.o
                0x08001250                chThdCreateStatic
 .text.chThdSetPriority
                0x08001290       0x40 build/obj/chthreads.o
                0x08001290                chThdSetPriority
 .text.chThdSleep
                0x080012d0       0x30 build/obj/chthreads.o
                0x080012d0                chThdSleep
 .text.chThdYield
                0x08001300       0x30 build/obj/chthreads.o
                0x08001300                chThdYield
 .text.chThdExitS
                0x08001330       0x40 build/obj/chthreads.o
                0x08001330                chThdExitS
 .text.chThdExit
                0x08001370       0x20 build/obj/chthreads.o
                0x08001370                chThdExit
 .text.chThdCreateFromHeap
                0x08001390       0x50 build/obj/chdynamic.o
                0x08001390                chThdCreateFromHeap
 .text.chSemInit
                0x080013e0       0x10 build/obj/chsem.o
                0x080013e0                chSemInit
 .text.chSemWaitS
                0x080013f0       0x40 build/obj/chsem.o
                0x080013f0                chSemWaitS
 .text.chSemWait
                0x08001430       0x30 build/obj/chsem.o
                0x08001430                chSemWait
 .text.chSemWaitTimeoutS
                0x08001460       0x50 build/obj/chsem.o
                0x08001460                chSemWaitTimeoutS
 .text.chSemWaitTimeout
                0x080014b0       0x30 build/obj/chsem.o
                0x080014b0                chSemWaitTimeout
 .text.chSemSignalI
                0x080014e0       0x30 build/obj/chsem.o
                0x080014e0                chSemSignalI
 .text.chMtxInit
                0x08001510       0x10 build/obj/chmtx.o
                0x08001510                chMtxInit
 .text.chMtxLockS
                0x08001520       0xd0 build/obj/chmtx.o
                0x08001520                chMtxLockS
 .text.chMtxLock
                0x080015f0       0x20 build/obj/chmtx.o
                0x080015f0                chMtxLock
 .text.chMtxUnlock
                0x08001610       0x70 build/obj/chmtx.o
                0x08001610                chMtxUnlock
 .text.chEvtSignalI
                0x08001680       0x40 build/obj/chevents.o
                0x08001680                chEvtSignalI
 .text.chEvtBroadcastFlagsI
                0x080016c0       0x30 build/obj/chevents.o
                0x080016c0                chEvtBroadcastFlagsI
 .text.chMsgSend
                0x080016f0       0x50 build/obj/chmsg.o
                0x080016f0                chMsgSend
 .text.chMsgWait
                0x08001740       0x50 build/obj/chmsg.o
                0x08001740                chMsgWait
 .text.chMsgRelease
                0x08001790       0x30 build/obj/chmsg.o
                0x08001790                chMsgRelease
 .text.chMBInit
                0x080017c0       0x30 build/obj/chmboxes.o
                0x080017c0                chMBInit
 .text.chMBPostS
                0x080017f0       0x40 build/obj/chmboxes.o
                0x080017f0                chMBPostS
 .text.chMBPost
                0x08001830       0x30 build/obj/chmboxes.o
                0x08001830                chMBPost
 .text.chMBFetchS
                0x08001860       0x40 build/obj/chmboxes.o
                0x08001860                chMBFetchS
 .text.chMBFetch
                0x080018a0       0x30 build/obj/chmboxes.o
                0x080018a0                chMBFetch
 .text.qwait    0x080018d0       0x30 build/obj/chqueues.o
 .text.chIQInit
                0x08001900       0x20 build/obj/chqueues.o
                0x08001900                chIQInit
 .text.chIQPutI
                0x08001920       0x60 build/obj/chqueues.o
                0x08001920                chIQPutI
 .text.chIQGetTimeout
                0x08001980       0x60 build/obj/chqueues.o
                0x08001980                chIQGetTimeout
 .text.chIQReadTimeout
                0x080019e0       0x90 build/obj/chqueues.o
                0x080019e0                chIQReadTimeout
 .text.chOQInit
                0x08001a70       0x20 build/obj/chqueues.o
                0x08001a70                chOQInit
 .text.chOQPutTimeout
                0x08001a90       0x70 build/obj/chqueues.o
                0x08001a90                chOQPutTimeout
 .text.chOQGetI
                0x08001b00       0x50 build/obj/chqueues.o
                0x08001b00                chOQGetI
 .text.chOQWriteTimeout
                0x08001b50       0x90 build/obj/chqueues.o
                0x08001b50                chOQWriteTimeout
 .text._core_init
                0x08001be0       0x30 build/obj/chmemcore.o
                0x08001be0                _core_init
 .text.chCoreAllocI
                0x08001c10       0x30 build/obj/chmemcore.o
                0x08001c10                chCoreAllocI
 .text.chCoreAlloc
                0x08001c40       0x30 build/obj/chmemcore.o
                0x08001c40                chCoreAlloc
 .text._heap_init
                0x08001c70       0x20 build/obj/chheap.o
                0x08001c70                _heap_init
 .text.chHeapAlloc
                0x08001c90       0x90 build/obj/chheap.o
                0x08001c90                chHeapAlloc
 .text.chHeapFree
                0x08001d20       0x90 build/obj/chheap.o
                0x08001d20                chHeapFree
 .text.halInit  0x08001db0       0x30 build/obj/hal.o
                0x08001db0                halInit
 .text.mmcsdGetCapacity
                0x08001de0       0x50 build/obj/mmcsd.o
                0x08001de0                mmcsdGetCapacity
 .text.palSetBusMode
                0x08001e30       0x10 build/obj/pal.o
                0x08001e30                palSetBusMode
 .text.pwmInit  0x08001e40       0x10 build/obj/pwm.o
                0x08001e40                pwmInit
 .text.pwmObjectInit
                0x08001e50       0x10 build/obj/pwm.o
                0x08001e50                pwmObjectInit
 .text.pwmStart
                0x08001e60       0x30 build/obj/pwm.o
                0x08001e60                pwmStart
 .text.pwmEnableChannel
                0x08001e90       0x30 build/obj/pwm.o
                0x08001e90                pwmEnableChannel
 .text.sdcGetInfo
                0x08001ec0       0x20 build/obj/sdc.o
                0x08001ec0                sdcGetInfo
 .text.sdcConnect
                0x08001ee0      0x250 build/obj/sdc.o
                0x08001ee0                sdcConnect
 .text.sdcSync  0x08002130       0x20 build/obj/sdc.o
                0x08002130                sdcSync
 .text.sdcWrite
                0x08002150       0x30 build/obj/sdc.o
                0x08002150                sdcWrite
 .text.sdcRead  0x08002180       0x30 build/obj/sdc.o
                0x08002180                sdcRead
 .text._sdc_wait_for_transfer_state
                0x080021b0       0x50 build/obj/sdc.o
                0x080021b0                _sdc_wait_for_transfer_state
 .text.sdcDisconnect
                0x08002200       0x60 build/obj/sdc.o
                0x08002200                sdcDisconnect
 .text.sdcInit  0x08002260       0x10 build/obj/sdc.o
                0x08002260                sdcInit
 .text.sdcObjectInit
                0x08002270       0x20 build/obj/sdc.o
                0x08002270                sdcObjectInit
 .text.sdcStart
                0x08002290       0x30 build/obj/sdc.o
                0x08002290                sdcStart
 .text.readt    0x080022c0       0x10 build/obj/serial.o
 .text.read     0x080022d0       0x10 build/obj/serial.o
 .text.writet   0x080022e0       0x10 build/obj/serial.o
 .text.write    0x080022f0       0x10 build/obj/serial.o
 .text.gett     0x08002300       0x10 build/obj/serial.o
 .text.get      0x08002310       0x10 build/obj/serial.o
 .text.putt     0x08002320       0x10 build/obj/serial.o
 .text.put      0x08002330       0x10 build/obj/serial.o
 .text.sdInit   0x08002340       0x10 build/obj/serial.o
                0x08002340                sdInit
 .text.sdObjectInit
                0x08002350       0x50 build/obj/serial.o
                0x08002350                sdObjectInit
 .text.sdStart  0x080023a0       0x30 build/obj/serial.o
                0x080023a0                sdStart
 .text.sdIncomingDataI
                0x080023d0       0x40 build/obj/serial.o
                0x080023d0                sdIncomingDataI
 .text.spiInit  0x08002410       0x10 build/obj/spi.o
                0x08002410                spiInit
 .text.spiObjectInit
                0x08002420       0x10 build/obj/spi.o
                0x08002420                spiObjectInit
 .text.spiStart
                0x08002430       0x30 build/obj/spi.o
                0x08002430                spiStart
 .text.spiExchange
                0x08002460       0x50 build/obj/spi.o
                0x08002460                spiExchange
 .text.spiAcquireBus
                0x080024b0       0x10 build/obj/spi.o
                0x080024b0                spiAcquireBus
 .text.spiReleaseBus
                0x080024c0       0x10 build/obj/spi.o
                0x080024c0                spiReleaseBus
 .text.Vector6C
                0x080024d0       0x30 build/obj/stm32_dma.o
                0x080024d0                Vector6C
 .text.Vector70
                0x08002500       0x40 build/obj/stm32_dma.o
                0x08002500                Vector70
 .text.Vector74
                0x08002540       0x40 build/obj/stm32_dma.o
                0x08002540                Vector74
 .text.Vector78
                0x08002580       0x40 build/obj/stm32_dma.o
                0x08002580                Vector78
 .text.Vector7C
                0x080025c0       0x30 build/obj/stm32_dma.o
                0x080025c0                Vector7C
 .text.Vector80
                0x080025f0       0x40 build/obj/stm32_dma.o
                0x080025f0                Vector80
 .text.Vector84
                0x08002630       0x40 build/obj/stm32_dma.o
                0x08002630                Vector84
 .text.VectorFC
                0x08002670       0x40 build/obj/stm32_dma.o
                0x08002670                VectorFC
 .text.Vector120
                0x080026b0       0x30 build/obj/stm32_dma.o
                0x080026b0                Vector120
 .text.Vector124
                0x080026e0       0x40 build/obj/stm32_dma.o
                0x080026e0                Vector124
 .text.Vector128
                0x08002720       0x40 build/obj/stm32_dma.o
                0x08002720                Vector128
 .text.Vector12C
                0x08002760       0x40 build/obj/stm32_dma.o
                0x08002760                Vector12C
 .text.Vector130
                0x080027a0       0x30 build/obj/stm32_dma.o
                0x080027a0                Vector130
 .text.Vector150
                0x080027d0       0x40 build/obj/stm32_dma.o
                0x080027d0                Vector150
 .text.Vector154
                0x08002810       0x40 build/obj/stm32_dma.o
                0x08002810                Vector154
 .text.Vector158
                0x08002850       0x40 build/obj/stm32_dma.o
                0x08002850                Vector158
 .text.dmaInit  0x08002890      0x140 build/obj/stm32_dma.o
                0x08002890                dmaInit
 .text.dmaStreamAllocate
                0x080029d0       0xa0 build/obj/stm32_dma.o
                0x080029d0                dmaStreamAllocate
 .text.hal_lld_init
                0x08002a70       0xb0 build/obj/hal_lld.o
                0x08002a70                hal_lld_init
 .text.stm32_clock_init
                0x08002b20      0x100 build/obj/hal_lld.o
                0x08002b20                stm32_clock_init
 .text.sdc_lld_collect_errors
                0x08002c20       0x40 build/obj/sdc_lld.o
 .text.Vector104
                0x08002c60       0x50 build/obj/sdc_lld.o
                0x08002c60                Vector104
 .text.sdc_lld_init
                0x08002cb0       0x20 build/obj/sdc_lld.o
                0x08002cb0                sdc_lld_init
 .text.sdc_lld_start
                0x08002cd0       0x60 build/obj/sdc_lld.o
                0x08002cd0                sdc_lld_start
 .text.sdc_lld_start_clk
                0x08002d30       0x30 build/obj/sdc_lld.o
                0x08002d30                sdc_lld_start_clk
 .text.sdc_lld_set_data_clk
                0x08002d60       0x20 build/obj/sdc_lld.o
                0x08002d60                sdc_lld_set_data_clk
 .text.sdc_lld_stop_clk
                0x08002d80       0x10 build/obj/sdc_lld.o
                0x08002d80                sdc_lld_stop_clk
 .text.sdc_lld_set_bus_mode
                0x08002d90       0x30 build/obj/sdc_lld.o
                0x08002d90                sdc_lld_set_bus_mode
 .text.sdc_lld_send_cmd_none
                0x08002dc0       0x30 build/obj/sdc_lld.o
                0x08002dc0                sdc_lld_send_cmd_none
 .text.sdc_lld_send_cmd_short
                0x08002df0       0x40 build/obj/sdc_lld.o
                0x08002df0                sdc_lld_send_cmd_short
 .text.sdc_lld_send_cmd_short_crc
                0x08002e30       0x40 build/obj/sdc_lld.o
                0x08002e30                sdc_lld_send_cmd_short_crc
 .text.sdc_lld_wait_transaction_end
                0x08002e70       0xb0 build/obj/sdc_lld.o
 .text.sdc_lld_error_cleanup
                0x08002f20       0x80 build/obj/sdc_lld.o
 .text.sdc_lld_send_cmd_long_crc
                0x08002fa0       0x50 build/obj/sdc_lld.o
                0x08002fa0                sdc_lld_send_cmd_long_crc
 .text.sdc_lld_read_aligned
                0x08002ff0       0xc0 build/obj/sdc_lld.o
                0x08002ff0                sdc_lld_read_aligned
 .text.sdc_lld_write_aligned
                0x080030b0       0xc0 build/obj/sdc_lld.o
                0x080030b0                sdc_lld_write_aligned
 .text.sdc_lld_read
                0x08003170       0xd0 build/obj/sdc_lld.o
                0x08003170                sdc_lld_read
 .text.sdc_lld_write
                0x08003240       0xd0 build/obj/sdc_lld.o
                0x08003240                sdc_lld_write
 .text.sdc_lld_sync
                0x08003310       0x10 build/obj/sdc_lld.o
                0x08003310                sdc_lld_sync
 .text._pal_lld_init
                0x08003320      0x1b0 build/obj/pal_lld.o
                0x08003320                _pal_lld_init
 .text._pal_lld_setgroupmode
                0x080034d0       0xd0 build/obj/pal_lld.o
                0x080034d0                _pal_lld_setgroupmode
 .text.spi_lld_serve_tx_interrupt
                0x080035a0       0x10 build/obj/spi_lld.o
 .text.spi_lld_serve_rx_interrupt
                0x080035b0       0x90 build/obj/spi_lld.o
 .text.spi_lld_init
                0x08003640       0x50 build/obj/spi_lld.o
                0x08003640                spi_lld_init
 .text.spi_lld_start
                0x08003690       0xb0 build/obj/spi_lld.o
                0x08003690                spi_lld_start
 .text.spi_lld_exchange
                0x08003740       0x40 build/obj/spi_lld.o
                0x08003740                spi_lld_exchange
 .text.VectorB4
                0x08003780       0x80 build/obj/pwm_lld.o
                0x08003780                VectorB4
 .text.pwm_lld_init
                0x08003800       0x20 build/obj/pwm_lld.o
                0x08003800                pwm_lld_init
 .text.pwm_lld_start
                0x08003820      0x120 build/obj/pwm_lld.o
                0x08003820                pwm_lld_start
 .text.pwm_lld_enable_channel
                0x08003940       0x30 build/obj/pwm_lld.o
                0x08003940                pwm_lld_enable_channel
 .text.notify2  0x08003970       0x20 build/obj/serial_lld.o
 .text.VectorD8
                0x08003990      0x160 build/obj/serial_lld.o
                0x08003990                VectorD8
 .text.sd_lld_init
                0x08003af0       0x30 build/obj/serial_lld.o
                0x08003af0                sd_lld_init
 .text.sd_lld_start
                0x08003b20       0xb0 build/obj/serial_lld.o
                0x08003b20                sd_lld_start
 .text.__early_init
                0x08003bd0       0x10 build/obj/board.o
                0x08003bd0                __early_init
 .text.sdc_lld_is_card_inserted
                0x08003be0       0x10 build/obj/board.o
                0x08003be0                sdc_lld_is_card_inserted
 .text.sdc_lld_is_write_protected
                0x08003bf0       0x10 build/obj/board.o
                0x08003bf0                sdc_lld_is_write_protected
 .text.boardInit
                0x08003c00       0x10 build/obj/board.o
                0x08003c00                boardInit
 .text.gfxInit  0x08003c10       0x40 build/obj/gfx.o
                0x08003c10                gfxInit
 .text._gosInit
                0x08003c50       0x20 build/obj/gos_chibios.o
                0x08003c50                _gosInit
 .text.gfxSleepMilliseconds
                0x08003c70       0x30 build/obj/gos_chibios.o
                0x08003c70                gfxSleepMilliseconds
 .text.gfxSleepMicroseconds
                0x08003ca0       0x30 build/obj/gos_chibios.o
                0x08003ca0                gfxSleepMicroseconds
 .text.gfxSemInit
                0x08003cd0       0x10 build/obj/gos_chibios.o
                0x08003cd0                gfxSemInit
 .text.gfxSemWait
                0x08003ce0       0x40 build/obj/gos_chibios.o
                0x08003ce0                gfxSemWait
 .text.gfxSemSignal
                0x08003d20       0x30 build/obj/gos_chibios.o
                0x08003d20                gfxSemSignal
 .text.gfxThreadCreate
                0x08003d50       0x30 build/obj/gos_chibios.o
                0x08003d50                gfxThreadCreate
 .text._gdriverInit
                0x08003d80       0x10 build/obj/gdriver.o
                0x08003d80                _gdriverInit
 .text.gdriverRegister
                0x08003d90       0xa0 build/obj/gdriver.o
                0x08003d90                gdriverRegister
 .text.gdriverGetInstance
                0x08003e30       0x30 build/obj/gdriver.o
                0x08003e30                gdriverGetInstance
 .text.gdriverGetNext
                0x08003e60       0x30 build/obj/gdriver.o
                0x08003e60                gdriverGetNext
 .text._gqueueInit
                0x08003e90       0x10 build/obj/gqueue.o
                0x08003e90                _gqueueInit
 .text.gfxQueueASyncInit
                0x08003ea0       0x10 build/obj/gqueue.o
                0x08003ea0                gfxQueueASyncInit
 .text.gfxQueueASyncGet
                0x08003eb0       0x30 build/obj/gqueue.o
                0x08003eb0                gfxQueueASyncGet
 .text.gfxQueueASyncPut
                0x08003ee0       0x40 build/obj/gqueue.o
                0x08003ee0                gfxQueueASyncPut
 .text.gfxQueueASyncRemoveI
                0x08003f20       0x40 build/obj/gqueue.o
                0x08003f20                gfxQueueASyncRemoveI
 .text.gfxQueueASyncRemove
                0x08003f60       0x30 build/obj/gqueue.o
                0x08003f60                gfxQueueASyncRemove
 .text.fillcharglyph
                0x08003f90       0x30 build/obj/gdisp.o
 .text.drawcharglyph
                0x08003fc0       0x30 build/obj/gdisp.o
 .text.hline_clip
                0x08003ff0       0xb0 build/obj/gdisp.o
 .text.drawcharline
                0x080040a0       0x70 build/obj/gdisp.o
 .text.vline_clip
                0x08004110       0xf0 build/obj/gdisp.o
 .text._gdispInit
                0x08004200       0x20 build/obj/gdisp.o
                0x08004200                _gdispInit
 .text._gdispInitDriver
                0x08004220       0x30 build/obj/gdisp.o
                0x08004220                _gdispInitDriver
 .text._gdispDeInitDriver
                0x08004250       0x20 build/obj/gdisp.o
                0x08004250                _gdispDeInitDriver
 .text.gdispGGetWidth
                0x08004270       0x10 build/obj/gdisp.o
                0x08004270                gdispGGetWidth
 .text.gdispGGetHeight
                0x08004280       0x10 build/obj/gdisp.o
                0x08004280                gdispGGetHeight
 .text.gdispGGetOrientation
                0x08004290       0x10 build/obj/gdisp.o
                0x08004290                gdispGGetOrientation
 .text.gdispGDrawPixel
                0x080042a0       0x90 build/obj/gdisp.o
                0x080042a0                gdispGDrawPixel
 .text.gdispGDrawLine
                0x08004330      0x4b0 build/obj/gdisp.o
                0x08004330                gdispGDrawLine
 .text.gdispGClear
                0x080047e0       0x70 build/obj/gdisp.o
                0x080047e0                gdispGClear
 .text.gdispGFillArea
                0x08004850      0x100 build/obj/gdisp.o
                0x08004850                gdispGFillArea
 .text.gdispGBlitArea
                0x08004950      0x130 build/obj/gdisp.o
                0x08004950                gdispGBlitArea
 .text.gdispGSetClip
                0x08004a80       0x80 build/obj/gdisp.o
                0x08004a80                gdispGSetClip
 .text.gdispGControl
                0x08004b00       0x80 build/obj/gdisp.o
                0x08004b00                gdispGControl
 .text._gdispPostInitDriver
                0x08004b80       0x40 build/obj/gdisp.o
                0x08004b80                _gdispPostInitDriver
 .text.gdispGDrawBox
                0x08004bc0       0xe0 build/obj/gdisp.o
                0x08004bc0                gdispGDrawBox
 .text.gdispGDrawStringBox
                0x08004ca0       0xc0 build/obj/gdisp.o
                0x08004ca0                gdispGDrawStringBox
 .text.gdispGFillStringBox
                0x08004d60      0x1d0 build/obj/gdisp.o
                0x08004d60                gdispGFillStringBox
 .text.gdispGetFontMetric
                0x08004f30       0x40 build/obj/gdisp.o
                0x08004f30                gdispGetFontMetric
 .text.gdispGetStringWidth
                0x08004f70       0x20 build/obj/gdisp.o
                0x08004f70                gdispGetStringWidth
 .text.gdispBlendColor
                0x08004f90       0x60 build/obj/gdisp.o
                0x08004f90                gdispBlendColor
 .text.matchfont
                0x08004ff0       0x50 build/obj/gdisp_fonts.o
 .text.gdispOpenFont
                0x08005040       0x50 build/obj/gdisp_fonts.o
                0x08005040                gdispOpenFont
 .text.gdispCloseFont
                0x08005090       0x20 build/obj/gdisp_fonts.o
                0x08005090                gdispCloseFont
 .text.gdispImageInit
                0x080050b0       0x10 build/obj/gdisp_image.o
                0x080050b0                gdispImageInit
 .text.gdispImageOpenGFile
                0x080050c0       0x70 build/obj/gdisp_image.o
                0x080050c0                gdispImageOpenGFile
 .text.gdispImageClose
                0x08005130       0x20 build/obj/gdisp_image.o
                0x08005130                gdispImageClose
 .text.gdispImageIsOpen
                0x08005150       0x20 build/obj/gdisp_image.o
                0x08005150                gdispImageIsOpen
 .text.gdispImageSetBgColor
                0x08005170       0x10 build/obj/gdisp_image.o
                0x08005170                gdispImageSetBgColor
 .text.gdispGImageDraw
                0x08005180       0x30 build/obj/gdisp_image.o
                0x08005180                gdispGImageDraw
 .text.gdispImageAlloc
                0x080051b0       0x10 build/obj/gdisp_image.o
                0x080051b0                gdispImageAlloc
 .text.gdispImageFree
                0x080051c0       0x10 build/obj/gdisp_image.o
                0x080051c0                gdispImageFree
 .text.initFrame
                0x080051d0      0x340 build/obj/gdisp_image_gif.o
 .text.getbytes
                0x08005510      0x360 build/obj/gdisp_image_gif.o
 .text.startDecode
                0x08005870      0x110 build/obj/gdisp_image_gif.o
 .text.stopDecode
                0x08005980       0x20 build/obj/gdisp_image_gif.o
 .text.gdispImageClose_GIF
                0x080059a0       0x50 build/obj/gdisp_image_gif.o
                0x080059a0                gdispImageClose_GIF
 .text.gdispImageOpen_GIF
                0x080059f0      0x150 build/obj/gdisp_image_gif.o
                0x080059f0                gdispImageOpen_GIF
 .text.gdispImageCache_GIF
                0x08005b40      0x470 build/obj/gdisp_image_gif.o
                0x08005b40                gdispImageCache_GIF
 .text.gdispGImageDraw_GIF
                0x08005fb0      0xe10 build/obj/gdisp_image_gif.o
                0x08005fb0                gdispGImageDraw_GIF
 .text.gdispImageNext_GIF
                0x08006dc0       0xa0 build/obj/gdisp_image_gif.o
                0x08006dc0                gdispImageNext_GIF
 .text.mf_getchar
                0x08006e60       0x10 build/obj/mf_encoding.o
                0x08006e60                mf_getchar
 .text.mf_rewind
                0x08006e70       0x10 build/obj/mf_encoding.o
                0x08006e70                mf_rewind
 .text.mf_render_character
                0x08006e80       0x30 build/obj/mf_font.o
                0x08006e80                mf_render_character
 .text.mf_character_width
                0x08006eb0       0x20 build/obj/mf_font.o
                0x08006eb0                mf_character_width
 .text.mf_get_font_list
                0x08006ed0       0x10 build/obj/mf_font.o
                0x08006ed0                mf_get_font_list
 .text.mf_round_to_tab
                0x08006ee0       0x40 build/obj/mf_justify.o
 .text.render_left
                0x08006f20       0x60 build/obj/mf_justify.o
 .text.mf_get_string_width
                0x08006f80       0xe0 build/obj/mf_justify.o
                0x08006f80                mf_get_string_width
 .text.mf_render_aligned
                0x08007060      0x340 build/obj/mf_justify.o
                0x08007060                mf_render_aligned
 .text.find_glyph
                0x080073a0       0x90 build/obj/mf_rlefont.o
 .text.write_pixels
                0x08007430       0x70 build/obj/mf_rlefont.o
 .text.write_ref_codeword
                0x080074a0      0x1f0 build/obj/mf_rlefont.o
 .text.mf_rlefont_render_character
                0x08007690      0x100 build/obj/mf_rlefont.o
                0x08007690                mf_rlefont_render_character
 .text.mf_rlefont_character_width
                0x08007790       0x10 build/obj/mf_rlefont.o
                0x08007790                mf_rlefont_character_width
 .text.scaled_pixel_callback
                0x080077a0       0x60 build/obj/mf_scaledfont.o
 .text.mf_scaled_character_width
                0x08007800       0x20 build/obj/mf_scaledfont.o
                0x08007800                mf_scaled_character_width
 .text.mf_scaled_render_character
                0x08007820       0x50 build/obj/mf_scaledfont.o
                0x08007820                mf_scaled_render_character
 .text.doExitEvent
                0x08007870       0x20 build/obj/gevent.o
 .text.deleteAssignments
                0x08007890       0xb0 build/obj/gevent.o
 .text._geventInit
                0x08007940       0x10 build/obj/gevent.o
                0x08007940                _geventInit
 .text.geventListenerInit
                0x08007950       0x20 build/obj/gevent.o
                0x08007950                geventListenerInit
 .text.geventAttachSource
                0x08007970      0x120 build/obj/gevent.o
                0x08007970                geventAttachSource
 .text.geventEventWait
                0x08007a90       0x80 build/obj/gevent.o
                0x08007a90                geventEventWait
 .text.geventRegisterCallback
                0x08007b10       0x40 build/obj/gevent.o
                0x08007b10                geventRegisterCallback
 .text.geventGetSourceListener
                0x08007b50       0x90 build/obj/gevent.o
                0x08007b50                geventGetSourceListener
 .text.geventGetEventBuffer
                0x08007be0       0x30 build/obj/gevent.o
                0x08007be0                geventGetEventBuffer
 .text.geventSendEvent
                0x08007c10       0x60 build/obj/gevent.o
                0x08007c10                geventSendEvent
 .text.geventDetachSourceListeners
                0x08007c70       0x20 build/obj/gevent.o
                0x08007c70                geventDetachSourceListeners
 .text.GTimerThreadHandler
                0x08007c90       0xe0 build/obj/gtimer.o
 .text._gtimerInit
                0x08007d70       0x30 build/obj/gtimer.o
                0x08007d70                _gtimerInit
 .text.gtimerStart
                0x08007da0      0x120 build/obj/gtimer.o
                0x08007da0                gtimerStart
 .text.gtimerIsActive
                0x08007ec0       0x10 build/obj/gtimer.o
                0x08007ec0                gtimerIsActive
 .text._gwinInit
                0x08007ed0       0x20 build/obj/gwin.o
                0x08007ed0                _gwinInit
 .text._gwindowCreate
                0x08007ef0       0x90 build/obj/gwin.o
                0x08007ef0                _gwindowCreate
 .text._gwinDestroy
                0x08007f80       0x60 build/obj/gwin.o
                0x08007f80                _gwinDestroy
 .text.gwinSetDefaultBgColor
                0x08007fe0       0x10 build/obj/gwin.o
                0x08007fe0                gwinSetDefaultBgColor
 .text.gwinGetDefaultBgColor
                0x08007ff0       0x10 build/obj/gwin.o
                0x08007ff0                gwinGetDefaultBgColor
 .text.gwinSetDefaultFont
                0x08008000       0x10 build/obj/gwin.o
                0x08008000                gwinSetDefaultFont
 .text.gwinGetDefaultFont
                0x08008010       0x10 build/obj/gwin.o
                0x08008010                gwinGetDefaultFont
 .text.gwinDestroy
                0x08008020       0x10 build/obj/gwin.o
                0x08008020                gwinDestroy
 .text._gwidgetCreate
                0x08008030       0x50 build/obj/gwin_widget.o
                0x08008030                _gwidgetCreate
 .text.gwidgetEvent
                0x08008080       0xf0 build/obj/gwin_widget.o
 .text._gwidgetInit
                0x08008170       0x40 build/obj/gwin_widget.o
                0x08008170                _gwidgetInit
 .text._gwidgetDestroy
                0x080081b0       0x20 build/obj/gwin_widget.o
                0x080081b0                _gwidgetDestroy
 .text._gwidgetRedraw
                0x080081d0       0x10 build/obj/gwin_widget.o
                0x080081d0                _gwidgetRedraw
 .text._gwinSendEvent
                0x080081e0       0x30 build/obj/gwin_widget.o
                0x080081e0                _gwinSendEvent
 .text.gwinWidgetClearInit
                0x08008210       0x20 build/obj/gwin_widget.o
                0x08008210                gwinWidgetClearInit
 .text.gwinSetText
                0x08008230       0x70 build/obj/gwin_widget.o
                0x08008230                gwinSetText
 .text.gwinGetText
                0x080082a0       0x10 build/obj/gwin_widget.o
                0x080082a0                gwinGetText
 .text.gwinSetStyle
                0x080082b0       0x30 build/obj/gwin_widget.o
                0x080082b0                gwinSetStyle
 .text.gwinSetDefaultStyle
                0x080082e0       0x60 build/obj/gwin_widget.o
                0x080082e0                gwinSetDefaultStyle
 .text.gwinAttachListener
                0x08008340       0x10 build/obj/gwin_widget.o
                0x08008340                gwinAttachListener
 .text.WM_Init  0x08008350       0x10 build/obj/gwin_wm.o
 .text.WM_DeInit
                0x08008360       0x10 build/obj/gwin_wm.o
 .text.WM_MinMax
                0x08008370       0x10 build/obj/gwin_wm.o
 .text.WM_Delete
                0x08008380       0x10 build/obj/gwin_wm.o
 .text._gwmInit
                0x08008390       0x40 build/obj/gwin_wm.o
                0x08008390                _gwmInit
 .text._gwinFlushRedraws
                0x080083d0      0x170 build/obj/gwin_wm.o
                0x080083d0                _gwinFlushRedraws
 .text._gwinUpdate
                0x08008540       0x30 build/obj/gwin_wm.o
                0x08008540                _gwinUpdate
 .text.WM_Raise
                0x08008570       0x30 build/obj/gwin_wm.o
 .text.WM_Redraw
                0x080085a0      0x180 build/obj/gwin_wm.o
 .text._gwinRippleVisibility
                0x08008720       0x90 build/obj/gwin_wm.o
                0x08008720                _gwinRippleVisibility
 .text._gwinWMAdd
                0x080087b0       0x50 build/obj/gwin_wm.o
                0x080087b0                _gwinWMAdd
 .text.gwinRedraw
                0x08008800       0x30 build/obj/gwin_wm.o
                0x08008800                gwinRedraw
 .text.gwinSetVisible
                0x08008830       0x40 build/obj/gwin_wm.o
                0x08008830                gwinSetVisible
 .text.WM_Move  0x08008870      0x200 build/obj/gwin_wm.o
 .text.WM_Size  0x08008a70      0x1b0 build/obj/gwin_wm.o
 .text.WM_Add   0x08008c20       0x40 build/obj/gwin_wm.o
 .text.gwinResize
                0x08008c60       0x20 build/obj/gwin_wm.o
                0x08008c60                gwinResize
 .text.gwinGetNextWindow
                0x08008c80       0x10 build/obj/gwin_wm.o
                0x08008c80                gwinGetNextWindow
 .text.MouseDown
                0x08008c90       0x10 build/obj/gwin_button.o
 .text.MouseUp  0x08008ca0       0x40 build/obj/gwin_button.o
 .text.gwinButtonDraw_Normal
                0x08008ce0      0x130 build/obj/gwin_button.o
                0x08008ce0                gwinButtonDraw_Normal
 .text.gwinGButtonCreate
                0x08008e10       0x20 build/obj/gwin_button.o
                0x08008e10                gwinGButtonCreate
 .text.gwinButtonDraw_Image
                0x08008e30       0xa0 build/obj/gwin_button.o
                0x08008e30                gwinButtonDraw_Image
 .text.CalculatePosFromDPos
                0x08008ed0       0x80 build/obj/gwin_slider.o
 .text.ResetDisplayPos
                0x08008f50       0x50 build/obj/gwin_slider.o
 .text.SendSliderEvent
                0x08008fa0       0x70 build/obj/gwin_slider.o
 .text.MouseMove
                0x08009010       0x50 build/obj/gwin_slider.o
 .text.MouseDown
                0x08009060       0x50 build/obj/gwin_slider.o
 .text.gwinSliderDraw_Std
                0x080090b0      0x240 build/obj/gwin_slider.o
                0x080090b0                gwinSliderDraw_Std
 .text.MouseUp  0x080092f0       0x60 build/obj/gwin_slider.o
 .text.gwinGSliderCreate
                0x08009350       0x30 build/obj/gwin_slider.o
                0x08009350                gwinGSliderCreate
 .text.gwinSliderSetRange
                0x08009380       0x30 build/obj/gwin_slider.o
                0x08009380                gwinSliderSetRange
 .text.gwinSliderSetPosition
                0x080093b0       0x50 build/obj/gwin_slider.o
                0x080093b0                gwinSliderSetPosition
 .text._redraw  0x08009400      0x1a0 build/obj/gwin_image.o
 .text._destroy
                0x080095a0       0x20 build/obj/gwin_image.o
 .text.gwinGImageCreate
                0x080095c0       0x30 build/obj/gwin_image.o
                0x080095c0                gwinGImageCreate
 .text.gwinImageOpenGFile
                0x080095f0       0x50 build/obj/gwin_image.o
                0x080095f0                gwinImageOpenGFile
 .text.gwinLabelDefaultDraw
                0x08009640       0xd0 build/obj/gwin_label.o
 .text.gwinGLabelCreate
                0x08009710       0x90 build/obj/gwin_label.o
                0x08009710                gwinGLabelCreate
 .text._destroy
                0x080097a0       0x30 build/obj/gwin_list.o
 .text.MouseMove
                0x080097d0       0x70 build/obj/gwin_list.o
 .text.MouseSelect.isra.1
                0x08009840       0x90 build/obj/gwin_list.o
 .text.MouseUp  0x080098d0       0x40 build/obj/gwin_list.o
 .text.MouseDown
                0x08009910       0xd0 build/obj/gwin_list.o
 .text.gwinListDefaultDraw
                0x080099e0      0x300 build/obj/gwin_list.o
 .text.gwinGListCreate
                0x08009ce0       0x40 build/obj/gwin_list.o
                0x08009ce0                gwinGListCreate
 .text.gwinListSetScroll
                0x08009d20       0x30 build/obj/gwin_list.o
                0x08009d20                gwinListSetScroll
 .text.gwinListAddItem
                0x08009d50       0x90 build/obj/gwin_list.o
                0x08009d50                gwinListAddItem
 .text.gwinListGetSelected
                0x08009de0       0x40 build/obj/gwin_list.o
                0x08009de0                gwinListGetSelected
 .text.gwinListDeleteAll
                0x08009e20       0x40 build/obj/gwin_list.o
                0x08009e20                gwinListDeleteAll
 .text.gwinListItemDelete
                0x08009e60       0x80 build/obj/gwin_list.o
                0x08009e60                gwinListItemDelete
 .text.BorderSize
                0x08009ee0       0x10 build/obj/gwin_container.o
 .text._gcontainerInit
                0x08009ef0       0x10 build/obj/gwin_container.o
                0x08009ef0                _gcontainerInit
 .text._gcontainerCreate
                0x08009f00       0x20 build/obj/gwin_container.o
                0x08009f00                _gcontainerCreate
 .text.gwinGetFirstChild
                0x08009f20       0x30 build/obj/gwin_container.o
                0x08009f20                gwinGetFirstChild
 .text._gcontainerDestroy
                0x08009f50       0x20 build/obj/gwin_container.o
                0x08009f50                _gcontainerDestroy
 .text.gwinGetSibling
                0x08009f70       0x30 build/obj/gwin_container.o
                0x08009f70                gwinGetSibling
 .text.gwinGContainerCreate
                0x08009fa0       0x30 build/obj/gwin_container.o
                0x08009fa0                gwinGContainerCreate
 .text.gwinContainerDraw_Transparent
                0x08009fd0       0x50 build/obj/gwin_container.o
                0x08009fd0                gwinContainerDraw_Transparent
 .text.gwinContainerDraw_Std
                0x0800a020       0x50 build/obj/gwin_container.o
                0x0800a020                gwinContainerDraw_Std
 .text.gwinContainerDraw_Image
                0x0800a070      0x110 build/obj/gwin_container.o
                0x0800a070                gwinContainerDraw_Image
 .text._ginputInit
                0x0800a180       0x10 build/obj/ginput.o
                0x0800a180                _ginputInit
 .text.SendMouseEvent
                0x0800a190       0xc0 build/obj/ginput_mouse.o
 .text.GetMouseReading
                0x0800a250      0x3e0 build/obj/ginput_mouse.o
 .text.MousePoll
                0x0800a630       0x40 build/obj/ginput_mouse.o
 .text.CalibrateMouse
                0x0800a670      0x890 build/obj/ginput_mouse.o
 .text._gmouseInit
                0x0800af00       0x20 build/obj/ginput_mouse.o
                0x0800af00                _gmouseInit
 .text._gmouseInitDriver
                0x0800af20       0x50 build/obj/ginput_mouse.o
                0x0800af20                _gmouseInitDriver
 .text._gmousePostInitDriver
                0x0800af70       0x50 build/obj/ginput_mouse.o
                0x0800af70                _gmousePostInitDriver
 .text._gmouseDeInitDriver
                0x0800afc0       0x10 build/obj/ginput_mouse.o
                0x0800afc0                _gmouseDeInitDriver
 .text.ginputGetMouse
                0x0800afd0       0x20 build/obj/ginput_mouse.o
                0x0800afd0                ginputGetMouse
 .text._gfileInit
                0x0800aff0       0x10 build/obj/gfile.o
                0x0800aff0                _gfileInit
 .text._gfileFindSlot
                0x0800b000      0x100 build/obj/gfile.o
                0x0800b000                _gfileFindSlot
 .text.gfileOpen
                0x0800b100       0x60 build/obj/gfile.o
                0x0800b100                gfileOpen
 .text.gfileClose
                0x0800b160       0x20 build/obj/gfile.o
                0x0800b160                gfileClose
 .text.gfileRead
                0x0800b180       0x30 build/obj/gfile.o
                0x0800b180                gfileRead
 .text.gfileWrite
                0x0800b1b0       0x30 build/obj/gfile.o
                0x0800b1b0                gfileWrite
 .text.gfileGetPos
                0x0800b1e0       0x20 build/obj/gfile.o
                0x0800b1e0                gfileGetPos
 .text.gfileSetPos
                0x0800b200       0x30 build/obj/gfile.o
                0x0800b200                gfileSetPos
 .text.gfileGetSize
                0x0800b230       0x20 build/obj/gfile.o
                0x0800b230                gfileGetSize
 .text.gfileEOF
                0x0800b250       0x20 build/obj/gfile.o
                0x0800b250                gfileEOF
 .text.gfileOpenFileList
                0x0800b270       0x40 build/obj/gfile.o
                0x0800b270                gfileOpenFileList
 .text.gfileReadFileList
                0x0800b2b0       0x10 build/obj/gfile.o
                0x0800b2b0                gfileReadFileList
 .text.gfileCloseFileList
                0x0800b2c0       0x10 build/obj/gfile.o
                0x0800b2c0                gfileCloseFileList
 .text.fatfsGetSize
                0x0800b2d0       0x10 build/obj/gfile_fs_fatfs.o
 .text.fatfsEOF
                0x0800b2e0       0x10 build/obj/gfile_fs_fatfs.o
 .text.fatfsUnmount
                0x0800b2f0       0x20 build/obj/gfile_fs_fatfs.o
 .text.fatfsFlClose
                0x0800b310       0x20 build/obj/gfile_fs_fatfs.o
 .text.fatfsFlOpen
                0x0800b330       0x30 build/obj/gfile_fs_fatfs.o
 .text.fatfsSync
                0x0800b360       0x20 build/obj/gfile_fs_fatfs.o
 .text.fatfsSetPos
                0x0800b380       0x20 build/obj/gfile_fs_fatfs.o
 .text.fatfsWrite
                0x0800b3a0       0x20 build/obj/gfile_fs_fatfs.o
 .text.fatfsRead
                0x0800b3c0       0x20 build/obj/gfile_fs_fatfs.o
 .text.fatfsClose
                0x0800b3e0       0x20 build/obj/gfile_fs_fatfs.o
 .text.fatfsRename
                0x0800b400       0x10 build/obj/gfile_fs_fatfs.o
 .text.fatfsFileSize
                0x0800b410       0x20 build/obj/gfile_fs_fatfs.o
 .text.fatfsExists
                0x0800b430       0x20 build/obj/gfile_fs_fatfs.o
 .text.fatfsDel
                0x0800b450       0x10 build/obj/gfile_fs_fatfs.o
 .text.fatfsFlRead
                0x0800b460       0x70 build/obj/gfile_fs_fatfs.o
 .text.fatfsMount
                0x0800b4d0       0x30 build/obj/gfile_fs_fatfs.o
 .text.fatfsOpen
                0x0800b500       0x90 build/obj/gfile_fs_fatfs.o
 .text.get_ldnumber
                0x0800b590       0x50 build/obj/gfile_fatfs_wrapper.o
 .text.validate
                0x0800b5e0       0x30 build/obj/gfile_fatfs_wrapper.o
 .text.sync_window
                0x0800b610       0x70 build/obj/gfile_fatfs_wrapper.o
 .text.sync_fs  0x0800b680       0xe0 build/obj/gfile_fatfs_wrapper.o
 .text.move_window
                0x0800b760       0x30 build/obj/gfile_fatfs_wrapper.o
 .text.check_fs
                0x0800b790       0x90 build/obj/gfile_fatfs_wrapper.o
 .text.find_volume
                0x0800b820      0x400 build/obj/gfile_fatfs_wrapper.o
 .text.get_fat  0x0800bc20       0xd0 build/obj/gfile_fatfs_wrapper.o
                0x0800bc20                get_fat
 .text.dir_sdi  0x0800bcf0       0x90 build/obj/gfile_fatfs_wrapper.o
 .text.put_fat  0x0800bd80      0x110 build/obj/gfile_fatfs_wrapper.o
                0x0800bd80                put_fat
 .text.create_chain
                0x0800be90       0xb0 build/obj/gfile_fatfs_wrapper.o
 .text.dir_next
                0x0800bf40      0x130 build/obj/gfile_fatfs_wrapper.o
 .text.dir_remove
                0x0800c070       0x70 build/obj/gfile_fatfs_wrapper.o
 .text.dir_find.part.9
                0x0800c0e0      0x2b0 build/obj/gfile_fatfs_wrapper.o
 .text.dir_register
                0x0800c390      0x7f0 build/obj/gfile_fatfs_wrapper.o
 .text.dir_read.constprop.10
                0x0800cb80      0x360 build/obj/gfile_fatfs_wrapper.o
 .text.remove_chain
                0x0800cee0       0x60 build/obj/gfile_fatfs_wrapper.o
 .text.f_mount  0x0800cf40       0x60 build/obj/gfile_fatfs_wrapper.o
                0x0800cf40                f_mount
 .text.f_read   0x0800cfa0      0x1c0 build/obj/gfile_fatfs_wrapper.o
                0x0800cfa0                f_read
 .text.f_write  0x0800d160      0x250 build/obj/gfile_fatfs_wrapper.o
                0x0800d160                f_write
 .text.f_sync   0x0800d3b0       0xb0 build/obj/gfile_fatfs_wrapper.o
                0x0800d3b0                f_sync
 .text.f_close  0x0800d460       0x20 build/obj/gfile_fatfs_wrapper.o
                0x0800d460                f_close
 .text.f_lseek  0x0800d480      0x180 build/obj/gfile_fatfs_wrapper.o
                0x0800d480                f_lseek
 .text.f_closedir
                0x0800d600       0x10 build/obj/gfile_fatfs_wrapper.o
                0x0800d600                f_closedir
 .text.ff_convert
                0x0800d610       0x50 build/obj/gfile_fatfs_wrapper.o
                0x0800d610                ff_convert
 .text.follow_path
                0x0800d660      0x350 build/obj/gfile_fatfs_wrapper.o
 .text.get_fileinfo
                0x0800d9b0      0x290 build/obj/gfile_fatfs_wrapper.o
 .text.ff_memalloc
                0x0800dc40       0x10 build/obj/gfile_fatfs_wrapper.o
                0x0800dc40                ff_memalloc
 .text.f_rename
                0x0800dc50      0x1a0 build/obj/gfile_fatfs_wrapper.o
                0x0800dc50                f_rename
 .text.f_unlink
                0x0800ddf0       0xf0 build/obj/gfile_fatfs_wrapper.o
                0x0800ddf0                f_unlink
 .text.f_stat   0x0800dee0       0x60 build/obj/gfile_fatfs_wrapper.o
                0x0800dee0                f_stat
 .text.f_readdir
                0x0800df40       0x80 build/obj/gfile_fatfs_wrapper.o
                0x0800df40                f_readdir
 .text.f_opendir
                0x0800dfc0       0xa0 build/obj/gfile_fatfs_wrapper.o
                0x0800dfc0                f_opendir
 .text.f_open   0x0800e060      0x1b0 build/obj/gfile_fatfs_wrapper.o
                0x0800e060                f_open
 .text.disk_initialize
                0x0800e210       0x30 build/obj/gfile_fatfs_diskio_chibios.o
                0x0800e210                disk_initialize
 .text.disk_status
                0x0800e240       0x30 build/obj/gfile_fatfs_diskio_chibios.o
                0x0800e240                disk_status
 .text.disk_read
                0x0800e270       0x30 build/obj/gfile_fatfs_diskio_chibios.o
                0x0800e270                disk_read
 .text.disk_write
                0x0800e2a0       0x30 build/obj/gfile_fatfs_diskio_chibios.o
                0x0800e2a0                disk_write
 .text.disk_ioctl
                0x0800e2d0       0x40 build/obj/gfile_fatfs_diskio_chibios.o
                0x0800e2d0                disk_ioctl
 .text.get_fattime
                0x0800e310       0x10 build/obj/gfile_fatfs_diskio_chibios.o
                0x0800e310                get_fattime
 .text.set_cursor
                0x0800e320       0xa0 build/obj/gdisp_lld_SSD1289.o
 .text.set_viewport
                0x0800e3c0      0x120 build/obj/gdisp_lld_SSD1289.o
 .text.gdisp_lld_write_start
                0x0800e4e0       0x10 build/obj/gdisp_lld_SSD1289.o
                0x0800e4e0                gdisp_lld_write_start
 .text.gdisp_lld_write_color
                0x0800e4f0       0x10 build/obj/gdisp_lld_SSD1289.o
                0x0800e4f0                gdisp_lld_write_color
 .text.gdisp_lld_write_stop
                0x0800e500       0x10 build/obj/gdisp_lld_SSD1289.o
                0x0800e500                gdisp_lld_write_stop
 .text.gdisp_lld_write_pos
                0x0800e510       0x10 build/obj/gdisp_lld_SSD1289.o
                0x0800e510                gdisp_lld_write_pos
 .text.gdisp_lld_read_start
                0x0800e520       0x40 build/obj/gdisp_lld_SSD1289.o
                0x0800e520                gdisp_lld_read_start
 .text.gdisp_lld_read_color
                0x0800e560       0x10 build/obj/gdisp_lld_SSD1289.o
                0x0800e560                gdisp_lld_read_color
 .text.gdisp_lld_read_stop
                0x0800e570       0x10 build/obj/gdisp_lld_SSD1289.o
                0x0800e570                gdisp_lld_read_stop
 .text.gdisp_lld_control
                0x0800e580      0x130 build/obj/gdisp_lld_SSD1289.o
                0x0800e580                gdisp_lld_control
 .text.gdisp_lld_init
                0x0800e6b0      0x340 build/obj/gdisp_lld_SSD1289.o
                0x0800e6b0                gdisp_lld_init
 .text.init_board
                0x0800e9f0       0x70 build/obj/gmouse_lld_ADS7843.o
 .text.MouseXYZ
                0x0800ea60       0xc0 build/obj/gmouse_lld_ADS7843.o
 .text.createMainScreen
                0x0800eb20      0x840 build/obj/mainScreen.o
                0x0800eb20                createMainScreen
 .text.destroyMainScreen
                0x0800f360       0xf0 build/obj/mainScreen.o
                0x0800f360                destroyMainScreen
 .text.createCallScreen
                0x0800f450      0x2b0 build/obj/callScreen.o
                0x0800f450                createCallScreen
 .text.destroyCallScreen
                0x0800f700       0x60 build/obj/callScreen.o
                0x0800f700                destroyCallScreen
 .text.createCallsScreen
                0x0800f760      0x3d0 build/obj/callsScreen.o
                0x0800f760                createCallsScreen
 .text.destroyCallsScreen
                0x0800fb30       0x80 build/obj/callsScreen.o
                0x0800fb30                destroyCallsScreen
 .text.createMakeCallScreen
                0x0800fbb0      0x590 build/obj/callsScreen.o
                0x0800fbb0                createMakeCallScreen
 .text.destroyMakeCallScreen
                0x08010140       0xe0 build/obj/callsScreen.o
                0x08010140                destroyMakeCallScreen
 .text.createSettingsScreen
                0x08010220      0x2f0 build/obj/settingsScreen.o
                0x08010220                createSettingsScreen
 .text.destroySettingsScreen
                0x08010510       0x60 build/obj/settingsScreen.o
                0x08010510                destroySettingsScreen
 .text.createGalleryScreen
                0x08010570      0x330 build/obj/gallery.o
                0x08010570                createGalleryScreen
 .text.destroyGalleryScreen
                0x080108a0       0x70 build/obj/gallery.o
                0x080108a0                destroyGalleryScreen
 .text.setPicture
                0x08010910       0x70 build/obj/gallery.o
                0x08010910                setPicture
 .text.createContactsScreen
                0x08010980      0x3d0 build/obj/contactsScreen.o
                0x08010980                createContactsScreen
 .text.destroyContactsScreen
                0x08010d50       0x50 build/obj/contactsScreen.o
                0x08010d50                destroyContactsScreen
 .text.createContactAddScreen
                0x08010da0      0xa40 build/obj/contactsScreen.o
                0x08010da0                createContactAddScreen
 .text.destroyContactAddScreen
                0x080117e0      0x360 build/obj/contactsScreen.o
                0x080117e0                destroyContactAddScreen
 .text.calls_t  0x08011b40       0xa0 build/obj/calls_t.o
                0x08011b40                calls_t
 .text.messages_t
                0x08011be0       0x10 build/obj/messages_t.o
                0x08011be0                messages_t
 .text.audioPlayer_t
                0x08011bf0       0x10 build/obj/audioPlayer_t.o
                0x08011bf0                audioPlayer_t
 .text.gallery_t
                0x08011c00       0x20 build/obj/gallery_t.o
                0x08011c00                gallery_t
 .text.contacts_t
                0x08011c20       0x90 build/obj/contacts_t.o
                0x08011c20                contacts_t
 .text.configuration_t
                0x08011cb0       0x60 build/obj/configuration_t.o
                0x08011cb0                configuration_t
 .text.getContact
                0x08011d10       0x60 build/obj/gui_t.o
 .text.destroyCurrentScreen
                0x08011d70       0x30 build/obj/gui_t.o
 .text.createNextScreen
                0x08011da0       0x60 build/obj/gui_t.o
 .text.gui_t    0x08011e00      0xbf0 build/obj/gui_t.o
                0x08011e00                gui_t
 .text.uart_t   0x080129f0      0x200 build/obj/uart_t.o
                0x080129f0                uart_t
 .text.initGsm  0x08012bf0       0x60 build/obj/gsm.o
                0x08012bf0                initGsm
 .text.callNumber
                0x08012c50       0x50 build/obj/gsm.o
                0x08012c50                callNumber
 .text.hangUp   0x08012ca0       0x30 build/obj/gsm.o
                0x08012ca0                hangUp
 .text.deleteSms
                0x08012cd0       0x60 build/obj/gsm.o
                0x08012cd0                deleteSms
 .text.getSms   0x08012d30       0x60 build/obj/gsm.o
                0x08012d30                getSms
 .text.sdReadLine
                0x08012d90       0x60 build/obj/gsm.o
                0x08012d90                sdReadLine
 .text.match_op
                0x08012df0      0x200 build/obj/slre.o
 .text.get_op_len
                0x08012ff0       0x70 build/obj/slre.o
 .text.bar      0x08013060      0x5a0 build/obj/slre.o
 .text.doh      0x08013600       0x80 build/obj/slre.o
 .text.slre_match
                0x08013680      0x3f0 build/obj/slre.o
                0x08013680                slre_match
 .text.writeLine
                0x08013a70       0x50 build/obj/sdcard.o
 .text.readLine
                0x08013ac0       0x70 build/obj/sdcard.o
 .text.initSdio
                0x08013b30       0x20 build/obj/sdcard.o
                0x08013b30                initSdio
 .text.readConfiguration
                0x08013b50       0x70 build/obj/sdcard.o
                0x08013b50                readConfiguration
 .text.writeConfiguration
                0x08013bc0       0xf0 build/obj/sdcard.o
                0x08013bc0                writeConfiguration
 .text.getThemes
                0x08013cb0       0xd0 build/obj/sdcard.o
                0x08013cb0                getThemes
 .text.getPictures
                0x08013d80       0xd0 build/obj/sdcard.o
                0x08013d80                getPictures
 .text.getContacts
                0x08013e50      0x130 build/obj/sdcard.o
                0x08013e50                getContacts
 .text.addContact
                0x08013f80       0x80 build/obj/sdcard.o
                0x08013f80                addContact
 .text.deleteContact
                0x08014000       0xa0 build/obj/sdcard.o
                0x08014000                deleteContact
 .text.getContact
                0x080140a0       0xc0 build/obj/sdcard.o
                0x080140a0                getContact
 .text.getCalls
                0x08014160      0x100 build/obj/sdcard.o
                0x08014160                getCalls
 .text.addCall  0x08014260       0x50 build/obj/sdcard.o
                0x08014260                addCall
 .text.deleteCalls
                0x080142b0       0x60 build/obj/sdcard.o
                0x080142b0                deleteCalls
 .text.atoi     0x08014310        0x8 c:/chibistudio/tools/gnu tools arm embedded/4.7 2014q2/bin/../lib/gcc/arm-none-eabi/4.7.4/../../../../arm-none-eabi/lib/armv7e-m\libg.a(lib_a-atoi.o)
                0x08014310                atoi
 *fill*         0x08014318        0x8 00
 .text.memcpy   0x08014320      0x144 c:/chibistudio/tools/gnu tools arm embedded/4.7 2014q2/bin/../lib/gcc/arm-none-eabi/4.7.4/../../../../arm-none-eabi/lib/armv7e-m\libg.a(lib_a-memcpy.o)
                0x08014320                memcpy
 *fill*         0x08014464        0xc 00
 .text.memset   0x08014470      0x12c c:/chibistudio/tools/gnu tools arm embedded/4.7 2014q2/bin/../lib/gcc/arm-none-eabi/4.7.4/../../../../arm-none-eabi/lib/armv7e-m\libg.a(lib_a-memset.o)
                0x08014470                memset
 *fill*         0x0801459c        0x4 00
 .text.strcat   0x080145a0       0x4c c:/chibistudio/tools/gnu tools arm embedded/4.7 2014q2/bin/../lib/gcc/arm-none-eabi/4.7.4/../../../../arm-none-eabi/lib/armv7e-m\libg.a(lib_a-strcat.o)
                0x080145a0                strcat
 *fill*         0x080145ec        0x4 00
 .text.strchr   0x080145f0       0xfc c:/chibistudio/tools/gnu tools arm embedded/4.7 2014q2/bin/../lib/gcc/arm-none-eabi/4.7.4/../../../../arm-none-eabi/lib/armv7e-m\libg.a(lib_a-strchr.o)
                0x080145f0                strchr
 *fill*         0x080146ec        0x4 00
 .text.strcmp   0x080146f0       0x80 c:/chibistudio/tools/gnu tools arm embedded/4.7 2014q2/bin/../lib/gcc/arm-none-eabi/4.7.4/../../../../arm-none-eabi/lib/armv7e-m\libg.a(lib_a-strcmp.o)
                0x080146f0                strcmp
 .text.strcmp_unaligned
                0x08014770      0x15c c:/chibistudio/tools/gnu tools arm embedded/4.7 2014q2/bin/../lib/gcc/arm-none-eabi/4.7.4/../../../../arm-none-eabi/lib/armv7e-m\libg.a(lib_a-strcmp.o)
 *fill*         0x080148cc        0x4 00
 .text.strcpy   0x080148d0       0xbc c:/chibistudio/tools/gnu tools arm embedded/4.7 2014q2/bin/../lib/gcc/arm-none-eabi/4.7.4/../../../../arm-none-eabi/lib/armv7e-m\libg.a(lib_a-strcpy.o)
                0x080148d0                strcpy
 *fill*         0x0801498c        0x4 00
 .text.strlcat  0x08014990       0x88 c:/chibistudio/tools/gnu tools arm embedded/4.7 2014q2/bin/../lib/gcc/arm-none-eabi/4.7.4/../../../../arm-none-eabi/lib/armv7e-m\libg.a(lib_a-strlcat.o)
                0x08014990                strlcat
 *fill*         0x08014a18        0x8 00
 .text.strlcpy  0x08014a20       0x84 c:/chibistudio/tools/gnu tools arm embedded/4.7 2014q2/bin/../lib/gcc/arm-none-eabi/4.7.4/../../../../arm-none-eabi/lib/armv7e-m\libg.a(lib_a-strlcpy.o)
                0x08014a20                strlcpy
 *fill*         0x08014aa4        0xc 00
 .text.strlen   0x08014ab0       0x60 c:/chibistudio/tools/gnu tools arm embedded/4.7 2014q2/bin/../lib/gcc/arm-none-eabi/4.7.4/../../../../arm-none-eabi/lib/armv7e-m\libg.a(lib_a-strlen.o)
                0x08014ab0                strlen
 .text.strncpy  0x08014b10      0x110 c:/chibistudio/tools/gnu tools arm embedded/4.7 2014q2/bin/../lib/gcc/arm-none-eabi/4.7.4/../../../../arm-none-eabi/lib/armv7e-m\libg.a(lib_a-strncpy.o)
                0x08014b10                strncpy
 .text.critical_factorization
                0x08014c20       0xbc c:/chibistudio/tools/gnu tools arm embedded/4.7 2014q2/bin/../lib/gcc/arm-none-eabi/4.7.4/../../../../arm-none-eabi/lib/armv7e-m\libg.a(lib_a-strstr.o)
 *fill*         0x08014cdc        0x4 00
 .text.two_way_long_needle
                0x08014ce0      0x318 c:/chibistudio/tools/gnu tools arm embedded/4.7 2014q2/bin/../lib/gcc/arm-none-eabi/4.7.4/../../../../arm-none-eabi/lib/armv7e-m\libg.a(lib_a-strstr.o)
 *fill*         0x08014ff8        0x8 00
 .text.strstr   0x08015000      0x2f0 c:/chibistudio/tools/gnu tools arm embedded/4.7 2014q2/bin/../lib/gcc/arm-none-eabi/4.7.4/../../../../arm-none-eabi/lib/armv7e-m\libg.a(lib_a-strstr.o)
                0x08015000                strstr
 .text._strtol_r
                0x080152f0      0x134 c:/chibistudio/tools/gnu tools arm embedded/4.7 2014q2/bin/../lib/gcc/arm-none-eabi/4.7.4/../../../../arm-none-eabi/lib/armv7e-m\libg.a(lib_a-strtol.o)
                0x080152f0                _strtol_r
 *fill*         0x08015424        0xc 00
 .text.strtol   0x08015430       0x1c c:/chibistudio/tools/gnu tools arm embedded/4.7 2014q2/bin/../lib/gcc/arm-none-eabi/4.7.4/../../../../arm-none-eabi/lib/armv7e-m\libg.a(lib_a-strtol.o)
                0x08015430                strtol
 *fill*         0x0801544c        0x4 00
 .text.memchr   0x08015450      0x140 c:/chibistudio/tools/gnu tools arm embedded/4.7 2014q2/bin/../lib/gcc/arm-none-eabi/4.7.4/../../../../arm-none-eabi/lib/armv7e-m\libg.a(lib_a-memchr.o)
                0x08015450                memchr
 .text.memcmp   0x08015590       0xb8 c:/chibistudio/tools/gnu tools arm embedded/4.7 2014q2/bin/../lib/gcc/arm-none-eabi/4.7.4/../../../../arm-none-eabi/lib/armv7e-m\libg.a(lib_a-memcmp.o)
                0x08015590                memcmp
 *(.rodata)
 *fill*         0x08015648        0x8 00
 .rodata        0x08015650       0x18 build/obj/gdisp_lld_SSD1289.o
 *(.rodata.*)
 *fill*         0x08015668        0x8 00
 .rodata.str1.4
                0x08015670        0x5 build/obj/chsys.o
                                  0x8 (size before relaxing)
 *fill*         0x08015675        0xb 00
 .rodata.str1.4
                0x08015680       0x56 build/obj/chdebug.o
                                 0x58 (size before relaxing)
 *fill*         0x080156d6        0xa 00
 .rodata.ch_debug
                0x080156e0       0x18 build/obj/chregistry.o
                0x080156e0                ch_debug
 *fill*         0x080156f8        0x8 00
 .rodata.sdc_vmt
                0x08015700       0x20 build/obj/sdc.o
 .rodata.vmt    0x08015720       0x20 build/obj/serial.o
 .rodata._stm32_dma_streams
                0x08015740       0xc0 build/obj/stm32_dma.o
                0x08015740                _stm32_dma_streams
 .rodata.default_config
                0x08015800        0xc build/obj/serial_lld.o
 *fill*         0x0801580c        0x4 00
 .rodata.pal_default_config
                0x08015810       0xfc build/obj/board.o
                0x08015810                pal_default_config
 *fill*         0x0801590c        0x4 00
 .rodata.BitMask
                0x08015910       0x1c build/obj/gdisp_image_gif.o
 *fill*         0x0801592c        0x4 00
 .rodata.mf_rlefont_UI2_dictionary_offsets
                0x08015930       0x7c build/obj/mf_font.o
 *fill*         0x080159ac        0x4 00
 .rodata.mf_rlefont_UI2_dictionary_data
                0x080159b0       0xa0 build/obj/mf_font.o
 .rodata.mf_rlefont_UI2_glyph_offsets_0
                0x08015a50       0xc0 build/obj/mf_font.o
 .rodata.mf_rlefont_UI2_Double
                0x08015b10       0x24 build/obj/mf_font.o
                0x08015b10                mf_rlefont_UI2_Double
 *fill*         0x08015b34        0xc 00
 .rodata.mf_rlefont_UI2_glyph_data_0
                0x08015b40      0x338 build/obj/mf_font.o
 *fill*         0x08015e78        0x8 00
 .rodata.str1.4
                0x08015e80       0x1c build/obj/mf_font.o
 *fill*         0x08015e9c        0x4 00
 .rodata.mf_rlefont_UI2_char_ranges
                0x08015ea0        0xc build/obj/mf_font.o
 *fill*         0x08015eac        0x4 00
 .rodata.mf_rlefont_UI2_listentry
                0x08015eb0        0x8 build/obj/mf_font.o
 *fill*         0x08015eb8        0x8 00
 .rodata.mf_rlefont_UI2_Narrow
                0x08015ec0       0x24 build/obj/mf_font.o
                0x08015ec0                mf_rlefont_UI2_Narrow
 *fill*         0x08015ee4        0xc 00
 .rodata.mf_rlefont_UI2_Narrow_listentry
                0x08015ef0        0x8 build/obj/mf_font.o
 *fill*         0x08015ef8        0x8 00
 .rodata.mf_rlefont_UI2
                0x08015f00       0x30 build/obj/mf_font.o
                0x08015f00                mf_rlefont_UI2
 .rodata.mf_rlefont_UI2_Double_listentry
                0x08015f30        0x8 build/obj/mf_font.o
 *fill*         0x08015f38        0x8 00
 .rodata.BlackWidgetStyle
                0x08015f40       0x1c build/obj/gwin_widget.o
                0x08015f40                BlackWidgetStyle
 *fill*         0x08015f5c        0x4 00
 .rodata.WhiteWidgetStyle
                0x08015f60       0x1c build/obj/gwin_widget.o
                0x08015f60                WhiteWidgetStyle
 .rodata.str1.4
                0x00000000       0x1c build/obj/gwin_widget.o
                                  0x4 (size before relaxing)
 *fill*         0x08015f7c        0x4 00
 .rodata.GNullWindowManagerVMT
                0x08015f80       0x24 build/obj/gwin_wm.o
 *fill*         0x08015fa4        0xc 00
 .rodata.GNullWindowManager
                0x08015fb0        0x4 build/obj/gwin_wm.o
                0x08015fb0                GNullWindowManager
 *fill*         0x08015fb4        0xc 00
 .rodata.buttonVMT
                0x08015fc0       0x24 build/obj/gwin_button.o
 *fill*         0x08015fe4        0xc 00
 .rodata.str1.4
                0x08015ff0        0x7 build/obj/gwin_button.o
                                  0x8 (size before relaxing)
 *fill*         0x08015ff7        0x9 00
 .rodata.str1.4
                0x08016000        0x7 build/obj/gwin_slider.o
                                  0x8 (size before relaxing)
 *fill*         0x08016007        0x9 00
 .rodata.sliderVMT
                0x08016010       0x24 build/obj/gwin_slider.o
 *fill*         0x08016034        0xc 00
 .rodata.imageVMT
                0x08016040       0x14 build/obj/gwin_image.o
 *fill*         0x08016054        0xc 00
 .rodata.str1.4
                0x08016060        0x6 build/obj/gwin_image.o
                                  0x8 (size before relaxing)
 *fill*         0x08016066        0xa 00
 .rodata.labelVMT
                0x08016070       0x24 build/obj/gwin_label.o
 *fill*         0x08016094        0xc 00
 .rodata.str1.4
                0x080160a0        0x6 build/obj/gwin_label.o
                                  0x8 (size before relaxing)
 *fill*         0x080160a6        0xa 00
 .rodata.listVMT
                0x080160b0       0x24 build/obj/gwin_list.o
 *fill*         0x080160d4        0xc 00
 .rodata.str1.4
                0x080160e0        0x5 build/obj/gwin_list.o
                                  0x8 (size before relaxing)
 *fill*         0x080160e5        0xb 00
 .rodata.containerVMT
                0x080160f0       0x3c build/obj/gwin_container.o
 *fill*         0x0801612c        0x4 00
 .rodata.str1.4
                0x08016130        0xa build/obj/gwin_container.o
                                  0xc (size before relaxing)
 *fill*         0x0801613a        0x6 00
 .rodata.str1.4
                0x08016140       0x3c build/obj/ginput_mouse.o
 *fill*         0x0801617c        0x4 00
 .rodata.FsFatFSVMT
                0x08016180       0x48 build/obj/gfile_fs_fatfs.o
                0x08016180                FsFatFSVMT
 .rodata.str1.4
                0x00000000        0x4 build/obj/gfile_fs_fatfs.o
 *fill*         0x080161c8        0x8 00
 .rodata.Tbl    0x080161d0      0x100 build/obj/gfile_fatfs_wrapper.o
 .rodata.tbl_lower.8868
                0x080162d0      0x1e0 build/obj/gfile_fatfs_wrapper.o
 .rodata.str1.4
                0x080164b0       0x13 build/obj/gfile_fatfs_wrapper.o
                                 0x14 (size before relaxing)
 *fill*         0x080164c3        0xd 00
 .rodata.ExCvt  0x080164d0       0x80 build/obj/gfile_fatfs_wrapper.o
 .rodata.LfnOfs
                0x08016550       0x10 build/obj/gfile_fatfs_wrapper.o
 .rodata.tbl_upper.8869
                0x08016560      0x1e0 build/obj/gfile_fatfs_wrapper.o
 .rodata.pwmcfg
                0x08016740       0x34 build/obj/gdisp_lld_SSD1289.o
 *fill*         0x08016774        0xc 00
 .rodata.GDISPVMT_OnlyOne
                0x08016780       0x60 build/obj/gdisp_lld_SSD1289.o
                0x08016780                GDISPVMT_OnlyOne
 .rodata.GMOUSEVMT_OnlyOne
                0x080167e0       0x3c build/obj/gmouse_lld_ADS7843.o
                0x080167e0                GMOUSEVMT_OnlyOne
 *fill*         0x0801681c        0x4 00
 .rodata.spicfg
                0x08016820        0xc build/obj/gmouse_lld_ADS7843.o
 *fill*         0x0801682c        0x4 00
 .rodata.str1.4
                0x08016830      0x1d4 build/obj/mainScreen.o
                                0x1e4 (size before relaxing)
 *fill*         0x08016a04        0xc 00
 .rodata.str1.4
                0x08016a10       0x38 build/obj/callScreen.o
                                 0x74 (size before relaxing)
 *fill*         0x08016a48        0x8 00
 .rodata.str1.4
                0x08016a50       0xa6 build/obj/callsScreen.o
                                 0xec (size before relaxing)
 *fill*         0x08016af6        0xa 00
 .rodata.str1.4
                0x08016b00       0x13 build/obj/settingsScreen.o
                                 0x70 (size before relaxing)
 *fill*         0x08016b13        0xd 00
 .rodata.str1.4
                0x08016b20       0x56 build/obj/gallery.o
                                 0xb4 (size before relaxing)
 *fill*         0x08016b76        0xa 00
 .rodata.str1.4
                0x08016b80       0x8e build/obj/contactsScreen.o
                                0x174 (size before relaxing)
 .rodata.str1.4
                0x00000000       0x20 build/obj/gui_t.o
 *fill*         0x08016c0e        0x2 00
 .rodata.str1.4
                0x08016c10       0x5f build/obj/uart_t.o
                                 0x60 (size before relaxing)
 *fill*         0x08016c6f        0x1 00
 .rodata.str1.4
                0x08016c70       0x51 build/obj/gsm.o
                                 0x54 (size before relaxing)
 *fill*         0x08016cc1        0xf 00
 .rodata.str1.4
                0x08016cd0       0x16 build/obj/slre.o
                                 0x18 (size before relaxing)
 *fill*         0x08016ce6        0xa 00
 .rodata.str1.4
                0x08016cf0       0x73 build/obj/sdcard.o
                                 0x80 (size before relaxing)
 .rodata.str1.4
                0x00000000        0x4 build/obj/main.o
 *fill*         0x08016d63        0xd 00
 .rodata._ctype_
                0x08016d70      0x104 c:/chibistudio/tools/gnu tools arm embedded/4.7 2014q2/bin/../lib/gcc/arm-none-eabi/4.7.4/../../../../arm-none-eabi/lib/armv7e-m\libg.a(lib_a-ctype_.o)
                0x08016d70                _ctype_
 .rodata.str1.4
                0x00000000       0x74 c:/chibistudio/tools/gnu tools arm embedded/4.7 2014q2/bin/../lib/gcc/arm-none-eabi/4.7.4/../../../../arm-none-eabi/lib/armv7e-m\libg.a(lib_a-impure.o)
                                  0x4 (size before relaxing)
 *(.glue_7t)
 .glue_7t       0x00000000        0x0 linker stubs
 *(.glue_7)
 .glue_7        0x00000000        0x0 linker stubs
 *(.gcc*)

.vfp11_veneer   0x08016e74        0x0
 .vfp11_veneer  0x00000000        0x0 linker stubs

.v4_bx          0x08016e74        0x0
 .v4_bx         0x00000000        0x0 linker stubs

.iplt           0x08016e74        0x0
 .iplt          0x00000000        0x0 build/obj/crt0.o

.rel.dyn        0x08016e74        0x0
 .rel.iplt      0x00000000        0x0 build/obj/crt0.o

.ARM.extab
 *(.ARM.extab* .gnu.linkonce.armextab.*)

.ARM.exidx      0x08016e74        0x0
                0x08016e74                PROVIDE (__exidx_start, .)
 *(.ARM.exidx* .gnu.linkonce.armexidx.*)
                0x08016e74                PROVIDE (__exidx_end, .)

.eh_frame_hdr
 *(.eh_frame_hdr)

.eh_frame
 *(.eh_frame)

.textalign      0x08016e74        0x4
                0x08016e78                . = ALIGN (0x8)
 *fill*         0x08016e74        0x4 00
                0x08016e78                . = ALIGN (0x4)
                0x08016e78                _etext = .
                0x08016e78                _textdata = _etext

.stacks         0x20000000      0x800
                0x20000000                . = ALIGN (0x8)
                0x20000000                __main_stack_base__ = .
                0x20000400                . = (. + __main_stack_size__)
 *fill*         0x20000000      0x400 00
                0x20000400                . = ALIGN (0x8)
                0x20000400                __main_stack_end__ = .
                0x20000400                __process_stack_base__ = .
                0x20000400                __main_thread_stack_base__ = .
                0x20000800                . = (. + __process_stack_size__)
 *fill*         0x20000400      0x400 00
                0x20000800                . = ALIGN (0x8)
                0x20000800                __process_stack_end__ = .
                0x20000800                __main_thread_stack_end__ = .

.data           0x20000800      0x454 load address 0x08016e78
                0x20000800                . = ALIGN (0x4)
                0x20000800                PROVIDE (_data, .)
 *(.data)
                0x20000800                . = ALIGN (0x4)
 *(.data.*)
 .data.ImageHandlers
                0x20000800       0x14 build/obj/gdisp_image.o
 .data.defaultFgColor
                0x20000814        0x2 build/obj/gwin.o
 *fill*         0x20000816        0x2 00
 .data.defaultStyle
                0x20000818        0x4 build/obj/gwin_widget.o
 .data.FsArray  0x2000081c        0x4 build/obj/gfile.o
 .data.__ctype_ptr__
                0x20000820        0x4 c:/chibistudio/tools/gnu tools arm embedded/4.7 2014q2/bin/../lib/gcc/arm-none-eabi/4.7.4/../../../../arm-none-eabi/lib/armv7e-m\libg.a(lib_a-ctype_.o)
                0x20000820                __ctype_ptr__
 *fill*         0x20000824        0x4 00
 .data.impure_data
                0x20000828      0x428 c:/chibistudio/tools/gnu tools arm embedded/4.7 2014q2/bin/../lib/gcc/arm-none-eabi/4.7.4/../../../../arm-none-eabi/lib/armv7e-m\libg.a(lib_a-impure.o)
 .data._impure_ptr
                0x20000c50        0x4 c:/chibistudio/tools/gnu tools arm embedded/4.7 2014q2/bin/../lib/gcc/arm-none-eabi/4.7.4/../../../../arm-none-eabi/lib/armv7e-m\libg.a(lib_a-impure.o)
                0x20000c50                _impure_ptr
                0x20000c54                . = ALIGN (0x4)
 *(.ramtext)
                0x20000c54                . = ALIGN (0x4)
                0x20000c54                PROVIDE (_edata, .)

.igot.plt       0x20000c54        0x0 load address 0x080172cc
 .igot.plt      0x00000000        0x0 build/obj/crt0.o

.bss            0x20000c58     0x4aa0 load address 0x080172cc
                0x20000c58                . = ALIGN (0x4)
                0x20000c58                PROVIDE (_bss_start, .)
 *(.bss)
                0x20000c58                . = ALIGN (0x4)
 *(.bss.*)
 .bss._idle_thread_wa
                0x20000c58       0xe0 build/obj/chsys.o
                0x20000c58                _idle_thread_wa
 .bss.mainthread.4800
                0x20000d38       0x48 build/obj/chsys.o
 .bss.dbg_isr_cnt
                0x20000d80        0x4 build/obj/chdebug.o
                0x20000d80                dbg_isr_cnt
 .bss.dbg_lock_cnt
                0x20000d84        0x4 build/obj/chdebug.o
                0x20000d84                dbg_lock_cnt
 .bss.dbg_panic_msg
                0x20000d88        0x4 build/obj/chdebug.o
                0x20000d88                dbg_panic_msg
 .bss.vtlist    0x20000d8c       0x10 build/obj/chvt.o
                0x20000d8c                vtlist
 .bss.rlist     0x20000d9c       0x1c build/obj/chschd.o
                0x20000d9c                rlist
 .bss.endmem    0x20000db8        0x4 build/obj/chmemcore.o
 .bss.nextmem   0x20000dbc        0x4 build/obj/chmemcore.o
 .bss.default_heap
                0x20000dc0       0x20 build/obj/chheap.o
 .bss.dma_isr_redir
                0x20000de0       0x80 build/obj/stm32_dma.o
 .bss.dma_streams_mask
                0x20000e60        0x4 build/obj/stm32_dma.o
 .bss.SDCD1     0x20000e64       0x48 build/obj/sdc_lld.o
                0x20000e64                SDCD1
 .bss.u         0x20000eac      0x200 build/obj/sdc_lld.o
 .bss.dummytx   0x200010ac        0x2 build/obj/spi_lld.o
 *fill*         0x200010ae        0x2 00
 .bss.SPID2     0x200010b0       0x30 build/obj/spi_lld.o
                0x200010b0                SPID2
 .bss.PWMD3     0x200010e0       0x14 build/obj/pwm_lld.o
                0x200010e0                PWMD3
 .bss.SD2       0x200010f4      0x260 build/obj/serial_lld.o
                0x200010f4                SD2
 .bss.initDone  0x20001354        0x1 build/obj/gfx.o
 *fill*         0x20001355        0x3 00
 .bss.dtail     0x20001358        0x4 build/obj/gdriver.o
 .bss.dhead     0x2000135c        0x4 build/obj/gdriver.o
 .bss.GDISP     0x20001360        0x4 build/obj/gdisp.o
                0x20001360                GDISP
 .bss.Assignments
                0x20001364      0x200 build/obj/gevent.o
 .bss.geventMutex
                0x20001564       0x10 build/obj/gevent.o
 .bss.mutex     0x20001574       0x10 build/obj/gtimer.o
 .bss.hThread   0x20001584        0x4 build/obj/gtimer.o
 .bss.waTimerThread
                0x20001588      0x8d0 build/obj/gtimer.o
 .bss.pTimerHead
                0x20001e58        0x4 build/obj/gtimer.o
 .bss.waitsem   0x20001e5c       0x10 build/obj/gtimer.o
 .bss.defaultFont
                0x20001e6c        0x4 build/obj/gwin.o
 .bss.defaultBgColor
                0x20001e70        0x2 build/obj/gwin.o
 *fill*         0x20001e72        0x2 00
 .bss.gl        0x20001e74       0x3c build/obj/gwin_widget.o
 .bss._GWINwm   0x20001eb0        0x4 build/obj/gwin_wm.o
                0x20001eb0                _GWINwm
 .bss.RedrawPending
                0x20001eb4        0x1 build/obj/gwin_wm.o
 *fill*         0x20001eb5        0x3 00
 .bss.gwinsem   0x20001eb8       0x10 build/obj/gwin_wm.o
 .bss._GWINList
                0x20001ec8        0x8 build/obj/gwin_wm.o
 .bss.MouseTimer
                0x20001ed0       0x1c build/obj/ginput_mouse.o
 .bss.gfileArr  0x20001eec      0x140 build/obj/gfile.o
 .bss.fatfs_mounted
                0x2000202c        0x1 build/obj/gfile_fs_fatfs.o
 *fill*         0x2000202d        0x3 00
 .bss.fatfs_fs  0x20002030      0x230 build/obj/gfile_fs_fatfs.o
 .bss.Fsid      0x20002260        0x2 build/obj/gfile_fatfs_wrapper.o
 *fill*         0x20002262        0x2 00
 .bss.FatFs     0x20002264        0x4 build/obj/gfile_fatfs_wrapper.o
 .bss.txbuf.8121
                0x20002268        0x4 build/obj/gmouse_lld_ADS7843.o
 .bss.rxbuf.8122
                0x2000226c        0x4 build/obj/gmouse_lld_ADS7843.o
 .bss.notificationCallSms_p
                0x20002270       0x18 build/obj/mainScreen.o
 .bss.notificationSms_c
                0x20002288        0x4 build/obj/mainScreen.o
 .bss.notificationCall_p
                0x2000228c       0x18 build/obj/mainScreen.o
 .bss.notificationCall_c
                0x200022a4        0x4 build/obj/mainScreen.o
 .bss.audioPlayer_p
                0x200022a8       0x18 build/obj/mainScreen.o
 .bss.audioPlayer_mainScreen_b
                0x200022c0        0x4 build/obj/mainScreen.o
                0x200022c0                audioPlayer_mainScreen_b
 .bss.mainContainer_c
                0x200022c4        0x4 build/obj/mainScreen.o
 .bss.settings_mainScreen_b
                0x200022c8        0x4 build/obj/mainScreen.o
                0x200022c8                settings_mainScreen_b
 .bss.gallery_p
                0x200022cc       0x18 build/obj/mainScreen.o
 .bss.notificationSmsCall_c
                0x200022e4        0x4 build/obj/mainScreen.o
 .bss.contacts_p
                0x200022e8       0x18 build/obj/mainScreen.o
 .bss.notifications_mainScreen_b
                0x20002300        0x4 build/obj/mainScreen.o
                0x20002300                notifications_mainScreen_b
 .bss.gallery_mainScreen_b
                0x20002304        0x4 build/obj/mainScreen.o
                0x20002304                gallery_mainScreen_b
 .bss.calls_mainScreen_b
                0x20002308        0x4 build/obj/mainScreen.o
                0x20002308                calls_mainScreen_b
 .bss.notification_b_p
                0x2000230c       0x18 build/obj/mainScreen.o
 .bss.notificationBothCallSms_c
                0x20002324        0x4 build/obj/mainScreen.o
 .bss.settings_p
                0x20002328       0x18 build/obj/mainScreen.o
 .bss.background_p
                0x20002340       0x18 build/obj/mainScreen.o
 .bss.notificationSms_p
                0x20002358       0x18 build/obj/mainScreen.o
 .bss.messages_mainScreen_b
                0x20002370        0x4 build/obj/mainScreen.o
                0x20002370                messages_mainScreen_b
 .bss.messages_p
                0x20002374       0x18 build/obj/mainScreen.o
 .bss.contacts_mainScreen_b
                0x2000238c        0x4 build/obj/mainScreen.o
                0x2000238c                contacts_mainScreen_b
 .bss.calls_p   0x20002390       0x18 build/obj/mainScreen.o
 .bss.caller_l  0x200023a8        0x4 build/obj/callScreen.o
 .bss.decline_call_b
                0x200023ac        0x4 build/obj/callScreen.o
                0x200023ac                decline_call_b
 .bss.mainContainer_c
                0x200023b0        0x4 build/obj/callScreen.o
 .bss.accept_p  0x200023b4       0x18 build/obj/callScreen.o
 .bss.background_p
                0x200023cc       0x18 build/obj/callScreen.o
 .bss.decline_p
                0x200023e4       0x18 build/obj/callScreen.o
 .bss.accept_call_b
                0x200023fc        0x4 build/obj/callScreen.o
                0x200023fc                accept_call_b
 .bss.c_6_b     0x20002400        0x4 build/obj/callsScreen.o
                0x20002400                c_6_b
 .bss.clear_p   0x20002404       0x18 build/obj/callsScreen.o
 .bss.calls_calls_l
                0x2000241c        0x4 build/obj/callsScreen.o
                0x2000241c                calls_calls_l
 .bss.back_p    0x20002420       0x18 build/obj/callsScreen.o
 .bss.c_0_b     0x20002438        0x4 build/obj/callsScreen.o
                0x20002438                c_0_b
 .bss.telNum_calls_lb
                0x2000243c        0x4 build/obj/callsScreen.o
                0x2000243c                telNum_calls_lb
 .bss.call_calls_b
                0x20002440        0x4 build/obj/callsScreen.o
                0x20002440                call_calls_b
 .bss.mainContainer_c
                0x20002444        0x4 build/obj/callsScreen.o
 .bss.clear_calls_b
                0x20002448        0x4 build/obj/callsScreen.o
                0x20002448                clear_calls_b
 .bss.c_4_b     0x2000244c        0x4 build/obj/callsScreen.o
                0x2000244c                c_4_b
 .bss.c_9_b     0x20002450        0x4 build/obj/callsScreen.o
                0x20002450                c_9_b
 .bss.home_p    0x20002454       0x18 build/obj/callsScreen.o
 .bss.open_calls_b
                0x2000246c        0x4 build/obj/callsScreen.o
                0x2000246c                open_calls_b
 .bss.call_p    0x20002470       0x18 build/obj/callsScreen.o
 .bss.c_3_b     0x20002488        0x4 build/obj/callsScreen.o
                0x20002488                c_3_b
 .bss.c_7_b     0x2000248c        0x4 build/obj/callsScreen.o
                0x2000248c                c_7_b
 .bss.background_p
                0x20002490       0x18 build/obj/callsScreen.o
 .bss.c_5_b     0x200024a8        0x4 build/obj/callsScreen.o
                0x200024a8                c_5_b
 .bss.c_2_b     0x200024ac        0x4 build/obj/callsScreen.o
                0x200024ac                c_2_b
 .bss.back_calls_b
                0x200024b0        0x4 build/obj/callsScreen.o
                0x200024b0                back_calls_b
 .bss.c_8_b     0x200024b4        0x4 build/obj/callsScreen.o
                0x200024b4                c_8_b
 .bss.home_calls_b
                0x200024b8        0x4 build/obj/callsScreen.o
                0x200024b8                home_calls_b
 .bss.c_1_b     0x200024bc        0x4 build/obj/callsScreen.o
                0x200024bc                c_1_b
 .bss.themes_settings_l
                0x200024c0        0x4 build/obj/settingsScreen.o
                0x200024c0                themes_settings_l
 .bss.mainContainer_c
                0x200024c4        0x4 build/obj/settingsScreen.o
 .bss.home_p    0x200024c8       0x18 build/obj/settingsScreen.o
 .bss.brightness_settings_s
                0x200024e0        0x4 build/obj/settingsScreen.o
                0x200024e0                brightness_settings_s
 .bss.home_settings_b
                0x200024e4        0x4 build/obj/settingsScreen.o
                0x200024e4                home_settings_b
 .bss.background_p
                0x200024e8       0x18 build/obj/settingsScreen.o
 .bss.prev_p    0x20002500       0x18 build/obj/gallery.o
 .bss.mainContainer_c
                0x20002518        0x4 build/obj/gallery.o
 .bss.pic_box   0x2000251c        0x4 build/obj/gallery.o
 .bss.home_p    0x20002520       0x18 build/obj/gallery.o
 .bss.previousImage_gallery_b
                0x20002538        0x4 build/obj/gallery.o
                0x20002538                previousImage_gallery_b
 .bss.nextImage_gallery_b
                0x2000253c        0x4 build/obj/gallery.o
                0x2000253c                nextImage_gallery_b
 .bss.background_p
                0x20002540       0x18 build/obj/gallery.o
 .bss.next_p    0x20002558       0x18 build/obj/gallery.o
 .bss.home_gallery_b
                0x20002570        0x4 build/obj/gallery.o
                0x20002570                home_gallery_b
 .bss.back_p    0x20002574       0x18 build/obj/contactsScreen.o
 .bss.back_contacts_b
                0x2000258c        0x4 build/obj/contactsScreen.o
                0x2000258c                back_contacts_b
 .bss.mainContainer_c
                0x20002590        0x4 build/obj/contactsScreen.o
 .bss.name_contacts_lb
                0x20002594        0x4 build/obj/contactsScreen.o
                0x20002594                name_contacts_lb
 .bss.del_p     0x20002598       0x18 build/obj/contactsScreen.o
 .bss.add_p     0x200025b0       0x18 build/obj/contactsScreen.o
 .bss.contacts_contacts_l
                0x200025c8        0x4 build/obj/contactsScreen.o
                0x200025c8                contacts_contacts_l
 .bss.telNum_contacts_lb
                0x200025cc        0x4 build/obj/contactsScreen.o
                0x200025cc                telNum_contacts_lb
 .bss.home_p    0x200025d0       0x18 build/obj/contactsScreen.o
 .bss.add_contacts_b
                0x200025e8        0x4 build/obj/contactsScreen.o
                0x200025e8                add_contacts_b
 .bss.background_p
                0x200025ec       0x18 build/obj/contactsScreen.o
 .bss.save_contacts_b
                0x20002604        0x4 build/obj/contactsScreen.o
                0x20002604                save_contacts_b
 .bss.delete_contacts_b
                0x20002608        0x4 build/obj/contactsScreen.o
                0x20002608                delete_contacts_b
 .bss.home_contacts_b
                0x2000260c        0x4 build/obj/contactsScreen.o
                0x2000260c                home_contacts_b
 .bss._y_b      0x20002610        0x4 build/obj/gui_t.o
                0x20002610                _y_b
 .bss._c_b      0x20002614        0x4 build/obj/gui_t.o
                0x20002614                _c_b
 .bss._u_b      0x20002618        0x4 build/obj/gui_t.o
                0x20002618                _u_b
 .bss._7_b      0x2000261c        0x4 build/obj/gui_t.o
                0x2000261c                _7_b
 .bss._s_b      0x20002620        0x4 build/obj/gui_t.o
                0x20002620                _s_b
 .bss._exclamation_b
                0x20002624        0x4 build/obj/gui_t.o
                0x20002624                _exclamation_b
 .bss._2_b      0x20002628        0x4 build/obj/gui_t.o
                0x20002628                _2_b
 .bss._j_b      0x2000262c        0x4 build/obj/gui_t.o
                0x2000262c                _j_b
 .bss._r_b      0x20002630        0x4 build/obj/gui_t.o
                0x20002630                _r_b
 .bss._v_b      0x20002634        0x4 build/obj/gui_t.o
                0x20002634                _v_b
 .bss._e_b      0x20002638        0x4 build/obj/gui_t.o
                0x20002638                _e_b
 .bss._9_b      0x2000263c        0x4 build/obj/gui_t.o
                0x2000263c                _9_b
 .bss._comma_b  0x20002640        0x4 build/obj/gui_t.o
                0x20002640                _comma_b
 .bss._4_b      0x20002644        0x4 build/obj/gui_t.o
                0x20002644                _4_b
 .bss._n_b      0x20002648        0x4 build/obj/gui_t.o
                0x20002648                _n_b
 .bss._dot_b    0x2000264c        0x4 build/obj/gui_t.o
                0x2000264c                _dot_b
 .bss._l_b      0x20002650        0x4 build/obj/gui_t.o
                0x20002650                _l_b
 .bss._q_b      0x20002654        0x4 build/obj/gui_t.o
                0x20002654                _q_b
 .bss._t_b      0x20002658        0x4 build/obj/gui_t.o
                0x20002658                _t_b
 .bss._g_b      0x2000265c        0x4 build/obj/gui_t.o
                0x2000265c                _g_b
 .bss._z_b      0x20002660        0x4 build/obj/gui_t.o
                0x20002660                _z_b
 .bss._x_b      0x20002664        0x4 build/obj/gui_t.o
                0x20002664                _x_b
 .bss._b_b      0x20002668        0x4 build/obj/gui_t.o
                0x20002668                _b_b
 .bss._6_b      0x2000266c        0x4 build/obj/gui_t.o
                0x2000266c                _6_b
 .bss._1_b      0x20002670        0x4 build/obj/gui_t.o
                0x20002670                _1_b
 .bss._i_b      0x20002674        0x4 build/obj/gui_t.o
                0x20002674                _i_b
 .bss._p_b      0x20002678        0x4 build/obj/gui_t.o
                0x20002678                _p_b
 .bss._d_b      0x2000267c        0x4 build/obj/gui_t.o
                0x2000267c                _d_b
 .bss._m_b      0x20002680        0x4 build/obj/gui_t.o
                0x20002680                _m_b
 .bss._8_b      0x20002684        0x4 build/obj/gui_t.o
                0x20002684                _8_b
 .bss._3_b      0x20002688        0x4 build/obj/gui_t.o
                0x20002688                _3_b
 .bss._o_b      0x2000268c        0x4 build/obj/gui_t.o
                0x2000268c                _o_b
 .bss._k_b      0x20002690        0x4 build/obj/gui_t.o
                0x20002690                _k_b
 .bss._slash_b  0x20002694        0x4 build/obj/gui_t.o
                0x20002694                _slash_b
 .bss._f_b      0x20002698        0x4 build/obj/gui_t.o
                0x20002698                _f_b
 .bss._a_b      0x2000269c        0x4 build/obj/gui_t.o
                0x2000269c                _a_b
 .bss._5_b      0x200026a0        0x4 build/obj/gui_t.o
                0x200026a0                _5_b
 .bss._space_b  0x200026a4        0x4 build/obj/gui_t.o
                0x200026a4                _space_b
 .bss._0_b      0x200026a8        0x4 build/obj/gui_t.o
                0x200026a8                _0_b
 .bss._h_b      0x200026ac        0x4 build/obj/gui_t.o
                0x200026ac                _h_b
 .bss.buffer.8409
                0x200026b0      0x108 build/obj/uart_t.o
 .bss.uartThread
                0x200027b8     0x1840 build/obj/main.o
 .bss.configurationThread
                0x20003ff8      0x2d0 build/obj/main.o
 .bss.audioPlayer_thrd_h
                0x200042c8        0x4 build/obj/main.o
                0x200042c8                audioPlayer_thrd_h
 *fill*         0x200042cc        0x4 00
 .bss.guiThread
                0x200042d0      0x8d0 build/obj/main.o
 .bss.contactsThread
                0x20004ba0      0x2d0 build/obj/main.o
 .bss.configuration_thrd_h
                0x20004e70        0x4 build/obj/main.o
                0x20004e70                configuration_thrd_h
 .bss.gui_thrd_h
                0x20004e74        0x4 build/obj/main.o
                0x20004e74                gui_thrd_h
 .bss.uart_thrd_h
                0x20004e78        0x4 build/obj/main.o
                0x20004e78                uart_thrd_h
 .bss.contacts_thrd_h
                0x20004e7c        0x4 build/obj/main.o
                0x20004e7c                contacts_thrd_h
 .bss.messagesThread
                0x20004e80      0x1d0 build/obj/main.o
 .bss.gsmResponse
                0x20005050       0x28 build/obj/main.o
                0x20005050                gsmResponse
 .bss.callsThread
                0x20005078      0x2d0 build/obj/main.o
 .bss.calls_thrd_h
                0x20005348        0x4 build/obj/main.o
                0x20005348                calls_thrd_h
 *fill*         0x2000534c        0x4 00
 .bss.audioPlayerThread
                0x20005350      0x1d0 build/obj/main.o
 .bss.galleryThread
                0x20005520      0x1d0 build/obj/main.o
 .bss.gallery_thrd_h
                0x200056f0        0x4 build/obj/main.o
                0x200056f0                gallery_thrd_h
 .bss.messages_thrd_h
                0x200056f4        0x4 build/obj/main.o
                0x200056f4                messages_thrd_h
                0x200056f8                . = ALIGN (0x4)
 *(COMMON)
                0x200056f8                . = ALIGN (0x4)
                0x200056f8                PROVIDE (_bss_end, .)
                0x200056f8                PROVIDE (end, .)
                0x200056f8                _end = .
                0x200056f8                __heap_base__ = _end
                0x2001c000                __heap_end__ = __ram_end__
START GROUP
LOAD c:/chibistudio/tools/gnu tools arm embedded/4.7 2014q2/bin/../lib/gcc/arm-none-eabi/4.7.4/armv7e-m\libgcc.a
LOAD c:/chibistudio/tools/gnu tools arm embedded/4.7 2014q2/bin/../lib/gcc/arm-none-eabi/4.7.4/../../../../arm-none-eabi/lib/armv7e-m\libg.a
LOAD c:/chibistudio/tools/gnu tools arm embedded/4.7 2014q2/bin/../lib/gcc/arm-none-eabi/4.7.4/../../../../arm-none-eabi/lib/armv7e-m\libc.a
END GROUP
OUTPUT(build/ch.elf elf32-littlearm)

.debug_info     0x00000000    0x4827a
 .debug_info    0x00000000      0x2a9 build/obj/crt0.o
 .debug_info    0x000002a9      0x1f0 build/obj/vectors.o
 .debug_info    0x00000499       0x9a build/obj/chcore.o
 .debug_info    0x00000533      0x91b build/obj/chcore_v7m.o
 .debug_info    0x00000e4e      0x455 build/obj/nvic.o
 .debug_info    0x000012a3      0x90b build/obj/chsys.o
 .debug_info    0x00001bae      0x457 build/obj/chdebug.o
 .debug_info    0x00002005      0x240 build/obj/chvt.o
 .debug_info    0x00002245      0xa16 build/obj/chschd.o
 .debug_info    0x00002c5b      0xd16 build/obj/chthreads.o
 .debug_info    0x00003971      0x970 build/obj/chdynamic.o
 .debug_info    0x000042e1      0x6cc build/obj/chregistry.o
 .debug_info    0x000049ad      0xc33 build/obj/chsem.o
 .debug_info    0x000055e0      0xabb build/obj/chmtx.o
 .debug_info    0x0000609b      0xfbc build/obj/chevents.o
 .debug_info    0x00007057      0x71f build/obj/chmsg.o
 .debug_info    0x00007776      0xb72 build/obj/chmboxes.o
 .debug_info    0x000082e8      0xd5d build/obj/chqueues.o
 .debug_info    0x00009045      0x23b build/obj/chmemcore.o
 .debug_info    0x00009280      0x739 build/obj/chheap.o
 .debug_info    0x000099b9      0x409 build/obj/hal.o
 .debug_info    0x00009dc2      0x2bf build/obj/mmcsd.o
 .debug_info    0x0000a081      0x2e4 build/obj/pal.o
 .debug_info    0x0000a365      0x77f build/obj/pwm.o
 .debug_info    0x0000aae4     0x13f7 build/obj/sdc.o
 .debug_info    0x0000bedb     0x1120 build/obj/serial.o
 .debug_info    0x0000cffb     0x1311 build/obj/spi.o
 .debug_info    0x0000e30c      0xc78 build/obj/stm32_dma.o
 .debug_info    0x0000ef84      0x505 build/obj/hal_lld.o
 .debug_info    0x0000f489     0x1b39 build/obj/sdc_lld.o
 .debug_info    0x00010fc2      0x769 build/obj/pal_lld.o
 .debug_info    0x0001172b      0xf27 build/obj/spi_lld.o
 .debug_info    0x00012652      0x886 build/obj/pwm_lld.o
 .debug_info    0x00012ed8     0x10ab build/obj/serial_lld.o
 .debug_info    0x00013f83      0x94a build/obj/board.o
 .debug_info    0x000148cd      0x24d build/obj/gfx.o
 .debug_info    0x00014b1a      0xb88 build/obj/gos_chibios.o
 .debug_info    0x000156a2      0x8f1 build/obj/gdriver.o
 .debug_info    0x00015f93      0x7b1 build/obj/gqueue.o
 .debug_info    0x00016744     0x3a0b build/obj/gdisp.o
 .debug_info    0x0001a14f      0x8fe build/obj/gdisp_fonts.o
 .debug_info    0x0001aa4d      0xac9 build/obj/gdisp_image.o
 .debug_info    0x0001b516     0x165a build/obj/gdisp_image_gif.o
 .debug_info    0x0001cb70      0x11e build/obj/mf_encoding.o
 .debug_info    0x0001cc8e      0x6b6 build/obj/mf_font.o
 .debug_info    0x0001d344      0xc74 build/obj/mf_justify.o
 .debug_info    0x0001dfb8      0xa8a build/obj/mf_rlefont.o
 .debug_info    0x0001ea42      0x4e0 build/obj/mf_scaledfont.o
 .debug_info    0x0001ef22      0xbab build/obj/gevent.o
 .debug_info    0x0001facd      0xb4f build/obj/gtimer.o
 .debug_info    0x0002061c     0x1f08 build/obj/gwin.o
 .debug_info    0x00022524     0x1441 build/obj/gwin_widget.o
 .debug_info    0x00023965     0x1bbc build/obj/gwin_wm.o
 .debug_info    0x00025521      0xc6c build/obj/gwin_button.o
 .debug_info    0x0002618d     0x1639 build/obj/gwin_slider.o
 .debug_info    0x000277c6      0x92f build/obj/gwin_image.o
 .debug_info    0x000280f5      0xad3 build/obj/gwin_label.o
 .debug_info    0x00028bc8     0x1d6a build/obj/gwin_list.o
 .debug_info    0x0002a932      0xd2c build/obj/gwin_container.o
 .debug_info    0x0002b65e       0xff build/obj/ginput.o
 .debug_info    0x0002b75d     0x1d60 build/obj/ginput_mouse.o
 .debug_info    0x0002d4bd      0xaec build/obj/gfile.o
 .debug_info    0x0002dfa9     0x151c build/obj/gfile_fs_fatfs.o
 .debug_info    0x0002f4c5     0x4bd7 build/obj/gfile_fatfs_wrapper.o
 .debug_info    0x0003409c      0xa47 build/obj/gfile_fatfs_diskio_chibios.o
 .debug_info    0x00034ae3     0x2ff2 build/obj/gdisp_lld_SSD1289.o
 .debug_info    0x00037ad5     0x117f build/obj/gmouse_lld_ADS7843.o
 .debug_info    0x00038c54     0x15af build/obj/mainScreen.o
 .debug_info    0x0003a203      0xb98 build/obj/callScreen.o
 .debug_info    0x0003ad9b     0x13d1 build/obj/callsScreen.o
 .debug_info    0x0003c16c      0xcee build/obj/settingsScreen.o
 .debug_info    0x0003ce5a      0xd63 build/obj/gallery.o
 .debug_info    0x0003dbbd     0x1979 build/obj/contactsScreen.o
 .debug_info    0x0003f536      0x76a build/obj/calls_t.o
 .debug_info    0x0003fca0       0xe6 build/obj/messages_t.o
 .debug_info    0x0003fd86       0xe6 build/obj/audioPlayer_t.o
 .debug_info    0x0003fe6c      0x4e5 build/obj/gallery_t.o
 .debug_info    0x00040351      0x6e1 build/obj/contacts_t.o
 .debug_info    0x00040a32      0x5fc build/obj/configuration_t.o
 .debug_info    0x0004102e     0x20bf build/obj/gui_t.o
 .debug_info    0x000430ed      0xb34 build/obj/uart_t.o
 .debug_info    0x00043c21      0xd8c build/obj/gsm.o
 .debug_info    0x000449ad      0xf61 build/obj/slre.o
 .debug_info    0x0004590e     0x1f22 build/obj/sdcard.o
 .debug_info    0x00047830      0xa4a build/obj/main.o

.debug_abbrev   0x00000000     0xcc79
 .debug_abbrev  0x00000000       0xf4 build/obj/crt0.o
 .debug_abbrev  0x000000f4       0xb1 build/obj/vectors.o
 .debug_abbrev  0x000001a5       0x44 build/obj/chcore.o
 .debug_abbrev  0x000001e9      0x1d5 build/obj/chcore_v7m.o
 .debug_abbrev  0x000003be       0xf2 build/obj/nvic.o
 .debug_abbrev  0x000004b0      0x1ff build/obj/chsys.o
 .debug_abbrev  0x000006af      0x15f build/obj/chdebug.o
 .debug_abbrev  0x0000080e      0x117 build/obj/chvt.o
 .debug_abbrev  0x00000925      0x31e build/obj/chschd.o
 .debug_abbrev  0x00000c43      0x332 build/obj/chthreads.o
 .debug_abbrev  0x00000f75      0x22f build/obj/chdynamic.o
 .debug_abbrev  0x000011a4      0x19c build/obj/chregistry.o
 .debug_abbrev  0x00001340      0x31c build/obj/chsem.o
 .debug_abbrev  0x0000165c      0x2fc build/obj/chmtx.o
 .debug_abbrev  0x00001958      0x309 build/obj/chevents.o
 .debug_abbrev  0x00001c61      0x221 build/obj/chmsg.o
 .debug_abbrev  0x00001e82      0x224 build/obj/chmboxes.o
 .debug_abbrev  0x000020a6      0x343 build/obj/chqueues.o
 .debug_abbrev  0x000023e9      0x12e build/obj/chmemcore.o
 .debug_abbrev  0x00002517      0x210 build/obj/chheap.o
 .debug_abbrev  0x00002727      0x1e4 build/obj/hal.o
 .debug_abbrev  0x0000290b      0x120 build/obj/mmcsd.o
 .debug_abbrev  0x00002a2b      0x13f build/obj/pal.o
 .debug_abbrev  0x00002b6a      0x1cd build/obj/pwm.o
 .debug_abbrev  0x00002d37      0x3a8 build/obj/sdc.o
 .debug_abbrev  0x000030df      0x2e4 build/obj/serial.o
 .debug_abbrev  0x000033c3      0x2bd build/obj/spi.o
 .debug_abbrev  0x00003680      0x232 build/obj/stm32_dma.o
 .debug_abbrev  0x000038b2      0x12d build/obj/hal_lld.o
 .debug_abbrev  0x000039df      0x4b2 build/obj/sdc_lld.o
 .debug_abbrev  0x00003e91      0x1c6 build/obj/pal_lld.o
 .debug_abbrev  0x00004057      0x32b build/obj/spi_lld.o
 .debug_abbrev  0x00004382      0x274 build/obj/pwm_lld.o
 .debug_abbrev  0x000045f6      0x365 build/obj/serial_lld.o
 .debug_abbrev  0x0000495b      0x1ca build/obj/board.o
 .debug_abbrev  0x00004b25       0xa4 build/obj/gfx.o
 .debug_abbrev  0x00004bc9      0x2e5 build/obj/gos_chibios.o
 .debug_abbrev  0x00004eae      0x264 build/obj/gdriver.o
 .debug_abbrev  0x00005112      0x225 build/obj/gqueue.o
 .debug_abbrev  0x00005337      0x471 build/obj/gdisp.o
 .debug_abbrev  0x000057a8      0x23a build/obj/gdisp_fonts.o
 .debug_abbrev  0x000059e2      0x27b build/obj/gdisp_image.o
 .debug_abbrev  0x00005c5d      0x304 build/obj/gdisp_image_gif.o
 .debug_abbrev  0x00005f61       0xb5 build/obj/mf_encoding.o
 .debug_abbrev  0x00006016      0x1e0 build/obj/mf_font.o
 .debug_abbrev  0x000061f6      0x289 build/obj/mf_justify.o
 .debug_abbrev  0x0000647f      0x2eb build/obj/mf_rlefont.o
 .debug_abbrev  0x0000676a      0x18c build/obj/mf_scaledfont.o
 .debug_abbrev  0x000068f6      0x2b1 build/obj/gevent.o
 .debug_abbrev  0x00006ba7      0x2ae build/obj/gtimer.o
 .debug_abbrev  0x00006e55      0x3ab build/obj/gwin.o
 .debug_abbrev  0x00007200      0x3cf build/obj/gwin_widget.o
 .debug_abbrev  0x000075cf      0x526 build/obj/gwin_wm.o
 .debug_abbrev  0x00007af5      0x32e build/obj/gwin_button.o
 .debug_abbrev  0x00007e23      0x3ce build/obj/gwin_slider.o
 .debug_abbrev  0x000081f1      0x1f3 build/obj/gwin_image.o
 .debug_abbrev  0x000083e4      0x2ab build/obj/gwin_label.o
 .debug_abbrev  0x0000868f      0x488 build/obj/gwin_list.o
 .debug_abbrev  0x00008b17      0x2a0 build/obj/gwin_container.o
 .debug_abbrev  0x00008db7       0x8a build/obj/ginput.o
 .debug_abbrev  0x00008e41      0x476 build/obj/ginput_mouse.o
 .debug_abbrev  0x000092b7      0x25b build/obj/gfile.o
 .debug_abbrev  0x00009512      0x3e1 build/obj/gfile_fs_fatfs.o
 .debug_abbrev  0x000098f3      0x443 build/obj/gfile_fatfs_wrapper.o
 .debug_abbrev  0x00009d36      0x23e build/obj/gfile_fatfs_diskio_chibios.o
 .debug_abbrev  0x00009f74      0x3df build/obj/gdisp_lld_SSD1289.o
 .debug_abbrev  0x0000a353      0x27a build/obj/gmouse_lld_ADS7843.o
 .debug_abbrev  0x0000a5cd      0x215 build/obj/mainScreen.o
 .debug_abbrev  0x0000a7e2      0x1fb build/obj/callScreen.o
 .debug_abbrev  0x0000a9dd      0x269 build/obj/callsScreen.o
 .debug_abbrev  0x0000ac46      0x222 build/obj/settingsScreen.o
 .debug_abbrev  0x0000ae68      0x1fd build/obj/gallery.o
 .debug_abbrev  0x0000b065      0x23c build/obj/contactsScreen.o
 .debug_abbrev  0x0000b2a1      0x1d2 build/obj/calls_t.o
 .debug_abbrev  0x0000b473       0x83 build/obj/messages_t.o
 .debug_abbrev  0x0000b4f6       0x83 build/obj/audioPlayer_t.o
 .debug_abbrev  0x0000b579      0x190 build/obj/gallery_t.o
 .debug_abbrev  0x0000b709      0x1cc build/obj/contacts_t.o
 .debug_abbrev  0x0000b8d5      0x1cc build/obj/configuration_t.o
 .debug_abbrev  0x0000baa1      0x3af build/obj/gui_t.o
 .debug_abbrev  0x0000be50      0x1fc build/obj/uart_t.o
 .debug_abbrev  0x0000c04c      0x252 build/obj/gsm.o
 .debug_abbrev  0x0000c29e      0x3bd build/obj/slre.o
 .debug_abbrev  0x0000c65b      0x428 build/obj/sdcard.o
 .debug_abbrev  0x0000ca83      0x1f6 build/obj/main.o

.debug_aranges  0x00000000     0x1e98
 .debug_aranges
                0x00000000       0x38 build/obj/crt0.o
 .debug_aranges
                0x00000038       0x20 build/obj/vectors.o
 .debug_aranges
                0x00000058       0x20 build/obj/chcore.o
 .debug_aranges
                0x00000078       0x50 build/obj/chcore_v7m.o
 .debug_aranges
                0x000000c8       0x30 build/obj/nvic.o
 .debug_aranges
                0x000000f8       0x30 build/obj/chsys.o
 .debug_aranges
                0x00000128       0x78 build/obj/chdebug.o
 .debug_aranges
                0x000001a0       0x30 build/obj/chvt.o
 .debug_aranges
                0x000001d0       0x68 build/obj/chschd.o
 .debug_aranges
                0x00000238       0x78 build/obj/chthreads.o
 .debug_aranges
                0x000002b0       0x38 build/obj/chdynamic.o
 .debug_aranges
                0x000002e8       0x28 build/obj/chregistry.o
 .debug_aranges
                0x00000310       0x70 build/obj/chsem.o
 .debug_aranges
                0x00000380       0x58 build/obj/chmtx.o
 .debug_aranges
                0x000003d8       0xa0 build/obj/chevents.o
 .debug_aranges
                0x00000478       0x30 build/obj/chmsg.o
 .debug_aranges
                0x000004a8       0x70 build/obj/chmboxes.o
 .debug_aranges
                0x00000518       0x70 build/obj/chqueues.o
 .debug_aranges
                0x00000588       0x38 build/obj/chmemcore.o
 .debug_aranges
                0x000005c0       0x40 build/obj/chheap.o
 .debug_aranges
                0x00000600       0x30 build/obj/hal.o
 .debug_aranges
                0x00000630       0x20 build/obj/mmcsd.o
 .debug_aranges
                0x00000650       0x30 build/obj/pal.o
 .debug_aranges
                0x00000680       0x50 build/obj/pwm.o
 .debug_aranges
                0x000006d0       0x80 build/obj/sdc.o
 .debug_aranges
                0x00000750       0x88 build/obj/serial.o
 .debug_aranges
                0x000007d8       0x98 build/obj/spi.o
 .debug_aranges
                0x00000870       0xb0 build/obj/stm32_dma.o
 .debug_aranges
                0x00000920       0x28 build/obj/hal_lld.o
 .debug_aranges
                0x00000948       0xb8 build/obj/sdc_lld.o
 .debug_aranges
                0x00000a00       0x28 build/obj/pal_lld.o
 .debug_aranges
                0x00000a28       0x78 build/obj/spi_lld.o
 .debug_aranges
                0x00000aa0       0x48 build/obj/pwm_lld.o
 .debug_aranges
                0x00000ae8       0x40 build/obj/serial_lld.o
 .debug_aranges
                0x00000b28       0x38 build/obj/board.o
 .debug_aranges
                0x00000b60       0x28 build/obj/gfx.o
 .debug_aranges
                0x00000b88       0x78 build/obj/gos_chibios.o
 .debug_aranges
                0x00000c00       0x58 build/obj/gdriver.o
 .debug_aranges
                0x00000c58       0x90 build/obj/gqueue.o
 .debug_aranges
                0x00000ce8      0x160 build/obj/gdisp.o
 .debug_aranges
                0x00000e48       0x40 build/obj/gdisp_fonts.o
 .debug_aranges
                0x00000e88       0x70 build/obj/gdisp_image.o
 .debug_aranges
                0x00000ef8       0x60 build/obj/gdisp_image_gif.o
 .debug_aranges
                0x00000f58       0x28 build/obj/mf_encoding.o
 .debug_aranges
                0x00000f80       0x38 build/obj/mf_font.o
 .debug_aranges
                0x00000fb8       0x40 build/obj/mf_justify.o
 .debug_aranges
                0x00000ff8       0x40 build/obj/mf_rlefont.o
 .debug_aranges
                0x00001038       0x38 build/obj/mf_scaledfont.o
 .debug_aranges
                0x00001070       0x88 build/obj/gevent.o
 .debug_aranges
                0x000010f8       0x68 build/obj/gtimer.o
 .debug_aranges
                0x00001160      0x118 build/obj/gwin.o
 .debug_aranges
                0x00001278       0xa0 build/obj/gwin_widget.o
 .debug_aranges
                0x00001318       0xf8 build/obj/gwin_wm.o
 .debug_aranges
                0x00001410       0x48 build/obj/gwin_button.o
 .debug_aranges
                0x00001458       0x78 build/obj/gwin_slider.o
 .debug_aranges
                0x000014d0       0x40 build/obj/gwin_image.o
 .debug_aranges
                0x00001510       0x30 build/obj/gwin_label.o
 .debug_aranges
                0x00001540       0xb8 build/obj/gwin_list.o
 .debug_aranges
                0x000015f8       0x80 build/obj/gwin_container.o
 .debug_aranges
                0x00001678       0x28 build/obj/ginput.o
 .debug_aranges
                0x000016a0       0xa0 build/obj/ginput_mouse.o
 .debug_aranges
                0x00001740       0xc0 build/obj/gfile.o
 .debug_aranges
                0x00001800       0xa0 build/obj/gfile_fs_fatfs.o
 .debug_aranges
                0x000018a0      0x190 build/obj/gfile_fatfs_wrapper.o
 .debug_aranges
                0x00001a30       0x48 build/obj/gfile_fatfs_diskio_chibios.o
 .debug_aranges
                0x00001a78       0x70 build/obj/gdisp_lld_SSD1289.o
 .debug_aranges
                0x00001ae8       0x28 build/obj/gmouse_lld_ADS7843.o
 .debug_aranges
                0x00001b10       0x48 build/obj/mainScreen.o
 .debug_aranges
                0x00001b58       0x28 build/obj/callScreen.o
 .debug_aranges
                0x00001b80       0x38 build/obj/callsScreen.o
 .debug_aranges
                0x00001bb8       0x28 build/obj/settingsScreen.o
 .debug_aranges
                0x00001be0       0x30 build/obj/gallery.o
 .debug_aranges
                0x00001c10       0x38 build/obj/contactsScreen.o
 .debug_aranges
                0x00001c48       0x20 build/obj/calls_t.o
 .debug_aranges
                0x00001c68       0x20 build/obj/messages_t.o
 .debug_aranges
                0x00001c88       0x20 build/obj/audioPlayer_t.o
 .debug_aranges
                0x00001ca8       0x20 build/obj/gallery_t.o
 .debug_aranges
                0x00001cc8       0x20 build/obj/contacts_t.o
 .debug_aranges
                0x00001ce8       0x20 build/obj/configuration_t.o
 .debug_aranges
                0x00001d08       0x38 build/obj/gui_t.o
 .debug_aranges
                0x00001d40       0x20 build/obj/uart_t.o
 .debug_aranges
                0x00001d60       0x50 build/obj/gsm.o
 .debug_aranges
                0x00001db0       0x40 build/obj/slre.o
 .debug_aranges
                0x00001df0       0x88 build/obj/sdcard.o
 .debug_aranges
                0x00001e78       0x20 build/obj/main.o

.debug_ranges   0x00000000     0x5420
 .debug_ranges  0x00000000       0xe0 build/obj/crt0.o
 .debug_ranges  0x000000e0       0x10 build/obj/vectors.o
 .debug_ranges  0x000000f0       0x10 build/obj/chcore.o
 .debug_ranges  0x00000100       0x58 build/obj/chcore_v7m.o
 .debug_ranges  0x00000158       0x20 build/obj/nvic.o
 .debug_ranges  0x00000178       0x20 build/obj/chsys.o
 .debug_ranges  0x00000198       0xe0 build/obj/chdebug.o
 .debug_ranges  0x00000278       0x20 build/obj/chvt.o
 .debug_ranges  0x00000298      0x158 build/obj/chschd.o
 .debug_ranges  0x000003f0      0x130 build/obj/chthreads.o
 .debug_ranges  0x00000520       0x40 build/obj/chdynamic.o
 .debug_ranges  0x00000560       0x18 build/obj/chregistry.o
 .debug_ranges  0x00000578      0x1f8 build/obj/chsem.o
 .debug_ranges  0x00000770      0x248 build/obj/chmtx.o
 .debug_ranges  0x000009b8       0xd8 build/obj/chevents.o
 .debug_ranges  0x00000a90       0x68 build/obj/chmsg.o
 .debug_ranges  0x00000af8       0xc0 build/obj/chmboxes.o
 .debug_ranges  0x00000bb8       0xc0 build/obj/chqueues.o
 .debug_ranges  0x00000c78       0x40 build/obj/chmemcore.o
 .debug_ranges  0x00000cb8       0x30 build/obj/chheap.o
 .debug_ranges  0x00000ce8       0x50 build/obj/hal.o
 .debug_ranges  0x00000d38       0x28 build/obj/mmcsd.o
 .debug_ranges  0x00000d60       0x20 build/obj/pal.o
 .debug_ranges  0x00000d80       0x70 build/obj/pwm.o
 .debug_ranges  0x00000df0       0xb8 build/obj/sdc.o
 .debug_ranges  0x00000ea8       0x90 build/obj/serial.o
 .debug_ranges  0x00000f38      0x130 build/obj/spi.o
 .debug_ranges  0x00001068       0xa0 build/obj/stm32_dma.o
 .debug_ranges  0x00001108       0x30 build/obj/hal_lld.o
 .debug_ranges  0x00001138      0x180 build/obj/sdc_lld.o
 .debug_ranges  0x000012b8      0x168 build/obj/pal_lld.o
 .debug_ranges  0x00001420       0x68 build/obj/spi_lld.o
 .debug_ranges  0x00001488       0x78 build/obj/pwm_lld.o
 .debug_ranges  0x00001500       0xd0 build/obj/serial_lld.o
 .debug_ranges  0x000015d0       0x28 build/obj/board.o
 .debug_ranges  0x000015f8       0x18 build/obj/gfx.o
 .debug_ranges  0x00001610       0x80 build/obj/gos_chibios.o
 .debug_ranges  0x00001690       0x48 build/obj/gdriver.o
 .debug_ranges  0x000016d8       0xf8 build/obj/gqueue.o
 .debug_ranges  0x000017d0      0xa98 build/obj/gdisp.o
 .debug_ranges  0x00002268       0x48 build/obj/gdisp_fonts.o
 .debug_ranges  0x000022b0       0x60 build/obj/gdisp_image.o
 .debug_ranges  0x00002310      0x120 build/obj/gdisp_image_gif.o
 .debug_ranges  0x00002430       0x18 build/obj/mf_encoding.o
 .debug_ranges  0x00002448       0x28 build/obj/mf_font.o
 .debug_ranges  0x00002470       0xe0 build/obj/mf_justify.o
 .debug_ranges  0x00002550      0x160 build/obj/mf_rlefont.o
 .debug_ranges  0x000026b0       0x28 build/obj/mf_scaledfont.o
 .debug_ranges  0x000026d8       0x78 build/obj/gevent.o
 .debug_ranges  0x00002750       0x58 build/obj/gtimer.o
 .debug_ranges  0x000027a8      0x108 build/obj/gwin.o
 .debug_ranges  0x000028b0       0xb0 build/obj/gwin_widget.o
 .debug_ranges  0x00002960      0x1d0 build/obj/gwin_wm.o
 .debug_ranges  0x00002b30       0xb0 build/obj/gwin_button.o
 .debug_ranges  0x00002be0       0xd8 build/obj/gwin_slider.o
 .debug_ranges  0x00002cb8       0x30 build/obj/gwin_image.o
 .debug_ranges  0x00002ce8       0x80 build/obj/gwin_label.o
 .debug_ranges  0x00002d68      0x1a0 build/obj/gwin_list.o
 .debug_ranges  0x00002f08       0x88 build/obj/gwin_container.o
 .debug_ranges  0x00002f90       0x18 build/obj/ginput.o
 .debug_ranges  0x00002fa8      0x280 build/obj/ginput_mouse.o
 .debug_ranges  0x00003228       0xd8 build/obj/gfile.o
 .debug_ranges  0x00003300       0xd8 build/obj/gfile_fs_fatfs.o
 .debug_ranges  0x000033d8      0x9c8 build/obj/gfile_fatfs_wrapper.o
 .debug_ranges  0x00003da0       0x38 build/obj/gfile_fatfs_diskio_chibios.o
 .debug_ranges  0x00003dd8      0xc28 build/obj/gdisp_lld_SSD1289.o
 .debug_ranges  0x00004a00      0x188 build/obj/gmouse_lld_ADS7843.o
 .debug_ranges  0x00004b88       0x38 build/obj/mainScreen.o
 .debug_ranges  0x00004bc0       0x18 build/obj/callScreen.o
 .debug_ranges  0x00004bd8       0x28 build/obj/callsScreen.o
 .debug_ranges  0x00004c00       0x18 build/obj/settingsScreen.o
 .debug_ranges  0x00004c18       0x20 build/obj/gallery.o
 .debug_ranges  0x00004c38       0x28 build/obj/contactsScreen.o
 .debug_ranges  0x00004c60       0x10 build/obj/calls_t.o
 .debug_ranges  0x00004c70       0x10 build/obj/messages_t.o
 .debug_ranges  0x00004c80       0x10 build/obj/audioPlayer_t.o
 .debug_ranges  0x00004c90       0x10 build/obj/gallery_t.o
 .debug_ranges  0x00004ca0       0x10 build/obj/contacts_t.o
 .debug_ranges  0x00004cb0       0x10 build/obj/configuration_t.o
 .debug_ranges  0x00004cc0      0x280 build/obj/gui_t.o
 .debug_ranges  0x00004f40       0x10 build/obj/uart_t.o
 .debug_ranges  0x00004f50       0x40 build/obj/gsm.o
 .debug_ranges  0x00004f90      0x368 build/obj/slre.o
 .debug_ranges  0x000052f8      0x118 build/obj/sdcard.o
 .debug_ranges  0x00005410       0x10 build/obj/main.o

.debug_line     0x00000000    0x14eaa
 .debug_line    0x00000000      0x176 build/obj/crt0.o
 .debug_line    0x00000176       0xee build/obj/vectors.o
 .debug_line    0x00000264       0x5b build/obj/chcore.o
 .debug_line    0x000002bf      0x23f build/obj/chcore_v7m.o
 .debug_line    0x000004fe      0x12d build/obj/nvic.o
 .debug_line    0x0000062b      0x25c build/obj/chsys.o
 .debug_line    0x00000887      0x29e build/obj/chdebug.o
 .debug_line    0x00000b25      0x180 build/obj/chvt.o
 .debug_line    0x00000ca5      0x323 build/obj/chschd.o
 .debug_line    0x00000fc8      0x3b7 build/obj/chthreads.o
 .debug_line    0x0000137f      0x289 build/obj/chdynamic.o
 .debug_line    0x00001608      0x22d build/obj/chregistry.o
 .debug_line    0x00001835      0x399 build/obj/chsem.o
 .debug_line    0x00001bce      0x376 build/obj/chmtx.o
 .debug_line    0x00001f44      0x362 build/obj/chevents.o
 .debug_line    0x000022a6      0x1eb build/obj/chmsg.o
 .debug_line    0x00002491      0x2be build/obj/chmboxes.o
 .debug_line    0x0000274f      0x3f9 build/obj/chqueues.o
 .debug_line    0x00002b48      0x1c3 build/obj/chmemcore.o
 .debug_line    0x00002d0b      0x2bd build/obj/chheap.o
 .debug_line    0x00002fc8      0x2c4 build/obj/hal.o
 .debug_line    0x0000328c      0x13d build/obj/mmcsd.o
 .debug_line    0x000033c9      0x1a1 build/obj/pal.o
 .debug_line    0x0000356a      0x233 build/obj/pwm.o
 .debug_line    0x0000379d      0x434 build/obj/sdc.o
 .debug_line    0x00003bd1      0x3f5 build/obj/serial.o
 .debug_line    0x00003fc6      0x445 build/obj/spi.o
 .debug_line    0x0000440b      0x444 build/obj/stm32_dma.o
 .debug_line    0x0000484f      0x20e build/obj/hal_lld.o
 .debug_line    0x00004a5d      0x598 build/obj/sdc_lld.o
 .debug_line    0x00004ff5      0x216 build/obj/pal_lld.o
 .debug_line    0x0000520b      0x4c8 build/obj/spi_lld.o
 .debug_line    0x000056d3      0x32a build/obj/pwm_lld.o
 .debug_line    0x000059fd      0x3d0 build/obj/serial_lld.o
 .debug_line    0x00005dcd      0x2d2 build/obj/board.o
 .debug_line    0x0000609f      0x169 build/obj/gfx.o
 .debug_line    0x00006208      0x39a build/obj/gos_chibios.o
 .debug_line    0x000065a2      0x327 build/obj/gdriver.o
 .debug_line    0x000068c9      0x2df build/obj/gqueue.o
 .debug_line    0x00006ba8      0xdf9 build/obj/gdisp.o
 .debug_line    0x000079a1      0x2f6 build/obj/gdisp_fonts.o
 .debug_line    0x00007c97      0x398 build/obj/gdisp_image.o
 .debug_line    0x0000802f      0xb26 build/obj/gdisp_image_gif.o
 .debug_line    0x00008b55      0x149 build/obj/mf_encoding.o
 .debug_line    0x00008c9e      0x1e6 build/obj/mf_font.o
 .debug_line    0x00008e84      0x2fa build/obj/mf_justify.o
 .debug_line    0x0000917e      0x2dc build/obj/mf_rlefont.o
 .debug_line    0x0000945a      0x1e3 build/obj/mf_scaledfont.o
 .debug_line    0x0000963d      0x3b3 build/obj/gevent.o
 .debug_line    0x000099f0      0x3aa build/obj/gtimer.o
 .debug_line    0x00009d9a      0x5c5 build/obj/gwin.o
 .debug_line    0x0000a35f      0x545 build/obj/gwin_widget.o
 .debug_line    0x0000a8a4      0x794 build/obj/gwin_wm.o
 .debug_line    0x0000b038      0x37d build/obj/gwin_button.o
 .debug_line    0x0000b3b5      0x536 build/obj/gwin_slider.o
 .debug_line    0x0000b8eb      0x319 build/obj/gwin_image.o
 .debug_line    0x0000bc04      0x2c2 build/obj/gwin_label.o
 .debug_line    0x0000bec6      0x639 build/obj/gwin_list.o
 .debug_line    0x0000c4ff      0x3aa build/obj/gwin_container.o
 .debug_line    0x0000c8a9      0x12e build/obj/ginput.o
 .debug_line    0x0000c9d7      0x841 build/obj/ginput_mouse.o
 .debug_line    0x0000d218      0x41d build/obj/gfile.o
 .debug_line    0x0000d635      0x405 build/obj/gfile_fs_fatfs.o
 .debug_line    0x0000da3a     0x17a7 build/obj/gfile_fatfs_wrapper.o
 .debug_line    0x0000f1e1      0x331 build/obj/gfile_fatfs_diskio_chibios.o
 .debug_line    0x0000f512      0x990 build/obj/gdisp_lld_SSD1289.o
 .debug_line    0x0000fea2      0x45f build/obj/gmouse_lld_ADS7843.o
 .debug_line    0x00010301      0x5a0 build/obj/mainScreen.o
 .debug_line    0x000108a1      0x3ca build/obj/callScreen.o
 .debug_line    0x00010c6b      0x689 build/obj/callsScreen.o
 .debug_line    0x000112f4      0x3f4 build/obj/settingsScreen.o
 .debug_line    0x000116e8      0x3f7 build/obj/gallery.o
 .debug_line    0x00011adf      0x7ed build/obj/contactsScreen.o
 .debug_line    0x000122cc      0x300 build/obj/calls_t.o
 .debug_line    0x000125cc      0x17b build/obj/messages_t.o
 .debug_line    0x00012747      0x17e build/obj/audioPlayer_t.o
 .debug_line    0x000128c5      0x25a build/obj/gallery_t.o
 .debug_line    0x00012b1f      0x2f2 build/obj/contacts_t.o
 .debug_line    0x00012e11      0x2e1 build/obj/configuration_t.o
 .debug_line    0x000130f2      0x805 build/obj/gui_t.o
 .debug_line    0x000138f7      0x389 build/obj/uart_t.o
 .debug_line    0x00013c80      0x38b build/obj/gsm.o
 .debug_line    0x0001400b      0x508 build/obj/slre.o
 .debug_line    0x00014513      0x688 build/obj/sdcard.o
 .debug_line    0x00014b9b      0x30f build/obj/main.o

.debug_str      0x00000000     0x6ed2
 .debug_str     0x00000000      0x201 build/obj/crt0.o
                                0x240 (size before relaxing)
 .debug_str     0x00000201      0x14d build/obj/vectors.o
                                0x26b (size before relaxing)
 .debug_str     0x0000034e       0x35 build/obj/chcore.o
                                0x13e (size before relaxing)
 .debug_str     0x00000383      0x357 build/obj/chcore_v7m.o
                                0x48d (size before relaxing)
 .debug_str     0x000006da       0xa6 build/obj/nvic.o
                                0x23d (size before relaxing)
 .debug_str     0x00000780      0x22f build/obj/chsys.o
                                0x53f (size before relaxing)
 .debug_str     0x000009af       0x8d build/obj/chdebug.o
                                0x253 (size before relaxing)
 .debug_str     0x00000a3c       0x3e build/obj/chvt.o
                                0x1cf (size before relaxing)
 .debug_str     0x00000a7a       0xdd build/obj/chschd.o
                                0x474 (size before relaxing)
 .debug_str     0x00000b57       0xdb build/obj/chthreads.o
                                0x4bc (size before relaxing)
 .debug_str     0x00000c32      0x11b build/obj/chdynamic.o
                                0x422 (size before relaxing)
 .debug_str     0x00000d4d       0x4a build/obj/chregistry.o
                                0x42e (size before relaxing)
 .debug_str     0x00000d97       0xd0 build/obj/chsem.o
                                0x446 (size before relaxing)
 .debug_str     0x00000e67       0x99 build/obj/chmtx.o
                                0x3d6 (size before relaxing)
 .debug_str     0x00000f00      0x1c1 build/obj/chevents.o
                                0x4fa (size before relaxing)
 .debug_str     0x000010c1       0x45 build/obj/chmsg.o
                                0x35d (size before relaxing)
 .debug_str     0x00001106       0xea build/obj/chmboxes.o
                                0x40e (size before relaxing)
 .debug_str     0x000011f0      0x121 build/obj/chqueues.o
                                0x461 (size before relaxing)
 .debug_str     0x00001311       0x78 build/obj/chmemcore.o
                                0x1da (size before relaxing)
 .debug_str     0x00001389       0x50 build/obj/chheap.o
                                0x389 (size before relaxing)
 .debug_str     0x000013d9      0x181 build/obj/hal.o
                                0x2b5 (size before relaxing)
 .debug_str     0x0000155a       0x63 build/obj/mmcsd.o
                                0x195 (size before relaxing)
 .debug_str     0x000015bd       0xd8 build/obj/pal.o
                                0x21d (size before relaxing)
 .debug_str     0x00001695      0x1af build/obj/pwm.o
                                0x338 (size before relaxing)
 .debug_str     0x00001844      0x388 build/obj/sdc.o
                                0x6a8 (size before relaxing)
 .debug_str     0x00001bcc      0x171 build/obj/serial.o
                                0x5ce (size before relaxing)
 .debug_str     0x00001d3d      0x243 build/obj/spi.o
                                0x676 (size before relaxing)
 .debug_str     0x00001f80      0x74f build/obj/stm32_dma.o
                                0x99d (size before relaxing)
 .debug_str     0x000026cf       0xc6 build/obj/hal_lld.o
                                0x35d (size before relaxing)
 .debug_str     0x00002795      0x154 build/obj/sdc_lld.o
                                0x97a (size before relaxing)
 .debug_str     0x000028e9       0x53 build/obj/pal_lld.o
                                0x3b0 (size before relaxing)
 .debug_str     0x0000293c       0x99 build/obj/spi_lld.o
                                0x728 (size before relaxing)
 .debug_str     0x000029d5       0x61 build/obj/pwm_lld.o
                                0x47b (size before relaxing)
 .debug_str     0x00002a36       0x6d build/obj/serial_lld.o
                                0x69d (size before relaxing)
 .debug_str     0x00002aa3       0x6b build/obj/board.o
                                0x562 (size before relaxing)
 .debug_str     0x00002b0e      0x10e build/obj/gfx.o
                                0x233 (size before relaxing)
 .debug_str     0x00002c1c      0x122 build/obj/gos_chibios.o
                                0x580 (size before relaxing)
 .debug_str     0x00002d3e       0xf7 build/obj/gdriver.o
                                0x45e (size before relaxing)
 .debug_str     0x00002e35      0x147 build/obj/gqueue.o
                                0x2be (size before relaxing)
 .debug_str     0x00002f7c      0x75f build/obj/gdisp.o
                                0xb7c (size before relaxing)
 .debug_str     0x000036db       0xe7 build/obj/gdisp_fonts.o
                                0x4dc (size before relaxing)
 .debug_str     0x000037c2      0x163 build/obj/gdisp_image.o
                                0x4fe (size before relaxing)
 .debug_str     0x00003925      0x240 build/obj/gdisp_image_gif.o
                                0x4d3 (size before relaxing)
 .debug_str     0x00003b65       0x40 build/obj/mf_encoding.o
                                0x16d (size before relaxing)
 .debug_str     0x00003ba5      0x1ef build/obj/mf_font.o
                                0x4b5 (size before relaxing)
 .debug_str     0x00003d94       0x9d build/obj/mf_justify.o
                                0x372 (size before relaxing)
 .debug_str     0x00003e31      0x137 build/obj/mf_rlefont.o
                                0x43d (size before relaxing)
 .debug_str     0x00003f68       0xb4 build/obj/mf_scaledfont.o
                                0x312 (size before relaxing)
 .debug_str     0x0000401c      0x1ce build/obj/gevent.o
                                0x540 (size before relaxing)
 .debug_str     0x000041ea      0x102 build/obj/gtimer.o
                                0x553 (size before relaxing)
 .debug_str     0x000042ec      0x476 build/obj/gwin.o
                                0xa55 (size before relaxing)
 .debug_str     0x00004762      0x1f1 build/obj/gwin_widget.o
                                0x88b (size before relaxing)
 .debug_str     0x00004953      0x198 build/obj/gwin_wm.o
                                0x883 (size before relaxing)
 .debug_str     0x00004aeb       0xb5 build/obj/gwin_button.o
                                0x504 (size before relaxing)
 .debug_str     0x00004ba0      0x134 build/obj/gwin_slider.o
                                0x7fc (size before relaxing)
 .debug_str     0x00004cd4       0x7e build/obj/gwin_image.o
                                0x3d7 (size before relaxing)
 .debug_str     0x00004d52       0x9a build/obj/gwin_label.o
                                0x4eb (size before relaxing)
 .debug_str     0x00004dec      0x24e build/obj/gwin_list.o
                                0xa62 (size before relaxing)
 .debug_str     0x0000503a       0xec build/obj/gwin_container.o
                                0x58f (size before relaxing)
 .debug_str     0x00005126       0x39 build/obj/ginput.o
                                0x171 (size before relaxing)
 .debug_str     0x0000515f      0x26c build/obj/ginput_mouse.o
                                0x9f0 (size before relaxing)
 .debug_str     0x000053cb      0x198 build/obj/gfile.o
                                0x35e (size before relaxing)
 .debug_str     0x00005563      0x399 build/obj/gfile_fs_fatfs.o
                                0x79e (size before relaxing)
 .debug_str     0x000058fc      0x36e build/obj/gfile_fatfs_wrapper.o
                                0x964 (size before relaxing)
 .debug_str     0x00005c6a       0x37 build/obj/gfile_fatfs_diskio_chibios.o
                                0x554 (size before relaxing)
 .debug_str     0x00005ca1      0x139 build/obj/gdisp_lld_SSD1289.o
                                0x9f2 (size before relaxing)
 .debug_str     0x00005dda       0x72 build/obj/gmouse_lld_ADS7843.o
                                0x6dc (size before relaxing)
 .debug_str     0x00005e4c      0x2fc build/obj/mainScreen.o
                                0x6fb (size before relaxing)
 .debug_str     0x00006148       0xb7 build/obj/callScreen.o
                                0x51a (size before relaxing)
 .debug_str     0x000061ff      0x17b build/obj/callsScreen.o
                                0x670 (size before relaxing)
 .debug_str     0x0000637a       0xb5 build/obj/settingsScreen.o
                                0x601 (size before relaxing)
 .debug_str     0x0000642f       0xce build/obj/gallery.o
                                0x54c (size before relaxing)
 .debug_str     0x000064fd      0x1fe build/obj/contactsScreen.o
                                0x749 (size before relaxing)
 .debug_str     0x000066fb       0xdf build/obj/calls_t.o
                                0x40e (size before relaxing)
 .debug_str     0x000067da       0x3d build/obj/messages_t.o
                                0x176 (size before relaxing)
 .debug_str     0x00006817       0x43 build/obj/audioPlayer_t.o
                                0x17c (size before relaxing)
 .debug_str     0x0000685a       0x6a build/obj/gallery_t.o
                                0x321 (size before relaxing)
 .debug_str     0x000068c4       0x46 build/obj/contacts_t.o
                                0x38f (size before relaxing)
 .debug_str     0x0000690a       0x95 build/obj/configuration_t.o
                                0x394 (size before relaxing)
 .debug_str     0x0000699f      0x18f build/obj/gui_t.o
                                0xc96 (size before relaxing)
 .debug_str     0x00006b2e       0x95 build/obj/uart_t.o
                                0x4c4 (size before relaxing)
 .debug_str     0x00006bc3       0x4d build/obj/gsm.o
                                0x51a (size before relaxing)
 .debug_str     0x00006c10      0x156 build/obj/slre.o
                                0x2ab (size before relaxing)
 .debug_str     0x00006d66       0xa8 build/obj/sdcard.o
                                0x802 (size before relaxing)
 .debug_str     0x00006e0e       0xc4 build/obj/main.o
                                0x53b (size before relaxing)

.comment        0x00000000       0x70
 .comment       0x00000000       0x70 build/obj/crt0.o
                                 0x71 (size before relaxing)
 .comment       0x00000000       0x71 build/obj/vectors.o
 .comment       0x00000000       0x71 build/obj/chcore.o
 .comment       0x00000000       0x71 build/obj/chcore_v7m.o
 .comment       0x00000000       0x71 build/obj/nvic.o
 .comment       0x00000000       0x71 build/obj/chsys.o
 .comment       0x00000000       0x71 build/obj/chdebug.o
 .comment       0x00000000       0x71 build/obj/chvt.o
 .comment       0x00000000       0x71 build/obj/chschd.o
 .comment       0x00000000       0x71 build/obj/chthreads.o
 .comment       0x00000000       0x71 build/obj/chdynamic.o
 .comment       0x00000000       0x71 build/obj/chregistry.o
 .comment       0x00000000       0x71 build/obj/chsem.o
 .comment       0x00000000       0x71 build/obj/chmtx.o
 .comment       0x00000000       0x71 build/obj/chevents.o
 .comment       0x00000000       0x71 build/obj/chmsg.o
 .comment       0x00000000       0x71 build/obj/chmboxes.o
 .comment       0x00000000       0x71 build/obj/chqueues.o
 .comment       0x00000000       0x71 build/obj/chmemcore.o
 .comment       0x00000000       0x71 build/obj/chheap.o
 .comment       0x00000000       0x71 build/obj/hal.o
 .comment       0x00000000       0x71 build/obj/mmcsd.o
 .comment       0x00000000       0x71 build/obj/pal.o
 .comment       0x00000000       0x71 build/obj/pwm.o
 .comment       0x00000000       0x71 build/obj/sdc.o
 .comment       0x00000000       0x71 build/obj/serial.o
 .comment       0x00000000       0x71 build/obj/spi.o
 .comment       0x00000000       0x71 build/obj/stm32_dma.o
 .comment       0x00000000       0x71 build/obj/hal_lld.o
 .comment       0x00000000       0x71 build/obj/sdc_lld.o
 .comment       0x00000000       0x71 build/obj/pal_lld.o
 .comment       0x00000000       0x71 build/obj/spi_lld.o
 .comment       0x00000000       0x71 build/obj/pwm_lld.o
 .comment       0x00000000       0x71 build/obj/serial_lld.o
 .comment       0x00000000       0x71 build/obj/board.o
 .comment       0x00000000       0x71 build/obj/gfx.o
 .comment       0x00000000       0x71 build/obj/gos_chibios.o
 .comment       0x00000000       0x71 build/obj/gdriver.o
 .comment       0x00000000       0x71 build/obj/gqueue.o
 .comment       0x00000000       0x71 build/obj/gdisp.o
 .comment       0x00000000       0x71 build/obj/gdisp_fonts.o
 .comment       0x00000000       0x71 build/obj/gdisp_image.o
 .comment       0x00000000       0x71 build/obj/gdisp_image_gif.o
 .comment       0x00000000       0x71 build/obj/mf_encoding.o
 .comment       0x00000000       0x71 build/obj/mf_font.o
 .comment       0x00000000       0x71 build/obj/mf_justify.o
 .comment       0x00000000       0x71 build/obj/mf_rlefont.o
 .comment       0x00000000       0x71 build/obj/mf_scaledfont.o
 .comment       0x00000000       0x71 build/obj/gevent.o
 .comment       0x00000000       0x71 build/obj/gtimer.o
 .comment       0x00000000       0x71 build/obj/gwin.o
 .comment       0x00000000       0x71 build/obj/gwin_widget.o
 .comment       0x00000000       0x71 build/obj/gwin_wm.o
 .comment       0x00000000       0x71 build/obj/gwin_button.o
 .comment       0x00000000       0x71 build/obj/gwin_slider.o
 .comment       0x00000000       0x71 build/obj/gwin_image.o
 .comment       0x00000000       0x71 build/obj/gwin_label.o
 .comment       0x00000000       0x71 build/obj/gwin_list.o
 .comment       0x00000000       0x71 build/obj/gwin_container.o
 .comment       0x00000000       0x71 build/obj/ginput.o
 .comment       0x00000000       0x71 build/obj/ginput_mouse.o
 .comment       0x00000000       0x71 build/obj/gfile.o
 .comment       0x00000000       0x71 build/obj/gfile_fs_fatfs.o
 .comment       0x00000000       0x71 build/obj/gfile_fatfs_wrapper.o
 .comment       0x00000000       0x71 build/obj/gfile_fatfs_diskio_chibios.o
 .comment       0x00000000       0x71 build/obj/gdisp_lld_SSD1289.o
 .comment       0x00000000       0x71 build/obj/gmouse_lld_ADS7843.o
 .comment       0x00000000       0x71 build/obj/mainScreen.o
 .comment       0x00000000       0x71 build/obj/callScreen.o
 .comment       0x00000000       0x71 build/obj/callsScreen.o
 .comment       0x00000000       0x71 build/obj/settingsScreen.o
 .comment       0x00000000       0x71 build/obj/gallery.o
 .comment       0x00000000       0x71 build/obj/contactsScreen.o
 .comment       0x00000000       0x71 build/obj/calls_t.o
 .comment       0x00000000       0x71 build/obj/messages_t.o
 .comment       0x00000000       0x71 build/obj/audioPlayer_t.o
 .comment       0x00000000       0x71 build/obj/gallery_t.o
 .comment       0x00000000       0x71 build/obj/contacts_t.o
 .comment       0x00000000       0x71 build/obj/configuration_t.o
 .comment       0x00000000       0x71 build/obj/gui_t.o
 .comment       0x00000000       0x71 build/obj/uart_t.o
 .comment       0x00000000       0x71 build/obj/gsm.o
 .comment       0x00000000       0x71 build/obj/slre.o
 .comment       0x00000000       0x71 build/obj/sdcard.o
 .comment       0x00000000       0x71 build/obj/main.o

.ARM.attributes
                0x00000000       0x33
 .ARM.attributes
                0x00000000       0x33 build/obj/crt0.o
 .ARM.attributes
                0x00000033       0x33 build/obj/vectors.o
 .ARM.attributes
                0x00000066       0x33 build/obj/chcore.o
 .ARM.attributes
                0x00000099       0x33 build/obj/chcore_v7m.o
 .ARM.attributes
                0x000000cc       0x33 build/obj/nvic.o
 .ARM.attributes
                0x000000ff       0x33 build/obj/chsys.o
 .ARM.attributes
                0x00000132       0x33 build/obj/chdebug.o
 .ARM.attributes
                0x00000165       0x33 build/obj/chvt.o
 .ARM.attributes
                0x00000198       0x33 build/obj/chschd.o
 .ARM.attributes
                0x000001cb       0x33 build/obj/chthreads.o
 .ARM.attributes
                0x000001fe       0x33 build/obj/chdynamic.o
 .ARM.attributes
                0x00000231       0x33 build/obj/chregistry.o
 .ARM.attributes
                0x00000264       0x33 build/obj/chsem.o
 .ARM.attributes
                0x00000297       0x33 build/obj/chmtx.o
 .ARM.attributes
                0x000002ca       0x33 build/obj/chevents.o
 .ARM.attributes
                0x000002fd       0x33 build/obj/chmsg.o
 .ARM.attributes
                0x00000330       0x33 build/obj/chmboxes.o
 .ARM.attributes
                0x00000363       0x33 build/obj/chqueues.o
 .ARM.attributes
                0x00000396       0x33 build/obj/chmemcore.o
 .ARM.attributes
                0x000003c9       0x33 build/obj/chheap.o
 .ARM.attributes
                0x000003fc       0x33 build/obj/hal.o
 .ARM.attributes
                0x0000042f       0x33 build/obj/mmcsd.o
 .ARM.attributes
                0x00000462       0x33 build/obj/pal.o
 .ARM.attributes
                0x00000495       0x33 build/obj/pwm.o
 .ARM.attributes
                0x000004c8       0x33 build/obj/sdc.o
 .ARM.attributes
                0x000004fb       0x33 build/obj/serial.o
 .ARM.attributes
                0x0000052e       0x33 build/obj/spi.o
 .ARM.attributes
                0x00000561       0x33 build/obj/stm32_dma.o
 .ARM.attributes
                0x00000594       0x33 build/obj/hal_lld.o
 .ARM.attributes
                0x000005c7       0x33 build/obj/sdc_lld.o
 .ARM.attributes
                0x000005fa       0x33 build/obj/pal_lld.o
 .ARM.attributes
                0x0000062d       0x33 build/obj/spi_lld.o
 .ARM.attributes
                0x00000660       0x33 build/obj/pwm_lld.o
 .ARM.attributes
                0x00000693       0x33 build/obj/serial_lld.o
 .ARM.attributes
                0x000006c6       0x33 build/obj/board.o
 .ARM.attributes
                0x000006f9       0x33 build/obj/gfx.o
 .ARM.attributes
                0x0000072c       0x33 build/obj/gos_chibios.o
 .ARM.attributes
                0x0000075f       0x33 build/obj/gdriver.o
 .ARM.attributes
                0x00000792       0x33 build/obj/gqueue.o
 .ARM.attributes
                0x000007c5       0x33 build/obj/gdisp.o
 .ARM.attributes
                0x000007f8       0x33 build/obj/gdisp_fonts.o
 .ARM.attributes
                0x0000082b       0x33 build/obj/gdisp_image.o
 .ARM.attributes
                0x0000085e       0x33 build/obj/gdisp_image_gif.o
 .ARM.attributes
                0x00000891       0x33 build/obj/mf_encoding.o
 .ARM.attributes
                0x000008c4       0x33 build/obj/mf_font.o
 .ARM.attributes
                0x000008f7       0x33 build/obj/mf_justify.o
 .ARM.attributes
                0x0000092a       0x33 build/obj/mf_rlefont.o
 .ARM.attributes
                0x0000095d       0x33 build/obj/mf_scaledfont.o
 .ARM.attributes
                0x00000990       0x33 build/obj/gevent.o
 .ARM.attributes
                0x000009c3       0x33 build/obj/gtimer.o
 .ARM.attributes
                0x000009f6       0x33 build/obj/gwin.o
 .ARM.attributes
                0x00000a29       0x33 build/obj/gwin_widget.o
 .ARM.attributes
                0x00000a5c       0x33 build/obj/gwin_wm.o
 .ARM.attributes
                0x00000a8f       0x33 build/obj/gwin_button.o
 .ARM.attributes
                0x00000ac2       0x33 build/obj/gwin_slider.o
 .ARM.attributes
                0x00000af5       0x33 build/obj/gwin_image.o
 .ARM.attributes
                0x00000b28       0x33 build/obj/gwin_label.o
 .ARM.attributes
                0x00000b5b       0x33 build/obj/gwin_list.o
 .ARM.attributes
                0x00000b8e       0x33 build/obj/gwin_container.o
 .ARM.attributes
                0x00000bc1       0x33 build/obj/ginput.o
 .ARM.attributes
                0x00000bf4       0x33 build/obj/ginput_mouse.o
 .ARM.attributes
                0x00000c27       0x33 build/obj/gfile.o
 .ARM.attributes
                0x00000c5a       0x33 build/obj/gfile_fs_fatfs.o
 .ARM.attributes
                0x00000c8d       0x33 build/obj/gfile_fatfs_wrapper.o
 .ARM.attributes
                0x00000cc0       0x33 build/obj/gfile_fatfs_diskio_chibios.o
 .ARM.attributes
                0x00000cf3       0x33 build/obj/gdisp_lld_SSD1289.o
 .ARM.attributes
                0x00000d26       0x33 build/obj/gmouse_lld_ADS7843.o
 .ARM.attributes
                0x00000d59       0x33 build/obj/mainScreen.o
 .ARM.attributes
                0x00000d8c       0x33 build/obj/callScreen.o
 .ARM.attributes
                0x00000dbf       0x33 build/obj/callsScreen.o
 .ARM.attributes
                0x00000df2       0x33 build/obj/settingsScreen.o
 .ARM.attributes
                0x00000e25       0x33 build/obj/gallery.o
 .ARM.attributes
                0x00000e58       0x33 build/obj/contactsScreen.o
 .ARM.attributes
                0x00000e8b       0x33 build/obj/calls_t.o
 .ARM.attributes
                0x00000ebe       0x33 build/obj/messages_t.o
 .ARM.attributes
                0x00000ef1       0x33 build/obj/audioPlayer_t.o
 .ARM.attributes
                0x00000f24       0x33 build/obj/gallery_t.o
 .ARM.attributes
                0x00000f57       0x33 build/obj/contacts_t.o
 .ARM.attributes
                0x00000f8a       0x33 build/obj/configuration_t.o
 .ARM.attributes
                0x00000fbd       0x33 build/obj/gui_t.o
 .ARM.attributes
                0x00000ff0       0x33 build/obj/uart_t.o
 .ARM.attributes
                0x00001023       0x33 build/obj/gsm.o
 .ARM.attributes
                0x00001056       0x33 build/obj/slre.o
 .ARM.attributes
                0x00001089       0x33 build/obj/sdcard.o
 .ARM.attributes
                0x000010bc       0x33 build/obj/main.o
 .ARM.attributes
                0x000010ef       0x1e c:/chibistudio/tools/gnu tools arm embedded/4.7 2014q2/bin/../lib/gcc/arm-none-eabi/4.7.4/armv7e-m\libgcc.a(_arm_addsubsf3.o)
 .ARM.attributes
                0x0000110d       0x1e c:/chibistudio/tools/gnu tools arm embedded/4.7 2014q2/bin/../lib/gcc/arm-none-eabi/4.7.4/armv7e-m\libgcc.a(_arm_muldivsf3.o)
 .ARM.attributes
                0x0000112b       0x1e c:/chibistudio/tools/gnu tools arm embedded/4.7 2014q2/bin/../lib/gcc/arm-none-eabi/4.7.4/armv7e-m\libgcc.a(_arm_fixsfsi.o)
 .ARM.attributes
                0x00001149       0x2e c:/chibistudio/tools/gnu tools arm embedded/4.7 2014q2/bin/../lib/gcc/arm-none-eabi/4.7.4/../../../../arm-none-eabi/lib/armv7e-m\libg.a(lib_a-atoi.o)
 .ARM.attributes
                0x00001177       0x2e c:/chibistudio/tools/gnu tools arm embedded/4.7 2014q2/bin/../lib/gcc/arm-none-eabi/4.7.4/../../../../arm-none-eabi/lib/armv7e-m\libg.a(lib_a-ctype_.o)
 .ARM.attributes
                0x000011a5       0x2e c:/chibistudio/tools/gnu tools arm embedded/4.7 2014q2/bin/../lib/gcc/arm-none-eabi/4.7.4/../../../../arm-none-eabi/lib/armv7e-m\libg.a(lib_a-memcpy.o)
 .ARM.attributes
                0x000011d3       0x2e c:/chibistudio/tools/gnu tools arm embedded/4.7 2014q2/bin/../lib/gcc/arm-none-eabi/4.7.4/../../../../arm-none-eabi/lib/armv7e-m\libg.a(lib_a-memset.o)
 .ARM.attributes
                0x00001201       0x2e c:/chibistudio/tools/gnu tools arm embedded/4.7 2014q2/bin/../lib/gcc/arm-none-eabi/4.7.4/../../../../arm-none-eabi/lib/armv7e-m\libg.a(lib_a-strcat.o)
 .ARM.attributes
                0x0000122f       0x2e c:/chibistudio/tools/gnu tools arm embedded/4.7 2014q2/bin/../lib/gcc/arm-none-eabi/4.7.4/../../../../arm-none-eabi/lib/armv7e-m\libg.a(lib_a-strchr.o)
 .ARM.attributes
                0x0000125d       0x2e c:/chibistudio/tools/gnu tools arm embedded/4.7 2014q2/bin/../lib/gcc/arm-none-eabi/4.7.4/../../../../arm-none-eabi/lib/armv7e-m\libg.a(lib_a-strcmp.o)
 .ARM.attributes
                0x0000128b       0x2e c:/chibistudio/tools/gnu tools arm embedded/4.7 2014q2/bin/../lib/gcc/arm-none-eabi/4.7.4/../../../../arm-none-eabi/lib/armv7e-m\libg.a(lib_a-strcpy.o)
 .ARM.attributes
                0x000012b9       0x2e c:/chibistudio/tools/gnu tools arm embedded/4.7 2014q2/bin/../lib/gcc/arm-none-eabi/4.7.4/../../../../arm-none-eabi/lib/armv7e-m\libg.a(lib_a-strlcat.o)
 .ARM.attributes
                0x000012e7       0x2e c:/chibistudio/tools/gnu tools arm embedded/4.7 2014q2/bin/../lib/gcc/arm-none-eabi/4.7.4/../../../../arm-none-eabi/lib/armv7e-m\libg.a(lib_a-strlcpy.o)
 .ARM.attributes
                0x00001315       0x2e c:/chibistudio/tools/gnu tools arm embedded/4.7 2014q2/bin/../lib/gcc/arm-none-eabi/4.7.4/../../../../arm-none-eabi/lib/armv7e-m\libg.a(lib_a-strlen.o)
 .ARM.attributes
                0x00001343       0x2e c:/chibistudio/tools/gnu tools arm embedded/4.7 2014q2/bin/../lib/gcc/arm-none-eabi/4.7.4/../../../../arm-none-eabi/lib/armv7e-m\libg.a(lib_a-strncpy.o)
 .ARM.attributes
                0x00001371       0x2e c:/chibistudio/tools/gnu tools arm embedded/4.7 2014q2/bin/../lib/gcc/arm-none-eabi/4.7.4/../../../../arm-none-eabi/lib/armv7e-m\libg.a(lib_a-strstr.o)
 .ARM.attributes
                0x0000139f       0x2e c:/chibistudio/tools/gnu tools arm embedded/4.7 2014q2/bin/../lib/gcc/arm-none-eabi/4.7.4/../../../../arm-none-eabi/lib/armv7e-m\libg.a(lib_a-strtol.o)
 .ARM.attributes
                0x000013cd       0x2e c:/chibistudio/tools/gnu tools arm embedded/4.7 2014q2/bin/../lib/gcc/arm-none-eabi/4.7.4/../../../../arm-none-eabi/lib/armv7e-m\libg.a(lib_a-impure.o)
 .ARM.attributes
                0x000013fb       0x2e c:/chibistudio/tools/gnu tools arm embedded/4.7 2014q2/bin/../lib/gcc/arm-none-eabi/4.7.4/../../../../arm-none-eabi/lib/armv7e-m\libg.a(lib_a-memchr.o)
 .ARM.attributes
                0x00001429       0x2e c:/chibistudio/tools/gnu tools arm embedded/4.7 2014q2/bin/../lib/gcc/arm-none-eabi/4.7.4/../../../../arm-none-eabi/lib/armv7e-m\libg.a(lib_a-memcmp.o)

.debug_frame    0x00000000     0x5b1c
 .debug_frame   0x00000000       0x50 build/obj/crt0.o
 .debug_frame   0x00000050       0x20 build/obj/vectors.o
 .debug_frame   0x00000070       0x20 build/obj/chcore.o
 .debug_frame   0x00000090       0xa4 build/obj/chcore_v7m.o
 .debug_frame   0x00000134       0x64 build/obj/nvic.o
 .debug_frame   0x00000198       0x68 build/obj/chsys.o
 .debug_frame   0x00000200      0x118 build/obj/chdebug.o
 .debug_frame   0x00000318       0x64 build/obj/chvt.o
 .debug_frame   0x0000037c      0x124 build/obj/chschd.o
 .debug_frame   0x000004a0      0x18c build/obj/chthreads.o
 .debug_frame   0x0000062c       0x9c build/obj/chdynamic.o
 .debug_frame   0x000006c8       0x4c build/obj/chregistry.o
 .debug_frame   0x00000714      0x164 build/obj/chsem.o
 .debug_frame   0x00000878       0xfc build/obj/chmtx.o
 .debug_frame   0x00000974      0x238 build/obj/chevents.o
 .debug_frame   0x00000bac       0x70 build/obj/chmsg.o
 .debug_frame   0x00000c1c      0x16c build/obj/chmboxes.o
 .debug_frame   0x00000d88      0x180 build/obj/chqueues.o
 .debug_frame   0x00000f08       0x68 build/obj/chmemcore.o
 .debug_frame   0x00000f70       0x98 build/obj/chheap.o
 .debug_frame   0x00001008       0x4c build/obj/hal.o
 .debug_frame   0x00001054       0x20 build/obj/mmcsd.o
 .debug_frame   0x00001074       0x4c build/obj/pal.o
 .debug_frame   0x000010c0       0xcc build/obj/pwm.o
 .debug_frame   0x0000118c      0x184 build/obj/sdc.o
 .debug_frame   0x00001310      0x140 build/obj/serial.o
 .debug_frame   0x00001450      0x1d4 build/obj/spi.o
 .debug_frame   0x00001624      0x244 build/obj/stm32_dma.o
 .debug_frame   0x00001868       0x3c build/obj/hal_lld.o
 .debug_frame   0x000018a4      0x250 build/obj/sdc_lld.o
 .debug_frame   0x00001af4       0x4c build/obj/pal_lld.o
 .debug_frame   0x00001b40      0x140 build/obj/spi_lld.o
 .debug_frame   0x00001c80       0xb0 build/obj/pwm_lld.o
 .debug_frame   0x00001d30       0x94 build/obj/serial_lld.o
 .debug_frame   0x00001dc4       0x50 build/obj/board.o
 .debug_frame   0x00001e14       0x48 build/obj/gfx.o
 .debug_frame   0x00001e5c      0x110 build/obj/gos_chibios.o
 .debug_frame   0x00001f6c       0xd4 build/obj/gdriver.o
 .debug_frame   0x00002040      0x170 build/obj/gqueue.o
 .debug_frame   0x000021b0      0x524 build/obj/gdisp.o
 .debug_frame   0x000026d4       0x88 build/obj/gdisp_fonts.o
 .debug_frame   0x0000275c      0x10c build/obj/gdisp_image.o
 .debug_frame   0x00002868      0x190 build/obj/gdisp_image_gif.o
 .debug_frame   0x000029f8       0x30 build/obj/mf_encoding.o
 .debug_frame   0x00002a28       0x84 build/obj/mf_font.o
 .debug_frame   0x00002aac       0xd8 build/obj/mf_justify.o
 .debug_frame   0x00002b84       0xd0 build/obj/mf_rlefont.o
 .debug_frame   0x00002c54       0xa8 build/obj/mf_scaledfont.o
 .debug_frame   0x00002cfc      0x198 build/obj/gevent.o
 .debug_frame   0x00002e94      0x10c build/obj/gtimer.o
 .debug_frame   0x00002fa0      0x3e0 build/obj/gwin.o
 .debug_frame   0x00003380      0x1a0 build/obj/gwin_widget.o
 .debug_frame   0x00003520      0x310 build/obj/gwin_wm.o
 .debug_frame   0x00003830       0xcc build/obj/gwin_button.o
 .debug_frame   0x000038fc      0x194 build/obj/gwin_slider.o
 .debug_frame   0x00003a90       0xb0 build/obj/gwin_image.o
 .debug_frame   0x00003b40       0x70 build/obj/gwin_label.o
 .debug_frame   0x00003bb0      0x240 build/obj/gwin_list.o
 .debug_frame   0x00003df0      0x18c build/obj/gwin_container.o
 .debug_frame   0x00003f7c       0x30 build/obj/ginput.o
 .debug_frame   0x00003fac      0x1e0 build/obj/ginput_mouse.o
 .debug_frame   0x0000418c      0x238 build/obj/gfile.o
 .debug_frame   0x000043c4      0x1e0 build/obj/gfile_fs_fatfs.o
 .debug_frame   0x000045a4      0x700 build/obj/gfile_fatfs_wrapper.o
 .debug_frame   0x00004ca4       0x98 build/obj/gfile_fatfs_diskio_chibios.o
 .debug_frame   0x00004d3c      0x108 build/obj/gdisp_lld_SSD1289.o
 .debug_frame   0x00004e44       0x58 build/obj/gmouse_lld_ADS7843.o
 .debug_frame   0x00004e9c       0xdc build/obj/mainScreen.o
 .debug_frame   0x00004f78       0x60 build/obj/callScreen.o
 .debug_frame   0x00004fd8       0xcc build/obj/callsScreen.o
 .debug_frame   0x000050a4       0x60 build/obj/settingsScreen.o
 .debug_frame   0x00005104       0x84 build/obj/gallery.o
 .debug_frame   0x00005188       0xc8 build/obj/contactsScreen.o
 .debug_frame   0x00005250       0x34 build/obj/calls_t.o
 .debug_frame   0x00005284       0x20 build/obj/messages_t.o
 .debug_frame   0x000052a4       0x20 build/obj/audioPlayer_t.o
 .debug_frame   0x000052c4       0x2c build/obj/gallery_t.o
 .debug_frame   0x000052f0       0x30 build/obj/contacts_t.o
 .debug_frame   0x00005320       0x30 build/obj/configuration_t.o
 .debug_frame   0x00005350       0x8c build/obj/gui_t.o
 .debug_frame   0x000053dc       0x40 build/obj/uart_t.o
 .debug_frame   0x0000541c       0xec build/obj/gsm.o
 .debug_frame   0x00005508       0xdc build/obj/slre.o
 .debug_frame   0x000055e4      0x1fc build/obj/sdcard.o
 .debug_frame   0x000057e0       0x2c build/obj/main.o
 .debug_frame   0x0000580c       0x30 c:/chibistudio/tools/gnu tools arm embedded/4.7 2014q2/bin/../lib/gcc/arm-none-eabi/4.7.4/../../../../arm-none-eabi/lib/armv7e-m\libg.a(lib_a-atoi.o)
 .debug_frame   0x0000583c       0x30 c:/chibistudio/tools/gnu tools arm embedded/4.7 2014q2/bin/../lib/gcc/arm-none-eabi/4.7.4/../../../../arm-none-eabi/lib/armv7e-m\libg.a(lib_a-memcpy.o)
 .debug_frame   0x0000586c       0x2c c:/chibistudio/tools/gnu tools arm embedded/4.7 2014q2/bin/../lib/gcc/arm-none-eabi/4.7.4/../../../../arm-none-eabi/lib/armv7e-m\libg.a(lib_a-memset.o)
 .debug_frame   0x00005898       0x2c c:/chibistudio/tools/gnu tools arm embedded/4.7 2014q2/bin/../lib/gcc/arm-none-eabi/4.7.4/../../../../arm-none-eabi/lib/armv7e-m\libg.a(lib_a-strcat.o)
 .debug_frame   0x000058c4       0x2c c:/chibistudio/tools/gnu tools arm embedded/4.7 2014q2/bin/../lib/gcc/arm-none-eabi/4.7.4/../../../../arm-none-eabi/lib/armv7e-m\libg.a(lib_a-strchr.o)
 .debug_frame   0x000058f0       0x30 c:/chibistudio/tools/gnu tools arm embedded/4.7 2014q2/bin/../lib/gcc/arm-none-eabi/4.7.4/../../../../arm-none-eabi/lib/armv7e-m\libg.a(lib_a-strcmp.o)
 .debug_frame   0x00005920       0x20 c:/chibistudio/tools/gnu tools arm embedded/4.7 2014q2/bin/../lib/gcc/arm-none-eabi/4.7.4/../../../../arm-none-eabi/lib/armv7e-m\libg.a(lib_a-strcpy.o)
 .debug_frame   0x00005940       0x30 c:/chibistudio/tools/gnu tools arm embedded/4.7 2014q2/bin/../lib/gcc/arm-none-eabi/4.7.4/../../../../arm-none-eabi/lib/armv7e-m\libg.a(lib_a-strlcat.o)
 .debug_frame   0x00005970       0x2c c:/chibistudio/tools/gnu tools arm embedded/4.7 2014q2/bin/../lib/gcc/arm-none-eabi/4.7.4/../../../../arm-none-eabi/lib/armv7e-m\libg.a(lib_a-strlcpy.o)
 .debug_frame   0x0000599c       0x20 c:/chibistudio/tools/gnu tools arm embedded/4.7 2014q2/bin/../lib/gcc/arm-none-eabi/4.7.4/../../../../arm-none-eabi/lib/armv7e-m\libg.a(lib_a-strlen.o)
 .debug_frame   0x000059bc       0x2c c:/chibistudio/tools/gnu tools arm embedded/4.7 2014q2/bin/../lib/gcc/arm-none-eabi/4.7.4/../../../../arm-none-eabi/lib/armv7e-m\libg.a(lib_a-strncpy.o)
 .debug_frame   0x000059e8       0x88 c:/chibistudio/tools/gnu tools arm embedded/4.7 2014q2/bin/../lib/gcc/arm-none-eabi/4.7.4/../../../../arm-none-eabi/lib/armv7e-m\libg.a(lib_a-strstr.o)
 .debug_frame   0x00005a70       0x54 c:/chibistudio/tools/gnu tools arm embedded/4.7 2014q2/bin/../lib/gcc/arm-none-eabi/4.7.4/../../../../arm-none-eabi/lib/armv7e-m\libg.a(lib_a-strtol.o)
 .debug_frame   0x00005ac4       0x2c c:/chibistudio/tools/gnu tools arm embedded/4.7 2014q2/bin/../lib/gcc/arm-none-eabi/4.7.4/../../../../arm-none-eabi/lib/armv7e-m\libg.a(lib_a-memchr.o)
 .debug_frame   0x00005af0       0x2c c:/chibistudio/tools/gnu tools arm embedded/4.7 2014q2/bin/../lib/gcc/arm-none-eabi/4.7.4/../../../../arm-none-eabi/lib/armv7e-m\libg.a(lib_a-memcmp.o)

.debug_loc      0x00000000    0x22e69
 .debug_loc     0x00000000      0x12c build/obj/chcore_v7m.o
 .debug_loc     0x0000012c      0x1ca build/obj/nvic.o
 .debug_loc     0x000002f6       0xcc build/obj/chsys.o
 .debug_loc     0x000003c2      0x1eb build/obj/chdebug.o
 .debug_loc     0x000005ad      0x100 build/obj/chvt.o
 .debug_loc     0x000006ad      0x2db build/obj/chschd.o
 .debug_loc     0x00000988      0x5a0 build/obj/chthreads.o
 .debug_loc     0x00000f28      0x300 build/obj/chdynamic.o
 .debug_loc     0x00001228       0xc9 build/obj/chregistry.o
 .debug_loc     0x000012f1      0x637 build/obj/chsem.o
 .debug_loc     0x00001928      0x485 build/obj/chmtx.o
 .debug_loc     0x00001dad      0x90a build/obj/chevents.o
 .debug_loc     0x000026b7      0x1fc build/obj/chmsg.o
 .debug_loc     0x000028b3      0x66f build/obj/chmboxes.o
 .debug_loc     0x00002f22      0x871 build/obj/chqueues.o
 .debug_loc     0x00003793      0x10b build/obj/chmemcore.o
 .debug_loc     0x0000389e      0x318 build/obj/chheap.o
 .debug_loc     0x00003bb6       0xa7 build/obj/hal.o
 .debug_loc     0x00003c5d      0x206 build/obj/mmcsd.o
 .debug_loc     0x00003e63       0xd0 build/obj/pal.o
 .debug_loc     0x00003f33      0x296 build/obj/pwm.o
 .debug_loc     0x000041c9      0x5b6 build/obj/sdc.o
 .debug_loc     0x0000477f      0x555 build/obj/serial.o
 .debug_loc     0x00004cd4      0x75d build/obj/spi.o
 .debug_loc     0x00005431      0x58a build/obj/stm32_dma.o
 .debug_loc     0x000059bb       0x20 build/obj/hal_lld.o
 .debug_loc     0x000059db      0xcda build/obj/sdc_lld.o
 .debug_loc     0x000066b5      0x2e7 build/obj/pal_lld.o
 .debug_loc     0x0000699c      0x443 build/obj/spi_lld.o
 .debug_loc     0x00006ddf      0x2c2 build/obj/pwm_lld.o
 .debug_loc     0x000070a1      0x2f4 build/obj/serial_lld.o
 .debug_loc     0x00007395       0x42 build/obj/board.o
 .debug_loc     0x000073d7       0x40 build/obj/gfx.o
 .debug_loc     0x00007417      0x474 build/obj/gos_chibios.o
 .debug_loc     0x0000788b      0x3b8 build/obj/gdriver.o
 .debug_loc     0x00007c43      0x53a build/obj/gqueue.o
 .debug_loc     0x0000817d     0x2a8f build/obj/gdisp.o
 .debug_loc     0x0000ac0c      0x21a build/obj/gdisp_fonts.o
 .debug_loc     0x0000ae26      0x3b6 build/obj/gdisp_image.o
 .debug_loc     0x0000b1dc     0x1ab3 build/obj/gdisp_image_gif.o
 .debug_loc     0x0000cc8f       0x21 build/obj/mf_encoding.o
 .debug_loc     0x0000ccb0      0x22e build/obj/mf_font.o
 .debug_loc     0x0000cede      0x9c6 build/obj/mf_justify.o
 .debug_loc     0x0000d8a4      0xb8b build/obj/mf_rlefont.o
 .debug_loc     0x0000e42f      0x341 build/obj/mf_scaledfont.o
 .debug_loc     0x0000e770      0x619 build/obj/gevent.o
 .debug_loc     0x0000ed89      0x2ce build/obj/gtimer.o
 .debug_loc     0x0000f057      0xe71 build/obj/gwin.o
 .debug_loc     0x0000fec8      0x694 build/obj/gwin_widget.o
 .debug_loc     0x0001055c      0xd3e build/obj/gwin_wm.o
 .debug_loc     0x0001129a      0x481 build/obj/gwin_button.o
 .debug_loc     0x0001171b      0x97b build/obj/gwin_slider.o
 .debug_loc     0x00012096      0x425 build/obj/gwin_image.o
 .debug_loc     0x000124bb      0x2ed build/obj/gwin_label.o
 .debug_loc     0x000127a8      0xd70 build/obj/gwin_list.o
 .debug_loc     0x00013518      0x60f build/obj/gwin_container.o
 .debug_loc     0x00013b27     0x10bc build/obj/ginput_mouse.o
 .debug_loc     0x00014be3      0x907 build/obj/gfile.o
 .debug_loc     0x000154ea      0x6a7 build/obj/gfile_fs_fatfs.o
 .debug_loc     0x00015b91     0x89f7 build/obj/gfile_fatfs_wrapper.o
 .debug_loc     0x0001e588      0x352 build/obj/gfile_fatfs_diskio_chibios.o
 .debug_loc     0x0001e8da      0x8ee build/obj/gdisp_lld_SSD1289.o
 .debug_loc     0x0001f1c8      0x17d build/obj/gmouse_lld_ADS7843.o
 .debug_loc     0x0001f345      0x286 build/obj/mainScreen.o
 .debug_loc     0x0001f5cb      0x11f build/obj/callScreen.o
 .debug_loc     0x0001f6ea      0x25e build/obj/callsScreen.o
 .debug_loc     0x0001f948      0x135 build/obj/settingsScreen.o
 .debug_loc     0x0001fa7d      0x15a build/obj/gallery.o
 .debug_loc     0x0001fbd7      0x24d build/obj/contactsScreen.o
 .debug_loc     0x0001fe24       0xc2 build/obj/calls_t.o
 .debug_loc     0x0001fee6       0x6b build/obj/gallery_t.o
 .debug_loc     0x0001ff51       0x96 build/obj/contacts_t.o
 .debug_loc     0x0001ffe7       0x6c build/obj/configuration_t.o
 .debug_loc     0x00020053      0xe5b build/obj/gui_t.o
 .debug_loc     0x00020eae       0xd0 build/obj/uart_t.o
 .debug_loc     0x00020f7e      0x1e0 build/obj/gsm.o
 .debug_loc     0x0002115e     0x131c build/obj/slre.o
 .debug_loc     0x0002247a      0x9c3 build/obj/sdcard.o
 .debug_loc     0x00022e3d       0x2c build/obj/main.o

Cross Reference Table

Symbol                                            File
BlackWidgetStyle                                  build/obj/gwin_widget.o
BusFaultVector                                    build/obj/vectors.o
DebugMonitorVector                                build/obj/vectors.o
FsFatFSVMT                                        build/obj/gfile_fs_fatfs.o
                                                  build/obj/gfile.o
GDISP                                             build/obj/gdisp.o
                                                  build/obj/main.o
                                                  build/obj/gui_t.o
                                                  build/obj/contactsScreen.o
                                                  build/obj/gallery.o
                                                  build/obj/settingsScreen.o
                                                  build/obj/callsScreen.o
                                                  build/obj/callScreen.o
                                                  build/obj/mainScreen.o
                                                  build/obj/ginput_mouse.o
GDISPVMT_OnlyOne                                  build/obj/gdisp_lld_SSD1289.o
                                                  build/obj/gdisp.o
GMOUSEVMT_OnlyOne                                 build/obj/gmouse_lld_ADS7843.o
                                                  build/obj/ginput_mouse.o
GNullWindowManager                                build/obj/gwin_wm.o
HardFaultVector                                   build/obj/vectors.o
MemManageVector                                   build/obj/vectors.o
NMIVector                                         build/obj/vectors.o
PWMD3                                             build/obj/pwm_lld.o
                                                  build/obj/gdisp_lld_SSD1289.o
PendSVVector                                      build/obj/vectors.o
ResetHandler                                      build/obj/crt0.o
                                                  build/obj/vectors.o
SD2                                               build/obj/serial_lld.o
                                                  build/obj/gsm.o
SDCD1                                             build/obj/sdc_lld.o
                                                  build/obj/sdcard.o
                                                  build/obj/gfile_fatfs_diskio_chibios.o
SPID2                                             build/obj/spi_lld.o
                                                  build/obj/gmouse_lld_ADS7843.o
SVCallVector                                      build/obj/chcore_v7m.o
                                                  build/obj/vectors.o
SysTickVector                                     build/obj/chcore_v7m.o
                                                  build/obj/vectors.o
UsageFaultVector                                  build/obj/vectors.o
Vector100                                         build/obj/vectors.o
Vector104                                         build/obj/sdc_lld.o
                                                  build/obj/vectors.o
Vector108                                         build/obj/vectors.o
Vector10C                                         build/obj/vectors.o
Vector110                                         build/obj/vectors.o
Vector114                                         build/obj/vectors.o
Vector118                                         build/obj/vectors.o
Vector11C                                         build/obj/vectors.o
Vector120                                         build/obj/stm32_dma.o
                                                  build/obj/vectors.o
Vector124                                         build/obj/stm32_dma.o
                                                  build/obj/vectors.o
Vector128                                         build/obj/stm32_dma.o
                                                  build/obj/vectors.o
Vector12C                                         build/obj/stm32_dma.o
                                                  build/obj/vectors.o
Vector130                                         build/obj/stm32_dma.o
                                                  build/obj/vectors.o
Vector134                                         build/obj/vectors.o
Vector138                                         build/obj/vectors.o
Vector13C                                         build/obj/vectors.o
Vector140                                         build/obj/vectors.o
Vector144                                         build/obj/vectors.o
Vector148                                         build/obj/vectors.o
Vector14C                                         build/obj/vectors.o
Vector150                                         build/obj/stm32_dma.o
                                                  build/obj/vectors.o
Vector154                                         build/obj/stm32_dma.o
                                                  build/obj/vectors.o
Vector158                                         build/obj/stm32_dma.o
                                                  build/obj/vectors.o
Vector15C                                         build/obj/vectors.o
Vector160                                         build/obj/vectors.o
Vector164                                         build/obj/vectors.o
Vector168                                         build/obj/vectors.o
Vector16C                                         build/obj/vectors.o
Vector170                                         build/obj/vectors.o
Vector174                                         build/obj/vectors.o
Vector178                                         build/obj/vectors.o
Vector17C                                         build/obj/vectors.o
Vector180                                         build/obj/vectors.o
Vector184                                         build/obj/vectors.o
Vector188                                         build/obj/vectors.o
Vector18C                                         build/obj/vectors.o
Vector190                                         build/obj/vectors.o
Vector194                                         build/obj/vectors.o
Vector198                                         build/obj/vectors.o
Vector19C                                         build/obj/vectors.o
Vector1A0                                         build/obj/vectors.o
Vector1A4                                         build/obj/vectors.o
Vector1A8                                         build/obj/vectors.o
Vector1C                                          build/obj/vectors.o
Vector20                                          build/obj/vectors.o
Vector24                                          build/obj/vectors.o
Vector28                                          build/obj/vectors.o
Vector34                                          build/obj/vectors.o
Vector40                                          build/obj/vectors.o
Vector44                                          build/obj/vectors.o
Vector48                                          build/obj/vectors.o
Vector4C                                          build/obj/vectors.o
Vector50                                          build/obj/vectors.o
Vector54                                          build/obj/vectors.o
Vector58                                          build/obj/vectors.o
Vector5C                                          build/obj/vectors.o
Vector60                                          build/obj/vectors.o
Vector64                                          build/obj/vectors.o
Vector68                                          build/obj/vectors.o
Vector6C                                          build/obj/stm32_dma.o
                                                  build/obj/vectors.o
Vector70                                          build/obj/stm32_dma.o
                                                  build/obj/vectors.o
Vector74                                          build/obj/stm32_dma.o
                                                  build/obj/vectors.o
Vector78                                          build/obj/stm32_dma.o
                                                  build/obj/vectors.o
Vector7C                                          build/obj/stm32_dma.o
                                                  build/obj/vectors.o
Vector80                                          build/obj/stm32_dma.o
                                                  build/obj/vectors.o
Vector84                                          build/obj/stm32_dma.o
                                                  build/obj/vectors.o
Vector88                                          build/obj/vectors.o
Vector8C                                          build/obj/vectors.o
Vector90                                          build/obj/vectors.o
Vector94                                          build/obj/vectors.o
Vector98                                          build/obj/vectors.o
Vector9C                                          build/obj/vectors.o
VectorA0                                          build/obj/vectors.o
VectorA4                                          build/obj/vectors.o
VectorA8                                          build/obj/vectors.o
VectorAC                                          build/obj/vectors.o
VectorB0                                          build/obj/vectors.o
VectorB4                                          build/obj/pwm_lld.o
                                                  build/obj/vectors.o
VectorB8                                          build/obj/vectors.o
VectorBC                                          build/obj/vectors.o
VectorC0                                          build/obj/vectors.o
VectorC4                                          build/obj/vectors.o
VectorC8                                          build/obj/vectors.o
VectorCC                                          build/obj/vectors.o
VectorD0                                          build/obj/vectors.o
VectorD4                                          build/obj/vectors.o
VectorD8                                          build/obj/serial_lld.o
                                                  build/obj/vectors.o
VectorDC                                          build/obj/vectors.o
VectorE0                                          build/obj/vectors.o
VectorE4                                          build/obj/vectors.o
VectorE8                                          build/obj/vectors.o
VectorEC                                          build/obj/vectors.o
VectorF0                                          build/obj/vectors.o
VectorF4                                          build/obj/vectors.o
VectorF8                                          build/obj/vectors.o
VectorFC                                          build/obj/stm32_dma.o
                                                  build/obj/vectors.o
WhiteWidgetStyle                                  build/obj/gwin_widget.o
                                                  build/obj/main.o
                                                  build/obj/contactsScreen.o
                                                  build/obj/gallery.o
                                                  build/obj/settingsScreen.o
                                                  build/obj/callsScreen.o
                                                  build/obj/callScreen.o
                                                  build/obj/mainScreen.o
_0_b                                              build/obj/gui_t.o
                                                  build/obj/contactsScreen.o
_1_b                                              build/obj/gui_t.o
                                                  build/obj/contactsScreen.o
_2_b                                              build/obj/gui_t.o
                                                  build/obj/contactsScreen.o
_3_b                                              build/obj/gui_t.o
                                                  build/obj/contactsScreen.o
_4_b                                              build/obj/gui_t.o
                                                  build/obj/contactsScreen.o
_5_b                                              build/obj/gui_t.o
                                                  build/obj/contactsScreen.o
_6_b                                              build/obj/gui_t.o
                                                  build/obj/contactsScreen.o
_7_b                                              build/obj/gui_t.o
                                                  build/obj/contactsScreen.o
_8_b                                              build/obj/gui_t.o
                                                  build/obj/contactsScreen.o
_9_b                                              build/obj/gui_t.o
                                                  build/obj/contactsScreen.o
_GWINwm                                           build/obj/gwin_wm.o
                                                  build/obj/gwin.o
__addsf3                                          c:/chibistudio/tools/gnu tools arm embedded/4.7 2014q2/bin/../lib/gcc/arm-none-eabi/4.7.4/armv7e-m\libgcc.a(_arm_addsubsf3.o)
__aeabi_f2iz                                      c:/chibistudio/tools/gnu tools arm embedded/4.7 2014q2/bin/../lib/gcc/arm-none-eabi/4.7.4/armv7e-m\libgcc.a(_arm_fixsfsi.o)
                                                  build/obj/ginput_mouse.o
__aeabi_fadd                                      c:/chibistudio/tools/gnu tools arm embedded/4.7 2014q2/bin/../lib/gcc/arm-none-eabi/4.7.4/armv7e-m\libgcc.a(_arm_addsubsf3.o)
                                                  build/obj/ginput_mouse.o
__aeabi_fdiv                                      c:/chibistudio/tools/gnu tools arm embedded/4.7 2014q2/bin/../lib/gcc/arm-none-eabi/4.7.4/armv7e-m\libgcc.a(_arm_muldivsf3.o)
                                                  build/obj/ginput_mouse.o
__aeabi_fmul                                      c:/chibistudio/tools/gnu tools arm embedded/4.7 2014q2/bin/../lib/gcc/arm-none-eabi/4.7.4/armv7e-m\libgcc.a(_arm_muldivsf3.o)
                                                  build/obj/ginput_mouse.o
__aeabi_frsub                                     c:/chibistudio/tools/gnu tools arm embedded/4.7 2014q2/bin/../lib/gcc/arm-none-eabi/4.7.4/armv7e-m\libgcc.a(_arm_addsubsf3.o)
__aeabi_fsub                                      c:/chibistudio/tools/gnu tools arm embedded/4.7 2014q2/bin/../lib/gcc/arm-none-eabi/4.7.4/armv7e-m\libgcc.a(_arm_addsubsf3.o)
                                                  build/obj/ginput_mouse.o
__aeabi_i2f                                       c:/chibistudio/tools/gnu tools arm embedded/4.7 2014q2/bin/../lib/gcc/arm-none-eabi/4.7.4/armv7e-m\libgcc.a(_arm_addsubsf3.o)
                                                  build/obj/ginput_mouse.o
__aeabi_l2f                                       c:/chibistudio/tools/gnu tools arm embedded/4.7 2014q2/bin/../lib/gcc/arm-none-eabi/4.7.4/armv7e-m\libgcc.a(_arm_addsubsf3.o)
__aeabi_ui2f                                      c:/chibistudio/tools/gnu tools arm embedded/4.7 2014q2/bin/../lib/gcc/arm-none-eabi/4.7.4/armv7e-m\libgcc.a(_arm_addsubsf3.o)
__aeabi_ul2f                                      c:/chibistudio/tools/gnu tools arm embedded/4.7 2014q2/bin/../lib/gcc/arm-none-eabi/4.7.4/armv7e-m\libgcc.a(_arm_addsubsf3.o)
__ctype_ptr__                                     c:/chibistudio/tools/gnu tools arm embedded/4.7 2014q2/bin/../lib/gcc/arm-none-eabi/4.7.4/../../../../arm-none-eabi/lib/armv7e-m\libg.a(lib_a-ctype_.o)
                                                  c:/chibistudio/tools/gnu tools arm embedded/4.7 2014q2/bin/../lib/gcc/arm-none-eabi/4.7.4/../../../../arm-none-eabi/lib/armv7e-m\libg.a(lib_a-strtol.o)
                                                  build/obj/slre.o
__divsf3                                          c:/chibistudio/tools/gnu tools arm embedded/4.7 2014q2/bin/../lib/gcc/arm-none-eabi/4.7.4/armv7e-m\libgcc.a(_arm_muldivsf3.o)
__early_init                                      build/obj/board.o
                                                  build/obj/crt0.o
__fini_array_end                                  build/obj/crt0.o
__fini_array_start                                build/obj/crt0.o
__fixsfsi                                         c:/chibistudio/tools/gnu tools arm embedded/4.7 2014q2/bin/../lib/gcc/arm-none-eabi/4.7.4/armv7e-m\libgcc.a(_arm_fixsfsi.o)
__floatdisf                                       c:/chibistudio/tools/gnu tools arm embedded/4.7 2014q2/bin/../lib/gcc/arm-none-eabi/4.7.4/armv7e-m\libgcc.a(_arm_addsubsf3.o)
__floatsisf                                       c:/chibistudio/tools/gnu tools arm embedded/4.7 2014q2/bin/../lib/gcc/arm-none-eabi/4.7.4/armv7e-m\libgcc.a(_arm_addsubsf3.o)
__floatundisf                                     c:/chibistudio/tools/gnu tools arm embedded/4.7 2014q2/bin/../lib/gcc/arm-none-eabi/4.7.4/armv7e-m\libgcc.a(_arm_addsubsf3.o)
__floatunsisf                                     c:/chibistudio/tools/gnu tools arm embedded/4.7 2014q2/bin/../lib/gcc/arm-none-eabi/4.7.4/armv7e-m\libgcc.a(_arm_addsubsf3.o)
__heap_base__                                     build/obj/chmemcore.o
__heap_end__                                      build/obj/chmemcore.o
__init_array_end                                  build/obj/crt0.o
__init_array_start                                build/obj/crt0.o
__late_init                                       build/obj/crt0.o
__main_stack_base__                               build/obj/crt0.o
__main_stack_end__                                build/obj/vectors.o
                                                  build/obj/crt0.o
__mulsf3                                          c:/chibistudio/tools/gnu tools arm embedded/4.7 2014q2/bin/../lib/gcc/arm-none-eabi/4.7.4/armv7e-m\libgcc.a(_arm_muldivsf3.o)
__process_stack_base__                            build/obj/crt0.o
__process_stack_end__                             build/obj/crt0.o
__subsf3                                          c:/chibistudio/tools/gnu tools arm embedded/4.7 2014q2/bin/../lib/gcc/arm-none-eabi/4.7.4/armv7e-m\libgcc.a(_arm_addsubsf3.o)
_a_b                                              build/obj/gui_t.o
                                                  build/obj/contactsScreen.o
_atoi_r                                           c:/chibistudio/tools/gnu tools arm embedded/4.7 2014q2/bin/../lib/gcc/arm-none-eabi/4.7.4/../../../../arm-none-eabi/lib/armv7e-m\libg.a(lib_a-atoi.o)
_b_b                                              build/obj/gui_t.o
                                                  build/obj/contactsScreen.o
_bss_end                                          build/obj/crt0.o
_bss_start                                        build/obj/crt0.o
_c_b                                              build/obj/gui_t.o
                                                  build/obj/contactsScreen.o
_comma_b                                          build/obj/gui_t.o
                                                  build/obj/contactsScreen.o
_core_init                                        build/obj/chmemcore.o
                                                  build/obj/chsys.o
_ctype_                                           c:/chibistudio/tools/gnu tools arm embedded/4.7 2014q2/bin/../lib/gcc/arm-none-eabi/4.7.4/../../../../arm-none-eabi/lib/armv7e-m\libg.a(lib_a-ctype_.o)
_d_b                                              build/obj/gui_t.o
                                                  build/obj/contactsScreen.o
_data                                             build/obj/crt0.o
_default_exit                                     build/obj/crt0.o
_dot_b                                            build/obj/gui_t.o
                                                  build/obj/contactsScreen.o
_e_b                                              build/obj/gui_t.o
                                                  build/obj/contactsScreen.o
_edata                                            build/obj/crt0.o
_exclamation_b                                    build/obj/gui_t.o
                                                  build/obj/contactsScreen.o
_f_b                                              build/obj/gui_t.o
                                                  build/obj/contactsScreen.o
_g_b                                              build/obj/gui_t.o
                                                  build/obj/contactsScreen.o
_gcontainerCreate                                 build/obj/gwin_container.o
_gcontainerDeinit                                 build/obj/gwin_container.o
                                                  build/obj/gwin.o
_gcontainerDestroy                                build/obj/gwin_container.o
_gcontainerInit                                   build/obj/gwin_container.o
                                                  build/obj/gwin.o
_gdispDeInitDriver                                build/obj/gdisp.o
                                                  build/obj/gdisp_lld_SSD1289.o
_gdispDeinit                                      build/obj/gdisp.o
                                                  build/obj/gfx.o
_gdispInit                                        build/obj/gdisp.o
                                                  build/obj/gfx.o
_gdispInitDriver                                  build/obj/gdisp.o
                                                  build/obj/gdisp_lld_SSD1289.o
_gdispPostInitDriver                              build/obj/gdisp.o
                                                  build/obj/gdisp_lld_SSD1289.o
_gdriverDeinit                                    build/obj/gdriver.o
                                                  build/obj/gfx.o
_gdriverInit                                      build/obj/gdriver.o
                                                  build/obj/gfx.o
_geventDeinit                                     build/obj/gevent.o
                                                  build/obj/gfx.o
_geventInit                                       build/obj/gevent.o
                                                  build/obj/gfx.o
_gfileDeinit                                      build/obj/gfile.o
                                                  build/obj/gfx.o
_gfileFindSlot                                    build/obj/gfile.o
_gfileInit                                        build/obj/gfile.o
                                                  build/obj/gfx.o
_ginputDeinit                                     build/obj/ginput.o
                                                  build/obj/gfx.o
_ginputInit                                       build/obj/ginput.o
                                                  build/obj/gfx.o
_global_impure_ptr                                c:/chibistudio/tools/gnu tools arm embedded/4.7 2014q2/bin/../lib/gcc/arm-none-eabi/4.7.4/../../../../arm-none-eabi/lib/armv7e-m\libg.a(lib_a-impure.o)
_gmouseDeInitDriver                               build/obj/ginput_mouse.o
                                                  build/obj/gmouse_lld_ADS7843.o
_gmouseDeinit                                     build/obj/ginput_mouse.o
                                                  build/obj/ginput.o
_gmouseInit                                       build/obj/ginput_mouse.o
                                                  build/obj/ginput.o
_gmouseInitDriver                                 build/obj/ginput_mouse.o
                                                  build/obj/gmouse_lld_ADS7843.o
_gmousePostInitDriver                             build/obj/ginput_mouse.o
                                                  build/obj/gmouse_lld_ADS7843.o
_gmouseWakeup                                     build/obj/ginput_mouse.o
_gmouseWakeupI                                    build/obj/ginput_mouse.o
_gosDeinit                                        build/obj/gos_chibios.o
                                                  build/obj/gfx.o
_gosInit                                          build/obj/gos_chibios.o
                                                  build/obj/gfx.o
_gqueueDeinit                                     build/obj/gqueue.o
                                                  build/obj/gfx.o
_gqueueInit                                       build/obj/gqueue.o
                                                  build/obj/gfx.o
_gtimerDeinit                                     build/obj/gtimer.o
                                                  build/obj/gfx.o
_gtimerInit                                       build/obj/gtimer.o
                                                  build/obj/gfx.o
_gwidgetCreate                                    build/obj/gwin_widget.o
                                                  build/obj/gwin_container.o
                                                  build/obj/gwin_progressbar.o
                                                  build/obj/gwin_list.o
                                                  build/obj/gwin_label.o
                                                  build/obj/gwin_slider.o
                                                  build/obj/gwin_button.o
_gwidgetDeinit                                    build/obj/gwin_widget.o
                                                  build/obj/gwin.o
_gwidgetDestroy                                   build/obj/gwin_widget.o
                                                  build/obj/gwin_container.o
                                                  build/obj/gwin_progressbar.o
                                                  build/obj/gwin_list.o
                                                  build/obj/gwin_label.o
                                                  build/obj/gwin_slider.o
                                                  build/obj/gwin_button.o
_gwidgetInit                                      build/obj/gwin_widget.o
                                                  build/obj/gwin.o
_gwidgetRedraw                                    build/obj/gwin_widget.o
                                                  build/obj/gwin_container.o
                                                  build/obj/gwin_progressbar.o
                                                  build/obj/gwin_list.o
                                                  build/obj/gwin_label.o
                                                  build/obj/gwin_slider.o
                                                  build/obj/gwin_button.o
_gwinDeinit                                       build/obj/gwin.o
                                                  build/obj/gfx.o
_gwinDestroy                                      build/obj/gwin.o
_gwinDrawEnd                                      build/obj/gwin_wm.o
                                                  build/obj/gwin_graph.o
                                                  build/obj/gwin_console.o
                                                  build/obj/gwin.o
_gwinDrawStart                                    build/obj/gwin_wm.o
                                                  build/obj/gwin_graph.o
                                                  build/obj/gwin_console.o
                                                  build/obj/gwin.o
_gwinFlashState                                   build/obj/gwin_wm.o
_gwinFlushRedraws                                 build/obj/gwin_wm.o
                                                  build/obj/gwin.o
_gwinInit                                         build/obj/gwin.o
                                                  build/obj/gfx.o
_gwinRippleVisibility                             build/obj/gwin_wm.o
_gwinSendEvent                                    build/obj/gwin_widget.o
                                                  build/obj/gwin_button.o
_gwinUpdate                                       build/obj/gwin_wm.o
                                                  build/obj/gwin_progressbar.o
                                                  build/obj/gwin_list.o
                                                  build/obj/gwin_image.o
                                                  build/obj/gwin_slider.o
                                                  build/obj/gwin_button.o
                                                  build/obj/gwin_widget.o
_gwinWMAdd                                        build/obj/gwin_wm.o
                                                  build/obj/gwin.o
_gwindowCreate                                    build/obj/gwin.o
                                                  build/obj/gwin_image.o
                                                  build/obj/gwin_graph.o
                                                  build/obj/gwin_console.o
                                                  build/obj/gwin_widget.o
_gwmDeinit                                        build/obj/gwin_wm.o
                                                  build/obj/gwin.o
_gwmInit                                          build/obj/gwin_wm.o
                                                  build/obj/gwin.o
_h_b                                              build/obj/gui_t.o
                                                  build/obj/contactsScreen.o
_heap_init                                        build/obj/chheap.o
                                                  build/obj/main.o
                                                  build/obj/chsys.o
_i_b                                              build/obj/gui_t.o
                                                  build/obj/contactsScreen.o
_idle_thread                                      build/obj/chsys.o
_idle_thread_wa                                   build/obj/chsys.o
_impure_ptr                                       c:/chibistudio/tools/gnu tools arm embedded/4.7 2014q2/bin/../lib/gcc/arm-none-eabi/4.7.4/../../../../arm-none-eabi/lib/armv7e-m\libg.a(lib_a-impure.o)
                                                  c:/chibistudio/tools/gnu tools arm embedded/4.7 2014q2/bin/../lib/gcc/arm-none-eabi/4.7.4/../../../../arm-none-eabi/lib/armv7e-m\libg.a(lib_a-strtol.o)
_j_b                                              build/obj/gui_t.o
                                                  build/obj/contactsScreen.o
_k_b                                              build/obj/gui_t.o
                                                  build/obj/contactsScreen.o
_l_b                                              build/obj/gui_t.o
                                                  build/obj/contactsScreen.o
_m_b                                              build/obj/gui_t.o
                                                  build/obj/contactsScreen.o
_n_b                                              build/obj/gui_t.o
                                                  build/obj/contactsScreen.o
_o_b                                              build/obj/gui_t.o
                                                  build/obj/contactsScreen.o
_p_b                                              build/obj/gui_t.o
                                                  build/obj/contactsScreen.o
_pal_lld_init                                     build/obj/pal_lld.o
                                                  build/obj/hal.o
_pal_lld_setgroupmode                             build/obj/pal_lld.o
                                                  build/obj/gmouse_lld_ADS7843.o
                                                  build/obj/gdisp_lld_SSD1289.o
                                                  build/obj/pal.o
_port_init                                        build/obj/chcore_v7m.o
                                                  build/obj/chsys.o
_port_irq_epilogue                                build/obj/chcore_v7m.o
                                                  build/obj/serial_lld.o
                                                  build/obj/pwm_lld.o
                                                  build/obj/sdc_lld.o
                                                  build/obj/stm32_dma.o
_port_switch                                      build/obj/chcore_v7m.o
                                                  build/obj/chschd.o
_port_switch_from_isr                             build/obj/chcore_v7m.o
_port_thread_start                                build/obj/chcore_v7m.o
                                                  build/obj/chthreads.o
_q_b                                              build/obj/gui_t.o
                                                  build/obj/contactsScreen.o
_r_b                                              build/obj/gui_t.o
                                                  build/obj/contactsScreen.o
_s_b                                              build/obj/gui_t.o
                                                  build/obj/contactsScreen.o
_scheduler_init                                   build/obj/chschd.o
                                                  build/obj/chsys.o
_sdc_wait_for_transfer_state                      build/obj/sdc.o
                                                  build/obj/sdc_lld.o
_slash_b                                          build/obj/gui_t.o
                                                  build/obj/contactsScreen.o
_space_b                                          build/obj/gui_t.o
                                                  build/obj/contactsScreen.o
_stm32_dma_streams                                build/obj/stm32_dma.o
                                                  build/obj/spi_lld.o
                                                  build/obj/sdc_lld.o
_strtol_r                                         c:/chibistudio/tools/gnu tools arm embedded/4.7 2014q2/bin/../lib/gcc/arm-none-eabi/4.7.4/../../../../arm-none-eabi/lib/armv7e-m\libg.a(lib_a-strtol.o)
                                                  c:/chibistudio/tools/gnu tools arm embedded/4.7 2014q2/bin/../lib/gcc/arm-none-eabi/4.7.4/../../../../arm-none-eabi/lib/armv7e-m\libg.a(lib_a-atoi.o)
_t_b                                              build/obj/gui_t.o
                                                  build/obj/contactsScreen.o
_textdata                                         build/obj/crt0.o
_thread_init                                      build/obj/chthreads.o
                                                  build/obj/chsys.o
_u_b                                              build/obj/gui_t.o
                                                  build/obj/contactsScreen.o
_unhandled_exception                              build/obj/vectors.o
_v_b                                              build/obj/gui_t.o
                                                  build/obj/contactsScreen.o
_vectors                                          build/obj/vectors.o
_vt_init                                          build/obj/chvt.o
                                                  build/obj/chsys.o
_x_b                                              build/obj/gui_t.o
                                                  build/obj/contactsScreen.o
_y_b                                              build/obj/gui_t.o
                                                  build/obj/contactsScreen.o
_z_b                                              build/obj/gui_t.o
                                                  build/obj/contactsScreen.o
accept_call_b                                     build/obj/callScreen.o
addCall                                           build/obj/sdcard.o
                                                  build/obj/calls_t.o
addContact                                        build/obj/sdcard.o
                                                  build/obj/contacts_t.o
add_contacts_b                                    build/obj/contactsScreen.o
                                                  build/obj/gui_t.o
answerCall                                        build/obj/gsm.o
atoi                                              c:/chibistudio/tools/gnu tools arm embedded/4.7 2014q2/bin/../lib/gcc/arm-none-eabi/4.7.4/../../../../arm-none-eabi/lib/armv7e-m\libg.a(lib_a-atoi.o)
                                                  build/obj/sdcard.o
audioPlayer_mainScreen_b                          build/obj/mainScreen.o
                                                  build/obj/gui_t.o
audioPlayer_t                                     build/obj/audioPlayer_t.o
                                                  build/obj/main.o
audioPlayer_thrd_h                                build/obj/main.o
back_calls_b                                      build/obj/callsScreen.o
                                                  build/obj/gui_t.o
back_contacts_b                                   build/obj/contactsScreen.o
                                                  build/obj/gui_t.o
boardInit                                         build/obj/board.o
                                                  build/obj/hal.o
brightness_settings_s                             build/obj/settingsScreen.o
c_0_b                                             build/obj/callsScreen.o
                                                  build/obj/gui_t.o
c_1_b                                             build/obj/callsScreen.o
                                                  build/obj/gui_t.o
c_2_b                                             build/obj/callsScreen.o
                                                  build/obj/gui_t.o
c_3_b                                             build/obj/callsScreen.o
                                                  build/obj/gui_t.o
c_4_b                                             build/obj/callsScreen.o
                                                  build/obj/gui_t.o
c_5_b                                             build/obj/callsScreen.o
                                                  build/obj/gui_t.o
c_6_b                                             build/obj/callsScreen.o
                                                  build/obj/gui_t.o
c_7_b                                             build/obj/callsScreen.o
                                                  build/obj/gui_t.o
c_8_b                                             build/obj/callsScreen.o
                                                  build/obj/gui_t.o
c_9_b                                             build/obj/callsScreen.o
                                                  build/obj/gui_t.o
callNumber                                        build/obj/gsm.o
                                                  build/obj/gui_t.o
call_calls_b                                      build/obj/callsScreen.o
                                                  build/obj/gui_t.o
calls_calls_l                                     build/obj/callsScreen.o
                                                  build/obj/gui_t.o
calls_mainScreen_b                                build/obj/mainScreen.o
                                                  build/obj/gui_t.o
calls_t                                           build/obj/calls_t.o
                                                  build/obj/main.o
calls_thrd_h                                      build/obj/main.o
                                                  build/obj/uart_t.o
                                                  build/obj/gui_t.o
chCondBroadcast                                   build/obj/chcond.o
chCondBroadcastI                                  build/obj/chcond.o
chCondInit                                        build/obj/chcond.o
chCondSignal                                      build/obj/chcond.o
chCondSignalI                                     build/obj/chcond.o
chCondWait                                        build/obj/chcond.o
chCondWaitS                                       build/obj/chcond.o
chCondWaitTimeout                                 build/obj/chcond.o
chCondWaitTimeoutS                                build/obj/chcond.o
chCoreAlloc                                       build/obj/chmemcore.o
                                                  build/obj/chheap.o
chCoreAllocI                                      build/obj/chmemcore.o
chCoreStatus                                      build/obj/chmemcore.o
chDbgCheckClassI                                  build/obj/chdebug.o
                                                  build/obj/serial.o
                                                  build/obj/chmempools.o
                                                  build/obj/chmemcore.o
                                                  build/obj/chqueues.o
                                                  build/obj/chmboxes.o
                                                  build/obj/chevents.o
                                                  build/obj/chcond.o
                                                  build/obj/chsem.o
                                                  build/obj/chthreads.o
                                                  build/obj/chschd.o
                                                  build/obj/chvt.o
                                                  build/obj/chsys.o
chDbgCheckClassS                                  build/obj/chdebug.o
                                                  build/obj/chmboxes.o
                                                  build/obj/chcond.o
                                                  build/obj/chmtx.o
                                                  build/obj/chsem.o
                                                  build/obj/chschd.o
chDbgPanic                                        build/obj/chdebug.o
chEvtAddEvents                                    build/obj/chevents.o
chEvtBroadcastFlags                               build/obj/chevents.o
chEvtBroadcastFlagsI                              build/obj/chevents.o
                                                  build/obj/serial_lld.o
                                                  build/obj/serial.o
chEvtDispatch                                     build/obj/chevents.o
chEvtGetAndClearEvents                            build/obj/chevents.o
chEvtGetAndClearFlags                             build/obj/chevents.o
chEvtGetAndClearFlagsI                            build/obj/chevents.o
chEvtRegisterMask                                 build/obj/chevents.o
chEvtSignal                                       build/obj/chevents.o
chEvtSignalI                                      build/obj/chevents.o
chEvtUnregister                                   build/obj/chevents.o
chEvtWaitAll                                      build/obj/chevents.o
chEvtWaitAllTimeout                               build/obj/chevents.o
chEvtWaitAny                                      build/obj/chevents.o
chEvtWaitAnyTimeout                               build/obj/chevents.o
chEvtWaitOne                                      build/obj/chevents.o
chEvtWaitOneTimeout                               build/obj/chevents.o
chHeapAlloc                                       build/obj/chheap.o
                                                  build/obj/sdcard.o
                                                  build/obj/gfile_fatfs_wrapper.o
                                                  build/obj/gfile_fs_fatfs.o
                                                  build/obj/gwin_list.o
                                                  build/obj/gwin_widget.o
                                                  build/obj/gwin.o
                                                  build/obj/gdisp_image.o
                                                  build/obj/gdisp_fonts.o
                                                  build/obj/gdriver.o
                                                  build/obj/gos_chibios.o
                                                  build/obj/chdynamic.o
chHeapFree                                        build/obj/chheap.o
                                                  build/obj/sdcard.o
                                                  build/obj/gfile_fatfs_wrapper.o
                                                  build/obj/gfile_fs_fatfs.o
                                                  build/obj/gwin_list.o
                                                  build/obj/gwin_widget.o
                                                  build/obj/gwin.o
                                                  build/obj/gdisp_image.o
                                                  build/obj/gdisp_fonts.o
                                                  build/obj/gdriver.o
                                                  build/obj/chdynamic.o
chHeapInit                                        build/obj/chheap.o
chHeapStatus                                      build/obj/chheap.o
chIQGetTimeout                                    build/obj/chqueues.o
                                                  build/obj/gsm.o
                                                  build/obj/serial.o
chIQInit                                          build/obj/chqueues.o
                                                  build/obj/serial.o
chIQPutI                                          build/obj/chqueues.o
                                                  build/obj/serial.o
chIQReadTimeout                                   build/obj/chqueues.o
                                                  build/obj/serial.o
chIQResetI                                        build/obj/chqueues.o
                                                  build/obj/serial.o
chMBFetch                                         build/obj/chmboxes.o
                                                  build/obj/gui_t.o
chMBFetchI                                        build/obj/chmboxes.o
chMBFetchS                                        build/obj/chmboxes.o
chMBInit                                          build/obj/chmboxes.o
                                                  build/obj/main.o
chMBPost                                          build/obj/chmboxes.o
                                                  build/obj/uart_t.o
chMBPostAhead                                     build/obj/chmboxes.o
chMBPostAheadI                                    build/obj/chmboxes.o
chMBPostAheadS                                    build/obj/chmboxes.o
chMBPostI                                         build/obj/chmboxes.o
chMBPostS                                         build/obj/chmboxes.o
chMBReset                                         build/obj/chmboxes.o
chMsgRelease                                      build/obj/chmsg.o
                                                  build/obj/configuration_t.o
                                                  build/obj/contacts_t.o
                                                  build/obj/gallery_t.o
                                                  build/obj/calls_t.o
chMsgSend                                         build/obj/chmsg.o
                                                  build/obj/uart_t.o
                                                  build/obj/gui_t.o
                                                  build/obj/calls_t.o
chMsgWait                                         build/obj/chmsg.o
                                                  build/obj/configuration_t.o
                                                  build/obj/contacts_t.o
                                                  build/obj/gallery_t.o
                                                  build/obj/calls_t.o
chMtxInit                                         build/obj/chmtx.o
                                                  build/obj/gtimer.o
                                                  build/obj/gevent.o
                                                  build/obj/gdisp.o
                                                  build/obj/spi.o
                                                  build/obj/chheap.o
chMtxLock                                         build/obj/chmtx.o
                                                  build/obj/gtimer.o
                                                  build/obj/gevent.o
                                                  build/obj/gdisp.o
                                                  build/obj/spi.o
                                                  build/obj/chheap.o
chMtxLockS                                        build/obj/chmtx.o
                                                  build/obj/chcond.o
chMtxTryLock                                      build/obj/chmtx.o
chMtxTryLockS                                     build/obj/chmtx.o
chMtxUnlock                                       build/obj/chmtx.o
                                                  build/obj/gtimer.o
                                                  build/obj/gevent.o
                                                  build/obj/gdisp.o
                                                  build/obj/spi.o
                                                  build/obj/chheap.o
chMtxUnlockAll                                    build/obj/chmtx.o
chMtxUnlockS                                      build/obj/chmtx.o
                                                  build/obj/chcond.o
chOQGetI                                          build/obj/chqueues.o
                                                  build/obj/serial_lld.o
                                                  build/obj/serial.o
chOQInit                                          build/obj/chqueues.o
                                                  build/obj/serial.o
chOQPutTimeout                                    build/obj/chqueues.o
                                                  build/obj/serial.o
chOQResetI                                        build/obj/chqueues.o
                                                  build/obj/serial.o
chOQWriteTimeout                                  build/obj/chqueues.o
                                                  build/obj/gsm.o
                                                  build/obj/serial.o
chPoolAlloc                                       build/obj/chmempools.o
                                                  build/obj/chdynamic.o
chPoolAllocI                                      build/obj/chmempools.o
chPoolFree                                        build/obj/chmempools.o
                                                  build/obj/chdynamic.o
chPoolFreeI                                       build/obj/chmempools.o
chPoolInit                                        build/obj/chmempools.o
chPoolLoadArray                                   build/obj/chmempools.o
chRegFirstThread                                  build/obj/chregistry.o
chRegNextThread                                   build/obj/chregistry.o
chSchDoReschedule                                 build/obj/chschd.o
                                                  build/obj/chcore_v7m.o
chSchDoRescheduleAhead                            build/obj/chschd.o
chSchDoRescheduleBehind                           build/obj/chschd.o
                                                  build/obj/chthreads.o
chSchGoSleepS                                     build/obj/chschd.o
                                                  build/obj/sdc_lld.o
                                                  build/obj/spi.o
                                                  build/obj/chmsg.o
                                                  build/obj/chevents.o
                                                  build/obj/chcond.o
                                                  build/obj/chmtx.o
                                                  build/obj/chsem.o
                                                  build/obj/chthreads.o
chSchGoSleepTimeoutS                              build/obj/chschd.o
                                                  build/obj/chqueues.o
                                                  build/obj/chevents.o
                                                  build/obj/chcond.o
                                                  build/obj/chsem.o
                                                  build/obj/chthreads.o
chSchReadyI                                       build/obj/chschd.o
                                                  build/obj/spi_lld.o
                                                  build/obj/sdc_lld.o
                                                  build/obj/chqueues.o
                                                  build/obj/chmsg.o
                                                  build/obj/chevents.o
                                                  build/obj/chcond.o
                                                  build/obj/chmtx.o
                                                  build/obj/chsem.o
                                                  build/obj/chthreads.o
chSchRescheduleS                                  build/obj/chschd.o
                                                  build/obj/gos_chibios.o
                                                  build/obj/serial.o
                                                  build/obj/chmboxes.o
                                                  build/obj/chevents.o
                                                  build/obj/chcond.o
                                                  build/obj/chmtx.o
                                                  build/obj/chsem.o
                                                  build/obj/chthreads.o
chSchWakeupS                                      build/obj/chschd.o
                                                  build/obj/chmsg.o
                                                  build/obj/chcond.o
                                                  build/obj/chmtx.o
                                                  build/obj/chsem.o
                                                  build/obj/chdynamic.o
                                                  build/obj/chthreads.o
chSemAddCounterI                                  build/obj/chsem.o
chSemInit                                         build/obj/chsem.o
                                                  build/obj/gos_chibios.o
                                                  build/obj/chmboxes.o
chSemReset                                        build/obj/chsem.o
                                                  build/obj/gos_chibios.o
chSemResetI                                       build/obj/chsem.o
                                                  build/obj/chmboxes.o
chSemSignal                                       build/obj/chsem.o
chSemSignalI                                      build/obj/chsem.o
                                                  build/obj/gos_chibios.o
                                                  build/obj/chmboxes.o
chSemSignalWait                                   build/obj/chsem.o
chSemWait                                         build/obj/chsem.o
                                                  build/obj/gos_chibios.o
chSemWaitS                                        build/obj/chsem.o
chSemWaitTimeout                                  build/obj/chsem.o
                                                  build/obj/gos_chibios.o
chSemWaitTimeoutS                                 build/obj/chsem.o
                                                  build/obj/chmboxes.o
chSysInit                                         build/obj/chsys.o
                                                  build/obj/gos_chibios.o
chSysTimerHandlerI                                build/obj/chsys.o
                                                  build/obj/chcore_v7m.o
chThdAddRef                                       build/obj/chdynamic.o
chThdCreateFromHeap                               build/obj/chdynamic.o
                                                  build/obj/gos_chibios.o
chThdCreateFromMemoryPool                         build/obj/chdynamic.o
chThdCreateI                                      build/obj/chthreads.o
                                                  build/obj/chdynamic.o
chThdCreateStatic                                 build/obj/chthreads.o
                                                  build/obj/main.o
                                                  build/obj/gos_chibios.o
                                                  build/obj/chsys.o
chThdExit                                         build/obj/chthreads.o
                                                  build/obj/chcore_v7m.o
chThdExitS                                        build/obj/chthreads.o
chThdRelease                                      build/obj/chdynamic.o
                                                  build/obj/chregistry.o
                                                  build/obj/chthreads.o
chThdResume                                       build/obj/chthreads.o
chThdSetPriority                                  build/obj/chthreads.o
                                                  build/obj/sdcard.o
                                                  build/obj/contactsScreen.o
                                                  build/obj/gallery.o
                                                  build/obj/settingsScreen.o
                                                  build/obj/callsScreen.o
                                                  build/obj/callScreen.o
                                                  build/obj/mainScreen.o
chThdSleep                                        build/obj/chthreads.o
                                                  build/obj/gsm.o
                                                  build/obj/gos_chibios.o
                                                  build/obj/sdc_lld.o
                                                  build/obj/sdc.o
chThdSleepUntil                                   build/obj/chthreads.o
chThdTerminate                                    build/obj/chthreads.o
chThdWait                                         build/obj/chthreads.o
chThdYield                                        build/obj/chthreads.o
                                                  build/obj/gtimer.o
                                                  build/obj/gos_chibios.o
chVTResetI                                        build/obj/chvt.o
                                                  build/obj/chschd.o
chVTSetI                                          build/obj/chvt.o
                                                  build/obj/chschd.o
ch_debug                                          build/obj/chregistry.o
                                                  build/obj/chsys.o
chsnprintf                                        build/obj/chprintf.o
chvprintf                                         build/obj/chprintf.o
clear_calls_b                                     build/obj/callsScreen.o
                                                  build/obj/gui_t.o
clust2sect                                        build/obj/gfile_fatfs_wrapper.o
configuration_t                                   build/obj/configuration_t.o
                                                  build/obj/main.o
configuration_thrd_h                              build/obj/main.o
                                                  build/obj/gui_t.o
contacts_contacts_l                               build/obj/contactsScreen.o
                                                  build/obj/gui_t.o
contacts_mainScreen_b                             build/obj/mainScreen.o
                                                  build/obj/gui_t.o
contacts_t                                        build/obj/contacts_t.o
                                                  build/obj/main.o
contacts_thrd_h                                   build/obj/main.o
                                                  build/obj/gui_t.o
                                                  build/obj/calls_t.o
createCallScreen                                  build/obj/callScreen.o
                                                  build/obj/gui_t.o
createCallsScreen                                 build/obj/callsScreen.o
                                                  build/obj/gui_t.o
createContactAddScreen                            build/obj/contactsScreen.o
                                                  build/obj/gui_t.o
createContactsScreen                              build/obj/contactsScreen.o
                                                  build/obj/gui_t.o
createGalleryScreen                               build/obj/gallery.o
                                                  build/obj/gui_t.o
createMainScreen                                  build/obj/mainScreen.o
                                                  build/obj/gui_t.o
createMakeCallScreen                              build/obj/callsScreen.o
                                                  build/obj/gui_t.o
createSettingsScreen                              build/obj/settingsScreen.o
                                                  build/obj/gui_t.o
dbg_check_disable                                 build/obj/chdebug.o
dbg_check_enable                                  build/obj/chdebug.o
                                                  build/obj/chsys.o
dbg_check_enter_isr                               build/obj/chdebug.o
                                                  build/obj/serial_lld.o
                                                  build/obj/pwm_lld.o
                                                  build/obj/sdc_lld.o
                                                  build/obj/stm32_dma.o
                                                  build/obj/chcore_v7m.o
dbg_check_leave_isr                               build/obj/chdebug.o
                                                  build/obj/serial_lld.o
                                                  build/obj/pwm_lld.o
                                                  build/obj/sdc_lld.o
                                                  build/obj/stm32_dma.o
                                                  build/obj/chcore_v7m.o
dbg_check_lock                                    build/obj/chdebug.o
                                                  build/obj/gqueue.o
                                                  build/obj/gos_chibios.o
                                                  build/obj/sdc_lld.o
                                                  build/obj/spi.o
                                                  build/obj/serial.o
                                                  build/obj/sdc.o
                                                  build/obj/pwm.o
                                                  build/obj/chmempools.o
                                                  build/obj/chmemcore.o
                                                  build/obj/chqueues.o
                                                  build/obj/chmboxes.o
                                                  build/obj/chmsg.o
                                                  build/obj/chevents.o
                                                  build/obj/chcond.o
                                                  build/obj/chmtx.o
                                                  build/obj/chsem.o
                                                  build/obj/chregistry.o
                                                  build/obj/chdynamic.o
                                                  build/obj/chthreads.o
                                                  build/obj/chcore_v7m.o
dbg_check_lock_from_isr                           build/obj/chdebug.o
                                                  build/obj/serial_lld.o
                                                  build/obj/spi_lld.o
                                                  build/obj/sdc_lld.o
                                                  build/obj/chschd.o
                                                  build/obj/chsys.o
                                                  build/obj/chcore_v7m.o
dbg_check_suspend                                 build/obj/chdebug.o
dbg_check_unlock                                  build/obj/chdebug.o
                                                  build/obj/gqueue.o
                                                  build/obj/gos_chibios.o
                                                  build/obj/sdc_lld.o
                                                  build/obj/spi.o
                                                  build/obj/serial.o
                                                  build/obj/sdc.o
                                                  build/obj/pwm.o
                                                  build/obj/chmempools.o
                                                  build/obj/chmemcore.o
                                                  build/obj/chqueues.o
                                                  build/obj/chmboxes.o
                                                  build/obj/chmsg.o
                                                  build/obj/chevents.o
                                                  build/obj/chcond.o
                                                  build/obj/chmtx.o
                                                  build/obj/chsem.o
                                                  build/obj/chregistry.o
                                                  build/obj/chdynamic.o
                                                  build/obj/chthreads.o
                                                  build/obj/chcore_v7m.o
dbg_check_unlock_from_isr                         build/obj/chdebug.o
                                                  build/obj/serial_lld.o
                                                  build/obj/spi_lld.o
                                                  build/obj/sdc_lld.o
                                                  build/obj/chschd.o
                                                  build/obj/chsys.o
                                                  build/obj/chcore_v7m.o
dbg_isr_cnt                                       build/obj/chdebug.o
dbg_lock_cnt                                      build/obj/chdebug.o
dbg_panic_msg                                     build/obj/chdebug.o
decline_call_b                                    build/obj/callScreen.o
                                                  build/obj/gui_t.o
deleteCalls                                       build/obj/sdcard.o
                                                  build/obj/calls_t.o
deleteContact                                     build/obj/sdcard.o
                                                  build/obj/contacts_t.o
deleteSms                                         build/obj/gsm.o
                                                  build/obj/uart_t.o
delete_contacts_b                                 build/obj/contactsScreen.o
                                                  build/obj/gui_t.o
destroyCallScreen                                 build/obj/callScreen.o
                                                  build/obj/gui_t.o
destroyCallsScreen                                build/obj/callsScreen.o
                                                  build/obj/gui_t.o
destroyContactAddScreen                           build/obj/contactsScreen.o
                                                  build/obj/gui_t.o
destroyContactsScreen                             build/obj/contactsScreen.o
                                                  build/obj/gui_t.o
destroyGalleryScreen                              build/obj/gallery.o
                                                  build/obj/gui_t.o
destroyMainScreen                                 build/obj/mainScreen.o
                                                  build/obj/gui_t.o
destroyMakeCallScreen                             build/obj/callsScreen.o
                                                  build/obj/gui_t.o
destroySettingsScreen                             build/obj/settingsScreen.o
                                                  build/obj/gui_t.o
disk_initialize                                   build/obj/gfile_fatfs_diskio_chibios.o
                                                  build/obj/gfile_fatfs_wrapper.o
disk_ioctl                                        build/obj/gfile_fatfs_diskio_chibios.o
                                                  build/obj/gfile_fatfs_wrapper.o
disk_read                                         build/obj/gfile_fatfs_diskio_chibios.o
                                                  build/obj/gfile_fatfs_wrapper.o
disk_status                                       build/obj/gfile_fatfs_diskio_chibios.o
                                                  build/obj/gfile_fatfs_wrapper.o
disk_write                                        build/obj/gfile_fatfs_diskio_chibios.o
                                                  build/obj/gfile_fatfs_wrapper.o
dmaInit                                           build/obj/stm32_dma.o
                                                  build/obj/hal_lld.o
dmaStreamAllocate                                 build/obj/stm32_dma.o
                                                  build/obj/spi_lld.o
                                                  build/obj/sdc_lld.o
dmaStreamRelease                                  build/obj/stm32_dma.o
                                                  build/obj/spi_lld.o
                                                  build/obj/sdc_lld.o
f_chmod                                           build/obj/gfile_fatfs_wrapper.o
f_close                                           build/obj/gfile_fatfs_wrapper.o
                                                  build/obj/gfile_fs_fatfs.o
f_closedir                                        build/obj/gfile_fatfs_wrapper.o
                                                  build/obj/gfile_fs_fatfs.o
f_getfree                                         build/obj/gfile_fatfs_wrapper.o
f_gets                                            build/obj/gfile_fatfs_wrapper.o
f_lseek                                           build/obj/gfile_fatfs_wrapper.o
                                                  build/obj/gfile_fs_fatfs.o
f_mkdir                                           build/obj/gfile_fatfs_wrapper.o
f_mount                                           build/obj/gfile_fatfs_wrapper.o
                                                  build/obj/gfile_fs_fatfs.o
f_open                                            build/obj/gfile_fatfs_wrapper.o
                                                  build/obj/gfile_fs_fatfs.o
f_opendir                                         build/obj/gfile_fatfs_wrapper.o
                                                  build/obj/gfile_fs_fatfs.o
f_printf                                          build/obj/gfile_fatfs_wrapper.o
f_putc                                            build/obj/gfile_fatfs_wrapper.o
f_puts                                            build/obj/gfile_fatfs_wrapper.o
f_read                                            build/obj/gfile_fatfs_wrapper.o
                                                  build/obj/gfile_fs_fatfs.o
f_readdir                                         build/obj/gfile_fatfs_wrapper.o
                                                  build/obj/gfile_fs_fatfs.o
f_rename                                          build/obj/gfile_fatfs_wrapper.o
                                                  build/obj/gfile_fs_fatfs.o
f_stat                                            build/obj/gfile_fatfs_wrapper.o
                                                  build/obj/gfile_fs_fatfs.o
f_sync                                            build/obj/gfile_fatfs_wrapper.o
                                                  build/obj/gfile_fs_fatfs.o
f_truncate                                        build/obj/gfile_fatfs_wrapper.o
f_unlink                                          build/obj/gfile_fatfs_wrapper.o
                                                  build/obj/gfile_fs_fatfs.o
f_utime                                           build/obj/gfile_fatfs_wrapper.o
f_write                                           build/obj/gfile_fatfs_wrapper.o
                                                  build/obj/gfile_fs_fatfs.o
ff_convert                                        build/obj/gfile_fatfs_wrapper.o
ff_memalloc                                       build/obj/gfile_fatfs_wrapper.o
ff_memfree                                        build/obj/gfile_fatfs_wrapper.o
ff_wtoupper                                       build/obj/gfile_fatfs_wrapper.o
gallery_mainScreen_b                              build/obj/mainScreen.o
                                                  build/obj/gui_t.o
gallery_t                                         build/obj/gallery_t.o
                                                  build/obj/main.o
gallery_thrd_h                                    build/obj/main.o
                                                  build/obj/gui_t.o
gdispBlendColor                                   build/obj/gdisp.o
                                                  build/obj/gwin_list.o
                                                  build/obj/gwin_button.o
gdispCloseFont                                    build/obj/gdisp_fonts.o
                                                  build/obj/ginput_mouse.o
gdispContrastColor                                build/obj/gdisp.o
gdispGBlitArea                                    build/obj/gdisp.o
                                                  build/obj/gwin.o
                                                  build/obj/gdisp_image_gif.o
gdispGClear                                       build/obj/gdisp.o
                                                  build/obj/main.o
                                                  build/obj/ginput_mouse.o
gdispGControl                                     build/obj/gdisp.o
                                                  build/obj/gui_t.o
gdispGDrawBox                                     build/obj/gdisp.o
                                                  build/obj/gwin_container.o
                                                  build/obj/gwin_progressbar.o
                                                  build/obj/gwin_list.o
                                                  build/obj/gwin_label.o
                                                  build/obj/gwin_slider.o
                                                  build/obj/gwin_graph.o
                                                  build/obj/gwin.o
gdispGDrawChar                                    build/obj/gdisp.o
                                                  build/obj/gwin_console.o
                                                  build/obj/gwin.o
gdispGDrawCircle                                  build/obj/gdisp.o
                                                  build/obj/gwin_graph.o
                                                  build/obj/gwin.o
gdispGDrawLine                                    build/obj/gdisp.o
                                                  build/obj/ginput_mouse.o
                                                  build/obj/gwin_progressbar.o
                                                  build/obj/gwin_list.o
                                                  build/obj/gwin_slider.o
                                                  build/obj/gwin_button.o
                                                  build/obj/gwin_graph.o
                                                  build/obj/gwin.o
gdispGDrawPixel                                   build/obj/gdisp.o
                                                  build/obj/gwin_graph.o
                                                  build/obj/gwin.o
                                                  build/obj/gdisp_image_gif.o
gdispGDrawString                                  build/obj/gdisp.o
                                                  build/obj/gwin.o
gdispGDrawStringBox                               build/obj/gdisp.o
                                                  build/obj/gwin_progressbar.o
                                                  build/obj/gwin_slider.o
                                                  build/obj/gwin_button.o
                                                  build/obj/gwin.o
gdispGFillArea                                    build/obj/gdisp.o
                                                  build/obj/ginput_mouse.o
                                                  build/obj/gwin_container.o
                                                  build/obj/gwin_progressbar.o
                                                  build/obj/gwin_list.o
                                                  build/obj/gwin_image.o
                                                  build/obj/gwin_slider.o
                                                  build/obj/gwin_console.o
                                                  build/obj/gwin_wm.o
                                                  build/obj/gwin.o
                                                  build/obj/gdisp_image_gif.o
gdispGFillChar                                    build/obj/gdisp.o
                                                  build/obj/gwin.o
gdispGFillCircle                                  build/obj/gdisp.o
                                                  build/obj/gwin.o
gdispGFillString                                  build/obj/gdisp.o
                                                  build/obj/gwin.o
gdispGFillStringBox                               build/obj/gdisp.o
                                                  build/obj/ginput_mouse.o
                                                  build/obj/gwin_list.o
                                                  build/obj/gwin_label.o
                                                  build/obj/gwin.o
gdispGFlush                                       build/obj/gdisp.o
gdispGGetBacklight                                build/obj/gdisp.o
gdispGGetContrast                                 build/obj/gdisp.o
gdispGGetHeight                                   build/obj/gdisp.o
                                                  build/obj/ginput_mouse.o
                                                  build/obj/gwin_wm.o
gdispGGetOrientation                              build/obj/gdisp.o
                                                  build/obj/ginput_mouse.o
gdispGGetPowerMode                                build/obj/gdisp.o
gdispGGetWidth                                    build/obj/gdisp.o
                                                  build/obj/ginput_mouse.o
                                                  build/obj/gwin_label.o
                                                  build/obj/gwin_wm.o
gdispGImageDraw                                   build/obj/gdisp_image.o
                                                  build/obj/gwin_container.o
                                                  build/obj/gwin_progressbar.o
                                                  build/obj/gwin_image.o
                                                  build/obj/gwin_slider.o
                                                  build/obj/gwin_button.o
                                                  build/obj/gwin.o
gdispGImageDraw_GIF                               build/obj/gdisp_image_gif.o
                                                  build/obj/gdisp_image.o
gdispGSetClip                                     build/obj/gdisp.o
                                                  build/obj/ginput_mouse.o
                                                  build/obj/gwin_list.o
                                                  build/obj/gwin_wm.o
gdispGetCharWidth                                 build/obj/gdisp.o
                                                  build/obj/gwin_console.o
gdispGetDisplay                                   build/obj/gdisp.o
gdispGetDisplayCount                              build/obj/gdisp.o
gdispGetFontMetric                                build/obj/gdisp.o
                                                  build/obj/gwin_list.o
                                                  build/obj/gwin_label.o
                                                  build/obj/gwin_console.o
gdispGetFontName                                  build/obj/gdisp_fonts.o
gdispGetStringWidth                               build/obj/gdisp.o
                                                  build/obj/gwin_label.o
gdispImageAlloc                                   build/obj/gdisp_image.o
                                                  build/obj/gdisp_image_gif.o
gdispImageCache                                   build/obj/gdisp_image.o
                                                  build/obj/gwin_image.o
gdispImageCache_GIF                               build/obj/gdisp_image_gif.o
                                                  build/obj/gdisp_image.o
gdispImageClose                                   build/obj/gdisp_image.o
                                                  build/obj/contactsScreen.o
                                                  build/obj/gallery.o
                                                  build/obj/settingsScreen.o
                                                  build/obj/callsScreen.o
                                                  build/obj/callScreen.o
                                                  build/obj/mainScreen.o
                                                  build/obj/gwin_image.o
gdispImageClose_GIF                               build/obj/gdisp_image_gif.o
                                                  build/obj/gdisp_image.o
gdispImageFree                                    build/obj/gdisp_image.o
                                                  build/obj/gdisp_image_gif.o
gdispImageInit                                    build/obj/gdisp_image.o
                                                  build/obj/gwin_image.o
gdispImageIsOpen                                  build/obj/gdisp_image.o
                                                  build/obj/gwin_image.o
gdispImageNext                                    build/obj/gdisp_image.o
gdispImageNext_GIF                                build/obj/gdisp_image_gif.o
                                                  build/obj/gdisp_image.o
gdispImageOpen                                    build/obj/gdisp_image.o
gdispImageOpenGFile                               build/obj/gdisp_image.o
                                                  build/obj/contactsScreen.o
                                                  build/obj/gallery.o
                                                  build/obj/settingsScreen.o
                                                  build/obj/callsScreen.o
                                                  build/obj/callScreen.o
                                                  build/obj/mainScreen.o
                                                  build/obj/gwin_image.o
gdispImageOpen_GIF                                build/obj/gdisp_image_gif.o
                                                  build/obj/gdisp_image.o
gdispImageSetBgColor                              build/obj/gdisp_image.o
                                                  build/obj/gwin_image.o
gdispOpenFont                                     build/obj/gdisp_fonts.o
                                                  build/obj/main.o
                                                  build/obj/ginput_mouse.o
gdispScaleFont                                    build/obj/gdisp_fonts.o
gdispSetDisplay                                   build/obj/gdisp.o
gdisp_lld_control                                 build/obj/gdisp_lld_SSD1289.o
                                                  build/obj/gdisp.o
gdisp_lld_init                                    build/obj/gdisp_lld_SSD1289.o
                                                  build/obj/gdisp.o
gdisp_lld_read_color                              build/obj/gdisp_lld_SSD1289.o
gdisp_lld_read_start                              build/obj/gdisp_lld_SSD1289.o
gdisp_lld_read_stop                               build/obj/gdisp_lld_SSD1289.o
gdisp_lld_write_color                             build/obj/gdisp_lld_SSD1289.o
                                                  build/obj/gdisp.o
gdisp_lld_write_pos                               build/obj/gdisp_lld_SSD1289.o
                                                  build/obj/gdisp.o
gdisp_lld_write_start                             build/obj/gdisp_lld_SSD1289.o
                                                  build/obj/gdisp.o
gdisp_lld_write_stop                              build/obj/gdisp_lld_SSD1289.o
                                                  build/obj/gdisp.o
gdriverGetDriverInstanceNumber                    build/obj/gdriver.o
gdriverGetInstance                                build/obj/gdriver.o
                                                  build/obj/ginput_mouse.o
                                                  build/obj/gdisp.o
gdriverGetNext                                    build/obj/gdriver.o
                                                  build/obj/ginput_mouse.o
gdriverInstanceCount                              build/obj/gdriver.o
                                                  build/obj/gdisp.o
gdriverRegister                                   build/obj/gdriver.o
                                                  build/obj/ginput_mouse.o
                                                  build/obj/gdisp.o
gdriverUnRegister                                 build/obj/gdriver.o
getCalls                                          build/obj/sdcard.o
                                                  build/obj/calls_t.o
getContact                                        build/obj/sdcard.o
                                                  build/obj/contacts_t.o
getContacts                                       build/obj/sdcard.o
                                                  build/obj/contacts_t.o
getPictures                                       build/obj/sdcard.o
                                                  build/obj/gallery_t.o
getSms                                            build/obj/gsm.o
                                                  build/obj/uart_t.o
getThemes                                         build/obj/sdcard.o
                                                  build/obj/configuration_t.o
get_fat                                           build/obj/gfile_fatfs_wrapper.o
get_fattime                                       build/obj/gfile_fatfs_diskio_chibios.o
                                                  build/obj/gfile_fatfs_wrapper.o
geventAttachSource                                build/obj/gevent.o
                                                  build/obj/gwin_widget.o
geventDetachSource                                build/obj/gevent.o
geventDetachSourceListeners                       build/obj/gevent.o
                                                  build/obj/gwin_widget.o
geventEventComplete                               build/obj/gevent.o
geventEventWait                                   build/obj/gevent.o
                                                  build/obj/gui_t.o
geventGetEventBuffer                              build/obj/gevent.o
                                                  build/obj/ginput_mouse.o
                                                  build/obj/gwin_list.o
                                                  build/obj/gwin_slider.o
                                                  build/obj/gwin_widget.o
geventGetSourceListener                           build/obj/gevent.o
                                                  build/obj/ginput_mouse.o
                                                  build/obj/gwin_list.o
                                                  build/obj/gwin_slider.o
                                                  build/obj/gwin_widget.o
geventListenerInit                                build/obj/gevent.o
                                                  build/obj/gui_t.o
                                                  build/obj/gwin_widget.o
geventRegisterCallback                            build/obj/gevent.o
                                                  build/obj/gwin_widget.o
geventSendEvent                                   build/obj/gevent.o
                                                  build/obj/ginput_mouse.o
                                                  build/obj/gwin_list.o
                                                  build/obj/gwin_slider.o
                                                  build/obj/gwin_widget.o
gfileClose                                        build/obj/gfile.o
                                                  build/obj/sdcard.o
                                                  build/obj/gdisp_image.o
gfileCloseFileList                                build/obj/gfile.o
                                                  build/obj/sdcard.o
gfileDelete                                       build/obj/gfile.o
gfileEOF                                          build/obj/gfile.o
                                                  build/obj/sdcard.o
gfileExists                                       build/obj/gfile.o
gfileGetFilesize                                  build/obj/gfile.o
gfileGetPos                                       build/obj/gfile.o
                                                  build/obj/gdisp_image_gif.o
gfileGetSize                                      build/obj/gfile.o
                                                  build/obj/sdcard.o
gfileMount                                        build/obj/gfile.o
gfileOpen                                         build/obj/gfile.o
                                                  build/obj/sdcard.o
                                                  build/obj/contactsScreen.o
                                                  build/obj/gallery.o
                                                  build/obj/settingsScreen.o
                                                  build/obj/callsScreen.o
                                                  build/obj/callScreen.o
                                                  build/obj/mainScreen.o
gfileOpenFileList                                 build/obj/gfile.o
                                                  build/obj/sdcard.o
gfileRead                                         build/obj/gfile.o
                                                  build/obj/sdcard.o
                                                  build/obj/gdisp_image_gif.o
gfileReadFileList                                 build/obj/gfile.o
                                                  build/obj/sdcard.o
gfileRename                                       build/obj/gfile.o
gfileSetPos                                       build/obj/gfile.o
                                                  build/obj/sdcard.o
                                                  build/obj/gdisp_image_gif.o
                                                  build/obj/gdisp_image.o
gfileStdErr                                       build/obj/gfile.o
gfileStdIn                                        build/obj/gfile.o
gfileStdOut                                       build/obj/gfile.o
gfileSync                                         build/obj/gfile.o
gfileUnmount                                      build/obj/gfile.o
gfileWrite                                        build/obj/gfile.o
                                                  build/obj/sdcard.o
gfxDeinit                                         build/obj/gfx.o
gfxInit                                           build/obj/gfx.o
                                                  build/obj/main.o
gfxQueueASyncGet                                  build/obj/gqueue.o
                                                  build/obj/gwin_list.o
gfxQueueASyncGetI                                 build/obj/gqueue.o
gfxQueueASyncInit                                 build/obj/gqueue.o
                                                  build/obj/gwin_list.o
                                                  build/obj/gwin_wm.o
gfxQueueASyncInsert                               build/obj/gqueue.o
gfxQueueASyncInsertI                              build/obj/gqueue.o
gfxQueueASyncIsIn                                 build/obj/gqueue.o
gfxQueueASyncIsInI                                build/obj/gqueue.o
gfxQueueASyncPush                                 build/obj/gqueue.o
gfxQueueASyncPushI                                build/obj/gqueue.o
gfxQueueASyncPut                                  build/obj/gqueue.o
                                                  build/obj/gwin_list.o
                                                  build/obj/gwin_wm.o
gfxQueueASyncPutI                                 build/obj/gqueue.o
gfxQueueASyncRemove                               build/obj/gqueue.o
                                                  build/obj/gwin_list.o
                                                  build/obj/gwin_wm.o
gfxQueueASyncRemoveI                              build/obj/gqueue.o
gfxRealloc                                        build/obj/gos_chibios.o
gfxSemDestroy                                     build/obj/gos_chibios.o
                                                  build/obj/gwin_wm.o
                                                  build/obj/gtimer.o
gfxSemInit                                        build/obj/gos_chibios.o
                                                  build/obj/gwin_wm.o
                                                  build/obj/gtimer.o
                                                  build/obj/gevent.o
gfxSemSignal                                      build/obj/gos_chibios.o
                                                  build/obj/gwin_wm.o
                                                  build/obj/gtimer.o
                                                  build/obj/gevent.o
gfxSemSignalI                                     build/obj/gos_chibios.o
                                                  build/obj/gtimer.o
gfxSemWait                                        build/obj/gos_chibios.o
                                                  build/obj/gwin_wm.o
                                                  build/obj/gtimer.o
                                                  build/obj/gevent.o
gfxSemWaitI                                       build/obj/gos_chibios.o
gfxSleepMicroseconds                              build/obj/gos_chibios.o
                                                  build/obj/gdisp_lld_SSD1289.o
gfxSleepMilliseconds                              build/obj/gos_chibios.o
                                                  build/obj/gdisp_lld_SSD1289.o
                                                  build/obj/ginput_mouse.o
gfxThreadCreate                                   build/obj/gos_chibios.o
                                                  build/obj/gtimer.o
ginputCalibrateMouse                              build/obj/ginput_mouse.o
ginputGetMouse                                    build/obj/ginput_mouse.o
                                                  build/obj/gwin_widget.o
ginputGetMouseDisplay                             build/obj/ginput_mouse.o
ginputGetMouseStatus                              build/obj/ginput_mouse.o
ginputSetFingerMode                               build/obj/ginput_mouse.o
ginputSetMouseDisplay                             build/obj/ginput_mouse.o
gsmResponse                                       build/obj/main.o
                                                  build/obj/uart_t.o
                                                  build/obj/gui_t.o
gtimerDeinit                                      build/obj/gtimer.o
                                                  build/obj/ginput_mouse.o
gtimerInit                                        build/obj/gtimer.o
gtimerIsActive                                    build/obj/gtimer.o
                                                  build/obj/ginput_mouse.o
gtimerJab                                         build/obj/gtimer.o
                                                  build/obj/ginput_mouse.o
gtimerJabI                                        build/obj/gtimer.o
                                                  build/obj/ginput_mouse.o
gtimerStart                                       build/obj/gtimer.o
                                                  build/obj/ginput_mouse.o
gtimerStop                                        build/obj/gtimer.o
gui_t                                             build/obj/gui_t.o
                                                  build/obj/main.o
gui_thrd_h                                        build/obj/main.o
gwinAttachListener                                build/obj/gwin_widget.o
                                                  build/obj/gui_t.o
gwinAttachMouse                                   build/obj/gwin_widget.o
gwinBlitArea                                      build/obj/gwin.o
gwinButtonDraw_Image                              build/obj/gwin_button.o
                                                  build/obj/contactsScreen.o
                                                  build/obj/gallery.o
                                                  build/obj/settingsScreen.o
                                                  build/obj/callsScreen.o
                                                  build/obj/callScreen.o
                                                  build/obj/mainScreen.o
gwinButtonDraw_Normal                             build/obj/gwin_button.o
                                                  build/obj/contactsScreen.o
                                                  build/obj/gallery.o
                                                  build/obj/settingsScreen.o
                                                  build/obj/callsScreen.o
                                                  build/obj/callScreen.o
                                                  build/obj/mainScreen.o
gwinButtonIsPressed                               build/obj/gwin_button.o
gwinClear                                         build/obj/gwin.o
gwinClearInit                                     build/obj/gwin.o
gwinContainerDraw_Image                           build/obj/gwin_container.o
                                                  build/obj/contactsScreen.o
                                                  build/obj/gallery.o
                                                  build/obj/settingsScreen.o
                                                  build/obj/callsScreen.o
                                                  build/obj/callScreen.o
                                                  build/obj/mainScreen.o
gwinContainerDraw_Std                             build/obj/gwin_container.o
                                                  build/obj/contactsScreen.o
                                                  build/obj/gallery.o
                                                  build/obj/settingsScreen.o
                                                  build/obj/callsScreen.o
                                                  build/obj/callScreen.o
                                                  build/obj/mainScreen.o
gwinContainerDraw_Transparent                     build/obj/gwin_container.o
                                                  build/obj/mainScreen.o
gwinDestroy                                       build/obj/gwin.o
                                                  build/obj/contactsScreen.o
                                                  build/obj/gallery.o
                                                  build/obj/settingsScreen.o
                                                  build/obj/callsScreen.o
                                                  build/obj/callScreen.o
                                                  build/obj/mainScreen.o
                                                  build/obj/gwin_container.o
                                                  build/obj/gwin_wm.o
gwinDrawBox                                       build/obj/gwin.o
gwinDrawChar                                      build/obj/gwin.o
gwinDrawCircle                                    build/obj/gwin.o
gwinDrawImage                                     build/obj/gwin.o
gwinDrawLine                                      build/obj/gwin.o
gwinDrawPixel                                     build/obj/gwin.o
gwinDrawString                                    build/obj/gwin.o
gwinDrawStringBox                                 build/obj/gwin.o
gwinFillArea                                      build/obj/gwin.o
gwinFillChar                                      build/obj/gwin.o
gwinFillCircle                                    build/obj/gwin.o
gwinFillString                                    build/obj/gwin.o
gwinFillStringBox                                 build/obj/gwin.o
gwinGButtonCreate                                 build/obj/gwin_button.o
                                                  build/obj/contactsScreen.o
                                                  build/obj/gallery.o
                                                  build/obj/settingsScreen.o
                                                  build/obj/callsScreen.o
                                                  build/obj/callScreen.o
                                                  build/obj/mainScreen.o
gwinGConsoleCreate                                build/obj/gwin_console.o
gwinGContainerCreate                              build/obj/gwin_container.o
                                                  build/obj/contactsScreen.o
                                                  build/obj/gallery.o
                                                  build/obj/settingsScreen.o
                                                  build/obj/callsScreen.o
                                                  build/obj/callScreen.o
                                                  build/obj/mainScreen.o
gwinGGraphCreate                                  build/obj/gwin_graph.o
gwinGImageCreate                                  build/obj/gwin_image.o
                                                  build/obj/gallery.o
gwinGLabelCreate                                  build/obj/gwin_label.o
                                                  build/obj/callScreen.o
gwinGListCreate                                   build/obj/gwin_list.o
                                                  build/obj/contactsScreen.o
                                                  build/obj/settingsScreen.o
                                                  build/obj/callsScreen.o
gwinGProgressbarCreate                            build/obj/gwin_progressbar.o
gwinGSliderCreate                                 build/obj/gwin_slider.o
                                                  build/obj/settingsScreen.o
gwinGWindowCreate                                 build/obj/gwin.o
gwinGetClassName                                  build/obj/gwin.o
gwinGetDefaultBgColor                             build/obj/gwin.o
                                                  build/obj/ginput_mouse.o
                                                  build/obj/gwin_image.o
                                                  build/obj/gwin_wm.o
gwinGetDefaultColor                               build/obj/gwin.o
gwinGetDefaultFont                                build/obj/gwin.o
                                                  build/obj/gwin_label.o
gwinGetDefaultStyle                               build/obj/gwin_widget.o
gwinGetEnabled                                    build/obj/gwin.o
gwinGetFirstChild                                 build/obj/gwin_container.o
                                                  build/obj/gwin_wm.o
gwinGetInnerHeight                                build/obj/gwin_container.o
gwinGetInnerWidth                                 build/obj/gwin_container.o
gwinGetMinMax                                     build/obj/gwin_wm.o
gwinGetNextWindow                                 build/obj/gwin_wm.o
                                                  build/obj/gwin_container.o
                                                  build/obj/gwin_widget.o
gwinGetSibling                                    build/obj/gwin_container.o
                                                  build/obj/gwin_wm.o
gwinGetStyle                                      build/obj/gwin_widget.o
gwinGetText                                       build/obj/gwin_widget.o
                                                  build/obj/gui_t.o
gwinGetVisible                                    build/obj/gwin.o
gwinGraphDrawAxis                                 build/obj/gwin_graph.o
gwinGraphDrawPoint                                build/obj/gwin_graph.o
gwinGraphDrawPoints                               build/obj/gwin_graph.o
gwinGraphSetOrigin                                build/obj/gwin_graph.o
gwinGraphSetStyle                                 build/obj/gwin_graph.o
gwinGraphStartSet                                 build/obj/gwin_graph.o
gwinImageCache                                    build/obj/gwin_image.o
gwinImageOpenGFile                                build/obj/gwin_image.o
                                                  build/obj/gallery.o
gwinLabelSetBorder                                build/obj/gwin_label.o
gwinListAddItem                                   build/obj/gwin_list.o
                                                  build/obj/contactsScreen.o
                                                  build/obj/settingsScreen.o
                                                  build/obj/callsScreen.o
gwinListDeleteAll                                 build/obj/gwin_list.o
                                                  build/obj/gui_t.o
gwinListEnableRender                              build/obj/gwin_list.o
gwinListFindText                                  build/obj/gwin_list.o
gwinListGetSelected                               build/obj/gwin_list.o
                                                  build/obj/gui_t.o
gwinListGetSelectedText                           build/obj/gwin_list.o
gwinListItemCount                                 build/obj/gwin_list.o
gwinListItemDelete                                build/obj/gwin_list.o
                                                  build/obj/gui_t.o
gwinListItemGetParam                              build/obj/gwin_list.o
gwinListItemGetText                               build/obj/gwin_list.o
gwinListItemIsSelected                            build/obj/gwin_list.o
gwinListItemSetParam                              build/obj/gwin_list.o
gwinListSetScroll                                 build/obj/gwin_list.o
                                                  build/obj/contactsScreen.o
                                                  build/obj/settingsScreen.o
                                                  build/obj/callsScreen.o
gwinMove                                          build/obj/gwin_wm.o
gwinPrintf                                        build/obj/gwin_console.o
gwinProgressbarDecrement                          build/obj/gwin_progressbar.o
gwinProgressbarDraw_Image                         build/obj/gwin_progressbar.o
gwinProgressbarDraw_Std                           build/obj/gwin_progressbar.o
gwinProgressbarIncrement                          build/obj/gwin_progressbar.o
gwinProgressbarSetPosition                        build/obj/gwin_progressbar.o
gwinProgressbarSetRange                           build/obj/gwin_progressbar.o
gwinProgressbarSetResolution                      build/obj/gwin_progressbar.o
gwinPutChar                                       build/obj/gwin_console.o
gwinPutCharArray                                  build/obj/gwin_console.o
gwinPutString                                     build/obj/gwin_console.o
gwinRaise                                         build/obj/gwin_wm.o
gwinRedraw                                        build/obj/gwin_wm.o
                                                  build/obj/gwin_list.o
                                                  build/obj/gwin_widget.o
gwinRedrawDisplay                                 build/obj/gwin_wm.o
gwinResize                                        build/obj/gwin_wm.o
                                                  build/obj/gwin_label.o
gwinSetCustomDraw                                 build/obj/gwin_widget.o
gwinSetDefaultBgColor                             build/obj/gwin.o
                                                  build/obj/gwin_widget.o
gwinSetDefaultColor                               build/obj/gwin.o
gwinSetDefaultFont                                build/obj/gwin.o
                                                  build/obj/main.o
gwinSetDefaultStyle                               build/obj/gwin_widget.o
                                                  build/obj/main.o
gwinSetEnabled                                    build/obj/gwin_wm.o
gwinSetFont                                       build/obj/gwin.o
gwinSetMinMax                                     build/obj/gwin_wm.o
gwinSetStyle                                      build/obj/gwin_widget.o
gwinSetText                                       build/obj/gwin_widget.o
                                                  build/obj/gui_t.o
                                                  build/obj/callScreen.o
gwinSetVisible                                    build/obj/gwin_wm.o
                                                  build/obj/mainScreen.o
                                                  build/obj/gwin_container.o
                                                  build/obj/gwin_progressbar.o
                                                  build/obj/gwin_list.o
                                                  build/obj/gwin_label.o
                                                  build/obj/gwin_image.o
                                                  build/obj/gwin_slider.o
                                                  build/obj/gwin_button.o
                                                  build/obj/gwin_graph.o
                                                  build/obj/gwin_console.o
                                                  build/obj/gwin.o
gwinSetWindowManager                              build/obj/gwin_wm.o
gwinSliderDraw_Image                              build/obj/gwin_slider.o
gwinSliderDraw_Std                                build/obj/gwin_slider.o
                                                  build/obj/settingsScreen.o
gwinSliderSendExtendedEvents                      build/obj/gwin_slider.o
gwinSliderSetPosition                             build/obj/gwin_slider.o
                                                  build/obj/settingsScreen.o
gwinSliderSetRange                                build/obj/gwin_slider.o
                                                  build/obj/settingsScreen.o
gwinWidgetClearInit                               build/obj/gwin_widget.o
                                                  build/obj/contactsScreen.o
                                                  build/obj/gallery.o
                                                  build/obj/settingsScreen.o
                                                  build/obj/callsScreen.o
                                                  build/obj/callScreen.o
                                                  build/obj/mainScreen.o
halInit                                           build/obj/hal.o
                                                  build/obj/gos_chibios.o
halIsCounterWithin                                build/obj/hal.o
halPolledDelay                                    build/obj/hal.o
hal_lld_init                                      build/obj/hal_lld.o
                                                  build/obj/hal.o
hangUp                                            build/obj/gsm.o
                                                  build/obj/uart_t.o
                                                  build/obj/gui_t.o
hideNotifications                                 build/obj/mainScreen.o
home_calls_b                                      build/obj/callsScreen.o
                                                  build/obj/gui_t.o
home_contacts_b                                   build/obj/contactsScreen.o
                                                  build/obj/gui_t.o
home_gallery_b                                    build/obj/gallery.o
                                                  build/obj/gui_t.o
home_settings_b                                   build/obj/settingsScreen.o
                                                  build/obj/gui_t.o
initGsm                                           build/obj/gsm.o
                                                  build/obj/main.o
initSdio                                          build/obj/sdcard.o
                                                  build/obj/main.o
lis302dlReadRegister                              build/obj/lis302dl.o
lis302dlWriteRegister                             build/obj/lis302dl.o
main                                              build/obj/main.o
                                                  build/obj/crt0.o
memchr                                            c:/chibistudio/tools/gnu tools arm embedded/4.7 2014q2/bin/../lib/gcc/arm-none-eabi/4.7.4/../../../../arm-none-eabi/lib/armv7e-m\libg.a(lib_a-memchr.o)
                                                  c:/chibistudio/tools/gnu tools arm embedded/4.7 2014q2/bin/../lib/gcc/arm-none-eabi/4.7.4/../../../../arm-none-eabi/lib/armv7e-m\libg.a(lib_a-strstr.o)
memcmp                                            c:/chibistudio/tools/gnu tools arm embedded/4.7 2014q2/bin/../lib/gcc/arm-none-eabi/4.7.4/../../../../arm-none-eabi/lib/armv7e-m\libg.a(lib_a-memcmp.o)
                                                  c:/chibistudio/tools/gnu tools arm embedded/4.7 2014q2/bin/../lib/gcc/arm-none-eabi/4.7.4/../../../../arm-none-eabi/lib/armv7e-m\libg.a(lib_a-strstr.o)
memcpy                                            c:/chibistudio/tools/gnu tools arm embedded/4.7 2014q2/bin/../lib/gcc/arm-none-eabi/4.7.4/../../../../arm-none-eabi/lib/armv7e-m\libg.a(lib_a-memcpy.o)
                                                  build/obj/gwin_list.o
                                                  build/obj/gos_chibios.o
                                                  build/obj/sdc_lld.o
memset                                            c:/chibistudio/tools/gnu tools arm embedded/4.7 2014q2/bin/../lib/gcc/arm-none-eabi/4.7.4/../../../../arm-none-eabi/lib/armv7e-m\libg.a(lib_a-memset.o)
                                                  build/obj/sdcard.o
                                                  build/obj/gui_t.o
                                                  build/obj/contactsScreen.o
                                                  build/obj/gallery.o
                                                  build/obj/settingsScreen.o
                                                  build/obj/callsScreen.o
                                                  build/obj/callScreen.o
                                                  build/obj/mainScreen.o
                                                  build/obj/gwin.o
                                                  build/obj/gdriver.o
messages_mainScreen_b                             build/obj/mainScreen.o
                                                  build/obj/gui_t.o
messages_t                                        build/obj/messages_t.o
                                                  build/obj/main.o
messages_thrd_h                                   build/obj/main.o
mf_bwfont_character_width                         build/obj/mf_bwfont.o
mf_bwfont_render_character                        build/obj/mf_bwfont.o
mf_character_width                                build/obj/mf_font.o
                                                  build/obj/mf_wordwrap.o
                                                  build/obj/mf_justify.o
                                                  build/obj/gdisp.o
mf_find_font                                      build/obj/mf_font.o
mf_get_font_list                                  build/obj/mf_font.o
                                                  build/obj/gdisp_fonts.o
mf_get_string_width                               build/obj/mf_justify.o
                                                  build/obj/gdisp.o
mf_getchar                                        build/obj/mf_encoding.o
                                                  build/obj/mf_wordwrap.o
                                                  build/obj/mf_justify.o
mf_render_aligned                                 build/obj/mf_justify.o
                                                  build/obj/gdisp.o
mf_render_character                               build/obj/mf_font.o
                                                  build/obj/gdisp.o
mf_render_justified                               build/obj/mf_justify.o
mf_rewind                                         build/obj/mf_encoding.o
                                                  build/obj/mf_justify.o
mf_rlefont_UI2                                    build/obj/mf_font.o
mf_rlefont_UI2_Double                             build/obj/mf_font.o
mf_rlefont_UI2_Narrow                             build/obj/mf_font.o
mf_rlefont_character_width                        build/obj/mf_rlefont.o
                                                  build/obj/mf_font.o
mf_rlefont_render_character                       build/obj/mf_rlefont.o
                                                  build/obj/mf_font.o
mf_scale_font                                     build/obj/mf_scaledfont.o
                                                  build/obj/gdisp_fonts.o
mf_scaled_character_width                         build/obj/mf_scaledfont.o
                                                  build/obj/mf_font.o
mf_scaled_render_character                        build/obj/mf_scaledfont.o
                                                  build/obj/mf_font.o
mf_wordwrap                                       build/obj/mf_wordwrap.o
mmcsdGetCapacity                                  build/obj/mmcsd.o
                                                  build/obj/sdc.o
msObjectInit                                      build/obj/chprintf.o
name_contacts_lb                                  build/obj/contactsScreen.o
                                                  build/obj/gui_t.o
nextImage_gallery_b                               build/obj/gallery.o
                                                  build/obj/gui_t.o
notifications_mainScreen_b                        build/obj/mainScreen.o
                                                  build/obj/gui_t.o
nvicDisableVector                                 build/obj/nvic.o
                                                  build/obj/serial_lld.o
                                                  build/obj/pwm_lld.o
                                                  build/obj/sdc_lld.o
                                                  build/obj/stm32_dma.o
nvicEnableVector                                  build/obj/nvic.o
                                                  build/obj/serial_lld.o
                                                  build/obj/pwm_lld.o
                                                  build/obj/sdc_lld.o
                                                  build/obj/stm32_dma.o
nvicSetSystemHandlerPriority                      build/obj/nvic.o
                                                  build/obj/chcore_v7m.o
open_calls_b                                      build/obj/callsScreen.o
                                                  build/obj/gui_t.o
palReadBus                                        build/obj/pal.o
palSetBusMode                                     build/obj/pal.o
                                                  build/obj/gdisp_lld_SSD1289.o
palWriteBus                                       build/obj/pal.o
pal_default_config                                build/obj/board.o
                                                  build/obj/hal.o
port_halt                                         build/obj/chcore.o
                                                  build/obj/spi_lld.o
                                                  build/obj/chdebug.o
previousImage_gallery_b                           build/obj/gallery.o
                                                  build/obj/gui_t.o
put_fat                                           build/obj/gfile_fatfs_wrapper.o
pwmChangePeriod                                   build/obj/pwm.o
pwmDisableChannel                                 build/obj/pwm.o
pwmEnableChannel                                  build/obj/pwm.o
                                                  build/obj/gdisp_lld_SSD1289.o
pwmInit                                           build/obj/pwm.o
                                                  build/obj/hal.o
pwmObjectInit                                     build/obj/pwm.o
                                                  build/obj/pwm_lld.o
pwmStart                                          build/obj/pwm.o
                                                  build/obj/gdisp_lld_SSD1289.o
pwmStop                                           build/obj/pwm.o
pwm_lld_disable_channel                           build/obj/pwm_lld.o
                                                  build/obj/pwm.o
pwm_lld_enable_channel                            build/obj/pwm_lld.o
                                                  build/obj/pwm.o
pwm_lld_init                                      build/obj/pwm_lld.o
                                                  build/obj/pwm.o
pwm_lld_start                                     build/obj/pwm_lld.o
                                                  build/obj/pwm.o
pwm_lld_stop                                      build/obj/pwm_lld.o
                                                  build/obj/pwm.o
readConfiguration                                 build/obj/sdcard.o
                                                  build/obj/configuration_t.o
rlist                                             build/obj/chschd.o
                                                  build/obj/gos_chibios.o
                                                  build/obj/sdc_lld.o
                                                  build/obj/spi.o
                                                  build/obj/chqueues.o
                                                  build/obj/chmsg.o
                                                  build/obj/chevents.o
                                                  build/obj/chcond.o
                                                  build/obj/chmtx.o
                                                  build/obj/chsem.o
                                                  build/obj/chregistry.o
                                                  build/obj/chthreads.o
                                                  build/obj/chsys.o
                                                  build/obj/chcore_v7m.o
save_contacts_b                                   build/obj/contactsScreen.o
                                                  build/obj/gui_t.o
sdIncomingDataI                                   build/obj/serial.o
                                                  build/obj/serial_lld.o
sdInit                                            build/obj/serial.o
                                                  build/obj/hal.o
sdObjectInit                                      build/obj/serial.o
                                                  build/obj/serial_lld.o
sdReadLine                                        build/obj/gsm.o
                                                  build/obj/uart_t.o
sdRequestDataI                                    build/obj/serial.o
sdStart                                           build/obj/serial.o
                                                  build/obj/gsm.o
sdStop                                            build/obj/serial.o
sd_lld_init                                       build/obj/serial_lld.o
                                                  build/obj/serial.o
sd_lld_start                                      build/obj/serial_lld.o
                                                  build/obj/serial.o
sd_lld_stop                                       build/obj/serial_lld.o
                                                  build/obj/serial.o
sdcConnect                                        build/obj/sdc.o
                                                  build/obj/sdcard.o
sdcDisconnect                                     build/obj/sdc.o
sdcErase                                          build/obj/sdc.o
sdcGetAndClearErrors                              build/obj/sdc.o
sdcGetInfo                                        build/obj/sdc.o
sdcInit                                           build/obj/sdc.o
                                                  build/obj/hal.o
sdcObjectInit                                     build/obj/sdc.o
                                                  build/obj/sdc_lld.o
sdcRead                                           build/obj/sdc.o
                                                  build/obj/gfile_fatfs_diskio_chibios.o
sdcStart                                          build/obj/sdc.o
                                                  build/obj/sdcard.o
sdcStop                                           build/obj/sdc.o
sdcSync                                           build/obj/sdc.o
sdcWrite                                          build/obj/sdc.o
                                                  build/obj/gfile_fatfs_diskio_chibios.o
sdc_lld_init                                      build/obj/sdc_lld.o
                                                  build/obj/sdc.o
sdc_lld_is_card_inserted                          build/obj/board.o
                                                  build/obj/sdc.o
sdc_lld_is_write_protected                        build/obj/board.o
                                                  build/obj/gfile_fatfs_diskio_chibios.o
                                                  build/obj/sdc.o
sdc_lld_read                                      build/obj/sdc_lld.o
                                                  build/obj/sdc.o
sdc_lld_read_aligned                              build/obj/sdc_lld.o
sdc_lld_send_cmd_long_crc                         build/obj/sdc_lld.o
                                                  build/obj/sdc.o
sdc_lld_send_cmd_none                             build/obj/sdc_lld.o
                                                  build/obj/sdc.o
sdc_lld_send_cmd_short                            build/obj/sdc_lld.o
                                                  build/obj/sdc.o
sdc_lld_send_cmd_short_crc                        build/obj/sdc_lld.o
                                                  build/obj/sdc.o
sdc_lld_set_bus_mode                              build/obj/sdc_lld.o
                                                  build/obj/sdc.o
sdc_lld_set_data_clk                              build/obj/sdc_lld.o
                                                  build/obj/sdc.o
sdc_lld_start                                     build/obj/sdc_lld.o
                                                  build/obj/sdc.o
sdc_lld_start_clk                                 build/obj/sdc_lld.o
                                                  build/obj/sdc.o
sdc_lld_stop                                      build/obj/sdc_lld.o
                                                  build/obj/sdc.o
sdc_lld_stop_clk                                  build/obj/sdc_lld.o
                                                  build/obj/sdc.o
sdc_lld_sync                                      build/obj/sdc_lld.o
                                                  build/obj/sdc.o
sdc_lld_write                                     build/obj/sdc_lld.o
                                                  build/obj/sdc.o
sdc_lld_write_aligned                             build/obj/sdc_lld.o
setPicture                                        build/obj/gallery.o
                                                  build/obj/gui_t.o
settings_mainScreen_b                             build/obj/mainScreen.o
                                                  build/obj/gui_t.o
showCallNotification                              build/obj/mainScreen.o
showSmsCallNotification                           build/obj/mainScreen.o
showSmsNotification                               build/obj/mainScreen.o
slre_match                                        build/obj/slre.o
                                                  build/obj/uart_t.o
spiAcquireBus                                     build/obj/spi.o
                                                  build/obj/gmouse_lld_ADS7843.o
spiExchange                                       build/obj/spi.o
                                                  build/obj/lis302dl.o
                                                  build/obj/gmouse_lld_ADS7843.o
spiIgnore                                         build/obj/spi.o
spiInit                                           build/obj/spi.o
                                                  build/obj/hal.o
spiObjectInit                                     build/obj/spi.o
                                                  build/obj/spi_lld.o
spiReceive                                        build/obj/spi.o
spiReleaseBus                                     build/obj/spi.o
                                                  build/obj/gmouse_lld_ADS7843.o
spiSelect                                         build/obj/spi.o
                                                  build/obj/lis302dl.o
spiSend                                           build/obj/spi.o
                                                  build/obj/lis302dl.o
spiStart                                          build/obj/spi.o
                                                  build/obj/gmouse_lld_ADS7843.o
spiStartExchange                                  build/obj/spi.o
spiStartIgnore                                    build/obj/spi.o
spiStartReceive                                   build/obj/spi.o
spiStartSend                                      build/obj/spi.o
spiStop                                           build/obj/spi.o
spiUnselect                                       build/obj/spi.o
                                                  build/obj/lis302dl.o
spi_lld_exchange                                  build/obj/spi_lld.o
                                                  build/obj/spi.o
spi_lld_ignore                                    build/obj/spi_lld.o
                                                  build/obj/spi.o
spi_lld_init                                      build/obj/spi_lld.o
                                                  build/obj/spi.o
spi_lld_polled_exchange                           build/obj/spi_lld.o
spi_lld_receive                                   build/obj/spi_lld.o
                                                  build/obj/spi.o
spi_lld_select                                    build/obj/spi_lld.o
                                                  build/obj/spi.o
spi_lld_send                                      build/obj/spi_lld.o
                                                  build/obj/spi.o
spi_lld_start                                     build/obj/spi_lld.o
                                                  build/obj/spi.o
spi_lld_stop                                      build/obj/spi_lld.o
                                                  build/obj/spi.o
spi_lld_unselect                                  build/obj/spi_lld.o
                                                  build/obj/spi.o
stm32_clock_init                                  build/obj/hal_lld.o
                                                  build/obj/board.o
strcat                                            c:/chibistudio/tools/gnu tools arm embedded/4.7 2014q2/bin/../lib/gcc/arm-none-eabi/4.7.4/../../../../arm-none-eabi/lib/armv7e-m\libg.a(lib_a-strcat.o)
                                                  build/obj/gui_t.o
strchr                                            c:/chibistudio/tools/gnu tools arm embedded/4.7 2014q2/bin/../lib/gcc/arm-none-eabi/4.7.4/../../../../arm-none-eabi/lib/armv7e-m\libg.a(lib_a-strchr.o)
                                                  c:/chibistudio/tools/gnu tools arm embedded/4.7 2014q2/bin/../lib/gcc/arm-none-eabi/4.7.4/../../../../arm-none-eabi/lib/armv7e-m\libg.a(lib_a-strstr.o)
                                                  build/obj/sdcard.o
                                                  build/obj/slre.o
strcmp                                            c:/chibistudio/tools/gnu tools arm embedded/4.7 2014q2/bin/../lib/gcc/arm-none-eabi/4.7.4/../../../../arm-none-eabi/lib/armv7e-m\libg.a(lib_a-strcmp.o)
                                                  build/obj/sdcard.o
                                                  build/obj/gwin_list.o
strcpy                                            c:/chibistudio/tools/gnu tools arm embedded/4.7 2014q2/bin/../lib/gcc/arm-none-eabi/4.7.4/../../../../arm-none-eabi/lib/armv7e-m\libg.a(lib_a-strcpy.o)
                                                  c:/chibistudio/tools/gnu tools arm embedded/4.7 2014q2/bin/../lib/gcc/arm-none-eabi/4.7.4/../../../../arm-none-eabi/lib/armv7e-m\libg.a(lib_a-strcat.o)
                                                  build/obj/gui_t.o
                                                  build/obj/gwin_widget.o
strlcat                                           c:/chibistudio/tools/gnu tools arm embedded/4.7 2014q2/bin/../lib/gcc/arm-none-eabi/4.7.4/../../../../arm-none-eabi/lib/armv7e-m\libg.a(lib_a-strlcat.o)
                                                  build/obj/sdcard.o
                                                  build/obj/gui_t.o
                                                  build/obj/contactsScreen.o
                                                  build/obj/gallery.o
                                                  build/obj/settingsScreen.o
                                                  build/obj/callsScreen.o
                                                  build/obj/callScreen.o
                                                  build/obj/mainScreen.o
strlcpy                                           c:/chibistudio/tools/gnu tools arm embedded/4.7 2014q2/bin/../lib/gcc/arm-none-eabi/4.7.4/../../../../arm-none-eabi/lib/armv7e-m\libg.a(lib_a-strlcpy.o)
                                                  build/obj/sdcard.o
                                                  build/obj/gui_t.o
                                                  build/obj/configuration_t.o
                                                  build/obj/contacts_t.o
                                                  build/obj/calls_t.o
strlen                                            c:/chibistudio/tools/gnu tools arm embedded/4.7 2014q2/bin/../lib/gcc/arm-none-eabi/4.7.4/../../../../arm-none-eabi/lib/armv7e-m\libg.a(lib_a-strlen.o)
                                                  c:/chibistudio/tools/gnu tools arm embedded/4.7 2014q2/bin/../lib/gcc/arm-none-eabi/4.7.4/../../../../arm-none-eabi/lib/armv7e-m\libg.a(lib_a-strlcat.o)
                                                  build/obj/sdcard.o
                                                  build/obj/slre.o
                                                  build/obj/gsm.o
                                                  build/obj/gui_t.o
                                                  build/obj/contactsScreen.o
                                                  build/obj/gallery.o
                                                  build/obj/settingsScreen.o
                                                  build/obj/callsScreen.o
                                                  build/obj/callScreen.o
                                                  build/obj/mainScreen.o
                                                  build/obj/gwin_list.o
                                                  build/obj/gwin_widget.o
strncpy                                           c:/chibistudio/tools/gnu tools arm embedded/4.7 2014q2/bin/../lib/gcc/arm-none-eabi/4.7.4/../../../../arm-none-eabi/lib/armv7e-m\libg.a(lib_a-strncpy.o)
                                                  build/obj/uart_t.o
strstr                                            c:/chibistudio/tools/gnu tools arm embedded/4.7 2014q2/bin/../lib/gcc/arm-none-eabi/4.7.4/../../../../arm-none-eabi/lib/armv7e-m\libg.a(lib_a-strstr.o)
                                                  build/obj/uart_t.o
strtol                                            c:/chibistudio/tools/gnu tools arm embedded/4.7 2014q2/bin/../lib/gcc/arm-none-eabi/4.7.4/../../../../arm-none-eabi/lib/armv7e-m\libg.a(lib_a-strtol.o)
                                                  c:/chibistudio/tools/gnu tools arm embedded/4.7 2014q2/bin/../lib/gcc/arm-none-eabi/4.7.4/../../../../arm-none-eabi/lib/armv7e-m\libg.a(lib_a-atoi.o)
telNum_calls_lb                                   build/obj/callsScreen.o
                                                  build/obj/gui_t.o
telNum_contacts_lb                                build/obj/contactsScreen.o
                                                  build/obj/gui_t.o
themes_settings_l                                 build/obj/settingsScreen.o
                                                  build/obj/gui_t.o
uart_t                                            build/obj/uart_t.o
                                                  build/obj/main.o
uart_thrd_h                                       build/obj/main.o
vtlist                                            build/obj/chvt.o
                                                  build/obj/uart_t.o
                                                  build/obj/ginput_mouse.o
                                                  build/obj/gtimer.o
                                                  build/obj/chthreads.o
                                                  build/obj/chsys.o
writeConfiguration                                build/obj/sdcard.o
                                                  build/obj/configuration_t.o
