ARM GAS  C:\Users\Elis\AppData\Local\Temp\ccjJUJ5c.s 			page 1


   1              		.syntax unified
   2              		.cpu cortex-m4
   3              		.fpu softvfp
   4              		.eabi_attribute 20, 1
   5              		.eabi_attribute 21, 1
   6              		.eabi_attribute 23, 3
   7              		.eabi_attribute 24, 1
   8              		.eabi_attribute 25, 1
   9              		.eabi_attribute 26, 1
  10              		.eabi_attribute 30, 2
  11              		.eabi_attribute 34, 1
  12              		.eabi_attribute 18, 4
  13              		.thumb
  14              		.file	"calls_t.c"
  15              		.text
  16              	.Ltext0:
  17              		.cfi_sections	.debug_frame
  18              		.section	.text.calls_t,"ax",%progbits
  19              		.align	2
  20              		.p2align 4,,15
  21              		.global	calls_t
  22              		.thumb
  23              		.thumb_func
  24              		.type	calls_t, %function
  25              	calls_t:
  26              	.LFB118:
  27              		.file 1 "../../workspace26/Mobile_phone/tasks/calls_t.c"
  28              		.loc 1 3 0
  29              		.cfi_startproc
  30              		@ args = 0, pretend = 0, frame = 144
  31              		@ frame_needed = 0, uses_anonymous_args = 0
  32              	.LVL0:
  33 0000 70B5     		push	{r4, r5, r6, lr}
  34              	.LCFI0:
  35              		.cfi_def_cfa_offset 16
  36              		.cfi_offset 4, -16
  37              		.cfi_offset 5, -12
  38              		.cfi_offset 6, -8
  39              		.cfi_offset 14, -4
  40 0002 A4B0     		sub	sp, sp, #144
  41              	.LCFI1:
  42              		.cfi_def_cfa_offset 160
  43              		.loc 1 17 0
  44 0004 0023     		movs	r3, #0
  45 0006 254E     		ldr	r6, .L17
  46 0008 0E93     		str	r3, [sp, #56]
  47              	.LVL1:
  48              	.L13:
  49              		.loc 1 23 0
  50 000a FFF7FEFF 		bl	chMsgWait
  51              	.LVL2:
  52              		.loc 1 31 0
  53 000e 416B     		ldr	r1, [r0, #52]
  54 0010 91F83C30 		ldrb	r3, [r1, #60]	@ zero_extendqisi2
  55 0014 03F00202 		and	r2, r3, #2
  56              		.loc 1 23 0
  57 0018 0446     		mov	r4, r0
ARM GAS  C:\Users\Elis\AppData\Local\Temp\ccjJUJ5c.s 			page 2


  58              	.LVL3:
  59              		.loc 1 31 0
  60 001a D2B2     		uxtb	r2, r2
  61              		.loc 1 43 0
  62 001c 03F00400 		and	r0, r3, #4
  63              	.LVL4:
  64 0020 C5B2     		uxtb	r5, r0
  65              		.loc 1 31 0
  66 0022 42BB     		cbnz	r2, .L15
  67              		.loc 1 43 0
  68 0024 7DBB     		cbnz	r5, .L16
  69              		.loc 1 57 0
  70 0026 3222     		movs	r2, #50
  71 0028 0431     		adds	r1, r1, #4
  72              	.LVL5:
  73              		.loc 1 55 0
  74 002a DB07     		lsls	r3, r3, #31
  75              		.loc 1 57 0
  76 002c 0DF17A00 		add	r0, sp, #122
  77              		.loc 1 55 0
  78 0030 EBD5     		bpl	.L13
  79              		.loc 1 57 0
  80 0032 FFF7FEFF 		bl	strlcpy
  81              	.LVL6:
  82              		.loc 1 63 0
  83 0036 9DF88C10 		ldrb	r1, [sp, #140]	@ zero_extendqisi2
  84              		.loc 1 67 0
  85 003a 3068     		ldr	r0, [r6, #0]
  86              		.loc 1 63 0
  87 003c 01F0F303 		and	r3, r1, #243
  88              		.loc 1 65 0
  89 0040 43F00202 		orr	r2, r3, #2
  90 0044 65F30002 		bfi	r2, r5, #0, #1
  91              		.loc 1 67 0
  92 0048 10A9     		add	r1, sp, #64
  93              		.loc 1 65 0
  94 004a 8DF88C20 		strb	r2, [sp, #140]
  95              		.loc 1 67 0
  96 004e FFF7FEFF 		bl	chMsgSend
  97              	.LVL7:
  98 0052 0546     		mov	r5, r0
  99              	.LVL8:
 100              		.loc 1 80 0
 101 0054 0DF17A00 		add	r0, sp, #122
 102              	.LVL9:
 103              		.loc 1 69 0
 104 0058 95F84C10 		ldrb	r1, [r5, #76]	@ zero_extendqisi2
 105 005c 01F01003 		and	r3, r1, #16
 106 0060 DAB2     		uxtb	r2, r3
 107 0062 C2B1     		cbz	r2, .L6
 108              		.loc 1 73 0
 109 0064 05F10800 		add	r0, r5, #8
 110 0068 FFF7FEFF 		bl	addCall
 111              	.LVL10:
 112              	.L7:
 113              		.loc 1 84 0
 114 006c 2046     		mov	r0, r4
ARM GAS  C:\Users\Elis\AppData\Local\Temp\ccjJUJ5c.s 			page 3


 115 006e 0021     		movs	r1, #0
 116 0070 FFF7FEFF 		bl	chMsgRelease
 117              	.LVL11:
 118 0074 C9E7     		b	.L13
 119              	.LVL12:
 120              	.L15:
 121              		.loc 1 33 0
 122 0076 6846     		mov	r0, sp
 123 0078 FFF7FEFF 		bl	getCalls
 124              	.LVL13:
 125              		.loc 1 37 0
 126 007c 2046     		mov	r0, r4
 127 007e 6946     		mov	r1, sp
 128 0080 FFF7FEFF 		bl	chMsgRelease
 129              	.LVL14:
 130 0084 C1E7     		b	.L13
 131              	.LVL15:
 132              	.L16:
 133              		.loc 1 45 0
 134 0086 6846     		mov	r0, sp
 135 0088 FFF7FEFF 		bl	deleteCalls
 136              	.LVL16:
 137              		.loc 1 49 0
 138 008c 2046     		mov	r0, r4
 139 008e 6946     		mov	r1, sp
 140 0090 FFF7FEFF 		bl	chMsgRelease
 141              	.LVL17:
 142 0094 B9E7     		b	.L13
 143              	.LVL18:
 144              	.L6:
 145              		.loc 1 80 0
 146 0096 FFF7FEFF 		bl	addCall
 147              	.LVL19:
 148 009a E7E7     		b	.L7
 149              	.L18:
 150              		.align	2
 151              	.L17:
 152 009c 00000000 		.word	contacts_thrd_h
 153              		.cfi_endproc
 154              	.LFE118:
 155              		.size	calls_t, .-calls_t
 156              		.text
 157              	.Letext0:
 158              		.file 2 "../../workspace26/Mobile_phone/structures/structures.h"
 159              		.file 3 "c:\\chibistudio\\tools\\gnu tools arm embedded\\4.7 2014q2\\bin\\../lib/gcc/arm-none-eabi
 160              		.file 4 "c:\\chibistudio\\tools\\gnu tools arm embedded\\4.7 2014q2\\bin\\../lib/gcc/arm-none-eabi
 161              		.file 5 "../../chibios/os/ports/GCC/ARMCMx/chtypes.h"
 162              		.file 6 "../../chibios/os/kernel/include/chlists.h"
 163              		.file 7 "../../chibios/os/kernel/include/chthreads.h"
 164              		.file 8 "../../chibios/os/ports/GCC/ARMCMx/chcore_v7m.h"
 165              		.file 9 "../../chibios/os/kernel/include/chmtx.h"
 166              		.file 10 "../../ugfx/src/gos/gos_chibios.h"
 167              		.file 11 "../../chibios/os/ports/common/ARMCMx/CMSIS/include/core_cm4.h"
 168              		.file 12 "../../workspace26/Mobile_phone/tasks/calls_t.h"
 169              		.file 13 "c:\\chibistudio\\tools\\gnu tools arm embedded\\4.7 2014q2\\bin\\../lib/gcc/arm-none-eab
 170              		.file 14 "../../chibios/os/kernel/include/chmsg.h"
 171              		.file 15 "../../workspace26/Mobile_phone/sdcard/sdcard.h"
ARM GAS  C:\Users\Elis\AppData\Local\Temp\ccjJUJ5c.s 			page 4

