ARM GAS  C:\Users\Elis\AppData\Local\Temp\ccBJUGFO.s 			page 1


   1              		.syntax unified
   2              		.cpu cortex-m4
   3              		.fpu softvfp
   4              		.eabi_attribute 20, 1
   5              		.eabi_attribute 21, 1
   6              		.eabi_attribute 23, 3
   7              		.eabi_attribute 24, 1
   8              		.eabi_attribute 25, 1
   9              		.eabi_attribute 26, 1
  10              		.eabi_attribute 30, 2
  11              		.eabi_attribute 34, 1
  12              		.eabi_attribute 18, 4
  13              		.thumb
  14              		.file	"callScreen.c"
  15              		.text
  16              	.Ltext0:
  17              		.cfi_sections	.debug_frame
  18              		.section	.text.createCallScreen,"ax",%progbits
  19              		.align	2
  20              		.p2align 4,,15
  21              		.global	createCallScreen
  22              		.thumb
  23              		.thumb_func
  24              		.type	createCallScreen, %function
  25              	createCallScreen:
  26              	.LFB118:
  27              		.file 1 "../../workspace26/Mobile_phone/gui/callScreen.c"
  28              		.loc 1 18 0
  29              		.cfi_startproc
  30              		@ args = 0, pretend = 0, frame = 144
  31              		@ frame_needed = 0, uses_anonymous_args = 0
  32              	.LVL0:
  33 0000 2DE9F04F 		push	{r4, r5, r6, r7, r8, r9, sl, fp, lr}
  34              	.LCFI0:
  35              		.cfi_def_cfa_offset 36
  36              		.cfi_offset 4, -36
  37              		.cfi_offset 5, -32
  38              		.cfi_offset 6, -28
  39              		.cfi_offset 7, -24
  40              		.cfi_offset 8, -20
  41              		.cfi_offset 9, -16
  42              		.cfi_offset 10, -12
  43              		.cfi_offset 11, -8
  44              		.cfi_offset 14, -4
  45 0004 A5B0     		sub	sp, sp, #148
  46              	.LCFI1:
  47              		.cfi_def_cfa_offset 184
  48              		.loc 1 18 0
  49 0006 0746     		mov	r7, r0
  50              		.loc 1 30 0
  51 0008 03A8     		add	r0, sp, #12
  52              	.LVL1:
  53              		.loc 1 38 0
  54 000a 0BAC     		add	r4, sp, #44
  55              		.loc 1 18 0
  56 000c 0191     		str	r1, [sp, #4]
  57 000e 9046     		mov	r8, r2
ARM GAS  C:\Users\Elis\AppData\Local\Temp\ccBJUGFO.s 			page 2


  58              		.loc 1 30 0
  59 0010 FFF7FEFF 		bl	gwinWidgetClearInit
  60              	.LVL2:
  61              		.loc 1 34 0
  62 0014 7F20     		movs	r0, #127
  63 0016 FFF7FEFF 		bl	chThdSetPriority
  64              	.LVL3:
  65              		.loc 1 38 0
  66 001a 0021     		movs	r1, #0
  67 001c 6422     		movs	r2, #100
  68 001e 2046     		mov	r0, r4
  69 0020 FFF7FEFF 		bl	memset
  70              	.LVL4:
  71 0024 2046     		mov	r0, r4
  72 0026 FFF7FEFF 		bl	strlen
  73              	.LVL5:
  74 002a 8B4D     		ldr	r5, .L14
  75 002c 0246     		mov	r2, r0
  76 002e 03CD     		ldmia	r5!, {r0, r1}
  77 0030 2E46     		mov	r6, r5
  78 0032 A318     		adds	r3, r4, r2
  79 0034 16F808A9 		ldrb	sl, [r6], #-8	@ zero_extendqisi2
  80 0038 A050     		str	r0, [r4, r2]	@ unaligned
  81 003a 5960     		str	r1, [r3, #4]	@ unaligned
  82 003c 83F808A0 		strb	sl, [r3, #8]
  83 0040 6422     		movs	r2, #100
  84 0042 3946     		mov	r1, r7
  85 0044 2046     		mov	r0, r4
  86 0046 FFF7FEFF 		bl	strlcat
  87              	.LVL6:
  88 004a 6422     		movs	r2, #100
  89 004c 2046     		mov	r0, r4
  90 004e 8349     		ldr	r1, .L14+4
  91 0050 FFF7FEFF 		bl	strlcat
  92              	.LVL7:
  93              		.loc 1 40 0
  94 0054 2046     		mov	r0, r4
  95 0056 8249     		ldr	r1, .L14+8
  96 0058 FFF7FEFF 		bl	gfileOpen
  97              	.LVL8:
  98              		.loc 1 42 0
  99 005c 0021     		movs	r1, #0
 100 005e 6422     		movs	r2, #100
 101              		.loc 1 40 0
 102 0060 8146     		mov	r9, r0
 103              	.LVL9:
 104              		.loc 1 42 0
 105 0062 2046     		mov	r0, r4
 106              	.LVL10:
 107 0064 FFF7FEFF 		bl	memset
 108              	.LVL11:
 109 0068 2046     		mov	r0, r4
 110 006a FFF7FEFF 		bl	strlen
 111              	.LVL12:
 112 006e 0246     		mov	r2, r0
 113 0070 03CE     		ldmia	r6!, {r0, r1}
 114 0072 A618     		adds	r6, r4, r2
ARM GAS  C:\Users\Elis\AppData\Local\Temp\ccBJUGFO.s 			page 3


 115 0074 A050     		str	r0, [r4, r2]	@ unaligned
 116 0076 6422     		movs	r2, #100
 117 0078 7160     		str	r1, [r6, #4]	@ unaligned
 118 007a 2046     		mov	r0, r4
 119 007c 3946     		mov	r1, r7
 120 007e 86F808A0 		strb	sl, [r6, #8]
 121 0082 FFF7FEFF 		bl	strlcat
 122              	.LVL13:
 123 0086 6422     		movs	r2, #100
 124 0088 2046     		mov	r0, r4
 125 008a 7649     		ldr	r1, .L14+12
 126 008c FFF7FEFF 		bl	strlcat
 127              	.LVL14:
 128              		.loc 1 44 0
 129 0090 2046     		mov	r0, r4
 130 0092 7349     		ldr	r1, .L14+8
 131 0094 FFF7FEFF 		bl	gfileOpen
 132              	.LVL15:
 133              		.loc 1 46 0
 134 0098 0021     		movs	r1, #0
 135 009a 6422     		movs	r2, #100
 136              		.loc 1 44 0
 137 009c 8346     		mov	fp, r0
 138              	.LVL16:
 139              		.loc 1 46 0
 140 009e 2046     		mov	r0, r4
 141              	.LVL17:
 142 00a0 FFF7FEFF 		bl	memset
 143              	.LVL18:
 144 00a4 2046     		mov	r0, r4
 145 00a6 FFF7FEFF 		bl	strlen
 146              	.LVL19:
 147 00aa 083D     		subs	r5, r5, #8
 148 00ac 0246     		mov	r2, r0
 149 00ae 03CD     		ldmia	r5!, {r0, r1}
 150 00b0 A518     		adds	r5, r4, r2
 151 00b2 A050     		str	r0, [r4, r2]	@ unaligned
 152 00b4 6422     		movs	r2, #100
 153 00b6 6960     		str	r1, [r5, #4]	@ unaligned
 154 00b8 2046     		mov	r0, r4
 155 00ba 3946     		mov	r1, r7
 156 00bc 85F808A0 		strb	sl, [r5, #8]
 157 00c0 FFF7FEFF 		bl	strlcat
 158              	.LVL20:
 159 00c4 6422     		movs	r2, #100
 160 00c6 2046     		mov	r0, r4
 161 00c8 6749     		ldr	r1, .L14+16
 162 00ca FFF7FEFF 		bl	strlcat
 163              	.LVL21:
 164              		.loc 1 48 0
 165 00ce 2046     		mov	r0, r4
 166 00d0 6349     		ldr	r1, .L14+8
 167 00d2 FFF7FEFF 		bl	gfileOpen
 168              	.LVL22:
 169              		.loc 1 58 0
 170 00d6 654B     		ldr	r3, .L14+20
 171              		.loc 1 53 0
ARM GAS  C:\Users\Elis\AppData\Local\Temp\ccBJUGFO.s 			page 4


 172 00d8 0027     		movs	r7, #0
 173              	.LVL23:
 174              		.loc 1 48 0
 175 00da 8246     		mov	sl, r0
 176              	.LVL24:
 177              		.loc 1 56 0
 178 00dc 4FF4A074 		mov	r4, #320
 179              		.loc 1 52 0
 180 00e0 0120     		movs	r0, #1
 181              	.LVL25:
 182              		.loc 1 55 0
 183 00e2 F021     		movs	r1, #240
 184              		.loc 1 52 0
 185 00e4 8DF81400 		strb	r0, [sp, #20]
 186              		.loc 1 53 0
 187 00e8 ADF80C70 		strh	r7, [sp, #12]	@ movhi
 188              		.loc 1 54 0
 189 00ec ADF80E70 		strh	r7, [sp, #14]	@ movhi
 190              		.loc 1 55 0
 191 00f0 ADF81010 		strh	r1, [sp, #16]	@ movhi
 192              		.loc 1 56 0
 193 00f4 ADF81240 		strh	r4, [sp, #18]	@ movhi
 194              		.loc 1 57 0
 195 00f8 0697     		str	r7, [sp, #24]
 196              		.loc 1 58 0
 197 00fa 0793     		str	r3, [sp, #28]
 198              		.loc 1 60 0
 199 00fc B9F1000F 		cmp	r9, #0
 200 0100 00F09080 		beq	.L11
 201              		.loc 1 69 0
 202 0104 5A4E     		ldr	r6, .L14+24
 203 0106 4946     		mov	r1, r9
 204 0108 3046     		mov	r0, r6
 205 010a FFF7FEFF 		bl	gdispImageOpenGFile
 206              	.LVL26:
 207              		.loc 1 70 0
 208 010e 594A     		ldr	r2, .L14+28
 209              		.loc 1 71 0
 210 0110 0996     		str	r6, [sp, #36]
 211              		.loc 1 70 0
 212 0112 0892     		str	r2, [sp, #32]
 213              		.loc 1 72 0
 214 0114 0A97     		str	r7, [sp, #40]
 215              	.L3:
 216              		.loc 1 76 0
 217 0116 584D     		ldr	r5, .L14+32
 218 0118 DFF88C91 		ldr	r9, .L14+80
 219              	.LVL27:
 220 011c 2868     		ldr	r0, [r5, #0]
 221              		.loc 1 86 0
 222 011e 574E     		ldr	r6, .L14+36
 223              		.loc 1 91 0
 224 0120 574F     		ldr	r7, .L14+40
 225              		.loc 1 76 0
 226 0122 0021     		movs	r1, #0
 227 0124 0B46     		mov	r3, r1
 228 0126 03AA     		add	r2, sp, #12
ARM GAS  C:\Users\Elis\AppData\Local\Temp\ccBJUGFO.s 			page 5


 229              		.loc 1 87 0
 230 0128 0C46     		mov	r4, r1
 231              		.loc 1 76 0
 232 012a FFF7FEFF 		bl	gwinGContainerCreate
 233              	.LVL28:
 234              		.loc 1 80 0
 235 012e 4FF0010C 		mov	ip, #1
 236 0132 8DF814C0 		strb	ip, [sp, #20]
 237              		.loc 1 83 0
 238 0136 4FF0DC0C 		mov	ip, #220
 239              		.loc 1 81 0
 240 013a 0A23     		movs	r3, #10
 241              		.loc 1 76 0
 242 013c 8646     		mov	lr, r0
 243              		.loc 1 91 0
 244 013e 2146     		mov	r1, r4
 245 0140 2868     		ldr	r0, [r5, #0]
 246              		.loc 1 83 0
 247 0142 ADF810C0 		strh	ip, [sp, #16]	@ movhi
 248              		.loc 1 91 0
 249 0146 03AA     		add	r2, sp, #12
 250              		.loc 1 84 0
 251 0148 4FF0140C 		mov	ip, #20
 252              		.loc 1 76 0
 253 014c C9F800E0 		str	lr, [r9, #0]
 254              		.loc 1 81 0
 255 0150 ADF80E30 		strh	r3, [sp, #14]	@ movhi
 256              		.loc 1 82 0
 257 0154 ADF80C30 		strh	r3, [sp, #12]	@ movhi
 258              		.loc 1 91 0
 259 0158 0093     		str	r3, [sp, #0]
 260              		.loc 1 84 0
 261 015a ADF812C0 		strh	ip, [sp, #18]	@ movhi
 262              		.loc 1 85 0
 263 015e CDF818E0 		str	lr, [sp, #24]
 264              		.loc 1 86 0
 265 0162 0796     		str	r6, [sp, #28]
 266              		.loc 1 87 0
 267 0164 0894     		str	r4, [sp, #32]
 268              		.loc 1 88 0
 269 0166 0994     		str	r4, [sp, #36]
 270              		.loc 1 89 0
 271 0168 0A94     		str	r4, [sp, #40]
 272              		.loc 1 91 0
 273 016a FFF7FEFF 		bl	gwinGLabelCreate
 274              	.LVL29:
 275 016e 3860     		str	r0, [r7, #0]
 276              		.loc 1 110 0
 277 0170 0098     		ldr	r0, [sp, #0]
 278              		.loc 1 114 0
 279 0172 D9F80010 		ldr	r1, [r9, #0]
 280              		.loc 1 110 0
 281 0176 ADF80C00 		strh	r0, [sp, #12]	@ movhi
 282              		.loc 1 99 0
 283 017a A045     		cmp	r8, r4
 284 017c 18BF     		it	ne
 285 017e 4FF00108 		movne	r8, #1
ARM GAS  C:\Users\Elis\AppData\Local\Temp\ccBJUGFO.s 			page 6


 286              		.loc 1 111 0
 287 0182 E422     		movs	r2, #228
 288              		.loc 1 112 0
 289 0184 6423     		movs	r3, #100
 290              		.loc 1 113 0
 291 0186 4820     		movs	r0, #72
 292              		.loc 1 99 0
 293 0188 8DF81480 		strb	r8, [sp, #20]
 294              		.loc 1 111 0
 295 018c ADF80E20 		strh	r2, [sp, #14]	@ movhi
 296              		.loc 1 112 0
 297 0190 ADF81030 		strh	r3, [sp, #16]	@ movhi
 298              		.loc 1 113 0
 299 0194 ADF81200 		strh	r0, [sp, #18]	@ movhi
 300              		.loc 1 114 0
 301 0198 0691     		str	r1, [sp, #24]
 302              		.loc 1 116 0
 303 019a BBF1000F 		cmp	fp, #0
 304 019e 48D0     		beq	.L12
 305              		.loc 1 125 0
 306 01a0 DFF80881 		ldr	r8, .L14+84
 307 01a4 5946     		mov	r1, fp
 308 01a6 4046     		mov	r0, r8
 309 01a8 FFF7FEFF 		bl	gdispImageOpenGFile
 310              	.LVL30:
 311              		.loc 1 126 0
 312 01ac 3549     		ldr	r1, .L14+44
 313              		.loc 1 127 0
 314 01ae CDF82480 		str	r8, [sp, #36]
 315              		.loc 1 126 0
 316 01b2 0891     		str	r1, [sp, #32]
 317              		.loc 1 128 0
 318 01b4 0A94     		str	r4, [sp, #40]
 319              		.loc 1 129 0
 320 01b6 0796     		str	r6, [sp, #28]
 321              	.L7:
 322              		.loc 1 133 0
 323 01b8 0021     		movs	r1, #0
 324 01ba 03AA     		add	r2, sp, #12
 325 01bc 2868     		ldr	r0, [r5, #0]
 326 01be FFF7FEFF 		bl	gwinGButtonCreate
 327              	.LVL31:
 328 01c2 3149     		ldr	r1, .L14+48
 329              		.loc 1 137 0
 330 01c4 0122     		movs	r2, #1
 331              		.loc 1 133 0
 332 01c6 0860     		str	r0, [r1, #0]
 333              		.loc 1 137 0
 334 01c8 8DF81420 		strb	r2, [sp, #20]
 335              		.loc 1 138 0
 336 01cc 8223     		movs	r3, #130
 337              		.loc 1 139 0
 338 01ce E420     		movs	r0, #228
 339              		.loc 1 140 0
 340 01d0 6421     		movs	r1, #100
 341              		.loc 1 141 0
 342 01d2 4822     		movs	r2, #72
ARM GAS  C:\Users\Elis\AppData\Local\Temp\ccBJUGFO.s 			page 7


 343              		.loc 1 138 0
 344 01d4 ADF80C30 		strh	r3, [sp, #12]	@ movhi
 345              		.loc 1 139 0
 346 01d8 ADF80E00 		strh	r0, [sp, #14]	@ movhi
 347              		.loc 1 140 0
 348 01dc ADF81010 		strh	r1, [sp, #16]	@ movhi
 349              		.loc 1 141 0
 350 01e0 ADF81220 		strh	r2, [sp, #18]	@ movhi
 351              		.loc 1 143 0
 352 01e4 BAF1000F 		cmp	sl, #0
 353 01e8 2CD0     		beq	.L13
 354              		.loc 1 153 0
 355 01ea 284C     		ldr	r4, .L14+52
 356 01ec 5146     		mov	r1, sl
 357 01ee 2046     		mov	r0, r4
 358 01f0 FFF7FEFF 		bl	gdispImageOpenGFile
 359              	.LVL32:
 360              		.loc 1 154 0
 361 01f4 234B     		ldr	r3, .L14+44
 362              		.loc 1 155 0
 363 01f6 0994     		str	r4, [sp, #36]
 364              		.loc 1 156 0
 365 01f8 0020     		movs	r0, #0
 366              		.loc 1 154 0
 367 01fa 0893     		str	r3, [sp, #32]
 368              		.loc 1 156 0
 369 01fc 0A90     		str	r0, [sp, #40]
 370              		.loc 1 157 0
 371 01fe 0796     		str	r6, [sp, #28]
 372              	.L9:
 373              		.loc 1 161 0
 374 0200 0021     		movs	r1, #0
 375 0202 03AA     		add	r2, sp, #12
 376 0204 2868     		ldr	r0, [r5, #0]
 377 0206 FFF7FEFF 		bl	gwinGButtonCreate
 378              	.LVL33:
 379 020a 214A     		ldr	r2, .L14+56
 380              		.loc 1 165 0
 381 020c 0199     		ldr	r1, [sp, #4]
 382              		.loc 1 161 0
 383 020e 1060     		str	r0, [r2, #0]
 384              		.loc 1 165 0
 385 0210 3868     		ldr	r0, [r7, #0]
 386 0212 0122     		movs	r2, #1
 387 0214 FFF7FEFF 		bl	gwinSetText
 388              	.LVL34:
 389              		.loc 1 169 0
 390 0218 4020     		movs	r0, #64
 391 021a FFF7FEFF 		bl	chThdSetPriority
 392              	.LVL35:
 393              		.loc 1 171 0
 394 021e 25B0     		add	sp, sp, #148
 395 0220 BDE8F08F 		pop	{r4, r5, r6, r7, r8, r9, sl, fp, pc}
 396              	.LVL36:
 397              	.L11:
 398              		.loc 1 62 0
 399 0224 1B4D     		ldr	r5, .L14+60
ARM GAS  C:\Users\Elis\AppData\Local\Temp\ccBJUGFO.s 			page 8


 400              		.loc 1 63 0
 401 0226 1C4F     		ldr	r7, .L14+64
 402              		.loc 1 62 0
 403 0228 0895     		str	r5, [sp, #32]
 404              		.loc 1 63 0
 405 022a 0A97     		str	r7, [sp, #40]
 406              		.loc 1 64 0
 407 022c CDF82490 		str	r9, [sp, #36]
 408 0230 71E7     		b	.L3
 409              	.LVL37:
 410              	.L12:
 411              		.loc 1 118 0
 412 0232 1A4A     		ldr	r2, .L14+68
 413              		.loc 1 119 0
 414 0234 184B     		ldr	r3, .L14+64
 415              		.loc 1 121 0
 416 0236 1A48     		ldr	r0, .L14+72
 417              		.loc 1 118 0
 418 0238 0892     		str	r2, [sp, #32]
 419              		.loc 1 119 0
 420 023a 0A93     		str	r3, [sp, #40]
 421              		.loc 1 120 0
 422 023c CDF824B0 		str	fp, [sp, #36]
 423              		.loc 1 121 0
 424 0240 0790     		str	r0, [sp, #28]
 425 0242 B9E7     		b	.L7
 426              	.L13:
 427              		.loc 1 145 0
 428 0244 1549     		ldr	r1, .L14+68
 429              		.loc 1 146 0
 430 0246 144A     		ldr	r2, .L14+64
 431              		.loc 1 148 0
 432 0248 164B     		ldr	r3, .L14+76
 433              		.loc 1 145 0
 434 024a 0891     		str	r1, [sp, #32]
 435              		.loc 1 146 0
 436 024c 0A92     		str	r2, [sp, #40]
 437              		.loc 1 147 0
 438 024e CDF824A0 		str	sl, [sp, #36]
 439              		.loc 1 148 0
 440 0252 0793     		str	r3, [sp, #28]
 441 0254 D4E7     		b	.L9
 442              	.L15:
 443 0256 00BF     		.align	2
 444              	.L14:
 445 0258 00000000 		.word	.LC0
 446 025c 0C000000 		.word	.LC1
 447 0260 28000000 		.word	.LC2
 448 0264 2C000000 		.word	.LC3
 449 0268 40000000 		.word	.LC4
 450 026c 54000000 		.word	.LC5
 451 0270 00000000 		.word	.LANCHOR0
 452 0274 00000000 		.word	gwinContainerDraw_Image
 453 0278 00000000 		.word	GDISP
 454 027c 60000000 		.word	.LC6
 455 0280 00000000 		.word	.LANCHOR2
 456 0284 00000000 		.word	gwinButtonDraw_Image
ARM GAS  C:\Users\Elis\AppData\Local\Temp\ccBJUGFO.s 			page 9


 457 0288 00000000 		.word	.LANCHOR4
 458 028c 00000000 		.word	.LANCHOR5
 459 0290 00000000 		.word	.LANCHOR6
 460 0294 00000000 		.word	gwinContainerDraw_Std
 461 0298 00000000 		.word	WhiteWidgetStyle
 462 029c 00000000 		.word	gwinButtonDraw_Normal
 463 02a0 64000000 		.word	.LC7
 464 02a4 6C000000 		.word	.LC8
 465 02a8 00000000 		.word	.LANCHOR1
 466 02ac 00000000 		.word	.LANCHOR3
 467              		.cfi_endproc
 468              	.LFE118:
 469              		.size	createCallScreen, .-createCallScreen
 470              		.section	.text.destroyCallScreen,"ax",%progbits
 471              		.align	2
 472              		.p2align 4,,15
 473              		.global	destroyCallScreen
 474              		.thumb
 475              		.thumb_func
 476              		.type	destroyCallScreen, %function
 477              	destroyCallScreen:
 478              	.LFB119:
 479              		.loc 1 173 0
 480              		.cfi_startproc
 481              		@ args = 0, pretend = 0, frame = 0
 482              		@ frame_needed = 0, uses_anonymous_args = 0
 483 0000 08B5     		push	{r3, lr}
 484              	.LCFI2:
 485              		.cfi_def_cfa_offset 8
 486              		.cfi_offset 3, -8
 487              		.cfi_offset 14, -4
 488              		.loc 1 177 0
 489 0002 7F20     		movs	r0, #127
 490 0004 FFF7FEFF 		bl	chThdSetPriority
 491              	.LVL38:
 492              		.loc 1 181 0
 493 0008 40F20000 		movw	r0, #:lower16:.LANCHOR0
 494 000c C0F20000 		movt	r0, #:upper16:.LANCHOR0
 495 0010 FFF7FEFF 		bl	gdispImageClose
 496              	.LVL39:
 497              		.loc 1 183 0
 498 0014 40F20000 		movw	r0, #:lower16:.LANCHOR3
 499 0018 C0F20000 		movt	r0, #:upper16:.LANCHOR3
 500 001c FFF7FEFF 		bl	gdispImageClose
 501              	.LVL40:
 502              		.loc 1 185 0
 503 0020 40F20000 		movw	r0, #:lower16:.LANCHOR5
 504 0024 C0F20000 		movt	r0, #:upper16:.LANCHOR5
 505 0028 FFF7FEFF 		bl	gdispImageClose
 506              	.LVL41:
 507              		.loc 1 189 0
 508 002c 40F20003 		movw	r3, #:lower16:.LANCHOR1
 509 0030 C0F20003 		movt	r3, #:upper16:.LANCHOR1
 510 0034 1868     		ldr	r0, [r3, #0]
 511 0036 FFF7FEFF 		bl	gwinDestroy
 512              	.LVL42:
 513              		.loc 1 193 0
ARM GAS  C:\Users\Elis\AppData\Local\Temp\ccBJUGFO.s 			page 10


 514 003a 40F20002 		movw	r2, #:lower16:.LANCHOR4
 515              		.loc 1 195 0
 516 003e 40F20003 		movw	r3, #:lower16:.LANCHOR6
 517              		.loc 1 193 0
 518 0042 C0F20002 		movt	r2, #:upper16:.LANCHOR4
 519              		.loc 1 195 0
 520 0046 C0F20003 		movt	r3, #:upper16:.LANCHOR6
 521              		.loc 1 193 0
 522 004a 0021     		movs	r1, #0
 523              		.loc 1 199 0
 524 004c 4020     		movs	r0, #64
 525              		.loc 1 193 0
 526 004e 1160     		str	r1, [r2, #0]
 527              		.loc 1 195 0
 528 0050 1960     		str	r1, [r3, #0]
 529              		.loc 1 201 0
 530 0052 BDE80840 		pop	{r3, lr}
 531              		.loc 1 199 0
 532 0056 FFF7FEBF 		b	chThdSetPriority
 533              	.LVL43:
 534              		.cfi_endproc
 535              	.LFE119:
 536              		.size	destroyCallScreen, .-destroyCallScreen
 537              		.global	decline_call_b
 538              		.global	accept_call_b
 539 005a 00BFAFF3 		.section	.bss.caller_l,"aw",%nobits
 539      0080
 540              		.align	2
 541              		.set	.LANCHOR2,. + 0
 542              		.type	caller_l, %object
 543              		.size	caller_l, 4
 544              	caller_l:
 545 0000 00000000 		.space	4
 546              		.section	.bss.decline_call_b,"aw",%nobits
 547              		.align	2
 548              		.set	.LANCHOR6,. + 0
 549              		.type	decline_call_b, %object
 550              		.size	decline_call_b, 4
 551              	decline_call_b:
 552 0000 00000000 		.space	4
 553              		.section	.bss.mainContainer_c,"aw",%nobits
 554              		.align	2
 555              		.set	.LANCHOR1,. + 0
 556              		.type	mainContainer_c, %object
 557              		.size	mainContainer_c, 4
 558              	mainContainer_c:
 559 0000 00000000 		.space	4
 560              		.section	.rodata.str1.4,"aMS",%progbits,1
 561              		.align	2
 562              	.LC0:
 563 0000 2F746865 		.ascii	"/themes/\000"
 563      6D65732F 
 563      00
 564 0009 000000   		.space	3
 565              	.LC1:
 566 000c 2F626163 		.ascii	"/background/background.gif\000"
 566      6B67726F 
ARM GAS  C:\Users\Elis\AppData\Local\Temp\ccBJUGFO.s 			page 11


 566      756E642F 
 566      6261636B 
 566      67726F75 
 567 0027 00       		.space	1
 568              	.LC2:
 569 0028 726200   		.ascii	"rb\000"
 570 002b 00       		.space	1
 571              	.LC3:
 572 002c 2F69636F 		.ascii	"/icons/accept.gif\000"
 572      6E732F61 
 572      63636570 
 572      742E6769 
 572      6600
 573 003e 0000     		.space	2
 574              	.LC4:
 575 0040 2F69636F 		.ascii	"/icons/decline.gif\000"
 575      6E732F64 
 575      65636C69 
 575      6E652E67 
 575      696600
 576 0053 00       		.space	1
 577              	.LC5:
 578 0054 436F6E74 		.ascii	"Container\000"
 578      61696E65 
 578      7200
 579 005e 0000     		.space	2
 580              	.LC6:
 581 0060 00       		.ascii	"\000"
 582 0061 000000   		.space	3
 583              	.LC7:
 584 0064 41636365 		.ascii	"Accept\000"
 584      707400
 585 006b 00       		.space	1
 586              	.LC8:
 587 006c 4465636C 		.ascii	"Decline\000"
 587      696E6500 
 588              		.section	.bss.accept_p,"aw",%nobits
 589              		.align	2
 590              		.set	.LANCHOR3,. + 0
 591              		.type	accept_p, %object
 592              		.size	accept_p, 24
 593              	accept_p:
 594 0000 00000000 		.space	24
 594      00000000 
 594      00000000 
 594      00000000 
 594      00000000 
 595              		.section	.bss.background_p,"aw",%nobits
 596              		.align	2
 597              		.set	.LANCHOR0,. + 0
 598              		.type	background_p, %object
 599              		.size	background_p, 24
 600              	background_p:
 601 0000 00000000 		.space	24
 601      00000000 
 601      00000000 
 601      00000000 
ARM GAS  C:\Users\Elis\AppData\Local\Temp\ccBJUGFO.s 			page 12


 601      00000000 
 602              		.section	.bss.decline_p,"aw",%nobits
 603              		.align	2
 604              		.set	.LANCHOR5,. + 0
 605              		.type	decline_p, %object
 606              		.size	decline_p, 24
 607              	decline_p:
 608 0000 00000000 		.space	24
 608      00000000 
 608      00000000 
 608      00000000 
 608      00000000 
 609              		.section	.bss.accept_call_b,"aw",%nobits
 610              		.align	2
 611              		.set	.LANCHOR4,. + 0
 612              		.type	accept_call_b, %object
 613              		.size	accept_call_b, 4
 614              	accept_call_b:
 615 0000 00000000 		.space	4
 616              		.text
 617              	.Letext0:
 618              		.file 2 "c:\\chibistudio\\tools\\gnu tools arm embedded\\4.7 2014q2\\bin\\../lib/gcc/arm-none-eabi
 619              		.file 3 "c:\\chibistudio\\tools\\gnu tools arm embedded\\4.7 2014q2\\bin\\../lib/gcc/arm-none-eabi
 620              		.file 4 "../../chibios/os/ports/GCC/ARMCMx/chtypes.h"
 621              		.file 5 "../../ugfx/src/gfile/gfile.h"
 622              		.file 6 "../../ugfx/src/gqueue/gqueue.h"
 623              		.file 7 "../../ugfx/src/gdisp/gdisp.h"
 624              		.file 8 "../../ugfx/src/gdisp/gdisp_colors.h"
 625              		.file 9 "../../ugfx/src/gdisp/gdisp_image.h"
 626              		.file 10 "../../ugfx/src/gwin/gwin.h"
 627              		.file 11 "../../ugfx/src/gwin/gwin_widget.h"
 628              		.file 12 "../../ugfx/src/gwin/gwin_button.h"
 629              		.file 13 "../../ugfx/src/gwin/gwin_label.h"
 630              		.file 14 "../../ugfx/src/gwin/gwin_container.h"
 631              		.file 15 "../../chibios/os/ports/common/ARMCMx/CMSIS/include/core_cm4.h"
 632              		.file 16 "../../chibios/os/kernel/include/chthreads.h"
 633              		.file 17 "c:\\chibistudio\\tools\\gnu tools arm embedded\\4.7 2014q2\\bin\\../lib/gcc/arm-none-eab
 634              		.file 18 "<built-in>"