ARM GAS  C:\Users\Elis\AppData\Local\Temp\ccPAW6Bf.s 			page 1


   1              		.syntax unified
   2              		.cpu cortex-m4
   3              		.fpu softvfp
   4              		.eabi_attribute 20, 1
   5              		.eabi_attribute 21, 1
   6              		.eabi_attribute 23, 3
   7              		.eabi_attribute 24, 1
   8              		.eabi_attribute 25, 1
   9              		.eabi_attribute 26, 1
  10              		.eabi_attribute 30, 2
  11              		.eabi_attribute 34, 1
  12              		.eabi_attribute 18, 4
  13              		.thumb
  14              		.file	"callsScreen.c"
  15              		.text
  16              	.Ltext0:
  17              		.cfi_sections	.debug_frame
  18              		.section	.text.createCallsScreen,"ax",%progbits
  19              		.align	2
  20              		.p2align 4,,15
  21              		.global	createCallsScreen
  22              		.thumb
  23              		.thumb_func
  24              		.type	createCallsScreen, %function
  25              	createCallsScreen:
  26              	.LFB118:
  27              		.file 1 "../../workspace26/Mobile_phone/gui/callsScreen.c"
  28              		.loc 1 32 0
  29              		.cfi_startproc
  30              		@ args = 0, pretend = 0, frame = 152
  31              		@ frame_needed = 0, uses_anonymous_args = 0
  32              	.LVL0:
  33 0000 2DE9F04F 		push	{r4, r5, r6, r7, r8, r9, sl, fp, lr}
  34              	.LCFI0:
  35              		.cfi_def_cfa_offset 36
  36              		.cfi_offset 4, -36
  37              		.cfi_offset 5, -32
  38              		.cfi_offset 6, -28
  39              		.cfi_offset 7, -24
  40              		.cfi_offset 8, -20
  41              		.cfi_offset 9, -16
  42              		.cfi_offset 10, -12
  43              		.cfi_offset 11, -8
  44              		.cfi_offset 14, -4
  45 0004 A7B0     		sub	sp, sp, #156
  46              	.LCFI1:
  47              		.cfi_def_cfa_offset 192
  48              		.loc 1 32 0
  49 0006 8046     		mov	r8, r0
  50              		.loc 1 47 0
  51 0008 05A8     		add	r0, sp, #20
  52              	.LVL1:
  53              		.loc 1 55 0
  54 000a 0DAC     		add	r4, sp, #52
  55              		.loc 1 32 0
  56 000c 0391     		str	r1, [sp, #12]
  57 000e 1546     		mov	r5, r2
ARM GAS  C:\Users\Elis\AppData\Local\Temp\ccPAW6Bf.s 			page 2


  58              		.loc 1 47 0
  59 0010 FFF7FEFF 		bl	gwinWidgetClearInit
  60              	.LVL2:
  61              		.loc 1 51 0
  62 0014 7F20     		movs	r0, #127
  63 0016 FFF7FEFF 		bl	chThdSetPriority
  64              	.LVL3:
  65              		.loc 1 55 0
  66 001a 0021     		movs	r1, #0
  67 001c 6422     		movs	r2, #100
  68 001e 2046     		mov	r0, r4
  69 0020 FFF7FEFF 		bl	memset
  70              	.LVL4:
  71 0024 2046     		mov	r0, r4
  72 0026 FFF7FEFF 		bl	strlen
  73              	.LVL5:
  74 002a B84E     		ldr	r6, .L28
  75 002c 0246     		mov	r2, r0
  76 002e 03CE     		ldmia	r6!, {r0, r1}
  77 0030 B146     		mov	r9, r6
  78 0032 A318     		adds	r3, r4, r2
  79 0034 19F80879 		ldrb	r7, [r9], #-8	@ zero_extendqisi2
  80 0038 A050     		str	r0, [r4, r2]	@ unaligned
  81 003a 5960     		str	r1, [r3, #4]	@ unaligned
  82 003c 1F72     		strb	r7, [r3, #8]
  83 003e 6422     		movs	r2, #100
  84 0040 2046     		mov	r0, r4
  85 0042 4146     		mov	r1, r8
  86 0044 FFF7FEFF 		bl	strlcat
  87              	.LVL6:
  88 0048 6422     		movs	r2, #100
  89 004a 2046     		mov	r0, r4
  90 004c B049     		ldr	r1, .L28+4
  91 004e FFF7FEFF 		bl	strlcat
  92              	.LVL7:
  93              		.loc 1 57 0
  94 0052 2046     		mov	r0, r4
  95 0054 AF49     		ldr	r1, .L28+8
  96 0056 FFF7FEFF 		bl	gfileOpen
  97              	.LVL8:
  98              		.loc 1 59 0
  99 005a 0021     		movs	r1, #0
 100              		.loc 1 57 0
 101 005c 0346     		mov	r3, r0
 102              	.LVL9:
 103              		.loc 1 59 0
 104 005e 6422     		movs	r2, #100
 105 0060 2046     		mov	r0, r4
 106              	.LVL10:
 107 0062 0193     		str	r3, [sp, #4]
 108 0064 FFF7FEFF 		bl	memset
 109              	.LVL11:
 110 0068 2046     		mov	r0, r4
 111 006a FFF7FEFF 		bl	strlen
 112              	.LVL12:
 113 006e 0246     		mov	r2, r0
 114 0070 B9E80300 		ldmia	r9!, {r0, r1}
ARM GAS  C:\Users\Elis\AppData\Local\Temp\ccPAW6Bf.s 			page 3


 115 0074 04EB020E 		add	lr, r4, r2
 116 0078 A050     		str	r0, [r4, r2]	@ unaligned
 117 007a CEF80410 		str	r1, [lr, #4]	@ unaligned
 118 007e 8EF80870 		strb	r7, [lr, #8]
 119 0082 6422     		movs	r2, #100
 120 0084 2046     		mov	r0, r4
 121 0086 4146     		mov	r1, r8
 122 0088 FFF7FEFF 		bl	strlcat
 123              	.LVL13:
 124 008c 6422     		movs	r2, #100
 125 008e 2046     		mov	r0, r4
 126 0090 A149     		ldr	r1, .L28+12
 127 0092 FFF7FEFF 		bl	strlcat
 128              	.LVL14:
 129              		.loc 1 61 0
 130 0096 2046     		mov	r0, r4
 131 0098 9E49     		ldr	r1, .L28+8
 132 009a FFF7FEFF 		bl	gfileOpen
 133              	.LVL15:
 134              		.loc 1 63 0
 135 009e 0021     		movs	r1, #0
 136 00a0 6422     		movs	r2, #100
 137              		.loc 1 61 0
 138 00a2 8346     		mov	fp, r0
 139              	.LVL16:
 140              		.loc 1 63 0
 141 00a4 2046     		mov	r0, r4
 142              	.LVL17:
 143 00a6 FFF7FEFF 		bl	memset
 144              	.LVL18:
 145 00aa 2046     		mov	r0, r4
 146 00ac FFF7FEFF 		bl	strlen
 147              	.LVL19:
 148 00b0 A6F10803 		sub	r3, r6, #8
 149 00b4 8446     		mov	ip, r0
 150 00b6 03CB     		ldmia	r3!, {r0, r1}
 151 00b8 04EB0C0A 		add	sl, r4, ip
 152 00bc 44F80C00 		str	r0, [r4, ip]	@ unaligned
 153 00c0 6422     		movs	r2, #100
 154 00c2 CAF80410 		str	r1, [sl, #4]	@ unaligned
 155 00c6 8AF80870 		strb	r7, [sl, #8]
 156 00ca 2046     		mov	r0, r4
 157 00cc 4146     		mov	r1, r8
 158 00ce FFF7FEFF 		bl	strlcat
 159              	.LVL20:
 160 00d2 6422     		movs	r2, #100
 161 00d4 2046     		mov	r0, r4
 162 00d6 9149     		ldr	r1, .L28+16
 163 00d8 FFF7FEFF 		bl	strlcat
 164              	.LVL21:
 165              		.loc 1 65 0
 166 00dc 2046     		mov	r0, r4
 167 00de 8D49     		ldr	r1, .L28+8
 168 00e0 FFF7FEFF 		bl	gfileOpen
 169              	.LVL22:
 170              		.loc 1 67 0
 171 00e4 0021     		movs	r1, #0
ARM GAS  C:\Users\Elis\AppData\Local\Temp\ccPAW6Bf.s 			page 4


 172 00e6 6422     		movs	r2, #100
 173              		.loc 1 65 0
 174 00e8 8246     		mov	sl, r0
 175              	.LVL23:
 176              		.loc 1 67 0
 177 00ea 2046     		mov	r0, r4
 178              	.LVL24:
 179 00ec FFF7FEFF 		bl	memset
 180              	.LVL25:
 181 00f0 2046     		mov	r0, r4
 182 00f2 FFF7FEFF 		bl	strlen
 183              	.LVL26:
 184 00f6 083E     		subs	r6, r6, #8
 185 00f8 0246     		mov	r2, r0
 186 00fa 03CE     		ldmia	r6!, {r0, r1}
 187 00fc A618     		adds	r6, r4, r2
 188 00fe A050     		str	r0, [r4, r2]	@ unaligned
 189 0100 6422     		movs	r2, #100
 190 0102 7160     		str	r1, [r6, #4]	@ unaligned
 191 0104 2046     		mov	r0, r4
 192 0106 4146     		mov	r1, r8
 193 0108 3772     		strb	r7, [r6, #8]
 194 010a FFF7FEFF 		bl	strlcat
 195              	.LVL27:
 196 010e 2046     		mov	r0, r4
 197 0110 8349     		ldr	r1, .L28+20
 198 0112 6422     		movs	r2, #100
 199 0114 FFF7FEFF 		bl	strlcat
 200              	.LVL28:
 201              		.loc 1 69 0
 202 0118 2046     		mov	r0, r4
 203 011a 7E49     		ldr	r1, .L28+8
 204 011c FFF7FEFF 		bl	gfileOpen
 205              	.LVL29:
 206 0120 0290     		str	r0, [sp, #8]
 207              	.LVL30:
 208              		.loc 1 73 0
 209 0122 0120     		movs	r0, #1
 210              	.LVL31:
 211 0124 8DF81C00 		strb	r0, [sp, #28]
 212              		.loc 1 79 0
 213 0128 7E4B     		ldr	r3, .L28+24
 214              		.loc 1 81 0
 215 012a 0198     		ldr	r0, [sp, #4]
 216              		.loc 1 79 0
 217 012c 0993     		str	r3, [sp, #36]
 218              		.loc 1 74 0
 219 012e 0024     		movs	r4, #0
 220              		.loc 1 76 0
 221 0130 F021     		movs	r1, #240
 222              		.loc 1 77 0
 223 0132 4FF4A077 		mov	r7, #320
 224              		.loc 1 74 0
 225 0136 ADF81440 		strh	r4, [sp, #20]	@ movhi
 226              		.loc 1 75 0
 227 013a ADF81640 		strh	r4, [sp, #22]	@ movhi
 228              		.loc 1 76 0
ARM GAS  C:\Users\Elis\AppData\Local\Temp\ccPAW6Bf.s 			page 5


 229 013e ADF81810 		strh	r1, [sp, #24]	@ movhi
 230              		.loc 1 77 0
 231 0142 ADF81A70 		strh	r7, [sp, #26]	@ movhi
 232              		.loc 1 78 0
 233 0146 0894     		str	r4, [sp, #32]
 234              		.loc 1 81 0
 235 0148 0028     		cmp	r0, #0
 236 014a 00F00F81 		beq	.L24
 237              		.loc 1 90 0
 238 014e 764E     		ldr	r6, .L28+28
 239 0150 0146     		mov	r1, r0
 240 0152 3046     		mov	r0, r6
 241 0154 FFF7FEFF 		bl	gdispImageOpenGFile
 242              	.LVL32:
 243              		.loc 1 91 0
 244 0158 744A     		ldr	r2, .L28+32
 245              		.loc 1 92 0
 246 015a 0B96     		str	r6, [sp, #44]
 247              		.loc 1 91 0
 248 015c 0A92     		str	r2, [sp, #40]
 249              		.loc 1 93 0
 250 015e 0C94     		str	r4, [sp, #48]
 251              	.L3:
 252              		.loc 1 97 0
 253 0160 734F     		ldr	r7, .L28+36
 254 0162 DFF8F481 		ldr	r8, .L28+76
 255              	.LVL33:
 256 0166 3868     		ldr	r0, [r7, #0]
 257              		.loc 1 112 0
 258 0168 724C     		ldr	r4, .L28+40
 259              		.loc 1 97 0
 260 016a 0021     		movs	r1, #0
 261 016c 0B46     		mov	r3, r1
 262 016e 05AA     		add	r2, sp, #20
 263 0170 FFF7FEFF 		bl	gwinGContainerCreate
 264              	.LVL34:
 265              		.loc 1 102 0
 266 0174 4FF00A0C 		mov	ip, #10
 267              		.loc 1 97 0
 268 0178 8646     		mov	lr, r0
 269              		.loc 1 108 0
 270 017a 0026     		movs	r6, #0
 271              		.loc 1 97 0
 272 017c C8F800E0 		str	lr, [r8, #0]
 273              		.loc 1 102 0
 274 0180 ADF814C0 		strh	ip, [sp, #20]	@ movhi
 275              		.loc 1 103 0
 276 0184 ADF816C0 		strh	ip, [sp, #22]	@ movhi
 277              		.loc 1 106 0
 278 0188 CDF820E0 		str	lr, [sp, #32]
 279              		.loc 1 104 0
 280 018c 4FF0DC0C 		mov	ip, #220
 281              		.loc 1 107 0
 282 0190 DFF8C8E1 		ldr	lr, .L28+80
 283              		.loc 1 104 0
 284 0194 ADF818C0 		strh	ip, [sp, #24]	@ movhi
 285              		.loc 1 112 0
ARM GAS  C:\Users\Elis\AppData\Local\Temp\ccPAW6Bf.s 			page 6


 286 0198 05AA     		add	r2, sp, #20
 287 019a 3346     		mov	r3, r6
 288              		.loc 1 105 0
 289 019c 4FF0C80C 		mov	ip, #200
 290              		.loc 1 101 0
 291 01a0 4FF00109 		mov	r9, #1
 292              		.loc 1 112 0
 293 01a4 3146     		mov	r1, r6
 294 01a6 3868     		ldr	r0, [r7, #0]
 295              		.loc 1 105 0
 296 01a8 ADF81AC0 		strh	ip, [sp, #26]	@ movhi
 297              		.loc 1 107 0
 298 01ac CDF824E0 		str	lr, [sp, #36]
 299              		.loc 1 101 0
 300 01b0 8DF81C90 		strb	r9, [sp, #28]
 301              		.loc 1 108 0
 302 01b4 0A96     		str	r6, [sp, #40]
 303              		.loc 1 109 0
 304 01b6 0B96     		str	r6, [sp, #44]
 305              		.loc 1 110 0
 306 01b8 0C96     		str	r6, [sp, #48]
 307              		.loc 1 112 0
 308 01ba FFF7FEFF 		bl	gwinGListCreate
 309              	.LVL35:
 310              		.loc 1 116 0
 311 01be 0221     		movs	r1, #2
 312              		.loc 1 112 0
 313 01c0 2060     		str	r0, [r4, #0]
 314              		.loc 1 116 0
 315 01c2 FFF7FEFF 		bl	gwinListSetScroll
 316              	.LVL36:
 317              		.loc 1 125 0
 318 01c6 D8F80000 		ldr	r0, [r8, #0]
 319              		.loc 1 120 0
 320 01ca 8DF81C90 		strb	r9, [sp, #28]
 321              		.loc 1 123 0
 322 01ce 3C23     		movs	r3, #60
 323              		.loc 1 121 0
 324 01d0 5A22     		movs	r2, #90
 325              		.loc 1 122 0
 326 01d2 F021     		movs	r1, #240
 327              		.loc 1 121 0
 328 01d4 ADF81420 		strh	r2, [sp, #20]	@ movhi
 329              		.loc 1 122 0
 330 01d8 ADF81610 		strh	r1, [sp, #22]	@ movhi
 331              		.loc 1 123 0
 332 01dc ADF81830 		strh	r3, [sp, #24]	@ movhi
 333              		.loc 1 124 0
 334 01e0 ADF81A30 		strh	r3, [sp, #26]	@ movhi
 335              		.loc 1 125 0
 336 01e4 0890     		str	r0, [sp, #32]
 337              		.loc 1 127 0
 338 01e6 BBF1000F 		cmp	fp, #0
 339 01ea 00F0D780 		beq	.L25
 340              		.loc 1 137 0
 341 01ee 524B     		ldr	r3, .L28+44
 342 01f0 5946     		mov	r1, fp
ARM GAS  C:\Users\Elis\AppData\Local\Temp\ccPAW6Bf.s 			page 7


 343 01f2 1846     		mov	r0, r3
 344 01f4 0193     		str	r3, [sp, #4]
 345 01f6 FFF7FEFF 		bl	gdispImageOpenGFile
 346              	.LVL37:
 347              		.loc 1 138 0
 348 01fa 5048     		ldr	r0, .L28+48
 349              		.loc 1 139 0
 350 01fc 019A     		ldr	r2, [sp, #4]
 351              		.loc 1 141 0
 352 01fe 5049     		ldr	r1, .L28+52
 353              		.loc 1 138 0
 354 0200 0A90     		str	r0, [sp, #40]
 355              		.loc 1 139 0
 356 0202 0B92     		str	r2, [sp, #44]
 357              		.loc 1 140 0
 358 0204 0C96     		str	r6, [sp, #48]
 359              		.loc 1 141 0
 360 0206 0991     		str	r1, [sp, #36]
 361              	.L5:
 362              		.loc 1 145 0
 363 0208 0021     		movs	r1, #0
 364 020a 05AA     		add	r2, sp, #20
 365 020c 3868     		ldr	r0, [r7, #0]
 366 020e FFF7FEFF 		bl	gwinGButtonCreate
 367              	.LVL38:
 368 0212 4C49     		ldr	r1, .L28+56
 369              		.loc 1 154 0
 370 0214 D8F80020 		ldr	r2, [r8, #0]
 371              		.loc 1 145 0
 372 0218 0860     		str	r0, [r1, #0]
 373              		.loc 1 149 0
 374 021a 0120     		movs	r0, #1
 375              		.loc 1 152 0
 376 021c 3C23     		movs	r3, #60
 377              		.loc 1 149 0
 378 021e 8DF81C00 		strb	r0, [sp, #28]
 379              		.loc 1 150 0
 380 0222 0A21     		movs	r1, #10
 381              		.loc 1 151 0
 382 0224 F020     		movs	r0, #240
 383              		.loc 1 150 0
 384 0226 ADF81410 		strh	r1, [sp, #20]	@ movhi
 385              		.loc 1 151 0
 386 022a ADF81600 		strh	r0, [sp, #22]	@ movhi
 387              		.loc 1 152 0
 388 022e ADF81830 		strh	r3, [sp, #24]	@ movhi
 389              		.loc 1 153 0
 390 0232 ADF81A30 		strh	r3, [sp, #26]	@ movhi
 391              		.loc 1 154 0
 392 0236 0892     		str	r2, [sp, #32]
 393              		.loc 1 156 0
 394 0238 BAF1000F 		cmp	sl, #0
 395 023c 00F0A580 		beq	.L26
 396              		.loc 1 166 0
 397 0240 414E     		ldr	r6, .L28+60
 398 0242 5146     		mov	r1, sl
 399 0244 3046     		mov	r0, r6
ARM GAS  C:\Users\Elis\AppData\Local\Temp\ccPAW6Bf.s 			page 8


 400 0246 FFF7FEFF 		bl	gdispImageOpenGFile
 401              	.LVL39:
 402              		.loc 1 167 0
 403 024a 3C4A     		ldr	r2, .L28+48
 404              		.loc 1 170 0
 405 024c 3C49     		ldr	r1, .L28+52
 406              		.loc 1 167 0
 407 024e 0A92     		str	r2, [sp, #40]
 408              		.loc 1 169 0
 409 0250 0023     		movs	r3, #0
 410              		.loc 1 168 0
 411 0252 0B96     		str	r6, [sp, #44]
 412              		.loc 1 169 0
 413 0254 0C93     		str	r3, [sp, #48]
 414              		.loc 1 170 0
 415 0256 0991     		str	r1, [sp, #36]
 416              	.L7:
 417              		.loc 1 174 0
 418 0258 0021     		movs	r1, #0
 419 025a 05AA     		add	r2, sp, #20
 420 025c 3868     		ldr	r0, [r7, #0]
 421 025e FFF7FEFF 		bl	gwinGButtonCreate
 422              	.LVL40:
 423              		.loc 1 183 0
 424 0262 D8F80020 		ldr	r2, [r8, #0]
 425              		.loc 1 174 0
 426 0266 3949     		ldr	r1, .L28+64
 427              		.loc 1 183 0
 428 0268 0892     		str	r2, [sp, #32]
 429              		.loc 1 178 0
 430 026a 0123     		movs	r3, #1
 431              		.loc 1 185 0
 432 026c 029A     		ldr	r2, [sp, #8]
 433              		.loc 1 174 0
 434 026e 0860     		str	r0, [r1, #0]
 435              		.loc 1 178 0
 436 0270 8DF81C30 		strb	r3, [sp, #28]
 437              		.loc 1 181 0
 438 0274 3C20     		movs	r0, #60
 439              		.loc 1 179 0
 440 0276 AA21     		movs	r1, #170
 441              		.loc 1 180 0
 442 0278 F023     		movs	r3, #240
 443              		.loc 1 179 0
 444 027a ADF81410 		strh	r1, [sp, #20]	@ movhi
 445              		.loc 1 180 0
 446 027e ADF81630 		strh	r3, [sp, #22]	@ movhi
 447              		.loc 1 181 0
 448 0282 ADF81800 		strh	r0, [sp, #24]	@ movhi
 449              		.loc 1 182 0
 450 0286 ADF81A00 		strh	r0, [sp, #26]	@ movhi
 451              		.loc 1 185 0
 452 028a 002A     		cmp	r2, #0
 453 028c 74D0     		beq	.L27
 454              		.loc 1 195 0
 455 028e 304E     		ldr	r6, .L28+68
 456 0290 0299     		ldr	r1, [sp, #8]
ARM GAS  C:\Users\Elis\AppData\Local\Temp\ccPAW6Bf.s 			page 9


 457 0292 3046     		mov	r0, r6
 458 0294 FFF7FEFF 		bl	gdispImageOpenGFile
 459              	.LVL41:
 460              		.loc 1 196 0
 461 0298 2848     		ldr	r0, .L28+48
 462              		.loc 1 199 0
 463 029a 294B     		ldr	r3, .L28+52
 464              		.loc 1 196 0
 465 029c 0A90     		str	r0, [sp, #40]
 466              		.loc 1 198 0
 467 029e 0021     		movs	r1, #0
 468              		.loc 1 197 0
 469 02a0 0B96     		str	r6, [sp, #44]
 470              		.loc 1 198 0
 471 02a2 0C91     		str	r1, [sp, #48]
 472              		.loc 1 199 0
 473 02a4 0993     		str	r3, [sp, #36]
 474              	.L9:
 475              		.loc 1 203 0
 476 02a6 0021     		movs	r1, #0
 477 02a8 05AA     		add	r2, sp, #20
 478 02aa 3868     		ldr	r0, [r7, #0]
 479 02ac FFF7FEFF 		bl	gwinGButtonCreate
 480              	.LVL42:
 481 02b0 284A     		ldr	r2, .L28+72
 482              		.loc 1 207 0
 483 02b2 002D     		cmp	r5, #0
 484              		.loc 1 203 0
 485 02b4 1060     		str	r0, [r2, #0]
 486              	.LVL43:
 487              		.loc 1 207 0
 488 02b6 53DD     		ble	.L12
 489 02b8 039F     		ldr	r7, [sp, #12]
 490              		.loc 1 209 0
 491 02ba 2068     		ldr	r0, [r4, #0]
 492 02bc 3968     		ldr	r1, [r7, #0]
 493 02be 0126     		movs	r6, #1
 494 02c0 6B1E     		subs	r3, r5, #1
 495 02c2 3246     		mov	r2, r6
 496 02c4 03EA0608 		and	r8, r3, r6
 497 02c8 FFF7FEFF 		bl	gwinListAddItem
 498              	.LVL44:
 499              		.loc 1 207 0
 500 02cc AE42     		cmp	r6, r5
 501 02ce 47D0     		beq	.L12
 502 02d0 B8F1000F 		cmp	r8, #0
 503 02d4 08D0     		beq	.L11
 504              		.loc 1 209 0
 505 02d6 3246     		mov	r2, r6
 506 02d8 2068     		ldr	r0, [r4, #0]
 507 02da 57F8041F 		ldr	r1, [r7, #4]!
 508              		.loc 1 207 0
 509 02de 0226     		movs	r6, #2
 510              		.loc 1 209 0
 511 02e0 FFF7FEFF 		bl	gwinListAddItem
 512              	.LVL45:
 513              		.loc 1 207 0
ARM GAS  C:\Users\Elis\AppData\Local\Temp\ccPAW6Bf.s 			page 10


 514 02e4 AE42     		cmp	r6, r5
 515 02e6 3BD0     		beq	.L12
 516              	.L11:
 517              		.loc 1 209 0 discriminator 2
 518 02e8 0122     		movs	r2, #1
 519 02ea 7968     		ldr	r1, [r7, #4]
 520 02ec 2068     		ldr	r0, [r4, #0]
 521              		.loc 1 207 0 discriminator 2
 522 02ee B618     		adds	r6, r6, r2
 523 02f0 0136     		adds	r6, r6, #1
 524              		.loc 1 209 0 discriminator 2
 525 02f2 FFF7FEFF 		bl	gwinListAddItem
 526              	.LVL46:
 527 02f6 B968     		ldr	r1, [r7, #8]
 528 02f8 2068     		ldr	r0, [r4, #0]
 529 02fa 0122     		movs	r2, #1
 530 02fc 07F10408 		add	r8, r7, #4
 531 0300 FFF7FEFF 		bl	gwinListAddItem
 532              	.LVL47:
 533 0304 0837     		adds	r7, r7, #8
 534              		.loc 1 207 0 discriminator 2
 535 0306 AE42     		cmp	r6, r5
 536 0308 EED1     		bne	.L11
 537 030a 29E0     		b	.L29
 538              	.L30:
 539              		.align	2
 540              	.L28:
 541 030c 00000000 		.word	.LC0
 542 0310 0C000000 		.word	.LC1
 543 0314 28000000 		.word	.LC2
 544 0318 2C000000 		.word	.LC3
 545 031c 44000000 		.word	.LC4
 546 0320 54000000 		.word	.LC5
 547 0324 6C000000 		.word	.LC6
 548 0328 00000000 		.word	.LANCHOR0
 549 032c 00000000 		.word	gwinContainerDraw_Image
 550 0330 00000000 		.word	GDISP
 551 0334 00000000 		.word	.LANCHOR2
 552 0338 00000000 		.word	.LANCHOR3
 553 033c 00000000 		.word	gwinButtonDraw_Image
 554 0340 90000000 		.word	.LC9
 555 0344 00000000 		.word	.LANCHOR4
 556 0348 00000000 		.word	.LANCHOR5
 557 034c 00000000 		.word	.LANCHOR6
 558 0350 00000000 		.word	.LANCHOR7
 559 0354 00000000 		.word	.LANCHOR8
 560 0358 00000000 		.word	.LANCHOR1
 561 035c 78000000 		.word	.LC7
 562              	.L29:
 563              	.L12:
 564              		.loc 1 215 0
 565 0360 4020     		movs	r0, #64
 566 0362 FFF7FEFF 		bl	chThdSetPriority
 567              	.LVL48:
 568              		.loc 1 217 0
 569 0366 27B0     		add	sp, sp, #156
 570 0368 BDE8F08F 		pop	{r4, r5, r6, r7, r8, r9, sl, fp, pc}
ARM GAS  C:\Users\Elis\AppData\Local\Temp\ccPAW6Bf.s 			page 11


 571              	.LVL49:
 572              	.L24:
 573              		.loc 1 83 0
 574 036c 104C     		ldr	r4, .L31
 575              		.loc 1 84 0
 576 036e 1149     		ldr	r1, .L31+4
 577              		.loc 1 83 0
 578 0370 0A94     		str	r4, [sp, #40]
 579              		.loc 1 84 0
 580 0372 0C91     		str	r1, [sp, #48]
 581              		.loc 1 85 0
 582 0374 0B90     		str	r0, [sp, #44]
 583 0376 F3E6     		b	.L3
 584              	.LVL50:
 585              	.L27:
 586              		.loc 1 187 0
 587 0378 0F4A     		ldr	r2, .L31+8
 588              		.loc 1 188 0
 589 037a 0E48     		ldr	r0, .L31+4
 590              		.loc 1 189 0
 591 037c 0299     		ldr	r1, [sp, #8]
 592              		.loc 1 190 0
 593 037e 0F4B     		ldr	r3, .L31+12
 594              		.loc 1 187 0
 595 0380 0A92     		str	r2, [sp, #40]
 596              		.loc 1 188 0
 597 0382 0C90     		str	r0, [sp, #48]
 598              		.loc 1 189 0
 599 0384 0B91     		str	r1, [sp, #44]
 600              		.loc 1 190 0
 601 0386 0993     		str	r3, [sp, #36]
 602 0388 8DE7     		b	.L9
 603              	.L26:
 604              		.loc 1 158 0
 605 038a 0B48     		ldr	r0, .L31+8
 606              		.loc 1 159 0
 607 038c 094A     		ldr	r2, .L31+4
 608              		.loc 1 161 0
 609 038e 0C4B     		ldr	r3, .L31+16
 610              		.loc 1 158 0
 611 0390 0A90     		str	r0, [sp, #40]
 612              		.loc 1 159 0
 613 0392 0C92     		str	r2, [sp, #48]
 614              		.loc 1 160 0
 615 0394 CDF82CA0 		str	sl, [sp, #44]
 616              		.loc 1 161 0
 617 0398 0993     		str	r3, [sp, #36]
 618 039a 5DE7     		b	.L7
 619              	.L25:
 620              		.loc 1 129 0
 621 039c 064B     		ldr	r3, .L31+8
 622              		.loc 1 130 0
 623 039e 0548     		ldr	r0, .L31+4
 624              		.loc 1 132 0
 625 03a0 084A     		ldr	r2, .L31+20
 626              		.loc 1 129 0
 627 03a2 0A93     		str	r3, [sp, #40]
ARM GAS  C:\Users\Elis\AppData\Local\Temp\ccPAW6Bf.s 			page 12


 628              		.loc 1 130 0
 629 03a4 0C90     		str	r0, [sp, #48]
 630              		.loc 1 131 0
 631 03a6 CDF82CB0 		str	fp, [sp, #44]
 632              		.loc 1 132 0
 633 03aa 0992     		str	r2, [sp, #36]
 634 03ac 2CE7     		b	.L5
 635              	.L32:
 636 03ae 00BF     		.align	2
 637              	.L31:
 638 03b0 00000000 		.word	gwinContainerDraw_Std
 639 03b4 00000000 		.word	WhiteWidgetStyle
 640 03b8 00000000 		.word	gwinButtonDraw_Normal
 641 03bc 9C000000 		.word	.LC11
 642 03c0 94000000 		.word	.LC10
 643 03c4 88000000 		.word	.LC8
 644              		.cfi_endproc
 645              	.LFE118:
 646              		.size	createCallsScreen, .-createCallsScreen
 647 03c8 AFF30080 		.section	.text.destroyCallsScreen,"ax",%progbits
 647      AFF30080 
 648              		.align	2
 649              		.p2align 4,,15
 650              		.global	destroyCallsScreen
 651              		.thumb
 652              		.thumb_func
 653              		.type	destroyCallsScreen, %function
 654              	destroyCallsScreen:
 655              	.LFB119:
 656              		.loc 1 219 0
 657              		.cfi_startproc
 658              		@ args = 0, pretend = 0, frame = 0
 659              		@ frame_needed = 0, uses_anonymous_args = 0
 660 0000 38B5     		push	{r3, r4, r5, lr}
 661              	.LCFI2:
 662              		.cfi_def_cfa_offset 16
 663              		.cfi_offset 3, -16
 664              		.cfi_offset 4, -12
 665              		.cfi_offset 5, -8
 666              		.cfi_offset 14, -4
 667              		.loc 1 223 0
 668 0002 7F20     		movs	r0, #127
 669 0004 FFF7FEFF 		bl	chThdSetPriority
 670              	.LVL51:
 671              		.loc 1 227 0
 672 0008 40F20000 		movw	r0, #:lower16:.LANCHOR0
 673 000c C0F20000 		movt	r0, #:upper16:.LANCHOR0
 674 0010 FFF7FEFF 		bl	gdispImageClose
 675              	.LVL52:
 676              		.loc 1 229 0
 677 0014 40F20000 		movw	r0, #:lower16:.LANCHOR3
 678 0018 C0F20000 		movt	r0, #:upper16:.LANCHOR3
 679 001c FFF7FEFF 		bl	gdispImageClose
 680              	.LVL53:
 681              		.loc 1 231 0
 682 0020 40F20000 		movw	r0, #:lower16:.LANCHOR5
 683 0024 C0F20000 		movt	r0, #:upper16:.LANCHOR5
ARM GAS  C:\Users\Elis\AppData\Local\Temp\ccPAW6Bf.s 			page 13


 684 0028 FFF7FEFF 		bl	gdispImageClose
 685              	.LVL54:
 686              		.loc 1 233 0
 687 002c 40F20000 		movw	r0, #:lower16:.LANCHOR7
 688 0030 C0F20000 		movt	r0, #:upper16:.LANCHOR7
 689 0034 FFF7FEFF 		bl	gdispImageClose
 690              	.LVL55:
 691              		.loc 1 237 0
 692 0038 40F20003 		movw	r3, #:lower16:.LANCHOR1
 693 003c C0F20003 		movt	r3, #:upper16:.LANCHOR1
 694              		.loc 1 241 0
 695 0040 40F20005 		movw	r5, #:lower16:.LANCHOR6
 696              		.loc 1 237 0
 697 0044 1868     		ldr	r0, [r3, #0]
 698 0046 FFF7FEFF 		bl	gwinDestroy
 699              	.LVL56:
 700              		.loc 1 243 0
 701 004a 40F20004 		movw	r4, #:lower16:.LANCHOR4
 702              		.loc 1 245 0
 703 004e 40F20001 		movw	r1, #:lower16:.LANCHOR8
 704              		.loc 1 247 0
 705 0052 40F20002 		movw	r2, #:lower16:.LANCHOR2
 706              		.loc 1 241 0
 707 0056 C0F20005 		movt	r5, #:upper16:.LANCHOR6
 708              		.loc 1 243 0
 709 005a C0F20004 		movt	r4, #:upper16:.LANCHOR4
 710              		.loc 1 245 0
 711 005e C0F20001 		movt	r1, #:upper16:.LANCHOR8
 712              		.loc 1 247 0
 713 0062 C0F20002 		movt	r2, #:upper16:.LANCHOR2
 714              		.loc 1 241 0
 715 0066 0023     		movs	r3, #0
 716              		.loc 1 251 0
 717 0068 4020     		movs	r0, #64
 718              		.loc 1 241 0
 719 006a 2B60     		str	r3, [r5, #0]
 720              		.loc 1 243 0
 721 006c 2360     		str	r3, [r4, #0]
 722              		.loc 1 245 0
 723 006e 0B60     		str	r3, [r1, #0]
 724              		.loc 1 247 0
 725 0070 1360     		str	r3, [r2, #0]
 726              		.loc 1 253 0
 727 0072 BDE83840 		pop	{r3, r4, r5, lr}
 728              		.loc 1 251 0
 729 0076 FFF7FEBF 		b	chThdSetPriority
 730              	.LVL57:
 731              		.cfi_endproc
 732              	.LFE119:
 733              		.size	destroyCallsScreen, .-destroyCallsScreen
 734 007a 00BFAFF3 		.section	.text.createMakeCallScreen,"ax",%progbits
 734      0080
 735              		.align	2
 736              		.p2align 4,,15
 737              		.global	createMakeCallScreen
 738              		.thumb
 739              		.thumb_func
ARM GAS  C:\Users\Elis\AppData\Local\Temp\ccPAW6Bf.s 			page 14


 740              		.type	createMakeCallScreen, %function
 741              	createMakeCallScreen:
 742              	.LFB120:
 743              		.loc 1 255 0
 744              		.cfi_startproc
 745              		@ args = 0, pretend = 0, frame = 144
 746              		@ frame_needed = 0, uses_anonymous_args = 0
 747              	.LVL58:
 748 0000 2DE9F04F 		push	{r4, r5, r6, r7, r8, r9, sl, fp, lr}
 749              	.LCFI3:
 750              		.cfi_def_cfa_offset 36
 751              		.cfi_offset 4, -36
 752              		.cfi_offset 5, -32
 753              		.cfi_offset 6, -28
 754              		.cfi_offset 7, -24
 755              		.cfi_offset 8, -20
 756              		.cfi_offset 9, -16
 757              		.cfi_offset 10, -12
 758              		.cfi_offset 11, -8
 759              		.cfi_offset 14, -4
 760 0004 A5B0     		sub	sp, sp, #148
 761              	.LCFI4:
 762              		.cfi_def_cfa_offset 184
 763              		.loc 1 255 0
 764 0006 0746     		mov	r7, r0
 765              		.loc 1 267 0
 766 0008 03A8     		add	r0, sp, #12
 767              	.LVL59:
 768              		.loc 1 275 0
 769 000a 0BAC     		add	r4, sp, #44
 770              		.loc 1 267 0
 771 000c FFF7FEFF 		bl	gwinWidgetClearInit
 772              	.LVL60:
 773              		.loc 1 271 0
 774 0010 7F20     		movs	r0, #127
 775 0012 FFF7FEFF 		bl	chThdSetPriority
 776              	.LVL61:
 777              		.loc 1 275 0
 778 0016 0021     		movs	r1, #0
 779 0018 6422     		movs	r2, #100
 780 001a 2046     		mov	r0, r4
 781 001c FFF7FEFF 		bl	memset
 782              	.LVL62:
 783 0020 2046     		mov	r0, r4
 784 0022 FFF7FEFF 		bl	strlen
 785              	.LVL63:
 786 0026 C24D     		ldr	r5, .L44
 787 0028 0246     		mov	r2, r0
 788 002a 03CD     		ldmia	r5!, {r0, r1}
 789 002c 2E46     		mov	r6, r5
 790 002e A318     		adds	r3, r4, r2
 791 0030 16F808A9 		ldrb	sl, [r6], #-8	@ zero_extendqisi2
 792 0034 A050     		str	r0, [r4, r2]	@ unaligned
 793 0036 5960     		str	r1, [r3, #4]	@ unaligned
 794 0038 83F808A0 		strb	sl, [r3, #8]
 795 003c 6422     		movs	r2, #100
 796 003e 3946     		mov	r1, r7
ARM GAS  C:\Users\Elis\AppData\Local\Temp\ccPAW6Bf.s 			page 15


 797 0040 2046     		mov	r0, r4
 798 0042 FFF7FEFF 		bl	strlcat
 799              	.LVL64:
 800 0046 6422     		movs	r2, #100
 801 0048 2046     		mov	r0, r4
 802 004a BA49     		ldr	r1, .L44+4
 803 004c FFF7FEFF 		bl	strlcat
 804              	.LVL65:
 805              		.loc 1 277 0
 806 0050 2046     		mov	r0, r4
 807 0052 B949     		ldr	r1, .L44+8
 808 0054 FFF7FEFF 		bl	gfileOpen
 809              	.LVL66:
 810              		.loc 1 279 0
 811 0058 0021     		movs	r1, #0
 812 005a 6422     		movs	r2, #100
 813              		.loc 1 277 0
 814 005c 8146     		mov	r9, r0
 815              	.LVL67:
 816              		.loc 1 279 0
 817 005e 2046     		mov	r0, r4
 818              	.LVL68:
 819 0060 FFF7FEFF 		bl	memset
 820              	.LVL69:
 821 0064 2046     		mov	r0, r4
 822 0066 FFF7FEFF 		bl	strlen
 823              	.LVL70:
 824 006a 0246     		mov	r2, r0
 825 006c 03CE     		ldmia	r6!, {r0, r1}
 826 006e A618     		adds	r6, r4, r2
 827 0070 A050     		str	r0, [r4, r2]	@ unaligned
 828 0072 6422     		movs	r2, #100
 829 0074 7160     		str	r1, [r6, #4]	@ unaligned
 830 0076 2046     		mov	r0, r4
 831 0078 3946     		mov	r1, r7
 832 007a 86F808A0 		strb	sl, [r6, #8]
 833 007e FFF7FEFF 		bl	strlcat
 834              	.LVL71:
 835 0082 6422     		movs	r2, #100
 836 0084 2046     		mov	r0, r4
 837 0086 AD49     		ldr	r1, .L44+12
 838 0088 FFF7FEFF 		bl	strlcat
 839              	.LVL72:
 840              		.loc 1 281 0
 841 008c 2046     		mov	r0, r4
 842 008e AA49     		ldr	r1, .L44+8
 843 0090 FFF7FEFF 		bl	gfileOpen
 844              	.LVL73:
 845              		.loc 1 283 0
 846 0094 0021     		movs	r1, #0
 847 0096 6422     		movs	r2, #100
 848              		.loc 1 281 0
 849 0098 8046     		mov	r8, r0
 850              	.LVL74:
 851              		.loc 1 283 0
 852 009a 2046     		mov	r0, r4
 853              	.LVL75:
ARM GAS  C:\Users\Elis\AppData\Local\Temp\ccPAW6Bf.s 			page 16


 854 009c FFF7FEFF 		bl	memset
 855              	.LVL76:
 856 00a0 2046     		mov	r0, r4
 857 00a2 FFF7FEFF 		bl	strlen
 858              	.LVL77:
 859 00a6 083D     		subs	r5, r5, #8
 860 00a8 0246     		mov	r2, r0
 861 00aa 03CD     		ldmia	r5!, {r0, r1}
 862 00ac A518     		adds	r5, r4, r2
 863 00ae A050     		str	r0, [r4, r2]	@ unaligned
 864 00b0 6422     		movs	r2, #100
 865 00b2 6960     		str	r1, [r5, #4]	@ unaligned
 866 00b4 2046     		mov	r0, r4
 867 00b6 3946     		mov	r1, r7
 868 00b8 85F808A0 		strb	sl, [r5, #8]
 869 00bc FFF7FEFF 		bl	strlcat
 870              	.LVL78:
 871 00c0 6422     		movs	r2, #100
 872 00c2 2046     		mov	r0, r4
 873 00c4 9E49     		ldr	r1, .L44+16
 874 00c6 FFF7FEFF 		bl	strlcat
 875              	.LVL79:
 876              		.loc 1 285 0
 877 00ca 2046     		mov	r0, r4
 878 00cc 9A49     		ldr	r1, .L44+8
 879 00ce FFF7FEFF 		bl	gfileOpen
 880              	.LVL80:
 881              		.loc 1 295 0
 882 00d2 9C4B     		ldr	r3, .L44+20
 883              		.loc 1 290 0
 884 00d4 0027     		movs	r7, #0
 885              	.LVL81:
 886              		.loc 1 285 0
 887 00d6 8246     		mov	sl, r0
 888              	.LVL82:
 889              		.loc 1 293 0
 890 00d8 4FF4A074 		mov	r4, #320
 891              		.loc 1 289 0
 892 00dc 0120     		movs	r0, #1
 893              	.LVL83:
 894              		.loc 1 292 0
 895 00de F021     		movs	r1, #240
 896              		.loc 1 289 0
 897 00e0 8DF81400 		strb	r0, [sp, #20]
 898              		.loc 1 290 0
 899 00e4 ADF80C70 		strh	r7, [sp, #12]	@ movhi
 900              		.loc 1 291 0
 901 00e8 ADF80E70 		strh	r7, [sp, #14]	@ movhi
 902              		.loc 1 292 0
 903 00ec ADF81010 		strh	r1, [sp, #16]	@ movhi
 904              		.loc 1 293 0
 905 00f0 ADF81240 		strh	r4, [sp, #18]	@ movhi
 906              		.loc 1 294 0
 907 00f4 0697     		str	r7, [sp, #24]
 908              		.loc 1 295 0
 909 00f6 0793     		str	r3, [sp, #28]
 910              		.loc 1 297 0
ARM GAS  C:\Users\Elis\AppData\Local\Temp\ccPAW6Bf.s 			page 17


 911 00f8 B9F1000F 		cmp	r9, #0
 912 00fc 00F00782 		beq	.L41
 913              		.loc 1 306 0
 914 0100 914D     		ldr	r5, .L44+24
 915 0102 924E     		ldr	r6, .L44+28
 916 0104 2846     		mov	r0, r5
 917 0106 4946     		mov	r1, r9
 918 0108 FFF7FEFF 		bl	gdispImageOpenGFile
 919              	.LVL84:
 920              		.loc 1 307 0
 921 010c 904A     		ldr	r2, .L44+32
 922              		.loc 1 308 0
 923 010e 0995     		str	r5, [sp, #36]
 924              		.loc 1 307 0
 925 0110 0892     		str	r2, [sp, #32]
 926              		.loc 1 309 0
 927 0112 0A97     		str	r7, [sp, #40]
 928              	.L36:
 929              		.loc 1 313 0
 930 0114 8F4C     		ldr	r4, .L44+36
 931 0116 904D     		ldr	r5, .L44+40
 932 0118 2068     		ldr	r0, [r4, #0]
 933 011a 0021     		movs	r1, #0
 934 011c 0B46     		mov	r3, r1
 935 011e 03AA     		add	r2, sp, #12
 936 0120 FFF7FEFF 		bl	gwinGContainerCreate
 937              	.LVL85:
 938              		.loc 1 319 0
 939 0124 F027     		movs	r7, #240
 940              		.loc 1 320 0
 941 0126 3C21     		movs	r1, #60
 942              		.loc 1 317 0
 943 0128 0123     		movs	r3, #1
 944              		.loc 1 318 0
 945 012a 0A22     		movs	r2, #10
 946              		.loc 1 313 0
 947 012c 2860     		str	r0, [r5, #0]
 948              		.loc 1 317 0
 949 012e 8DF81430 		strb	r3, [sp, #20]
 950              		.loc 1 318 0
 951 0132 ADF80C20 		strh	r2, [sp, #12]	@ movhi
 952              		.loc 1 319 0
 953 0136 ADF80E70 		strh	r7, [sp, #14]	@ movhi
 954              		.loc 1 320 0
 955 013a ADF81010 		strh	r1, [sp, #16]	@ movhi
 956              		.loc 1 321 0
 957 013e ADF81210 		strh	r1, [sp, #18]	@ movhi
 958              		.loc 1 322 0
 959 0142 0690     		str	r0, [sp, #24]
 960              		.loc 1 324 0
 961 0144 BAF1000F 		cmp	sl, #0
 962 0148 00F0E881 		beq	.L42
 963              		.loc 1 334 0
 964 014c DFF830B2 		ldr	fp, .L44+80
 965              		.loc 1 338 0
 966 0150 DFF83092 		ldr	r9, .L44+84
 967              	.LVL86:
ARM GAS  C:\Users\Elis\AppData\Local\Temp\ccPAW6Bf.s 			page 18


 968 0154 814F     		ldr	r7, .L44+44
 969              		.loc 1 334 0
 970 0156 5146     		mov	r1, sl
 971 0158 5846     		mov	r0, fp
 972 015a FFF7FEFF 		bl	gdispImageOpenGFile
 973              	.LVL87:
 974              		.loc 1 335 0
 975 015e 8048     		ldr	r0, .L44+48
 976              		.loc 1 336 0
 977 0160 CDF824B0 		str	fp, [sp, #36]
 978              		.loc 1 337 0
 979 0164 0021     		movs	r1, #0
 980              		.loc 1 335 0
 981 0166 0890     		str	r0, [sp, #32]
 982              		.loc 1 337 0
 983 0168 0A91     		str	r1, [sp, #40]
 984              		.loc 1 338 0
 985 016a CDF81C90 		str	r9, [sp, #28]
 986              	.L38:
 987              		.loc 1 342 0
 988 016e 0021     		movs	r1, #0
 989 0170 03AA     		add	r2, sp, #12
 990 0172 2068     		ldr	r0, [r4, #0]
 991 0174 FFF7FEFF 		bl	gwinGButtonCreate
 992              	.LVL88:
 993 0178 7A49     		ldr	r1, .L44+52
 994              		.loc 1 351 0
 995 017a 2A68     		ldr	r2, [r5, #0]
 996              		.loc 1 342 0
 997 017c 0860     		str	r0, [r1, #0]
 998              		.loc 1 346 0
 999 017e 0123     		movs	r3, #1
 1000              		.loc 1 349 0
 1001 0180 3C20     		movs	r0, #60
 1002              		.loc 1 346 0
 1003 0182 8DF81430 		strb	r3, [sp, #20]
 1004              		.loc 1 347 0
 1005 0186 AA21     		movs	r1, #170
 1006              		.loc 1 348 0
 1007 0188 F023     		movs	r3, #240
 1008              		.loc 1 347 0
 1009 018a ADF80C10 		strh	r1, [sp, #12]	@ movhi
 1010              		.loc 1 348 0
 1011 018e ADF80E30 		strh	r3, [sp, #14]	@ movhi
 1012              		.loc 1 349 0
 1013 0192 ADF81000 		strh	r0, [sp, #16]	@ movhi
 1014              		.loc 1 350 0
 1015 0196 ADF81200 		strh	r0, [sp, #18]	@ movhi
 1016              		.loc 1 351 0
 1017 019a 0692     		str	r2, [sp, #24]
 1018              		.loc 1 353 0
 1019 019c B8F1000F 		cmp	r8, #0
 1020 01a0 00F0C681 		beq	.L43
 1021              		.loc 1 363 0
 1022 01a4 DFF8E0A1 		ldr	sl, .L44+88
 1023              	.LVL89:
 1024 01a8 4146     		mov	r1, r8
ARM GAS  C:\Users\Elis\AppData\Local\Temp\ccPAW6Bf.s 			page 19


 1025 01aa 5046     		mov	r0, sl
 1026 01ac FFF7FEFF 		bl	gdispImageOpenGFile
 1027              	.LVL90:
 1028              		.loc 1 364 0
 1029 01b0 6B4A     		ldr	r2, .L44+48
 1030              		.loc 1 365 0
 1031 01b2 CDF824A0 		str	sl, [sp, #36]
 1032              		.loc 1 366 0
 1033 01b6 0020     		movs	r0, #0
 1034              		.loc 1 364 0
 1035 01b8 0892     		str	r2, [sp, #32]
 1036              		.loc 1 366 0
 1037 01ba 0A90     		str	r0, [sp, #40]
 1038              		.loc 1 367 0
 1039 01bc CDF81C90 		str	r9, [sp, #28]
 1040              	.L40:
 1041              		.loc 1 371 0
 1042 01c0 0021     		movs	r1, #0
 1043 01c2 03AA     		add	r2, sp, #12
 1044 01c4 2068     		ldr	r0, [r4, #0]
 1045 01c6 FFF7FEFF 		bl	gwinGButtonCreate
 1046              	.LVL91:
 1047 01ca 674B     		ldr	r3, .L44+56
 1048              		.loc 1 379 0
 1049 01cc CDF81C90 		str	r9, [sp, #28]
 1050              		.loc 1 371 0
 1051 01d0 1860     		str	r0, [r3, #0]
 1052              		.loc 1 375 0
 1053 01d2 0A23     		movs	r3, #10
 1054 01d4 ADF80E30 		strh	r3, [sp, #14]	@ movhi
 1055              		.loc 1 376 0
 1056 01d8 ADF80C30 		strh	r3, [sp, #12]	@ movhi
 1057              		.loc 1 378 0
 1058 01dc 4FF01403 		mov	r3, #20
 1059              		.loc 1 383 0
 1060 01e0 4FF0000B 		mov	fp, #0
 1061              		.loc 1 378 0
 1062 01e4 ADF81230 		strh	r3, [sp, #18]	@ movhi
 1063              		.loc 1 380 0
 1064 01e8 2B68     		ldr	r3, [r5, #0]
 1065              		.loc 1 386 0
 1066 01ea 2068     		ldr	r0, [r4, #0]
 1067              		.loc 1 380 0
 1068 01ec 0693     		str	r3, [sp, #24]
 1069              		.loc 1 384 0
 1070 01ee 4FF00108 		mov	r8, #1
 1071              	.LVL92:
 1072              		.loc 1 386 0
 1073 01f2 5946     		mov	r1, fp
 1074 01f4 03AA     		add	r2, sp, #12
 1075              		.loc 1 377 0
 1076 01f6 4FF0DC0E 		mov	lr, #220	@ movhi
 1077 01fa ADF810E0 		strh	lr, [sp, #16]	@ movhi
 1078              		.loc 1 381 0
 1079 01fe 0897     		str	r7, [sp, #32]
 1080              		.loc 1 382 0
 1081 0200 0A96     		str	r6, [sp, #40]
ARM GAS  C:\Users\Elis\AppData\Local\Temp\ccPAW6Bf.s 			page 20


 1082              		.loc 1 383 0
 1083 0202 CDF824B0 		str	fp, [sp, #36]
 1084              		.loc 1 384 0
 1085 0206 8DF81480 		strb	r8, [sp, #20]
 1086              		.loc 1 386 0
 1087 020a FFF7FEFF 		bl	gwinGButtonCreate
 1088              	.LVL93:
 1089 020e 574A     		ldr	r2, .L44+60
 1090              		.loc 1 395 0
 1091 0210 2B68     		ldr	r3, [r5, #0]
 1092              		.loc 1 386 0
 1093 0212 1060     		str	r0, [r2, #0]
 1094              		.loc 1 391 0
 1095 0214 4FF00A0E 		mov	lr, #10	@ movhi
 1096 0218 ADF80CE0 		strh	lr, [sp, #12]	@ movhi
 1097              		.loc 1 394 0
 1098 021c DFF86CE1 		ldr	lr, .L44+92
 1099              		.loc 1 401 0
 1100 0220 2068     		ldr	r0, [r4, #0]
 1101              		.loc 1 394 0
 1102 0222 CDF81CE0 		str	lr, [sp, #28]
 1103              		.loc 1 393 0
 1104 0226 4FF02809 		mov	r9, #40
 1105              		.loc 1 392 0
 1106 022a 4FF0460A 		mov	sl, #70
 1107              		.loc 1 390 0
 1108 022e 4FF0320C 		mov	ip, #50
 1109              		.loc 1 401 0
 1110 0232 5946     		mov	r1, fp
 1111 0234 03AA     		add	r2, sp, #12
 1112              		.loc 1 390 0
 1113 0236 ADF80EC0 		strh	ip, [sp, #14]	@ movhi
 1114              		.loc 1 395 0
 1115 023a 0693     		str	r3, [sp, #24]
 1116              		.loc 1 401 0
 1117 023c CDF804C0 		str	ip, [sp, #4]
 1118              		.loc 1 392 0
 1119 0240 ADF810A0 		strh	sl, [sp, #16]	@ movhi
 1120              		.loc 1 393 0
 1121 0244 ADF81290 		strh	r9, [sp, #18]	@ movhi
 1122              		.loc 1 396 0
 1123 0248 0897     		str	r7, [sp, #32]
 1124              		.loc 1 397 0
 1125 024a 0A96     		str	r6, [sp, #40]
 1126              		.loc 1 398 0
 1127 024c CDF824B0 		str	fp, [sp, #36]
 1128              		.loc 1 399 0
 1129 0250 8DF81480 		strb	r8, [sp, #20]
 1130              		.loc 1 401 0
 1131 0254 FFF7FEFF 		bl	gwinGButtonCreate
 1132              	.LVL94:
 1133              		.loc 1 405 0
 1134 0258 DDF804C0 		ldr	ip, [sp, #4]
 1135              		.loc 1 401 0
 1136 025c 4449     		ldr	r1, .L44+64
 1137              		.loc 1 410 0
 1138 025e 2B68     		ldr	r3, [r5, #0]
ARM GAS  C:\Users\Elis\AppData\Local\Temp\ccPAW6Bf.s 			page 21


 1139              		.loc 1 405 0
 1140 0260 ADF80EC0 		strh	ip, [sp, #14]	@ movhi
 1141              		.loc 1 409 0
 1142 0264 DFF828C1 		ldr	ip, .L44+96
 1143              		.loc 1 401 0
 1144 0268 0860     		str	r0, [r1, #0]
 1145              		.loc 1 416 0
 1146 026a 03AA     		add	r2, sp, #12
 1147 026c 5946     		mov	r1, fp
 1148              		.loc 1 406 0
 1149 026e 4FF0550E 		mov	lr, #85	@ movhi
 1150              		.loc 1 416 0
 1151 0272 2068     		ldr	r0, [r4, #0]
 1152              		.loc 1 406 0
 1153 0274 ADF80CE0 		strh	lr, [sp, #12]	@ movhi
 1154              		.loc 1 409 0
 1155 0278 CDF81CC0 		str	ip, [sp, #28]
 1156              		.loc 1 410 0
 1157 027c 0693     		str	r3, [sp, #24]
 1158              		.loc 1 407 0
 1159 027e ADF810A0 		strh	sl, [sp, #16]	@ movhi
 1160              		.loc 1 408 0
 1161 0282 ADF81290 		strh	r9, [sp, #18]	@ movhi
 1162              		.loc 1 411 0
 1163 0286 0897     		str	r7, [sp, #32]
 1164              		.loc 1 412 0
 1165 0288 0A96     		str	r6, [sp, #40]
 1166              		.loc 1 413 0
 1167 028a CDF824B0 		str	fp, [sp, #36]
 1168              		.loc 1 414 0
 1169 028e 8DF81480 		strb	r8, [sp, #20]
 1170              		.loc 1 416 0
 1171 0292 FFF7FEFF 		bl	gwinGButtonCreate
 1172              	.LVL95:
 1173              		.loc 1 420 0
 1174 0296 DDF804C0 		ldr	ip, [sp, #4]
 1175              		.loc 1 416 0
 1176 029a 364A     		ldr	r2, .L44+68
 1177              		.loc 1 425 0
 1178 029c 2B68     		ldr	r3, [r5, #0]
 1179              		.loc 1 420 0
 1180 029e ADF80EC0 		strh	ip, [sp, #14]	@ movhi
 1181              		.loc 1 424 0
 1182 02a2 DFF8F0C0 		ldr	ip, .L44+100
 1183              		.loc 1 416 0
 1184 02a6 1060     		str	r0, [r2, #0]
 1185              		.loc 1 431 0
 1186 02a8 5946     		mov	r1, fp
 1187 02aa 03AA     		add	r2, sp, #12
 1188              		.loc 1 421 0
 1189 02ac 4FF0A00E 		mov	lr, #160	@ movhi
 1190              		.loc 1 431 0
 1191 02b0 2068     		ldr	r0, [r4, #0]
 1192              		.loc 1 421 0
 1193 02b2 ADF80CE0 		strh	lr, [sp, #12]	@ movhi
 1194              		.loc 1 424 0
 1195 02b6 CDF81CC0 		str	ip, [sp, #28]
ARM GAS  C:\Users\Elis\AppData\Local\Temp\ccPAW6Bf.s 			page 22


 1196              		.loc 1 425 0
 1197 02ba 0693     		str	r3, [sp, #24]
 1198              		.loc 1 422 0
 1199 02bc ADF810A0 		strh	sl, [sp, #16]	@ movhi
 1200              		.loc 1 423 0
 1201 02c0 ADF81290 		strh	r9, [sp, #18]	@ movhi
 1202              		.loc 1 426 0
 1203 02c4 0897     		str	r7, [sp, #32]
 1204              		.loc 1 427 0
 1205 02c6 0A96     		str	r6, [sp, #40]
 1206              		.loc 1 428 0
 1207 02c8 CDF824B0 		str	fp, [sp, #36]
 1208              		.loc 1 429 0
 1209 02cc 8DF81480 		strb	r8, [sp, #20]
 1210              		.loc 1 431 0
 1211 02d0 FFF7FEFF 		bl	gwinGButtonCreate
 1212              	.LVL96:
 1213 02d4 2849     		ldr	r1, .L44+72
 1214              		.loc 1 440 0
 1215 02d6 2B68     		ldr	r3, [r5, #0]
 1216              		.loc 1 431 0
 1217 02d8 0860     		str	r0, [r1, #0]
 1218              		.loc 1 436 0
 1219 02da 4FF00A0E 		mov	lr, #10	@ movhi
 1220 02de ADF80CE0 		strh	lr, [sp, #12]	@ movhi
 1221              		.loc 1 439 0
 1222 02e2 DFF8B4E0 		ldr	lr, .L44+104
 1223              		.loc 1 446 0
 1224 02e6 2068     		ldr	r0, [r4, #0]
 1225              		.loc 1 439 0
 1226 02e8 CDF81CE0 		str	lr, [sp, #28]
 1227              		.loc 1 435 0
 1228 02ec 4FF05F0C 		mov	ip, #95
 1229              		.loc 1 446 0
 1230 02f0 5946     		mov	r1, fp
 1231 02f2 03AA     		add	r2, sp, #12
 1232              		.loc 1 435 0
 1233 02f4 ADF80EC0 		strh	ip, [sp, #14]	@ movhi
 1234              		.loc 1 440 0
 1235 02f8 0693     		str	r3, [sp, #24]
 1236              		.loc 1 446 0
 1237 02fa CDF804C0 		str	ip, [sp, #4]
 1238              		.loc 1 437 0
 1239 02fe ADF810A0 		strh	sl, [sp, #16]	@ movhi
 1240              		.loc 1 438 0
 1241 0302 ADF81290 		strh	r9, [sp, #18]	@ movhi
 1242              		.loc 1 441 0
 1243 0306 0897     		str	r7, [sp, #32]
 1244              		.loc 1 442 0
 1245 0308 0A96     		str	r6, [sp, #40]
 1246              		.loc 1 443 0
 1247 030a CDF824B0 		str	fp, [sp, #36]
 1248              		.loc 1 444 0
 1249 030e 8DF81480 		strb	r8, [sp, #20]
 1250              		.loc 1 446 0
 1251 0312 FFF7FEFF 		bl	gwinGButtonCreate
 1252              	.LVL97:
ARM GAS  C:\Users\Elis\AppData\Local\Temp\ccPAW6Bf.s 			page 23


 1253              		.loc 1 450 0
 1254 0316 DDF804C0 		ldr	ip, [sp, #4]
 1255              		.loc 1 446 0
 1256 031a 184A     		ldr	r2, .L44+76
 1257              		.loc 1 455 0
 1258 031c 2B68     		ldr	r3, [r5, #0]
 1259              		.loc 1 450 0
 1260 031e ADF80EC0 		strh	ip, [sp, #14]	@ movhi
 1261              		.loc 1 454 0
 1262 0322 DFF878C0 		ldr	ip, .L44+108
 1263              		.loc 1 446 0
 1264 0326 1060     		str	r0, [r2, #0]
 1265              		.loc 1 461 0
 1266 0328 5946     		mov	r1, fp
 1267 032a 03AA     		add	r2, sp, #12
 1268 032c 38E0     		b	.L45
 1269              	.L46:
 1270 032e 00BF     		.align	2
 1271              	.L44:
 1272 0330 00000000 		.word	.LC0
 1273 0334 0C000000 		.word	.LC1
 1274 0338 28000000 		.word	.LC2
 1275 033c A4000000 		.word	.LC12
 1276 0340 44000000 		.word	.LC4
 1277 0344 6C000000 		.word	.LC6
 1278 0348 00000000 		.word	.LANCHOR0
 1279 034c 00000000 		.word	WhiteWidgetStyle
 1280 0350 00000000 		.word	gwinContainerDraw_Image
 1281 0354 00000000 		.word	GDISP
 1282 0358 00000000 		.word	.LANCHOR1
 1283 035c 00000000 		.word	gwinButtonDraw_Normal
 1284 0360 00000000 		.word	gwinButtonDraw_Image
 1285 0364 00000000 		.word	.LANCHOR9
 1286 0368 00000000 		.word	.LANCHOR11
 1287 036c 00000000 		.word	.LANCHOR12
 1288 0370 00000000 		.word	.LANCHOR13
 1289 0374 00000000 		.word	.LANCHOR14
 1290 0378 00000000 		.word	.LANCHOR15
 1291 037c 00000000 		.word	.LANCHOR16
 1292 0380 00000000 		.word	.LANCHOR5
 1293 0384 90000000 		.word	.LC9
 1294 0388 00000000 		.word	.LANCHOR10
 1295 038c C4000000 		.word	.LC15
 1296 0390 C8000000 		.word	.LC16
 1297 0394 CC000000 		.word	.LC17
 1298 0398 D0000000 		.word	.LC18
 1299 039c D4000000 		.word	.LC19
 1300              	.L45:
 1301              		.loc 1 451 0
 1302 03a0 4FF0550E 		mov	lr, #85	@ movhi
 1303              		.loc 1 461 0
 1304 03a4 2068     		ldr	r0, [r4, #0]
 1305              		.loc 1 451 0
 1306 03a6 ADF80CE0 		strh	lr, [sp, #12]	@ movhi
 1307              		.loc 1 454 0
 1308 03aa CDF81CC0 		str	ip, [sp, #28]
 1309              		.loc 1 455 0
ARM GAS  C:\Users\Elis\AppData\Local\Temp\ccPAW6Bf.s 			page 24


 1310 03ae 0693     		str	r3, [sp, #24]
 1311              		.loc 1 452 0
 1312 03b0 ADF810A0 		strh	sl, [sp, #16]	@ movhi
 1313              		.loc 1 453 0
 1314 03b4 ADF81290 		strh	r9, [sp, #18]	@ movhi
 1315              		.loc 1 456 0
 1316 03b8 0897     		str	r7, [sp, #32]
 1317              		.loc 1 457 0
 1318 03ba 0A96     		str	r6, [sp, #40]
 1319              		.loc 1 458 0
 1320 03bc CDF824B0 		str	fp, [sp, #36]
 1321              		.loc 1 459 0
 1322 03c0 8DF81480 		strb	r8, [sp, #20]
 1323              		.loc 1 461 0
 1324 03c4 FFF7FEFF 		bl	gwinGButtonCreate
 1325              	.LVL98:
 1326              		.loc 1 465 0
 1327 03c8 DDF804C0 		ldr	ip, [sp, #4]
 1328              		.loc 1 461 0
 1329 03cc 5C49     		ldr	r1, .L47
 1330              		.loc 1 470 0
 1331 03ce 2B68     		ldr	r3, [r5, #0]
 1332              		.loc 1 465 0
 1333 03d0 ADF80EC0 		strh	ip, [sp, #14]	@ movhi
 1334              		.loc 1 469 0
 1335 03d4 DFF898C1 		ldr	ip, .L47+48
 1336              		.loc 1 461 0
 1337 03d8 0860     		str	r0, [r1, #0]
 1338              		.loc 1 476 0
 1339 03da 03AA     		add	r2, sp, #12
 1340 03dc 5946     		mov	r1, fp
 1341              		.loc 1 466 0
 1342 03de 4FF0A00E 		mov	lr, #160	@ movhi
 1343              		.loc 1 476 0
 1344 03e2 2068     		ldr	r0, [r4, #0]
 1345              		.loc 1 466 0
 1346 03e4 ADF80CE0 		strh	lr, [sp, #12]	@ movhi
 1347              		.loc 1 469 0
 1348 03e8 CDF81CC0 		str	ip, [sp, #28]
 1349              		.loc 1 470 0
 1350 03ec 0693     		str	r3, [sp, #24]
 1351              		.loc 1 467 0
 1352 03ee ADF810A0 		strh	sl, [sp, #16]	@ movhi
 1353              		.loc 1 468 0
 1354 03f2 ADF81290 		strh	r9, [sp, #18]	@ movhi
 1355              		.loc 1 471 0
 1356 03f6 0897     		str	r7, [sp, #32]
 1357              		.loc 1 472 0
 1358 03f8 0A96     		str	r6, [sp, #40]
 1359              		.loc 1 473 0
 1360 03fa CDF824B0 		str	fp, [sp, #36]
 1361              		.loc 1 474 0
 1362 03fe 8DF81480 		strb	r8, [sp, #20]
 1363              		.loc 1 476 0
 1364 0402 FFF7FEFF 		bl	gwinGButtonCreate
 1365              	.LVL99:
 1366 0406 4F4A     		ldr	r2, .L47+4
ARM GAS  C:\Users\Elis\AppData\Local\Temp\ccPAW6Bf.s 			page 25


 1367              		.loc 1 485 0
 1368 0408 2B68     		ldr	r3, [r5, #0]
 1369              		.loc 1 476 0
 1370 040a 1060     		str	r0, [r2, #0]
 1371              		.loc 1 481 0
 1372 040c 4FF00A0E 		mov	lr, #10	@ movhi
 1373 0410 ADF80CE0 		strh	lr, [sp, #12]	@ movhi
 1374              		.loc 1 484 0
 1375 0414 DFF85CE1 		ldr	lr, .L47+52
 1376              		.loc 1 491 0
 1377 0418 2068     		ldr	r0, [r4, #0]
 1378              		.loc 1 484 0
 1379 041a CDF81CE0 		str	lr, [sp, #28]
 1380              		.loc 1 480 0
 1381 041e 4FF08C0C 		mov	ip, #140
 1382              		.loc 1 491 0
 1383 0422 5946     		mov	r1, fp
 1384 0424 03AA     		add	r2, sp, #12
 1385              		.loc 1 480 0
 1386 0426 ADF80EC0 		strh	ip, [sp, #14]	@ movhi
 1387              		.loc 1 485 0
 1388 042a 0693     		str	r3, [sp, #24]
 1389              		.loc 1 491 0
 1390 042c CDF804C0 		str	ip, [sp, #4]
 1391              		.loc 1 482 0
 1392 0430 ADF810A0 		strh	sl, [sp, #16]	@ movhi
 1393              		.loc 1 483 0
 1394 0434 ADF81290 		strh	r9, [sp, #18]	@ movhi
 1395              		.loc 1 486 0
 1396 0438 0897     		str	r7, [sp, #32]
 1397              		.loc 1 487 0
 1398 043a 0A96     		str	r6, [sp, #40]
 1399              		.loc 1 488 0
 1400 043c CDF824B0 		str	fp, [sp, #36]
 1401              		.loc 1 489 0
 1402 0440 8DF81480 		strb	r8, [sp, #20]
 1403              		.loc 1 491 0
 1404 0444 FFF7FEFF 		bl	gwinGButtonCreate
 1405              	.LVL100:
 1406              		.loc 1 495 0
 1407 0448 DDF804C0 		ldr	ip, [sp, #4]
 1408              		.loc 1 491 0
 1409 044c 3E49     		ldr	r1, .L47+8
 1410              		.loc 1 500 0
 1411 044e 2B68     		ldr	r3, [r5, #0]
 1412              		.loc 1 495 0
 1413 0450 ADF80EC0 		strh	ip, [sp, #14]	@ movhi
 1414              		.loc 1 499 0
 1415 0454 DFF820C1 		ldr	ip, .L47+56
 1416              		.loc 1 491 0
 1417 0458 0860     		str	r0, [r1, #0]
 1418              		.loc 1 506 0
 1419 045a 03AA     		add	r2, sp, #12
 1420 045c 5946     		mov	r1, fp
 1421              		.loc 1 496 0
 1422 045e 4FF0550E 		mov	lr, #85	@ movhi
 1423              		.loc 1 506 0
ARM GAS  C:\Users\Elis\AppData\Local\Temp\ccPAW6Bf.s 			page 26


 1424 0462 2068     		ldr	r0, [r4, #0]
 1425              		.loc 1 496 0
 1426 0464 ADF80CE0 		strh	lr, [sp, #12]	@ movhi
 1427              		.loc 1 499 0
 1428 0468 CDF81CC0 		str	ip, [sp, #28]
 1429              		.loc 1 500 0
 1430 046c 0693     		str	r3, [sp, #24]
 1431              		.loc 1 497 0
 1432 046e ADF810A0 		strh	sl, [sp, #16]	@ movhi
 1433              		.loc 1 498 0
 1434 0472 ADF81290 		strh	r9, [sp, #18]	@ movhi
 1435              		.loc 1 501 0
 1436 0476 0897     		str	r7, [sp, #32]
 1437              		.loc 1 502 0
 1438 0478 0A96     		str	r6, [sp, #40]
 1439              		.loc 1 503 0
 1440 047a CDF824B0 		str	fp, [sp, #36]
 1441              		.loc 1 504 0
 1442 047e 8DF81480 		strb	r8, [sp, #20]
 1443              		.loc 1 506 0
 1444 0482 FFF7FEFF 		bl	gwinGButtonCreate
 1445              	.LVL101:
 1446              		.loc 1 510 0
 1447 0486 DDF804C0 		ldr	ip, [sp, #4]
 1448              		.loc 1 506 0
 1449 048a 304A     		ldr	r2, .L47+12
 1450              		.loc 1 515 0
 1451 048c 2B68     		ldr	r3, [r5, #0]
 1452              		.loc 1 510 0
 1453 048e ADF80EC0 		strh	ip, [sp, #14]	@ movhi
 1454              		.loc 1 514 0
 1455 0492 DFF8E8C0 		ldr	ip, .L47+60
 1456              		.loc 1 506 0
 1457 0496 1060     		str	r0, [r2, #0]
 1458              		.loc 1 521 0
 1459 0498 5946     		mov	r1, fp
 1460 049a 03AA     		add	r2, sp, #12
 1461              		.loc 1 511 0
 1462 049c 4FF0A00E 		mov	lr, #160	@ movhi
 1463              		.loc 1 521 0
 1464 04a0 2068     		ldr	r0, [r4, #0]
 1465              		.loc 1 511 0
 1466 04a2 ADF80CE0 		strh	lr, [sp, #12]	@ movhi
 1467              		.loc 1 514 0
 1468 04a6 CDF81CC0 		str	ip, [sp, #28]
 1469              		.loc 1 515 0
 1470 04aa 0693     		str	r3, [sp, #24]
 1471              		.loc 1 512 0
 1472 04ac ADF810A0 		strh	sl, [sp, #16]	@ movhi
 1473              		.loc 1 513 0
 1474 04b0 ADF81290 		strh	r9, [sp, #18]	@ movhi
 1475              		.loc 1 516 0
 1476 04b4 0897     		str	r7, [sp, #32]
 1477              		.loc 1 517 0
 1478 04b6 0A96     		str	r6, [sp, #40]
 1479              		.loc 1 518 0
 1480 04b8 CDF824B0 		str	fp, [sp, #36]
ARM GAS  C:\Users\Elis\AppData\Local\Temp\ccPAW6Bf.s 			page 27


 1481              		.loc 1 519 0
 1482 04bc 8DF81480 		strb	r8, [sp, #20]
 1483              		.loc 1 521 0
 1484 04c0 FFF7FEFF 		bl	gwinGButtonCreate
 1485              	.LVL102:
 1486 04c4 2249     		ldr	r1, .L47+16
 1487              		.loc 1 530 0
 1488 04c6 2D68     		ldr	r5, [r5, #0]
 1489              		.loc 1 521 0
 1490 04c8 0860     		str	r0, [r1, #0]
 1491              		.loc 1 536 0
 1492 04ca 2068     		ldr	r0, [r4, #0]
 1493              		.loc 1 528 0
 1494 04cc ADF81290 		strh	r9, [sp, #18]	@ movhi
 1495              		.loc 1 525 0
 1496 04d0 B924     		movs	r4, #185
 1497 04d2 ADF80E40 		strh	r4, [sp, #14]	@ movhi
 1498              		.loc 1 529 0
 1499 04d6 1F4C     		ldr	r4, .L47+20
 1500              		.loc 1 530 0
 1501 04d8 0695     		str	r5, [sp, #24]
 1502              		.loc 1 536 0
 1503 04da 03AA     		add	r2, sp, #12
 1504              		.loc 1 526 0
 1505 04dc 4FF00A0E 		mov	lr, #10	@ movhi
 1506              		.loc 1 527 0
 1507 04e0 DC23     		movs	r3, #220
 1508              		.loc 1 536 0
 1509 04e2 5946     		mov	r1, fp
 1510              		.loc 1 526 0
 1511 04e4 ADF80CE0 		strh	lr, [sp, #12]	@ movhi
 1512              		.loc 1 527 0
 1513 04e8 ADF81030 		strh	r3, [sp, #16]	@ movhi
 1514              		.loc 1 529 0
 1515 04ec 0794     		str	r4, [sp, #28]
 1516              		.loc 1 531 0
 1517 04ee 0897     		str	r7, [sp, #32]
 1518              		.loc 1 532 0
 1519 04f0 0A96     		str	r6, [sp, #40]
 1520              		.loc 1 533 0
 1521 04f2 CDF824B0 		str	fp, [sp, #36]
 1522              		.loc 1 534 0
 1523 04f6 8DF81480 		strb	r8, [sp, #20]
 1524              		.loc 1 536 0
 1525 04fa FFF7FEFF 		bl	gwinGButtonCreate
 1526              	.LVL103:
 1527 04fe 164A     		ldr	r2, .L47+24
 1528 0500 1060     		str	r0, [r2, #0]
 1529              		.loc 1 540 0
 1530 0502 4020     		movs	r0, #64
 1531 0504 FFF7FEFF 		bl	chThdSetPriority
 1532              	.LVL104:
 1533              		.loc 1 542 0
 1534 0508 25B0     		add	sp, sp, #148
 1535 050a BDE8F08F 		pop	{r4, r5, r6, r7, r8, r9, sl, fp, pc}
 1536              	.LVL105:
 1537              	.L41:
ARM GAS  C:\Users\Elis\AppData\Local\Temp\ccPAW6Bf.s 			page 28


 1538              		.loc 1 300 0
 1539 050e 134E     		ldr	r6, .L47+28
 1540              		.loc 1 299 0
 1541 0510 134F     		ldr	r7, .L47+32
 1542              		.loc 1 300 0
 1543 0512 0A96     		str	r6, [sp, #40]
 1544              		.loc 1 299 0
 1545 0514 0897     		str	r7, [sp, #32]
 1546              		.loc 1 301 0
 1547 0516 CDF82490 		str	r9, [sp, #36]
 1548 051a FBE5     		b	.L36
 1549              	.L42:
 1550              		.loc 1 326 0
 1551 051c 114F     		ldr	r7, .L47+36
 1552              		.loc 1 329 0
 1553 051e 124B     		ldr	r3, .L47+40
 1554              		.loc 1 326 0
 1555 0520 0897     		str	r7, [sp, #32]
 1556              		.loc 1 327 0
 1557 0522 0A96     		str	r6, [sp, #40]
 1558              		.loc 1 328 0
 1559 0524 CDF824A0 		str	sl, [sp, #36]
 1560              		.loc 1 329 0
 1561 0528 0793     		str	r3, [sp, #28]
 1562 052a DFF85490 		ldr	r9, .L47+64
 1563              	.LVL106:
 1564 052e 1EE6     		b	.L38
 1565              	.L43:
 1566              		.loc 1 358 0
 1567 0530 0E49     		ldr	r1, .L47+44
 1568              		.loc 1 355 0
 1569 0532 0897     		str	r7, [sp, #32]
 1570              		.loc 1 356 0
 1571 0534 0A96     		str	r6, [sp, #40]
 1572              		.loc 1 357 0
 1573 0536 CDF82480 		str	r8, [sp, #36]
 1574              		.loc 1 358 0
 1575 053a 0791     		str	r1, [sp, #28]
 1576 053c 40E6     		b	.L40
 1577              	.L48:
 1578 053e 00BF     		.align	2
 1579              	.L47:
 1580 0540 00000000 		.word	.LANCHOR17
 1581 0544 00000000 		.word	.LANCHOR18
 1582 0548 00000000 		.word	.LANCHOR19
 1583 054c 00000000 		.word	.LANCHOR20
 1584 0550 00000000 		.word	.LANCHOR21
 1585 0554 E8000000 		.word	.LC24
 1586 0558 00000000 		.word	.LANCHOR22
 1587 055c 00000000 		.word	WhiteWidgetStyle
 1588 0560 00000000 		.word	gwinContainerDraw_Std
 1589 0564 00000000 		.word	gwinButtonDraw_Normal
 1590 0568 B4000000 		.word	.LC13
 1591 056c BC000000 		.word	.LC14
 1592 0570 D8000000 		.word	.LC20
 1593 0574 DC000000 		.word	.LC21
 1594 0578 E0000000 		.word	.LC22
ARM GAS  C:\Users\Elis\AppData\Local\Temp\ccPAW6Bf.s 			page 29


 1595 057c E4000000 		.word	.LC23
 1596 0580 90000000 		.word	.LC9
 1597              		.cfi_endproc
 1598              	.LFE120:
 1599              		.size	createMakeCallScreen, .-createMakeCallScreen
 1600 0584 AFF30080 		.section	.text.destroyMakeCallScreen,"ax",%progbits
 1600      AFF30080 
 1600      AFF30080 
 1601              		.align	2
 1602              		.p2align 4,,15
 1603              		.global	destroyMakeCallScreen
 1604              		.thumb
 1605              		.thumb_func
 1606              		.type	destroyMakeCallScreen, %function
 1607              	destroyMakeCallScreen:
 1608              	.LFB121:
 1609              		.loc 1 544 0
 1610              		.cfi_startproc
 1611              		@ args = 0, pretend = 0, frame = 8
 1612              		@ frame_needed = 0, uses_anonymous_args = 0
 1613 0000 2DE9F04F 		push	{r4, r5, r6, r7, r8, r9, sl, fp, lr}
 1614              	.LCFI5:
 1615              		.cfi_def_cfa_offset 36
 1616              		.cfi_offset 4, -36
 1617              		.cfi_offset 5, -32
 1618              		.cfi_offset 6, -28
 1619              		.cfi_offset 7, -24
 1620              		.cfi_offset 8, -20
 1621              		.cfi_offset 9, -16
 1622              		.cfi_offset 10, -12
 1623              		.cfi_offset 11, -8
 1624              		.cfi_offset 14, -4
 1625              		.loc 1 548 0
 1626 0004 7F20     		movs	r0, #127
 1627              		.loc 1 544 0
 1628 0006 83B0     		sub	sp, sp, #12
 1629              	.LCFI6:
 1630              		.cfi_def_cfa_offset 48
 1631              		.loc 1 548 0
 1632 0008 FFF7FEFF 		bl	chThdSetPriority
 1633              	.LVL107:
 1634              		.loc 1 552 0
 1635 000c 40F20000 		movw	r0, #:lower16:.LANCHOR0
 1636 0010 C0F20000 		movt	r0, #:upper16:.LANCHOR0
 1637 0014 FFF7FEFF 		bl	gdispImageClose
 1638              	.LVL108:
 1639              		.loc 1 554 0
 1640 0018 40F20000 		movw	r0, #:lower16:.LANCHOR10
 1641 001c C0F20000 		movt	r0, #:upper16:.LANCHOR10
 1642 0020 FFF7FEFF 		bl	gdispImageClose
 1643              	.LVL109:
 1644              		.loc 1 556 0
 1645 0024 40F20000 		movw	r0, #:lower16:.LANCHOR5
 1646 0028 C0F20000 		movt	r0, #:upper16:.LANCHOR5
 1647 002c FFF7FEFF 		bl	gdispImageClose
 1648              	.LVL110:
 1649              		.loc 1 560 0
ARM GAS  C:\Users\Elis\AppData\Local\Temp\ccPAW6Bf.s 			page 30


 1650 0030 40F20003 		movw	r3, #:lower16:.LANCHOR1
 1651 0034 C0F20003 		movt	r3, #:upper16:.LANCHOR1
 1652              		.loc 1 564 0
 1653 0038 40F2000B 		movw	fp, #:lower16:.LANCHOR9
 1654              		.loc 1 560 0
 1655 003c 1868     		ldr	r0, [r3, #0]
 1656 003e FFF7FEFF 		bl	gwinDestroy
 1657              	.LVL111:
 1658              		.loc 1 582 0
 1659 0042 40F20001 		movw	r1, #:lower16:.LANCHOR18
 1660              		.loc 1 584 0
 1661 0046 40F20002 		movw	r2, #:lower16:.LANCHOR19
 1662              		.loc 1 586 0
 1663 004a 40F20000 		movw	r0, #:lower16:.LANCHOR20
 1664              		.loc 1 588 0
 1665 004e 40F20003 		movw	r3, #:lower16:.LANCHOR21
 1666              		.loc 1 582 0
 1667 0052 C0F20001 		movt	r1, #:upper16:.LANCHOR18
 1668              		.loc 1 584 0
 1669 0056 C0F20002 		movt	r2, #:upper16:.LANCHOR19
 1670              		.loc 1 586 0
 1671 005a C0F20000 		movt	r0, #:upper16:.LANCHOR20
 1672              		.loc 1 588 0
 1673 005e C0F20003 		movt	r3, #:upper16:.LANCHOR21
 1674              		.loc 1 586 0
 1675 0062 0090     		str	r0, [sp, #0]
 1676              		.loc 1 588 0
 1677 0064 0193     		str	r3, [sp, #4]
 1678              		.loc 1 566 0
 1679 0066 40F2000A 		movw	sl, #:lower16:.LANCHOR11
 1680              		.loc 1 564 0
 1681 006a 0023     		movs	r3, #0
 1682              		.loc 1 568 0
 1683 006c 40F20009 		movw	r9, #:lower16:.LANCHOR12
 1684              		.loc 1 570 0
 1685 0070 40F20008 		movw	r8, #:lower16:.LANCHOR22
 1686              		.loc 1 572 0
 1687 0074 40F2000C 		movw	ip, #:lower16:.LANCHOR13
 1688              		.loc 1 574 0
 1689 0078 40F20007 		movw	r7, #:lower16:.LANCHOR14
 1690              		.loc 1 576 0
 1691 007c 40F20006 		movw	r6, #:lower16:.LANCHOR15
 1692              		.loc 1 578 0
 1693 0080 40F20005 		movw	r5, #:lower16:.LANCHOR16
 1694              		.loc 1 580 0
 1695 0084 40F20004 		movw	r4, #:lower16:.LANCHOR17
 1696              		.loc 1 582 0
 1697 0088 0B60     		str	r3, [r1, #0]
 1698              		.loc 1 584 0
 1699 008a 1360     		str	r3, [r2, #0]
 1700              		.loc 1 564 0
 1701 008c C0F2000B 		movt	fp, #:upper16:.LANCHOR9
 1702              		.loc 1 566 0
 1703 0090 C0F2000A 		movt	sl, #:upper16:.LANCHOR11
 1704              		.loc 1 568 0
 1705 0094 C0F20009 		movt	r9, #:upper16:.LANCHOR12
 1706              		.loc 1 570 0
ARM GAS  C:\Users\Elis\AppData\Local\Temp\ccPAW6Bf.s 			page 31


 1707 0098 C0F20008 		movt	r8, #:upper16:.LANCHOR22
 1708              		.loc 1 572 0
 1709 009c C0F2000C 		movt	ip, #:upper16:.LANCHOR13
 1710              		.loc 1 574 0
 1711 00a0 C0F20007 		movt	r7, #:upper16:.LANCHOR14
 1712              		.loc 1 576 0
 1713 00a4 C0F20006 		movt	r6, #:upper16:.LANCHOR15
 1714              		.loc 1 578 0
 1715 00a8 C0F20005 		movt	r5, #:upper16:.LANCHOR16
 1716              		.loc 1 580 0
 1717 00ac C0F20004 		movt	r4, #:upper16:.LANCHOR17
 1718              		.loc 1 586 0
 1719 00b0 0099     		ldr	r1, [sp, #0]
 1720              		.loc 1 588 0
 1721 00b2 019A     		ldr	r2, [sp, #4]
 1722              		.loc 1 564 0
 1723 00b4 CBF80030 		str	r3, [fp, #0]
 1724              		.loc 1 592 0
 1725 00b8 4020     		movs	r0, #64
 1726              		.loc 1 566 0
 1727 00ba CAF80030 		str	r3, [sl, #0]
 1728              		.loc 1 568 0
 1729 00be C9F80030 		str	r3, [r9, #0]
 1730              		.loc 1 570 0
 1731 00c2 C8F80030 		str	r3, [r8, #0]
 1732              		.loc 1 572 0
 1733 00c6 CCF80030 		str	r3, [ip, #0]
 1734              		.loc 1 574 0
 1735 00ca 3B60     		str	r3, [r7, #0]
 1736              		.loc 1 576 0
 1737 00cc 3360     		str	r3, [r6, #0]
 1738              		.loc 1 578 0
 1739 00ce 2B60     		str	r3, [r5, #0]
 1740              		.loc 1 580 0
 1741 00d0 2360     		str	r3, [r4, #0]
 1742              		.loc 1 586 0
 1743 00d2 0B60     		str	r3, [r1, #0]
 1744              		.loc 1 588 0
 1745 00d4 1360     		str	r3, [r2, #0]
 1746              		.loc 1 594 0
 1747 00d6 03B0     		add	sp, sp, #12
 1748 00d8 BDE8F04F 		pop	{r4, r5, r6, r7, r8, r9, sl, fp, lr}
 1749              		.loc 1 592 0
 1750 00dc FFF7FEBF 		b	chThdSetPriority
 1751              	.LVL112:
 1752              		.cfi_endproc
 1753              	.LFE121:
 1754              		.size	destroyMakeCallScreen, .-destroyMakeCallScreen
 1755              		.global	c_9_b
 1756              		.global	c_8_b
 1757              		.global	c_7_b
 1758              		.global	c_6_b
 1759              		.global	c_5_b
 1760              		.global	c_4_b
 1761              		.global	c_3_b
 1762              		.global	c_2_b
 1763              		.global	c_1_b
ARM GAS  C:\Users\Elis\AppData\Local\Temp\ccPAW6Bf.s 			page 32


 1764              		.global	c_0_b
 1765              		.global	telNum_calls_lb
 1766              		.global	back_calls_b
 1767              		.global	call_calls_b
 1768              		.global	calls_calls_l
 1769              		.global	clear_calls_b
 1770              		.global	home_calls_b
 1771              		.global	open_calls_b
 1772              		.section	.bss.c_6_b,"aw",%nobits
 1773              		.align	2
 1774              		.set	.LANCHOR18,. + 0
 1775              		.type	c_6_b, %object
 1776              		.size	c_6_b, 4
 1777              	c_6_b:
 1778 0000 00000000 		.space	4
 1779              		.section	.bss.clear_p,"aw",%nobits
 1780              		.align	2
 1781              		.set	.LANCHOR7,. + 0
 1782              		.type	clear_p, %object
 1783              		.size	clear_p, 24
 1784              	clear_p:
 1785 0000 00000000 		.space	24
 1785      00000000 
 1785      00000000 
 1785      00000000 
 1785      00000000 
 1786              		.section	.bss.calls_calls_l,"aw",%nobits
 1787              		.align	2
 1788              		.set	.LANCHOR2,. + 0
 1789              		.type	calls_calls_l, %object
 1790              		.size	calls_calls_l, 4
 1791              	calls_calls_l:
 1792 0000 00000000 		.space	4
 1793              		.section	.bss.back_p,"aw",%nobits
 1794              		.align	2
 1795              		.set	.LANCHOR10,. + 0
 1796              		.type	back_p, %object
 1797              		.size	back_p, 24
 1798              	back_p:
 1799 0000 00000000 		.space	24
 1799      00000000 
 1799      00000000 
 1799      00000000 
 1799      00000000 
 1800              		.section	.bss.c_0_b,"aw",%nobits
 1801              		.align	2
 1802              		.set	.LANCHOR22,. + 0
 1803              		.type	c_0_b, %object
 1804              		.size	c_0_b, 4
 1805              	c_0_b:
 1806 0000 00000000 		.space	4
 1807              		.section	.bss.telNum_calls_lb,"aw",%nobits
 1808              		.align	2
 1809              		.set	.LANCHOR12,. + 0
 1810              		.type	telNum_calls_lb, %object
 1811              		.size	telNum_calls_lb, 4
 1812              	telNum_calls_lb:
ARM GAS  C:\Users\Elis\AppData\Local\Temp\ccPAW6Bf.s 			page 33


 1813 0000 00000000 		.space	4
 1814              		.section	.bss.call_calls_b,"aw",%nobits
 1815              		.align	2
 1816              		.set	.LANCHOR9,. + 0
 1817              		.type	call_calls_b, %object
 1818              		.size	call_calls_b, 4
 1819              	call_calls_b:
 1820 0000 00000000 		.space	4
 1821              		.section	.bss.mainContainer_c,"aw",%nobits
 1822              		.align	2
 1823              		.set	.LANCHOR1,. + 0
 1824              		.type	mainContainer_c, %object
 1825              		.size	mainContainer_c, 4
 1826              	mainContainer_c:
 1827 0000 00000000 		.space	4
 1828              		.section	.bss.clear_calls_b,"aw",%nobits
 1829              		.align	2
 1830              		.set	.LANCHOR8,. + 0
 1831              		.type	clear_calls_b, %object
 1832              		.size	clear_calls_b, 4
 1833              	clear_calls_b:
 1834 0000 00000000 		.space	4
 1835              		.section	.bss.c_4_b,"aw",%nobits
 1836              		.align	2
 1837              		.set	.LANCHOR16,. + 0
 1838              		.type	c_4_b, %object
 1839              		.size	c_4_b, 4
 1840              	c_4_b:
 1841 0000 00000000 		.space	4
 1842              		.section	.bss.c_9_b,"aw",%nobits
 1843              		.align	2
 1844              		.set	.LANCHOR21,. + 0
 1845              		.type	c_9_b, %object
 1846              		.size	c_9_b, 4
 1847              	c_9_b:
 1848 0000 00000000 		.space	4
 1849              		.section	.bss.home_p,"aw",%nobits
 1850              		.align	2
 1851              		.set	.LANCHOR3,. + 0
 1852              		.type	home_p, %object
 1853              		.size	home_p, 24
 1854              	home_p:
 1855 0000 00000000 		.space	24
 1855      00000000 
 1855      00000000 
 1855      00000000 
 1855      00000000 
 1856              		.section	.bss.open_calls_b,"aw",%nobits
 1857              		.align	2
 1858              		.set	.LANCHOR6,. + 0
 1859              		.type	open_calls_b, %object
 1860              		.size	open_calls_b, 4
 1861              	open_calls_b:
 1862 0000 00000000 		.space	4
 1863              		.section	.bss.call_p,"aw",%nobits
 1864              		.align	2
 1865              		.set	.LANCHOR5,. + 0
ARM GAS  C:\Users\Elis\AppData\Local\Temp\ccPAW6Bf.s 			page 34


 1866              		.type	call_p, %object
 1867              		.size	call_p, 24
 1868              	call_p:
 1869 0000 00000000 		.space	24
 1869      00000000 
 1869      00000000 
 1869      00000000 
 1869      00000000 
 1870              		.section	.rodata.str1.4,"aMS",%progbits,1
 1871              		.align	2
 1872              	.LC0:
 1873 0000 2F746865 		.ascii	"/themes/\000"
 1873      6D65732F 
 1873      00
 1874 0009 000000   		.space	3
 1875              	.LC1:
 1876 000c 2F626163 		.ascii	"/background/background.gif\000"
 1876      6B67726F 
 1876      756E642F 
 1876      6261636B 
 1876      67726F75 
 1877 0027 00       		.space	1
 1878              	.LC2:
 1879 0028 726200   		.ascii	"rb\000"
 1880 002b 00       		.space	1
 1881              	.LC3:
 1882 002c 2F69636F 		.ascii	"/icons/homeButton.gif\000"
 1882      6E732F68 
 1882      6F6D6542 
 1882      7574746F 
 1882      6E2E6769 
 1883 0042 0000     		.space	2
 1884              	.LC4:
 1885 0044 2F69636F 		.ascii	"/icons/call.gif\000"
 1885      6E732F63 
 1885      616C6C2E 
 1885      67696600 
 1886              	.LC5:
 1887 0054 2F69636F 		.ascii	"/icons/delButton.gif\000"
 1887      6E732F64 
 1887      656C4275 
 1887      74746F6E 
 1887      2E676966 
 1888 0069 000000   		.space	3
 1889              	.LC6:
 1890 006c 436F6E74 		.ascii	"Container\000"
 1890      61696E65 
 1890      7200
 1891 0076 0000     		.space	2
 1892              	.LC7:
 1893 0078 4D697373 		.ascii	"Missed calls\000"
 1893      65642063 
 1893      616C6C73 
 1893      00
 1894 0085 000000   		.space	3
 1895              	.LC8:
 1896 0088 486F6D65 		.ascii	"Home\000"
ARM GAS  C:\Users\Elis\AppData\Local\Temp\ccPAW6Bf.s 			page 35


 1896      00
 1897 008d 000000   		.space	3
 1898              	.LC9:
 1899 0090 00       		.ascii	"\000"
 1900 0091 000000   		.space	3
 1901              	.LC10:
 1902 0094 4F70656E 		.ascii	"OpenC\000"
 1902      4300
 1903 009a 0000     		.space	2
 1904              	.LC11:
 1905 009c 436C6561 		.ascii	"Clear\000"
 1905      7200
 1906 00a2 0000     		.space	2
 1907              	.LC12:
 1908 00a4 2F69636F 		.ascii	"/icons/back.gif\000"
 1908      6E732F62 
 1908      61636B2E 
 1908      67696600 
 1909              	.LC13:
 1910 00b4 43616C6C 		.ascii	"Call\000"
 1910      00
 1911 00b9 000000   		.space	3
 1912              	.LC14:
 1913 00bc 4261636B 		.ascii	"Back\000"
 1913      00
 1914 00c1 000000   		.space	3
 1915              	.LC15:
 1916 00c4 3100     		.ascii	"1\000"
 1917 00c6 0000     		.space	2
 1918              	.LC16:
 1919 00c8 3200     		.ascii	"2\000"
 1920 00ca 0000     		.space	2
 1921              	.LC17:
 1922 00cc 3300     		.ascii	"3\000"
 1923 00ce 0000     		.space	2
 1924              	.LC18:
 1925 00d0 3400     		.ascii	"4\000"
 1926 00d2 0000     		.space	2
 1927              	.LC19:
 1928 00d4 3500     		.ascii	"5\000"
 1929 00d6 0000     		.space	2
 1930              	.LC20:
 1931 00d8 3600     		.ascii	"6\000"
 1932 00da 0000     		.space	2
 1933              	.LC21:
 1934 00dc 3700     		.ascii	"7\000"
 1935 00de 0000     		.space	2
 1936              	.LC22:
 1937 00e0 3800     		.ascii	"8\000"
 1938 00e2 0000     		.space	2
 1939              	.LC23:
 1940 00e4 3900     		.ascii	"9\000"
 1941 00e6 0000     		.space	2
 1942              	.LC24:
 1943 00e8 3000     		.ascii	"0\000"
 1944 00ea 0000     		.section	.bss.c_3_b,"aw",%nobits
 1945              		.align	2
ARM GAS  C:\Users\Elis\AppData\Local\Temp\ccPAW6Bf.s 			page 36


 1946              		.set	.LANCHOR15,. + 0
 1947              		.type	c_3_b, %object
 1948              		.size	c_3_b, 4
 1949              	c_3_b:
 1950 0000 00000000 		.space	4
 1951              		.section	.bss.c_7_b,"aw",%nobits
 1952              		.align	2
 1953              		.set	.LANCHOR19,. + 0
 1954              		.type	c_7_b, %object
 1955              		.size	c_7_b, 4
 1956              	c_7_b:
 1957 0000 00000000 		.space	4
 1958              		.section	.bss.background_p,"aw",%nobits
 1959              		.align	2
 1960              		.set	.LANCHOR0,. + 0
 1961              		.type	background_p, %object
 1962              		.size	background_p, 24
 1963              	background_p:
 1964 0000 00000000 		.space	24
 1964      00000000 
 1964      00000000 
 1964      00000000 
 1964      00000000 
 1965              		.section	.bss.c_5_b,"aw",%nobits
 1966              		.align	2
 1967              		.set	.LANCHOR17,. + 0
 1968              		.type	c_5_b, %object
 1969              		.size	c_5_b, 4
 1970              	c_5_b:
 1971 0000 00000000 		.space	4
 1972              		.section	.bss.c_2_b,"aw",%nobits
 1973              		.align	2
 1974              		.set	.LANCHOR14,. + 0
 1975              		.type	c_2_b, %object
 1976              		.size	c_2_b, 4
 1977              	c_2_b:
 1978 0000 00000000 		.space	4
 1979              		.section	.bss.back_calls_b,"aw",%nobits
 1980              		.align	2
 1981              		.set	.LANCHOR11,. + 0
 1982              		.type	back_calls_b, %object
 1983              		.size	back_calls_b, 4
 1984              	back_calls_b:
 1985 0000 00000000 		.space	4
 1986              		.section	.bss.c_8_b,"aw",%nobits
 1987              		.align	2
 1988              		.set	.LANCHOR20,. + 0
 1989              		.type	c_8_b, %object
 1990              		.size	c_8_b, 4
 1991              	c_8_b:
 1992 0000 00000000 		.space	4
 1993              		.section	.bss.home_calls_b,"aw",%nobits
 1994              		.align	2
 1995              		.set	.LANCHOR4,. + 0
 1996              		.type	home_calls_b, %object
 1997              		.size	home_calls_b, 4
 1998              	home_calls_b:
ARM GAS  C:\Users\Elis\AppData\Local\Temp\ccPAW6Bf.s 			page 37


 1999 0000 00000000 		.space	4
 2000              		.section	.bss.c_1_b,"aw",%nobits
 2001              		.align	2
 2002              		.set	.LANCHOR13,. + 0
 2003              		.type	c_1_b, %object
 2004              		.size	c_1_b, 4
 2005              	c_1_b:
 2006 0000 00000000 		.space	4
 2007              		.text
 2008              	.Letext0:
 2009              		.file 2 "c:\\chibistudio\\tools\\gnu tools arm embedded\\4.7 2014q2\\bin\\../lib/gcc/arm-none-eabi
 2010              		.file 3 "c:\\chibistudio\\tools\\gnu tools arm embedded\\4.7 2014q2\\bin\\../lib/gcc/arm-none-eabi
 2011              		.file 4 "../../chibios/os/ports/GCC/ARMCMx/chtypes.h"
 2012              		.file 5 "../../ugfx/src/gfile/gfile.h"
 2013              		.file 6 "../../ugfx/src/gqueue/gqueue.h"
 2014              		.file 7 "../../ugfx/src/gdisp/gdisp.h"
 2015              		.file 8 "../../ugfx/src/gdisp/gdisp_colors.h"
 2016              		.file 9 "../../ugfx/src/gdisp/gdisp_image.h"
 2017              		.file 10 "../../ugfx/src/gwin/gwin.h"
 2018              		.file 11 "../../ugfx/src/gwin/gwin_widget.h"
 2019              		.file 12 "../../ugfx/src/gwin/gwin_button.h"
 2020              		.file 13 "../../ugfx/src/gwin/gwin_list.h"
 2021              		.file 14 "../../ugfx/src/gwin/gwin_container.h"
 2022              		.file 15 "../../workspace26/Mobile_phone/structures/structures.h"
 2023              		.file 16 "../../chibios/os/ports/common/ARMCMx/CMSIS/include/core_cm4.h"
 2024              		.file 17 "../../chibios/os/kernel/include/chthreads.h"
 2025              		.file 18 "c:\\chibistudio\\tools\\gnu tools arm embedded\\4.7 2014q2\\bin\\../lib/gcc/arm-none-eab
 2026              		.file 19 "<built-in>"