ARM GAS  C:\Users\Elis\AppData\Local\Temp\ccLUuLws.s 			page 1


   1              		.syntax unified
   2              		.cpu cortex-m4
   3              		.fpu softvfp
   4              		.eabi_attribute 20, 1
   5              		.eabi_attribute 21, 1
   6              		.eabi_attribute 23, 3
   7              		.eabi_attribute 24, 1
   8              		.eabi_attribute 25, 1
   9              		.eabi_attribute 26, 1
  10              		.eabi_attribute 30, 2
  11              		.eabi_attribute 34, 1
  12              		.eabi_attribute 18, 4
  13              		.thumb
  14              		.file	"chcore_v7m.c"
  15              		.text
  16              	.Ltext0:
  17              		.cfi_sections	.debug_frame
  18              		.section	.text._port_switch_from_isr,"ax",%progbits
  19              		.align	2
  20              		.p2align 4,,15
  21              		.global	_port_switch_from_isr
  22              		.thumb
  23              		.thumb_func
  24              		.type	_port_switch_from_isr, %function
  25              	_port_switch_from_isr:
  26              	.LFB11:
  27              		.file 1 "../../chibios/os/ports/GCC/ARMCMx/chcore_v7m.c"
  28              		.loc 1 200 0
  29              		.cfi_startproc
  30              		@ Naked Function: prologue and epilogue provided by programmer.
  31              		@ args = 0, pretend = 0, frame = 0
  32              		@ frame_needed = 0, uses_anonymous_args = 0
  33              		.loc 1 202 0
  34 0000 FFF7FEFF 		bl	dbg_check_lock
  35              	.LVL0:
  36              		.loc 1 203 0
  37 0004 FFF7FEFF 		bl	chSchDoReschedule
  38              	.LVL1:
  39              		.loc 1 204 0
  40 0008 FFF7FEFF 		bl	dbg_check_unlock
  41              	.LVL2:
  42              		.loc 1 205 0
  43              	@ 205 "../../chibios/os/ports/GCC/ARMCMx/chcore_v7m.c" 1
  44              		_port_exit_from_isr:
  45              	@ 0 "" 2
  46              		.loc 1 207 0
  47              	@ 207 "../../chibios/os/ports/GCC/ARMCMx/chcore_v7m.c" 1
  48 000c 00DF     		svc     #0
  49              	@ 0 "" 2
  50              		.loc 1 214 0
  51              		.thumb
  52              		.cfi_endproc
  53              	.LFE11:
  54              		.size	_port_switch_from_isr, .-_port_switch_from_isr
  55 000e 00BF     		.section	.text.SVCallVector,"ax",%progbits
  56              		.align	2
  57              		.p2align 4,,15
ARM GAS  C:\Users\Elis\AppData\Local\Temp\ccLUuLws.s 			page 2


  58              		.global	SVCallVector
  59              		.thumb
  60              		.thumb_func
  61              		.type	SVCallVector, %function
  62              	SVCallVector:
  63              	.LFB8:
  64              		.loc 1 65 0
  65              		.cfi_startproc
  66              		@ args = 0, pretend = 0, frame = 0
  67              		@ frame_needed = 0, uses_anonymous_args = 0
  68              		@ link register save eliminated.
  69              		.loc 1 74 0
  70              	@ 74 "../../chibios/os/ports/GCC/ARMCMx/chcore_v7m.c" 1
  71 0000 EFF30983 		mrs     r3, PSP
  72              	@ 0 "" 2
  73              	.LVL3:
  74              		.loc 1 78 0
  75              		.thumb
  76 0004 2033     		adds	r3, r3, #32
  77              	.LVL4:
  78              		.loc 1 81 0
  79              	@ 81 "../../chibios/os/ports/GCC/ARMCMx/chcore_v7m.c" 1
  80 0006 83F30988 		msr     PSP, r3
  81              	@ 0 "" 2
  82              		.thumb
  83              	.LBB2:
  84              		.loc 1 82 0
  85 000a 0023     		movs	r3, #0
  86              	.LVL5:
  87              	@ 82 "../../chibios/os/ports/GCC/ARMCMx/chcore_v7m.c" 1
  88 000c 83F31188 		msr     BASEPRI, r3
  89              	@ 0 "" 2
  90              	.LVL6:
  91              		.thumb
  92 0010 7047     		bx	lr
  93              	.LBE2:
  94              		.cfi_endproc
  95              	.LFE8:
  96              		.size	SVCallVector, .-SVCallVector
  97 0012 00BFAFF3 		.section	.text._port_init,"ax",%progbits
  97      0080AFF3 
  97      0080AFF3 
  97      0080
  98              		.align	2
  99              		.p2align 4,,15
 100              		.global	_port_init
 101              		.thumb
 102              		.thumb_func
 103              		.type	_port_init, %function
 104              	_port_init:
 105              	.LFB9:
 106              		.loc 1 120 0
 107              		.cfi_startproc
 108              		@ args = 0, pretend = 0, frame = 0
 109              		@ frame_needed = 0, uses_anonymous_args = 0
 110 0000 08B5     		push	{r3, lr}
 111              	.LCFI0:
ARM GAS  C:\Users\Elis\AppData\Local\Temp\ccLUuLws.s 			page 3


 112              		.cfi_def_cfa_offset 8
 113              		.cfi_offset 3, -8
 114              		.cfi_offset 14, -4
 115              		.loc 1 123 0
 116 0002 4FF46D43 		mov	r3, #60672
 117 0006 CEF20003 		movt	r3, 57344
 118              		.loc 1 124 0
 119 000a 4FF44072 		mov	r2, #768
 120 000e C0F2FA52 		movt	r2, 1530
 121              		.loc 1 123 0
 122 0012 0021     		movs	r1, #0
 123 0014 9960     		str	r1, [r3, #8]
 124              		.loc 1 127 0
 125 0016 0720     		movs	r0, #7
 126 0018 1021     		movs	r1, #16
 127              		.loc 1 124 0
 128 001a DA60     		str	r2, [r3, #12]
 129              		.loc 1 127 0
 130 001c FFF7FEFF 		bl	nvicSetSystemHandlerPriority
 131              	.LVL7:
 132              		.loc 1 129 0
 133 0020 0A20     		movs	r0, #10
 134 0022 2021     		movs	r1, #32
 135 0024 FFF7FEFF 		bl	nvicSetSystemHandlerPriority
 136              	.LVL8:
 137              		.loc 1 131 0
 138 0028 0B20     		movs	r0, #11
 139 002a 8021     		movs	r1, #128
 140              		.loc 1 133 0
 141 002c BDE80840 		pop	{r3, lr}
 142              		.loc 1 131 0
 143 0030 FFF7FEBF 		b	nvicSetSystemHandlerPriority
 144              	.LVL9:
 145              		.cfi_endproc
 146              	.LFE9:
 147              		.size	_port_init, .-_port_init
 148 0034 AFF30080 		.section	.text._port_irq_epilogue,"ax",%progbits
 148      AFF30080 
 148      AFF30080 
 149              		.align	2
 150              		.p2align 4,,15
 151              		.global	_port_irq_epilogue
 152              		.thumb
 153              		.thumb_func
 154              		.type	_port_irq_epilogue, %function
 155              	_port_irq_epilogue:
 156              	.LFB10:
 157              		.loc 1 150 0
 158              		.cfi_startproc
 159              		@ args = 0, pretend = 0, frame = 0
 160              		@ frame_needed = 0, uses_anonymous_args = 0
 161              		@ link register save eliminated.
 162              	.LBB3:
 163              		.loc 1 152 0
 164 0000 2023     		movs	r3, #32
 165              	.LVL10:
 166              	@ 152 "../../chibios/os/ports/GCC/ARMCMx/chcore_v7m.c" 1
ARM GAS  C:\Users\Elis\AppData\Local\Temp\ccLUuLws.s 			page 4


 167 0002 83F31188 		msr     BASEPRI, r3
 168              	@ 0 "" 2
 169              	.LVL11:
 170              		.thumb
 171              	.LBE3:
 172              		.loc 1 153 0
 173 0006 4FF46D43 		mov	r3, #60672
 174              	.LVL12:
 175 000a CEF20003 		movt	r3, 57344
 176 000e 5868     		ldr	r0, [r3, #4]
 177 0010 10F40063 		ands	r3, r0, #2048
 178 0014 19D0     		beq	.L5
 179              	.LBB4:
 180              		.loc 1 163 0
 181              	@ 163 "../../chibios/os/ports/GCC/ARMCMx/chcore_v7m.c" 1
 182 0016 EFF30983 		mrs     r3, PSP
 183              	@ 0 "" 2
 184              	.LVL13:
 185              		.loc 1 168 0
 186              		.thumb
 187 001a 4FF08072 		mov	r2, #16777216
 188 001e 43F8042C 		str	r2, [r3, #-4]
 189              		.loc 1 167 0
 190 0022 A3F12001 		sub	r1, r3, #32
 191              	.LVL14:
 192              		.loc 1 172 0
 193              	@ 172 "../../chibios/os/ports/GCC/ARMCMx/chcore_v7m.c" 1
 194 0026 81F30988 		msr     PSP, r1
 195              	@ 0 "" 2
 196              		.loc 1 176 0
 197              		.thumb
 198 002a 0E49     		ldr	r1, .L12
 199              	.LVL15:
 200 002c 8A69     		ldr	r2, [r1, #24]
 201 002e 0968     		ldr	r1, [r1, #0]
 202 0030 D07F     		ldrb	r0, [r2, #31]	@ zero_extendqisi2
 203 0032 8968     		ldr	r1, [r1, #8]
 204 0034 9268     		ldr	r2, [r2, #8]
 205 0036 58B1     		cbz	r0, .L6
 206              		.loc 1 176 0 is_stmt 0 discriminator 1
 207 0038 9142     		cmp	r1, r2
 208 003a 94BF     		ite	ls
 209 003c 0022     		movls	r2, #0
 210 003e 0122     		movhi	r2, #1
 211 0040 62B1     		cbz	r2, .L8
 212              	.L11:
 213              		.loc 1 178 0 is_stmt 1
 214 0042 094A     		ldr	r2, .L12+4
 215 0044 43F8082C 		str	r2, [r3, #-8]
 216 0048 7047     		bx	lr
 217              	.LVL16:
 218              	.L5:
 219              	.LBE4:
 220              	.LBB5:
 221              		.loc 1 190 0
 222              	@ 190 "../../chibios/os/ports/GCC/ARMCMx/chcore_v7m.c" 1
 223 004a 83F31188 		msr     BASEPRI, r3
ARM GAS  C:\Users\Elis\AppData\Local\Temp\ccLUuLws.s 			page 5


 224              	@ 0 "" 2
 225              	.LVL17:
 226              		.thumb
 227 004e 7047     		bx	lr
 228              	.LVL18:
 229              	.L6:
 230              	.LBE5:
 231              	.LBB6:
 232              		.loc 1 176 0 discriminator 2
 233 0050 9142     		cmp	r1, r2
 234 0052 34BF     		ite	cc
 235 0054 0022     		movcc	r2, #0
 236 0056 0122     		movcs	r2, #1
 237 0058 002A     		cmp	r2, #0
 238 005a F2D1     		bne	.L11
 239              	.L8:
 240              		.loc 1 183 0
 241 005c 0348     		ldr	r0, .L12+8
 242 005e 43F8080C 		str	r0, [r3, #-8]
 243 0062 7047     		bx	lr
 244              	.L13:
 245              		.align	2
 246              	.L12:
 247 0064 00000000 		.word	rlist
 248 0068 00000000 		.word	_port_switch_from_isr
 249 006c 0C000000 		.word	_port_exit_from_isr
 250              	.LBE6:
 251              		.cfi_endproc
 252              	.LFE10:
 253              		.size	_port_irq_epilogue, .-_port_irq_epilogue
 254              		.section	.text.SysTickVector,"ax",%progbits
 255              		.align	2
 256              		.p2align 4,,15
 257              		.global	SysTickVector
 258              		.thumb
 259              		.thumb_func
 260              		.type	SysTickVector, %function
 261              	SysTickVector:
 262              	.LFB7:
 263              		.loc 1 47 0
 264              		.cfi_startproc
 265              		@ args = 0, pretend = 0, frame = 0
 266              		@ frame_needed = 0, uses_anonymous_args = 0
 267 0000 08B5     		push	{r3, lr}
 268              	.LCFI1:
 269              		.cfi_def_cfa_offset 8
 270              		.cfi_offset 3, -8
 271              		.cfi_offset 14, -4
 272              		.loc 1 49 0
 273 0002 FFF7FEFF 		bl	dbg_check_enter_isr
 274              	.LVL19:
 275              	.LBB7:
 276              		.loc 1 51 0
 277 0006 2023     		movs	r3, #32
 278              	.LVL20:
 279              	@ 51 "../../chibios/os/ports/GCC/ARMCMx/chcore_v7m.c" 1
 280 0008 83F31188 		msr     BASEPRI, r3
ARM GAS  C:\Users\Elis\AppData\Local\Temp\ccLUuLws.s 			page 6


 281              	@ 0 "" 2
 282              	.LVL21:
 283              		.thumb
 284              	.LBE7:
 285 000c FFF7FEFF 		bl	dbg_check_lock_from_isr
 286              	.LVL22:
 287              		.loc 1 52 0
 288 0010 FFF7FEFF 		bl	chSysTimerHandlerI
 289              	.LVL23:
 290              		.loc 1 53 0
 291 0014 FFF7FEFF 		bl	dbg_check_unlock_from_isr
 292              	.LVL24:
 293              	.LBB8:
 294 0018 0023     		movs	r3, #0
 295              	.LVL25:
 296              	@ 53 "../../chibios/os/ports/GCC/ARMCMx/chcore_v7m.c" 1
 297 001a 83F31188 		msr     BASEPRI, r3
 298              	@ 0 "" 2
 299              	.LVL26:
 300              		.thumb
 301              	.LBE8:
 302              		.loc 1 55 0
 303 001e FFF7FEFF 		bl	dbg_check_leave_isr
 304              	.LVL27:
 305              		.loc 1 56 0
 306 0022 BDE80840 		pop	{r3, lr}
 307              		.loc 1 55 0
 308 0026 FFF7FEBF 		b	_port_irq_epilogue
 309              	.LVL28:
 310              		.cfi_endproc
 311              	.LFE7:
 312              		.size	SysTickVector, .-SysTickVector
 313 002a 00BFAFF3 		.section	.text._port_switch,"ax",%progbits
 313      0080
 314              		.align	2
 315              		.p2align 4,,15
 316              		.global	_port_switch
 317              		.thumb
 318              		.thumb_func
 319              		.type	_port_switch, %function
 320              	_port_switch:
 321              	.LFB12:
 322              		.loc 1 229 0
 323              		.cfi_startproc
 324              		@ Naked Function: prologue and epilogue provided by programmer.
 325              		@ args = 0, pretend = 0, frame = 0
 326              		@ frame_needed = 0, uses_anonymous_args = 0
 327              	.LVL29:
 328              		.loc 1 231 0
 329              	@ 231 "../../chibios/os/ports/GCC/ARMCMx/chcore_v7m.c" 1
 330 0000 2DE9F04F 		push    {r4, r5, r6, r7, r8, r9, r10, r11, lr}
 331              	@ 0 "" 2
 332              		.loc 1 237 0
 333              	@ 237 "../../chibios/os/ports/GCC/ARMCMx/chcore_v7m.c" 1
 334 0004 C1F80CD0 		str     sp, [r1, #12]                          
 335 0008 D0F80CD0 		ldr     sp, [r0, #12]
 336              	@ 0 "" 2
ARM GAS  C:\Users\Elis\AppData\Local\Temp\ccLUuLws.s 			page 7


 337              		.loc 1 243 0
 338              	@ 243 "../../chibios/os/ports/GCC/ARMCMx/chcore_v7m.c" 1
 339 000c BDE8F08F 		pop     {r4, r5, r6, r7, r8, r9, r10, r11, pc}
 340              	@ 0 "" 2
 341              		.loc 1 245 0
 342              		.thumb
 343              		.cfi_endproc
 344              	.LFE12:
 345              		.size	_port_switch, .-_port_switch
 346              		.section	.text._port_thread_start,"ax",%progbits
 347              		.align	2
 348              		.p2align 4,,15
 349              		.global	_port_thread_start
 350              		.thumb
 351              		.thumb_func
 352              		.type	_port_thread_start, %function
 353              	_port_thread_start:
 354              	.LFB13:
 355              		.loc 1 252 0
 356              		.cfi_startproc
 357              		@ args = 0, pretend = 0, frame = 0
 358              		@ frame_needed = 0, uses_anonymous_args = 0
 359 0000 08B5     		push	{r3, lr}
 360              	.LCFI2:
 361              		.cfi_def_cfa_offset 8
 362              		.cfi_offset 3, -8
 363              		.cfi_offset 14, -4
 364              		.loc 1 254 0
 365 0002 FFF7FEFF 		bl	dbg_check_unlock
 366              	.LVL30:
 367              	.LBB9:
 368 0006 0023     		movs	r3, #0
 369              	.LVL31:
 370              	@ 254 "../../chibios/os/ports/GCC/ARMCMx/chcore_v7m.c" 1
 371 0008 83F31188 		msr     BASEPRI, r3
 372              	@ 0 "" 2
 373              	.LVL32:
 374              		.thumb
 375              	.LBE9:
 376              		.loc 1 255 0
 377              	@ 255 "../../chibios/os/ports/GCC/ARMCMx/chcore_v7m.c" 1
 378 000c 2846     		mov     r0, r5                                 
 379 000e A047     		blx     r4                                     
 380 0010 FFF7FEFF 		bl      chThdExit
 381              	@ 0 "" 2
 382              		.thumb
 383 0014 08BD     		pop	{r3, pc}
 384              		.cfi_endproc
 385              	.LFE13:
 386              		.size	_port_thread_start, .-_port_thread_start
 387 0016 00BFAFF3 		.text
 387      0080AFF3 
 387      0080
 388              	.Letext0:
 389              		.file 2 "c:\\chibistudio\\tools\\gnu tools arm embedded\\4.7 2014q2\\bin\\../lib/gcc/arm-none-eabi
 390              		.file 3 "../../chibios/os/ports/GCC/ARMCMx/chtypes.h"
 391              		.file 4 "../../chibios/os/kernel/include/chlists.h"
ARM GAS  C:\Users\Elis\AppData\Local\Temp\ccLUuLws.s 			page 8


 392              		.file 5 "../../chibios/os/kernel/include/chthreads.h"
 393              		.file 6 "../../chibios/os/ports/GCC/ARMCMx/chcore_v7m.h"
 394              		.file 7 "../../chibios/os/ports/common/ARMCMx/nvic.h"
 395              		.file 8 "../../chibios/os/kernel/include/chschd.h"
 396              		.file 9 "../../chibios/os/kernel/include/chmtx.h"
 397              		.file 10 "../../chibios/os/kernel/include/chdebug.h"
 398              		.file 11 "../../chibios/os/kernel/include/chsys.h"