ARM GAS  C:\Users\Elis\AppData\Local\Temp\ccKxFDzf.s 			page 1


   1              		.syntax unified
   2              		.cpu cortex-m4
   3              		.fpu softvfp
   4              		.eabi_attribute 20, 1
   5              		.eabi_attribute 21, 1
   6              		.eabi_attribute 23, 3
   7              		.eabi_attribute 24, 1
   8              		.eabi_attribute 25, 1
   9              		.eabi_attribute 26, 1
  10              		.eabi_attribute 30, 2
  11              		.eabi_attribute 34, 1
  12              		.eabi_attribute 18, 4
  13              		.thumb
  14              		.file	"chcond.c"
  15              		.text
  16              	.Ltext0:
  17              		.cfi_sections	.debug_frame
  18              		.section	.text.chCondInit,"ax",%progbits
  19              		.align	2
  20              		.p2align 4,,15
  21              		.global	chCondInit
  22              		.thumb
  23              		.thumb_func
  24              		.type	chCondInit, %function
  25              	chCondInit:
  26              	.LFB7:
  27              		.file 1 "../../chibios/os/kernel/src/chcond.c"
  28              		.loc 1 59 0
  29              		.cfi_startproc
  30              		@ args = 0, pretend = 0, frame = 0
  31              		@ frame_needed = 0, uses_anonymous_args = 0
  32              		@ link register save eliminated.
  33              	.LVL0:
  34              		.loc 1 63 0
  35 0000 4060     		str	r0, [r0, #4]
  36 0002 0060     		str	r0, [r0, #0]
  37 0004 7047     		bx	lr
  38              		.cfi_endproc
  39              	.LFE7:
  40              		.size	chCondInit, .-chCondInit
  41 0006 00BFAFF3 		.section	.text.chCondSignal,"ax",%progbits
  41      0080AFF3 
  41      0080
  42              		.align	2
  43              		.p2align 4,,15
  44              		.global	chCondSignal
  45              		.thumb
  46              		.thumb_func
  47              		.type	chCondSignal, %function
  48              	chCondSignal:
  49              	.LFB8:
  50              		.loc 1 73 0
  51              		.cfi_startproc
  52              		@ args = 0, pretend = 0, frame = 0
  53              		@ frame_needed = 0, uses_anonymous_args = 0
  54              	.LVL1:
  55 0000 10B5     		push	{r4, lr}
ARM GAS  C:\Users\Elis\AppData\Local\Temp\ccKxFDzf.s 			page 2


  56              	.LCFI0:
  57              		.cfi_def_cfa_offset 8
  58              		.cfi_offset 4, -8
  59              		.cfi_offset 14, -4
  60              	.LBB14:
  61              		.loc 1 77 0
  62 0002 2023     		movs	r3, #32
  63              	.LVL2:
  64              	.LBE14:
  65              		.loc 1 73 0
  66 0004 0446     		mov	r4, r0
  67              	.LBB15:
  68              		.loc 1 77 0
  69              	@ 77 "../../chibios/os/kernel/src/chcond.c" 1
  70 0006 83F31188 		msr     BASEPRI, r3
  71              	@ 0 "" 2
  72              	.LVL3:
  73              		.thumb
  74              	.LBE15:
  75 000a FFF7FEFF 		bl	dbg_check_lock
  76              	.LVL4:
  77              		.loc 1 78 0
  78 000e 2068     		ldr	r0, [r4, #0]
  79 0010 A042     		cmp	r0, r4
  80 0012 05D0     		beq	.L3
  81              	.LVL5:
  82              	.LBB16:
  83              	.LBB17:
  84              		.file 2 "../../chibios/os/kernel/include/chinline.h"
  85              		.loc 2 62 0
  86 0014 0368     		ldr	r3, [r0, #0]
  87              	.LBE17:
  88              	.LBE16:
  89              		.loc 1 79 0
  90 0016 0021     		movs	r1, #0
  91              	.LBB19:
  92              	.LBB18:
  93              		.loc 2 62 0
  94 0018 2360     		str	r3, [r4, #0]
  95 001a 5C60     		str	r4, [r3, #4]
  96              	.LBE18:
  97              	.LBE19:
  98              		.loc 1 79 0
  99 001c FFF7FEFF 		bl	chSchWakeupS
 100              	.LVL6:
 101              	.L3:
 102              		.loc 1 80 0
 103 0020 FFF7FEFF 		bl	dbg_check_unlock
 104              	.LVL7:
 105              	.LBB20:
 106 0024 0023     		movs	r3, #0
 107              	.LVL8:
 108              	@ 80 "../../chibios/os/kernel/src/chcond.c" 1
 109 0026 83F31188 		msr     BASEPRI, r3
 110              	@ 0 "" 2
 111              	.LVL9:
 112              		.thumb
ARM GAS  C:\Users\Elis\AppData\Local\Temp\ccKxFDzf.s 			page 3


 113 002a 10BD     		pop	{r4, pc}
 114              	.LBE20:
 115              		.cfi_endproc
 116              	.LFE8:
 117              		.size	chCondSignal, .-chCondSignal
 118 002c AFF30080 		.section	.text.chCondSignalI,"ax",%progbits
 119              		.align	2
 120              		.p2align 4,,15
 121              		.global	chCondSignalI
 122              		.thumb
 123              		.thumb_func
 124              		.type	chCondSignalI, %function
 125              	chCondSignalI:
 126              	.LFB9:
 127              		.loc 1 94 0
 128              		.cfi_startproc
 129              		@ args = 0, pretend = 0, frame = 0
 130              		@ frame_needed = 0, uses_anonymous_args = 0
 131              	.LVL10:
 132 0000 10B5     		push	{r4, lr}
 133              	.LCFI1:
 134              		.cfi_def_cfa_offset 8
 135              		.cfi_offset 4, -8
 136              		.cfi_offset 14, -4
 137              		.loc 1 94 0
 138 0002 0446     		mov	r4, r0
 139              		.loc 1 96 0
 140 0004 FFF7FEFF 		bl	chDbgCheckClassI
 141              	.LVL11:
 142              		.loc 1 99 0
 143 0008 2068     		ldr	r0, [r4, #0]
 144 000a A042     		cmp	r0, r4
 145 000c 06D0     		beq	.L5
 146              	.LVL12:
 147              	.LBB21:
 148              	.LBB22:
 149              		.loc 2 62 0
 150 000e 0368     		ldr	r3, [r0, #0]
 151 0010 2360     		str	r3, [r4, #0]
 152 0012 5C60     		str	r4, [r3, #4]
 153              	.LBE22:
 154              	.LBE21:
 155              		.loc 1 100 0
 156 0014 FFF7FEFF 		bl	chSchReadyI
 157              	.LVL13:
 158 0018 0021     		movs	r1, #0
 159 001a 4162     		str	r1, [r0, #36]
 160              	.LVL14:
 161              	.L5:
 162 001c 10BD     		pop	{r4, pc}
 163              		.cfi_endproc
 164              	.LFE9:
 165              		.size	chCondSignalI, .-chCondSignalI
 166 001e 00BF     		.section	.text.chCondBroadcastI,"ax",%progbits
 167              		.align	2
 168              		.p2align 4,,15
 169              		.global	chCondBroadcastI
ARM GAS  C:\Users\Elis\AppData\Local\Temp\ccKxFDzf.s 			page 4


 170              		.thumb
 171              		.thumb_func
 172              		.type	chCondBroadcastI, %function
 173              	chCondBroadcastI:
 174              	.LFB11:
 175              		.loc 1 129 0
 176              		.cfi_startproc
 177              		@ args = 0, pretend = 0, frame = 0
 178              		@ frame_needed = 0, uses_anonymous_args = 0
 179              	.LVL15:
 180 0000 38B5     		push	{r3, r4, r5, lr}
 181              	.LCFI2:
 182              		.cfi_def_cfa_offset 16
 183              		.cfi_offset 3, -16
 184              		.cfi_offset 4, -12
 185              		.cfi_offset 5, -8
 186              		.cfi_offset 14, -4
 187              		.loc 1 129 0
 188 0002 0446     		mov	r4, r0
 189              		.loc 1 131 0
 190 0004 FFF7FEFF 		bl	chDbgCheckClassI
 191              	.LVL16:
 192              		.loc 1 137 0
 193 0008 2068     		ldr	r0, [r4, #0]
 194 000a A042     		cmp	r0, r4
 195 000c 0AD0     		beq	.L7
 196              		.loc 1 138 0
 197 000e 6FF00105 		mvn	r5, #1
 198              	.L11:
 199              	.LVL17:
 200              	.LBB23:
 201              	.LBB24:
 202              		.loc 2 62 0
 203 0012 0368     		ldr	r3, [r0, #0]
 204 0014 2360     		str	r3, [r4, #0]
 205 0016 5C60     		str	r4, [r3, #4]
 206              	.LBE24:
 207              	.LBE23:
 208              		.loc 1 138 0
 209 0018 FFF7FEFF 		bl	chSchReadyI
 210              	.LVL18:
 211 001c 4562     		str	r5, [r0, #36]
 212              		.loc 1 137 0
 213 001e 2068     		ldr	r0, [r4, #0]
 214 0020 A042     		cmp	r0, r4
 215 0022 F6D1     		bne	.L11
 216              	.LVL19:
 217              	.L7:
 218 0024 38BD     		pop	{r3, r4, r5, pc}
 219              		.cfi_endproc
 220              	.LFE11:
 221              		.size	chCondBroadcastI, .-chCondBroadcastI
 222 0026 00BFAFF3 		.section	.text.chCondBroadcast,"ax",%progbits
 222      0080AFF3 
 222      0080
 223              		.align	2
 224              		.p2align 4,,15
ARM GAS  C:\Users\Elis\AppData\Local\Temp\ccKxFDzf.s 			page 5


 225              		.global	chCondBroadcast
 226              		.thumb
 227              		.thumb_func
 228              		.type	chCondBroadcast, %function
 229              	chCondBroadcast:
 230              	.LFB10:
 231              		.loc 1 110 0
 232              		.cfi_startproc
 233              		@ args = 0, pretend = 0, frame = 0
 234              		@ frame_needed = 0, uses_anonymous_args = 0
 235              	.LVL20:
 236 0000 10B5     		push	{r4, lr}
 237              	.LCFI3:
 238              		.cfi_def_cfa_offset 8
 239              		.cfi_offset 4, -8
 240              		.cfi_offset 14, -4
 241              	.LBB25:
 242              		.loc 1 112 0
 243 0002 2023     		movs	r3, #32
 244              	.LVL21:
 245              	.LBE25:
 246              		.loc 1 110 0
 247 0004 0446     		mov	r4, r0
 248              	.LBB26:
 249              		.loc 1 112 0
 250              	@ 112 "../../chibios/os/kernel/src/chcond.c" 1
 251 0006 83F31188 		msr     BASEPRI, r3
 252              	@ 0 "" 2
 253              	.LVL22:
 254              		.thumb
 255              	.LBE26:
 256 000a FFF7FEFF 		bl	dbg_check_lock
 257              	.LVL23:
 258              		.loc 1 113 0
 259 000e 2046     		mov	r0, r4
 260 0010 FFF7FEFF 		bl	chCondBroadcastI
 261              	.LVL24:
 262              		.loc 1 114 0
 263 0014 FFF7FEFF 		bl	chSchRescheduleS
 264              	.LVL25:
 265              		.loc 1 115 0
 266 0018 FFF7FEFF 		bl	dbg_check_unlock
 267              	.LVL26:
 268              	.LBB27:
 269 001c 0023     		movs	r3, #0
 270              	.LVL27:
 271              	@ 115 "../../chibios/os/kernel/src/chcond.c" 1
 272 001e 83F31188 		msr     BASEPRI, r3
 273              	@ 0 "" 2
 274              	.LVL28:
 275              		.thumb
 276 0022 10BD     		pop	{r4, pc}
 277              	.LBE27:
 278              		.cfi_endproc
 279              	.LFE10:
 280              		.size	chCondBroadcast, .-chCondBroadcast
 281 0024 AFF30080 		.section	.text.chCondWaitS,"ax",%progbits
ARM GAS  C:\Users\Elis\AppData\Local\Temp\ccKxFDzf.s 			page 6


 281      AFF30080 
 281      AFF30080 
 282              		.align	2
 283              		.p2align 4,,15
 284              		.global	chCondWaitS
 285              		.thumb
 286              		.thumb_func
 287              		.type	chCondWaitS, %function
 288              	chCondWaitS:
 289              	.LFB13:
 290              		.loc 1 184 0
 291              		.cfi_startproc
 292              		@ args = 0, pretend = 0, frame = 0
 293              		@ frame_needed = 0, uses_anonymous_args = 0
 294              	.LVL29:
 295 0000 F8B5     		push	{r3, r4, r5, r6, r7, lr}
 296              	.LCFI4:
 297              		.cfi_def_cfa_offset 24
 298              		.cfi_offset 3, -24
 299              		.cfi_offset 4, -20
 300              		.cfi_offset 5, -16
 301              		.cfi_offset 6, -12
 302              		.cfi_offset 7, -8
 303              		.cfi_offset 14, -4
 304              		.loc 1 185 0
 305 0002 114B     		ldr	r3, .L22
 306              		.loc 1 184 0
 307 0004 0546     		mov	r5, r0
 308              		.loc 1 185 0
 309 0006 9C69     		ldr	r4, [r3, #24]
 310              	.LVL30:
 311              		.loc 1 189 0
 312 0008 FFF7FEFF 		bl	chDbgCheckClassS
 313              	.LVL31:
 314              		.loc 1 195 0
 315 000c FFF7FEFF 		bl	chMtxUnlockS
 316              	.LVL32:
 317              		.loc 1 197 0
 318 0010 2E46     		mov	r6, r5
 319              		.loc 1 195 0
 320 0012 0746     		mov	r7, r0
 321              	.LVL33:
 322              		.loc 1 196 0
 323 0014 6562     		str	r5, [r4, #36]
 324              		.loc 2 43 0
 325 0016 2846     		mov	r0, r5
 326              	.LVL34:
 327 0018 03E0     		b	.L16
 328              	.LVL35:
 329              	.L21:
 330              	.LBB28:
 331              	.LBB29:
 332              		.loc 2 46 0
 333 001a 8168     		ldr	r1, [r0, #8]
 334 001c A268     		ldr	r2, [r4, #8]
 335 001e 9142     		cmp	r1, r2
 336 0020 10D3     		bcc	.L20
ARM GAS  C:\Users\Elis\AppData\Local\Temp\ccKxFDzf.s 			page 7


 337              	.L16:
 338              		.loc 2 45 0
 339 0022 0068     		ldr	r0, [r0, #0]
 340              	.LVL36:
 341              		.loc 2 46 0
 342 0024 8542     		cmp	r5, r0
 343 0026 F8D1     		bne	.L21
 344              	.L17:
 345              		.loc 2 48 0
 346 0028 7368     		ldr	r3, [r6, #4]
 347              		.loc 2 47 0
 348 002a 2660     		str	r6, [r4, #0]
 349              		.loc 2 48 0
 350 002c 6360     		str	r3, [r4, #4]
 351              		.loc 2 49 0
 352 002e 1C60     		str	r4, [r3, #0]
 353 0030 7460     		str	r4, [r6, #4]
 354              	.LBE29:
 355              	.LBE28:
 356              		.loc 1 198 0
 357 0032 0520     		movs	r0, #5
 358              	.LVL37:
 359 0034 FFF7FEFF 		bl	chSchGoSleepS
 360              	.LVL38:
 361              		.loc 1 199 0
 362 0038 646A     		ldr	r4, [r4, #36]
 363              	.LVL39:
 364              		.loc 1 200 0
 365 003a 3846     		mov	r0, r7
 366 003c FFF7FEFF 		bl	chMtxLockS
 367              	.LVL40:
 368              		.loc 1 202 0
 369 0040 2046     		mov	r0, r4
 370 0042 F8BD     		pop	{r3, r4, r5, r6, r7, pc}
 371              	.LVL41:
 372              	.L20:
 373              	.LBB31:
 374              	.LBB30:
 375              		.loc 2 46 0
 376 0044 0646     		mov	r6, r0
 377 0046 EFE7     		b	.L17
 378              	.L23:
 379              		.align	2
 380              	.L22:
 381 0048 00000000 		.word	rlist
 382              	.LBE30:
 383              	.LBE31:
 384              		.cfi_endproc
 385              	.LFE13:
 386              		.size	chCondWaitS, .-chCondWaitS
 387 004c AFF30080 		.section	.text.chCondWait,"ax",%progbits
 388              		.align	2
 389              		.p2align 4,,15
 390              		.global	chCondWait
 391              		.thumb
 392              		.thumb_func
 393              		.type	chCondWait, %function
ARM GAS  C:\Users\Elis\AppData\Local\Temp\ccKxFDzf.s 			page 8


 394              	chCondWait:
 395              	.LFB12:
 396              		.loc 1 158 0
 397              		.cfi_startproc
 398              		@ args = 0, pretend = 0, frame = 0
 399              		@ frame_needed = 0, uses_anonymous_args = 0
 400              	.LVL42:
 401 0000 10B5     		push	{r4, lr}
 402              	.LCFI5:
 403              		.cfi_def_cfa_offset 8
 404              		.cfi_offset 4, -8
 405              		.cfi_offset 14, -4
 406              	.LBB32:
 407              		.loc 1 161 0
 408 0002 2023     		movs	r3, #32
 409              	.LVL43:
 410              	.LBE32:
 411              		.loc 1 158 0
 412 0004 0446     		mov	r4, r0
 413              	.LBB33:
 414              		.loc 1 161 0
 415              	@ 161 "../../chibios/os/kernel/src/chcond.c" 1
 416 0006 83F31188 		msr     BASEPRI, r3
 417              	@ 0 "" 2
 418              	.LVL44:
 419              		.thumb
 420              	.LBE33:
 421 000a FFF7FEFF 		bl	dbg_check_lock
 422              	.LVL45:
 423              		.loc 1 162 0
 424 000e 2046     		mov	r0, r4
 425 0010 FFF7FEFF 		bl	chCondWaitS
 426              	.LVL46:
 427 0014 0446     		mov	r4, r0
 428              	.LVL47:
 429              		.loc 1 163 0
 430 0016 FFF7FEFF 		bl	dbg_check_unlock
 431              	.LVL48:
 432              	.LBB34:
 433 001a 0023     		movs	r3, #0
 434              	.LVL49:
 435              	@ 163 "../../chibios/os/kernel/src/chcond.c" 1
 436 001c 83F31188 		msr     BASEPRI, r3
 437              	@ 0 "" 2
 438              	.LVL50:
 439              		.thumb
 440              	.LBE34:
 441              		.loc 1 165 0
 442 0020 2046     		mov	r0, r4
 443 0022 10BD     		pop	{r4, pc}
 444              		.cfi_endproc
 445              	.LFE12:
 446              		.size	chCondWait, .-chCondWait
 447 0024 AFF30080 		.section	.text.chCondWaitTimeoutS,"ax",%progbits
 447      AFF30080 
 447      AFF30080 
 448              		.align	2
ARM GAS  C:\Users\Elis\AppData\Local\Temp\ccKxFDzf.s 			page 9


 449              		.p2align 4,,15
 450              		.global	chCondWaitTimeoutS
 451              		.thumb
 452              		.thumb_func
 453              		.type	chCondWaitTimeoutS, %function
 454              	chCondWaitTimeoutS:
 455              	.LFB15:
 456              		.loc 1 270 0
 457              		.cfi_startproc
 458              		@ args = 0, pretend = 0, frame = 0
 459              		@ frame_needed = 0, uses_anonymous_args = 0
 460              	.LVL51:
 461 0000 2DE9F041 		push	{r4, r5, r6, r7, r8, lr}
 462              	.LCFI6:
 463              		.cfi_def_cfa_offset 24
 464              		.cfi_offset 4, -24
 465              		.cfi_offset 5, -20
 466              		.cfi_offset 6, -16
 467              		.cfi_offset 7, -12
 468              		.cfi_offset 8, -8
 469              		.cfi_offset 14, -4
 470              		.loc 1 270 0
 471 0004 0646     		mov	r6, r0
 472 0006 8846     		mov	r8, r1
 473              		.loc 1 274 0
 474 0008 FFF7FEFF 		bl	chDbgCheckClassS
 475              	.LVL52:
 476              		.loc 1 280 0
 477 000c FFF7FEFF 		bl	chMtxUnlockS
 478              	.LVL53:
 479              		.loc 1 281 0
 480 0010 0E4B     		ldr	r3, .L32
 481 0012 9A69     		ldr	r2, [r3, #24]
 482              		.loc 1 280 0
 483 0014 0746     		mov	r7, r0
 484              	.LVL54:
 485              		.loc 2 43 0
 486 0016 3346     		mov	r3, r6
 487              		.loc 1 281 0
 488 0018 5662     		str	r6, [r2, #36]
 489              	.LVL55:
 490              	.L29:
 491              	.LBB35:
 492              	.LBB36:
 493              		.loc 2 45 0
 494 001a 1B68     		ldr	r3, [r3, #0]
 495              	.LVL56:
 496              		.loc 2 46 0
 497 001c 9E42     		cmp	r6, r3
 498 001e 03D0     		beq	.L30
 499 0020 9D68     		ldr	r5, [r3, #8]
 500 0022 9468     		ldr	r4, [r2, #8]
 501 0024 A542     		cmp	r5, r4
 502 0026 F8D2     		bcs	.L29
 503              	.L30:
 504              		.loc 2 48 0
 505 0028 5C68     		ldr	r4, [r3, #4]
ARM GAS  C:\Users\Elis\AppData\Local\Temp\ccKxFDzf.s 			page 10


 506              	.LBE36:
 507              	.LBE35:
 508              		.loc 1 283 0
 509 002a 0520     		movs	r0, #5
 510              	.LVL57:
 511              	.LBB39:
 512              	.LBB37:
 513              		.loc 2 48 0
 514 002c 82E81800 		stmia	r2, {r3, r4}
 515              	.LBE37:
 516              	.LBE39:
 517              		.loc 1 283 0
 518 0030 4146     		mov	r1, r8
 519              	.LBB40:
 520              	.LBB38:
 521              		.loc 2 49 0
 522 0032 2260     		str	r2, [r4, #0]
 523 0034 5A60     		str	r2, [r3, #4]
 524              	.LBE38:
 525              	.LBE40:
 526              		.loc 1 283 0
 527 0036 FFF7FEFF 		bl	chSchGoSleepTimeoutS
 528              	.LVL58:
 529              		.loc 1 284 0
 530 003a 431C     		adds	r3, r0, #1
 531              		.loc 1 283 0
 532 003c 0446     		mov	r4, r0
 533              	.LVL59:
 534              		.loc 1 284 0
 535 003e 02D0     		beq	.L28
 536              		.loc 1 285 0
 537 0040 3846     		mov	r0, r7
 538              	.LVL60:
 539 0042 FFF7FEFF 		bl	chMtxLockS
 540              	.LVL61:
 541              	.L28:
 542              		.loc 1 287 0
 543 0046 2046     		mov	r0, r4
 544 0048 BDE8F081 		pop	{r4, r5, r6, r7, r8, pc}
 545              	.L33:
 546              		.align	2
 547              	.L32:
 548 004c 00000000 		.word	rlist
 549              		.cfi_endproc
 550              	.LFE15:
 551              		.size	chCondWaitTimeoutS, .-chCondWaitTimeoutS
 552              		.section	.text.chCondWaitTimeout,"ax",%progbits
 553              		.align	2
 554              		.p2align 4,,15
 555              		.global	chCondWaitTimeout
 556              		.thumb
 557              		.thumb_func
 558              		.type	chCondWaitTimeout, %function
 559              	chCondWaitTimeout:
 560              	.LFB14:
 561              		.loc 1 233 0
 562              		.cfi_startproc
ARM GAS  C:\Users\Elis\AppData\Local\Temp\ccKxFDzf.s 			page 11


 563              		@ args = 0, pretend = 0, frame = 0
 564              		@ frame_needed = 0, uses_anonymous_args = 0
 565              	.LVL62:
 566 0000 38B5     		push	{r3, r4, r5, lr}
 567              	.LCFI7:
 568              		.cfi_def_cfa_offset 16
 569              		.cfi_offset 3, -16
 570              		.cfi_offset 4, -12
 571              		.cfi_offset 5, -8
 572              		.cfi_offset 14, -4
 573              		.loc 1 233 0
 574 0002 0546     		mov	r5, r0
 575 0004 0C46     		mov	r4, r1
 576              	.LBB41:
 577              		.loc 1 236 0
 578 0006 2023     		movs	r3, #32
 579              	.LVL63:
 580              	@ 236 "../../chibios/os/kernel/src/chcond.c" 1
 581 0008 83F31188 		msr     BASEPRI, r3
 582              	@ 0 "" 2
 583              	.LVL64:
 584              		.thumb
 585              	.LBE41:
 586 000c FFF7FEFF 		bl	dbg_check_lock
 587              	.LVL65:
 588              		.loc 1 237 0
 589 0010 2146     		mov	r1, r4
 590 0012 2846     		mov	r0, r5
 591 0014 FFF7FEFF 		bl	chCondWaitTimeoutS
 592              	.LVL66:
 593 0018 0446     		mov	r4, r0
 594              	.LVL67:
 595              		.loc 1 238 0
 596 001a FFF7FEFF 		bl	dbg_check_unlock
 597              	.LVL68:
 598              	.LBB42:
 599 001e 0023     		movs	r3, #0
 600              	.LVL69:
 601              	@ 238 "../../chibios/os/kernel/src/chcond.c" 1
 602 0020 83F31188 		msr     BASEPRI, r3
 603              	@ 0 "" 2
 604              	.LVL70:
 605              		.thumb
 606              	.LBE42:
 607              		.loc 1 240 0
 608 0024 2046     		mov	r0, r4
 609 0026 38BD     		pop	{r3, r4, r5, pc}
 610              		.cfi_endproc
 611              	.LFE14:
 612              		.size	chCondWaitTimeout, .-chCondWaitTimeout
 613 0028 AFF30080 		.text
 613      AFF30080 
 614              	.Letext0:
 615              		.file 3 "c:\\chibistudio\\tools\\gnu tools arm embedded\\4.7 2014q2\\bin\\../lib/gcc/arm-none-eabi
 616              		.file 4 "../../chibios/os/ports/GCC/ARMCMx/chtypes.h"
 617              		.file 5 "../../chibios/os/kernel/include/chlists.h"
 618              		.file 6 "../../chibios/os/kernel/include/chthreads.h"
ARM GAS  C:\Users\Elis\AppData\Local\Temp\ccKxFDzf.s 			page 12


 619              		.file 7 "../../chibios/os/ports/GCC/ARMCMx/chcore_v7m.h"
 620              		.file 8 "../../chibios/os/kernel/include/chschd.h"
 621              		.file 9 "../../chibios/os/kernel/include/chmtx.h"
 622              		.file 10 "../../chibios/os/kernel/include/chcond.h"
 623              		.file 11 "../../chibios/os/kernel/include/chdebug.h"