ARM GAS  C:\Users\Elis\AppData\Local\Temp\ccCxncIf.s 			page 1


   1              		.syntax unified
   2              		.cpu cortex-m4
   3              		.fpu softvfp
   4              		.eabi_attribute 20, 1
   5              		.eabi_attribute 21, 1
   6              		.eabi_attribute 23, 3
   7              		.eabi_attribute 24, 1
   8              		.eabi_attribute 25, 1
   9              		.eabi_attribute 26, 1
  10              		.eabi_attribute 30, 2
  11              		.eabi_attribute 34, 1
  12              		.eabi_attribute 18, 4
  13              		.thumb
  14              		.file	"chevents.c"
  15              		.text
  16              	.Ltext0:
  17              		.cfi_sections	.debug_frame
  18              		.section	.text.chEvtRegisterMask,"ax",%progbits
  19              		.align	2
  20              		.p2align 4,,15
  21              		.global	chEvtRegisterMask
  22              		.thumb
  23              		.thumb_func
  24              		.type	chEvtRegisterMask, %function
  25              	chEvtRegisterMask:
  26              	.LFB7:
  27              		.file 1 "../../chibios/os/kernel/src/chevents.c"
  28              		.loc 1 85 0
  29              		.cfi_startproc
  30              		@ args = 0, pretend = 0, frame = 0
  31              		@ frame_needed = 0, uses_anonymous_args = 0
  32              	.LVL0:
  33 0000 F8B5     		push	{r3, r4, r5, r6, r7, lr}
  34              	.LCFI0:
  35              		.cfi_def_cfa_offset 24
  36              		.cfi_offset 3, -24
  37              		.cfi_offset 4, -20
  38              		.cfi_offset 5, -16
  39              		.cfi_offset 6, -12
  40              		.cfi_offset 7, -8
  41              		.cfi_offset 14, -4
  42              		.loc 1 85 0
  43 0002 0546     		mov	r5, r0
  44 0004 0C46     		mov	r4, r1
  45 0006 1746     		mov	r7, r2
  46              	.LBB2:
  47              		.loc 1 89 0
  48 0008 2023     		movs	r3, #32
  49              	.LVL1:
  50              	@ 89 "../../chibios/os/kernel/src/chevents.c" 1
  51 000a 83F31188 		msr     BASEPRI, r3
  52              	@ 0 "" 2
  53              	.LVL2:
  54              		.thumb
  55              	.LBE2:
  56 000e FFF7FEFF 		bl	dbg_check_lock
  57              	.LVL3:
ARM GAS  C:\Users\Elis\AppData\Local\Temp\ccCxncIf.s 			page 2


  58              		.loc 1 92 0
  59 0012 40F20003 		movw	r3, #:lower16:rlist
  60 0016 C0F20003 		movt	r3, #:upper16:rlist
  61              		.loc 1 90 0
  62 001a 2968     		ldr	r1, [r5, #0]
  63              		.loc 1 92 0
  64 001c 9869     		ldr	r0, [r3, #24]
  65              		.loc 1 90 0
  66 001e 2160     		str	r1, [r4, #0]
  67              		.loc 1 94 0
  68 0020 0026     		movs	r6, #0
  69              		.loc 1 91 0
  70 0022 2C60     		str	r4, [r5, #0]
  71              		.loc 1 92 0
  72 0024 6060     		str	r0, [r4, #4]
  73              		.loc 1 93 0
  74 0026 A760     		str	r7, [r4, #8]
  75              		.loc 1 94 0
  76 0028 E660     		str	r6, [r4, #12]
  77              		.loc 1 95 0
  78 002a FFF7FEFF 		bl	dbg_check_unlock
  79              	.LVL4:
  80              	.LBB3:
  81 002e 3346     		mov	r3, r6
  82              	.LVL5:
  83              	@ 95 "../../chibios/os/kernel/src/chevents.c" 1
  84 0030 83F31188 		msr     BASEPRI, r3
  85              	@ 0 "" 2
  86              	.LVL6:
  87              		.thumb
  88 0034 F8BD     		pop	{r3, r4, r5, r6, r7, pc}
  89              	.LBE3:
  90              		.cfi_endproc
  91              	.LFE7:
  92              		.size	chEvtRegisterMask, .-chEvtRegisterMask
  93 0036 00BFAFF3 		.section	.text.chEvtUnregister,"ax",%progbits
  93      0080AFF3 
  93      0080
  94              		.align	2
  95              		.p2align 4,,15
  96              		.global	chEvtUnregister
  97              		.thumb
  98              		.thumb_func
  99              		.type	chEvtUnregister, %function
 100              	chEvtUnregister:
 101              	.LFB8:
 102              		.loc 1 111 0
 103              		.cfi_startproc
 104              		@ args = 0, pretend = 0, frame = 0
 105              		@ frame_needed = 0, uses_anonymous_args = 0
 106              	.LVL7:
 107 0000 38B5     		push	{r3, r4, r5, lr}
 108              	.LCFI1:
 109              		.cfi_def_cfa_offset 16
 110              		.cfi_offset 3, -16
 111              		.cfi_offset 4, -12
 112              		.cfi_offset 5, -8
ARM GAS  C:\Users\Elis\AppData\Local\Temp\ccCxncIf.s 			page 3


 113              		.cfi_offset 14, -4
 114              		.loc 1 111 0
 115 0002 0446     		mov	r4, r0
 116              	.LVL8:
 117 0004 0D46     		mov	r5, r1
 118              	.LBB4:
 119              		.loc 1 117 0
 120 0006 2023     		movs	r3, #32
 121              	.LVL9:
 122              	@ 117 "../../chibios/os/kernel/src/chevents.c" 1
 123 0008 83F31188 		msr     BASEPRI, r3
 124              	@ 0 "" 2
 125              	.LVL10:
 126              		.thumb
 127              	.LBE4:
 128 000c FFF7FEFF 		bl	dbg_check_lock
 129              	.LVL11:
 130              		.loc 1 116 0
 131 0010 2246     		mov	r2, r4
 132              		.loc 1 118 0
 133 0012 00E0     		b	.L3
 134              	.LVL12:
 135              	.L6:
 136              		.loc 1 119 0
 137 0014 1A46     		mov	r2, r3
 138              	.LVL13:
 139              	.L3:
 140              		.loc 1 118 0 discriminator 1
 141 0016 1368     		ldr	r3, [r2, #0]
 142 0018 A342     		cmp	r3, r4
 143 001a 03D0     		beq	.L4
 144              		.loc 1 119 0
 145 001c 9D42     		cmp	r5, r3
 146 001e F9D1     		bne	.L6
 147              		.loc 1 120 0
 148 0020 2868     		ldr	r0, [r5, #0]
 149 0022 1060     		str	r0, [r2, #0]
 150              	.L4:
 151              		.loc 1 125 0
 152 0024 FFF7FEFF 		bl	dbg_check_unlock
 153              	.LVL14:
 154              	.LBB5:
 155 0028 0023     		movs	r3, #0
 156              	.LVL15:
 157              	@ 125 "../../chibios/os/kernel/src/chevents.c" 1
 158 002a 83F31188 		msr     BASEPRI, r3
 159              	@ 0 "" 2
 160              	.LVL16:
 161              		.thumb
 162 002e 38BD     		pop	{r3, r4, r5, pc}
 163              	.LBE5:
 164              		.cfi_endproc
 165              	.LFE8:
 166              		.size	chEvtUnregister, .-chEvtUnregister
 167              		.section	.text.chEvtGetAndClearEvents,"ax",%progbits
 168              		.align	2
 169              		.p2align 4,,15
ARM GAS  C:\Users\Elis\AppData\Local\Temp\ccCxncIf.s 			page 4


 170              		.global	chEvtGetAndClearEvents
 171              		.thumb
 172              		.thumb_func
 173              		.type	chEvtGetAndClearEvents, %function
 174              	chEvtGetAndClearEvents:
 175              	.LFB9:
 176              		.loc 1 136 0
 177              		.cfi_startproc
 178              		@ args = 0, pretend = 0, frame = 0
 179              		@ frame_needed = 0, uses_anonymous_args = 0
 180              	.LVL17:
 181 0000 10B5     		push	{r4, lr}
 182              	.LCFI2:
 183              		.cfi_def_cfa_offset 8
 184              		.cfi_offset 4, -8
 185              		.cfi_offset 14, -4
 186              	.LBB6:
 187              		.loc 1 139 0
 188 0002 2023     		movs	r3, #32
 189              	.LVL18:
 190              	.LBE6:
 191              		.loc 1 136 0
 192 0004 0446     		mov	r4, r0
 193              	.LBB7:
 194              		.loc 1 139 0
 195              	@ 139 "../../chibios/os/kernel/src/chevents.c" 1
 196 0006 83F31188 		msr     BASEPRI, r3
 197              	@ 0 "" 2
 198              	.LVL19:
 199              		.thumb
 200              	.LBE7:
 201 000a FFF7FEFF 		bl	dbg_check_lock
 202              	.LVL20:
 203              		.loc 1 141 0
 204 000e 40F20003 		movw	r3, #:lower16:rlist
 205 0012 C0F20003 		movt	r3, #:upper16:rlist
 206 0016 9969     		ldr	r1, [r3, #24]
 207 0018 886B     		ldr	r0, [r1, #56]
 208              		.loc 1 142 0
 209 001a 20EA0402 		bic	r2, r0, r4
 210 001e 8A63     		str	r2, [r1, #56]
 211              		.loc 1 141 0
 212 0020 0440     		ands	r4, r4, r0
 213              	.LVL21:
 214              		.loc 1 144 0
 215 0022 FFF7FEFF 		bl	dbg_check_unlock
 216              	.LVL22:
 217              	.LBB8:
 218 0026 0023     		movs	r3, #0
 219              	.LVL23:
 220              	@ 144 "../../chibios/os/kernel/src/chevents.c" 1
 221 0028 83F31188 		msr     BASEPRI, r3
 222              	@ 0 "" 2
 223              	.LVL24:
 224              		.thumb
 225              	.LBE8:
 226              		.loc 1 146 0
ARM GAS  C:\Users\Elis\AppData\Local\Temp\ccCxncIf.s 			page 5


 227 002c 2046     		mov	r0, r4
 228 002e 10BD     		pop	{r4, pc}
 229              		.cfi_endproc
 230              	.LFE9:
 231              		.size	chEvtGetAndClearEvents, .-chEvtGetAndClearEvents
 232              		.section	.text.chEvtAddEvents,"ax",%progbits
 233              		.align	2
 234              		.p2align 4,,15
 235              		.global	chEvtAddEvents
 236              		.thumb
 237              		.thumb_func
 238              		.type	chEvtAddEvents, %function
 239              	chEvtAddEvents:
 240              	.LFB10:
 241              		.loc 1 157 0
 242              		.cfi_startproc
 243              		@ args = 0, pretend = 0, frame = 0
 244              		@ frame_needed = 0, uses_anonymous_args = 0
 245              	.LVL25:
 246 0000 10B5     		push	{r4, lr}
 247              	.LCFI3:
 248              		.cfi_def_cfa_offset 8
 249              		.cfi_offset 4, -8
 250              		.cfi_offset 14, -4
 251              	.LBB9:
 252              		.loc 1 159 0
 253 0002 2023     		movs	r3, #32
 254              	.LVL26:
 255              	.LBE9:
 256              		.loc 1 157 0
 257 0004 0446     		mov	r4, r0
 258              	.LBB10:
 259              		.loc 1 159 0
 260              	@ 159 "../../chibios/os/kernel/src/chevents.c" 1
 261 0006 83F31188 		msr     BASEPRI, r3
 262              	@ 0 "" 2
 263              	.LVL27:
 264              		.thumb
 265              	.LBE10:
 266 000a FFF7FEFF 		bl	dbg_check_lock
 267              	.LVL28:
 268              		.loc 1 161 0
 269 000e 40F20003 		movw	r3, #:lower16:rlist
 270 0012 C0F20003 		movt	r3, #:upper16:rlist
 271 0016 9869     		ldr	r0, [r3, #24]
 272 0018 826B     		ldr	r2, [r0, #56]
 273 001a 1443     		orrs	r4, r4, r2
 274              	.LVL29:
 275 001c 8463     		str	r4, [r0, #56]
 276              	.LVL30:
 277              		.loc 1 163 0
 278 001e FFF7FEFF 		bl	dbg_check_unlock
 279              	.LVL31:
 280              	.LBB11:
 281 0022 0023     		movs	r3, #0
 282              	.LVL32:
 283              	@ 163 "../../chibios/os/kernel/src/chevents.c" 1
ARM GAS  C:\Users\Elis\AppData\Local\Temp\ccCxncIf.s 			page 6


 284 0024 83F31188 		msr     BASEPRI, r3
 285              	@ 0 "" 2
 286              	.LVL33:
 287              		.thumb
 288              	.LBE11:
 289              		.loc 1 165 0
 290 0028 2046     		mov	r0, r4
 291 002a 10BD     		pop	{r4, pc}
 292              		.cfi_endproc
 293              	.LFE10:
 294              		.size	chEvtAddEvents, .-chEvtAddEvents
 295 002c AFF30080 		.section	.text.chEvtGetAndClearFlags,"ax",%progbits
 296              		.align	2
 297              		.p2align 4,,15
 298              		.global	chEvtGetAndClearFlags
 299              		.thumb
 300              		.thumb_func
 301              		.type	chEvtGetAndClearFlags, %function
 302              	chEvtGetAndClearFlags:
 303              	.LFB12:
 304              		.loc 1 209 0
 305              		.cfi_startproc
 306              		@ args = 0, pretend = 0, frame = 0
 307              		@ frame_needed = 0, uses_anonymous_args = 0
 308              	.LVL34:
 309 0000 70B5     		push	{r4, r5, r6, lr}
 310              	.LCFI4:
 311              		.cfi_def_cfa_offset 16
 312              		.cfi_offset 4, -16
 313              		.cfi_offset 5, -12
 314              		.cfi_offset 6, -8
 315              		.cfi_offset 14, -4
 316              	.LBB12:
 317              		.loc 1 212 0
 318 0002 2023     		movs	r3, #32
 319              	.LVL35:
 320              	.LBE12:
 321              		.loc 1 209 0
 322 0004 0546     		mov	r5, r0
 323              	.LBB13:
 324              		.loc 1 212 0
 325              	@ 212 "../../chibios/os/kernel/src/chevents.c" 1
 326 0006 83F31188 		msr     BASEPRI, r3
 327              	@ 0 "" 2
 328              	.LVL36:
 329              		.thumb
 330              	.LBE13:
 331              		.loc 1 215 0
 332 000a 0024     		movs	r4, #0
 333              		.loc 1 212 0
 334 000c FFF7FEFF 		bl	dbg_check_lock
 335              	.LVL37:
 336              		.loc 1 214 0
 337 0010 EE68     		ldr	r6, [r5, #12]
 338              	.LVL38:
 339              		.loc 1 215 0
 340 0012 EC60     		str	r4, [r5, #12]
ARM GAS  C:\Users\Elis\AppData\Local\Temp\ccCxncIf.s 			page 7


 341              		.loc 1 217 0
 342 0014 FFF7FEFF 		bl	dbg_check_unlock
 343              	.LVL39:
 344              	.LBB14:
 345 0018 2346     		mov	r3, r4
 346              	.LVL40:
 347              	@ 217 "../../chibios/os/kernel/src/chevents.c" 1
 348 001a 83F31188 		msr     BASEPRI, r3
 349              	@ 0 "" 2
 350              	.LVL41:
 351              		.thumb
 352              	.LBE14:
 353              		.loc 1 219 0
 354 001e 3046     		mov	r0, r6
 355 0020 70BD     		pop	{r4, r5, r6, pc}
 356              		.cfi_endproc
 357              	.LFE12:
 358              		.size	chEvtGetAndClearFlags, .-chEvtGetAndClearFlags
 359 0022 00BFAFF3 		.section	.text.chEvtSignalI,"ax",%progbits
 359      0080AFF3 
 359      0080AFF3 
 359      0080
 360              		.align	2
 361              		.p2align 4,,15
 362              		.global	chEvtSignalI
 363              		.thumb
 364              		.thumb_func
 365              		.type	chEvtSignalI, %function
 366              	chEvtSignalI:
 367              	.LFB14:
 368              		.loc 1 251 0
 369              		.cfi_startproc
 370              		@ args = 0, pretend = 0, frame = 0
 371              		@ frame_needed = 0, uses_anonymous_args = 0
 372              	.LVL42:
 373 0000 38B5     		push	{r3, r4, r5, lr}
 374              	.LCFI5:
 375              		.cfi_def_cfa_offset 16
 376              		.cfi_offset 3, -16
 377              		.cfi_offset 4, -12
 378              		.cfi_offset 5, -8
 379              		.cfi_offset 14, -4
 380              		.loc 1 251 0
 381 0002 0446     		mov	r4, r0
 382 0004 0D46     		mov	r5, r1
 383              		.loc 1 253 0
 384 0006 FFF7FEFF 		bl	chDbgCheckClassI
 385              	.LVL43:
 386              		.loc 1 256 0
 387 000a A26B     		ldr	r2, [r4, #56]
 388              		.loc 1 258 0
 389 000c 237F     		ldrb	r3, [r4, #28]	@ zero_extendqisi2
 390              		.loc 1 256 0
 391 000e 45EA0201 		orr	r1, r5, r2
 392              		.loc 1 258 0
 393 0012 082B     		cmp	r3, #8
 394              		.loc 1 256 0
ARM GAS  C:\Users\Elis\AppData\Local\Temp\ccCxncIf.s 			page 8


 395 0014 A163     		str	r1, [r4, #56]
 396              		.loc 1 258 0
 397 0016 0CD0     		beq	.L15
 398              		.loc 1 259 0
 399 0018 092B     		cmp	r3, #9
 400 001a 00D0     		beq	.L16
 401              	.L11:
 402 001c 38BD     		pop	{r3, r4, r5, pc}
 403              	.L16:
 404              		.loc 1 261 0
 405 001e 606A     		ldr	r0, [r4, #36]
 406 0020 0140     		ands	r1, r1, r0
 407              		.loc 1 260 0
 408 0022 8842     		cmp	r0, r1
 409 0024 FAD1     		bne	.L11
 410              	.L13:
 411              	.LVL44:
 412              	.LBB17:
 413              	.LBB18:
 414              		.loc 1 262 0
 415 0026 2046     		mov	r0, r4
 416 0028 FFF7FEFF 		bl	chSchReadyI
 417              	.LVL45:
 418 002c 0023     		movs	r3, #0
 419 002e 4362     		str	r3, [r0, #36]
 420 0030 38BD     		pop	{r3, r4, r5, pc}
 421              	.LVL46:
 422              	.L15:
 423              	.LBE18:
 424              	.LBE17:
 425              		.loc 1 259 0 discriminator 1
 426 0032 626A     		ldr	r2, [r4, #36]
 427              		.loc 1 258 0 discriminator 1
 428 0034 1142     		tst	r1, r2
 429 0036 F6D1     		bne	.L13
 430 0038 38BD     		pop	{r3, r4, r5, pc}
 431              		.cfi_endproc
 432              	.LFE14:
 433              		.size	chEvtSignalI, .-chEvtSignalI
 434 003a 00BFAFF3 		.section	.text.chEvtSignal,"ax",%progbits
 434      0080
 435              		.align	2
 436              		.p2align 4,,15
 437              		.global	chEvtSignal
 438              		.thumb
 439              		.thumb_func
 440              		.type	chEvtSignal, %function
 441              	chEvtSignal:
 442              	.LFB13:
 443              		.loc 1 229 0
 444              		.cfi_startproc
 445              		@ args = 0, pretend = 0, frame = 0
 446              		@ frame_needed = 0, uses_anonymous_args = 0
 447              	.LVL47:
 448 0000 38B5     		push	{r3, r4, r5, lr}
 449              	.LCFI6:
 450              		.cfi_def_cfa_offset 16
ARM GAS  C:\Users\Elis\AppData\Local\Temp\ccCxncIf.s 			page 9


 451              		.cfi_offset 3, -16
 452              		.cfi_offset 4, -12
 453              		.cfi_offset 5, -8
 454              		.cfi_offset 14, -4
 455              		.loc 1 229 0
 456 0002 0546     		mov	r5, r0
 457 0004 0C46     		mov	r4, r1
 458              	.LBB19:
 459              		.loc 1 233 0
 460 0006 2023     		movs	r3, #32
 461              	.LVL48:
 462              	@ 233 "../../chibios/os/kernel/src/chevents.c" 1
 463 0008 83F31188 		msr     BASEPRI, r3
 464              	@ 0 "" 2
 465              	.LVL49:
 466              		.thumb
 467              	.LBE19:
 468 000c FFF7FEFF 		bl	dbg_check_lock
 469              	.LVL50:
 470              		.loc 1 234 0
 471 0010 2846     		mov	r0, r5
 472 0012 2146     		mov	r1, r4
 473 0014 FFF7FEFF 		bl	chEvtSignalI
 474              	.LVL51:
 475              		.loc 1 235 0
 476 0018 FFF7FEFF 		bl	chSchRescheduleS
 477              	.LVL52:
 478              		.loc 1 236 0
 479 001c FFF7FEFF 		bl	dbg_check_unlock
 480              	.LVL53:
 481              	.LBB20:
 482 0020 0023     		movs	r3, #0
 483              	.LVL54:
 484              	@ 236 "../../chibios/os/kernel/src/chevents.c" 1
 485 0022 83F31188 		msr     BASEPRI, r3
 486              	@ 0 "" 2
 487              	.LVL55:
 488              		.thumb
 489 0026 38BD     		pop	{r3, r4, r5, pc}
 490              	.LBE20:
 491              		.cfi_endproc
 492              	.LFE13:
 493              		.size	chEvtSignal, .-chEvtSignal
 494 0028 AFF30080 		.section	.text.chEvtBroadcastFlagsI,"ax",%progbits
 494      AFF30080 
 495              		.align	2
 496              		.p2align 4,,15
 497              		.global	chEvtBroadcastFlagsI
 498              		.thumb
 499              		.thumb_func
 500              		.type	chEvtBroadcastFlagsI, %function
 501              	chEvtBroadcastFlagsI:
 502              	.LFB11:
 503              		.loc 1 184 0
 504              		.cfi_startproc
 505              		@ args = 0, pretend = 0, frame = 0
 506              		@ frame_needed = 0, uses_anonymous_args = 0
ARM GAS  C:\Users\Elis\AppData\Local\Temp\ccCxncIf.s 			page 10


 507              	.LVL56:
 508 0000 70B5     		push	{r4, r5, r6, lr}
 509              	.LCFI7:
 510              		.cfi_def_cfa_offset 16
 511              		.cfi_offset 4, -16
 512              		.cfi_offset 5, -12
 513              		.cfi_offset 6, -8
 514              		.cfi_offset 14, -4
 515              		.loc 1 184 0
 516 0002 0546     		mov	r5, r0
 517 0004 0E46     		mov	r6, r1
 518              		.loc 1 187 0
 519 0006 FFF7FEFF 		bl	chDbgCheckClassI
 520              	.LVL57:
 521              		.loc 1 190 0
 522 000a 2C68     		ldr	r4, [r5, #0]
 523              	.LVL58:
 524              		.loc 1 191 0
 525 000c A542     		cmp	r5, r4
 526 000e 08D0     		beq	.L18
 527              	.L22:
 528              		.loc 1 193 0
 529 0010 201D     		adds	r0, r4, #4
 530 0012 0BC8     		ldmia	r0, {r0, r1, r3}
 531              		.loc 1 192 0
 532 0014 3343     		orrs	r3, r3, r6
 533 0016 E360     		str	r3, [r4, #12]
 534              		.loc 1 193 0
 535 0018 FFF7FEFF 		bl	chEvtSignalI
 536              	.LVL59:
 537              		.loc 1 194 0
 538 001c 2468     		ldr	r4, [r4, #0]
 539              	.LVL60:
 540              		.loc 1 191 0
 541 001e A542     		cmp	r5, r4
 542 0020 F6D1     		bne	.L22
 543              	.L18:
 544 0022 70BD     		pop	{r4, r5, r6, pc}
 545              		.cfi_endproc
 546              	.LFE11:
 547              		.size	chEvtBroadcastFlagsI, .-chEvtBroadcastFlagsI
 548 0024 AFF30080 		.section	.text.chEvtBroadcastFlags,"ax",%progbits
 548      AFF30080 
 548      AFF30080 
 549              		.align	2
 550              		.p2align 4,,15
 551              		.global	chEvtBroadcastFlags
 552              		.thumb
 553              		.thumb_func
 554              		.type	chEvtBroadcastFlags, %function
 555              	chEvtBroadcastFlags:
 556              	.LFB15:
 557              		.loc 1 278 0
 558              		.cfi_startproc
 559              		@ args = 0, pretend = 0, frame = 0
 560              		@ frame_needed = 0, uses_anonymous_args = 0
 561              	.LVL61:
ARM GAS  C:\Users\Elis\AppData\Local\Temp\ccCxncIf.s 			page 11


 562 0000 38B5     		push	{r3, r4, r5, lr}
 563              	.LCFI8:
 564              		.cfi_def_cfa_offset 16
 565              		.cfi_offset 3, -16
 566              		.cfi_offset 4, -12
 567              		.cfi_offset 5, -8
 568              		.cfi_offset 14, -4
 569              		.loc 1 278 0
 570 0002 0546     		mov	r5, r0
 571 0004 0C46     		mov	r4, r1
 572              	.LBB21:
 573              		.loc 1 280 0
 574 0006 2023     		movs	r3, #32
 575              	.LVL62:
 576              	@ 280 "../../chibios/os/kernel/src/chevents.c" 1
 577 0008 83F31188 		msr     BASEPRI, r3
 578              	@ 0 "" 2
 579              	.LVL63:
 580              		.thumb
 581              	.LBE21:
 582 000c FFF7FEFF 		bl	dbg_check_lock
 583              	.LVL64:
 584              		.loc 1 281 0
 585 0010 2846     		mov	r0, r5
 586 0012 2146     		mov	r1, r4
 587 0014 FFF7FEFF 		bl	chEvtBroadcastFlagsI
 588              	.LVL65:
 589              		.loc 1 282 0
 590 0018 FFF7FEFF 		bl	chSchRescheduleS
 591              	.LVL66:
 592              		.loc 1 283 0
 593 001c FFF7FEFF 		bl	dbg_check_unlock
 594              	.LVL67:
 595              	.LBB22:
 596 0020 0023     		movs	r3, #0
 597              	.LVL68:
 598              	@ 283 "../../chibios/os/kernel/src/chevents.c" 1
 599 0022 83F31188 		msr     BASEPRI, r3
 600              	@ 0 "" 2
 601              	.LVL69:
 602              		.thumb
 603 0026 38BD     		pop	{r3, r4, r5, pc}
 604              	.LBE22:
 605              		.cfi_endproc
 606              	.LFE15:
 607              		.size	chEvtBroadcastFlags, .-chEvtBroadcastFlags
 608 0028 AFF30080 		.section	.text.chEvtGetAndClearFlagsI,"ax",%progbits
 608      AFF30080 
 609              		.align	2
 610              		.p2align 4,,15
 611              		.global	chEvtGetAndClearFlagsI
 612              		.thumb
 613              		.thumb_func
 614              		.type	chEvtGetAndClearFlagsI, %function
 615              	chEvtGetAndClearFlagsI:
 616              	.LFB16:
 617              		.loc 1 297 0
ARM GAS  C:\Users\Elis\AppData\Local\Temp\ccCxncIf.s 			page 12


 618              		.cfi_startproc
 619              		@ args = 0, pretend = 0, frame = 0
 620              		@ frame_needed = 0, uses_anonymous_args = 0
 621              		@ link register save eliminated.
 622              	.LVL70:
 623              		.loc 1 297 0
 624 0000 0346     		mov	r3, r0
 625              		.loc 1 301 0
 626 0002 0022     		movs	r2, #0
 627              		.loc 1 300 0
 628 0004 C068     		ldr	r0, [r0, #12]
 629              	.LVL71:
 630              		.loc 1 301 0
 631 0006 DA60     		str	r2, [r3, #12]
 632              		.loc 1 304 0
 633 0008 7047     		bx	lr
 634              		.cfi_endproc
 635              	.LFE16:
 636              		.size	chEvtGetAndClearFlagsI, .-chEvtGetAndClearFlagsI
 637 000a 00BFAFF3 		.section	.text.chEvtDispatch,"ax",%progbits
 637      0080
 638              		.align	2
 639              		.p2align 4,,15
 640              		.global	chEvtDispatch
 641              		.thumb
 642              		.thumb_func
 643              		.type	chEvtDispatch, %function
 644              	chEvtDispatch:
 645              	.LFB17:
 646              		.loc 1 315 0
 647              		.cfi_startproc
 648              		@ args = 0, pretend = 0, frame = 0
 649              		@ frame_needed = 0, uses_anonymous_args = 0
 650              	.LVL72:
 651 0000 F8B5     		push	{r3, r4, r5, r6, r7, lr}
 652              	.LCFI9:
 653              		.cfi_def_cfa_offset 24
 654              		.cfi_offset 3, -24
 655              		.cfi_offset 4, -20
 656              		.cfi_offset 5, -16
 657              		.cfi_offset 6, -12
 658              		.cfi_offset 7, -8
 659              		.cfi_offset 14, -4
 660              		.loc 1 321 0
 661 0002 0D46     		mov	r5, r1
 662              		.loc 1 315 0
 663 0004 0746     		mov	r7, r0
 664              		.loc 1 321 0
 665 0006 89B1     		cbz	r1, .L26
 666 0008 0024     		movs	r4, #0
 667              		.loc 1 322 0
 668 000a 0126     		movs	r6, #1
 669 000c 01E0     		b	.L27
 670              	.LVL73:
 671              	.L28:
 672              		.loc 1 329 0
 673 000e 0134     		adds	r4, r4, #1
ARM GAS  C:\Users\Elis\AppData\Local\Temp\ccCxncIf.s 			page 13


 674              	.LVL74:
 675              		.loc 1 321 0
 676 0010 65B1     		cbz	r5, .L26
 677              	.LVL75:
 678              	.L27:
 679              		.loc 1 322 0
 680 0012 06FA04F3 		lsl	r3, r6, r4
 681 0016 2B42     		tst	r3, r5
 682 0018 F9D0     		beq	.L28
 683              		.loc 1 327 0
 684 001a 57F82420 		ldr	r2, [r7, r4, lsl #2]
 685 001e 2046     		mov	r0, r4
 686              		.loc 1 326 0
 687 0020 25EA0305 		bic	r5, r5, r3
 688              	.LVL76:
 689              		.loc 1 329 0
 690 0024 0134     		adds	r4, r4, #1
 691              		.loc 1 327 0
 692 0026 9047     		blx	r2
 693              	.LVL77:
 694              		.loc 1 321 0
 695 0028 002D     		cmp	r5, #0
 696 002a F2D1     		bne	.L27
 697              	.LVL78:
 698              	.L26:
 699 002c F8BD     		pop	{r3, r4, r5, r6, r7, pc}
 700              		.cfi_endproc
 701              	.LFE17:
 702              		.size	chEvtDispatch, .-chEvtDispatch
 703 002e 00BF     		.section	.text.chEvtWaitOne,"ax",%progbits
 704              		.align	2
 705              		.p2align 4,,15
 706              		.global	chEvtWaitOne
 707              		.thumb
 708              		.thumb_func
 709              		.type	chEvtWaitOne, %function
 710              	chEvtWaitOne:
 711              	.LFB18:
 712              		.loc 1 350 0
 713              		.cfi_startproc
 714              		@ args = 0, pretend = 0, frame = 0
 715              		@ frame_needed = 0, uses_anonymous_args = 0
 716              	.LVL79:
 717 0000 38B5     		push	{r3, r4, r5, lr}
 718              	.LCFI10:
 719              		.cfi_def_cfa_offset 16
 720              		.cfi_offset 3, -16
 721              		.cfi_offset 4, -12
 722              		.cfi_offset 5, -8
 723              		.cfi_offset 14, -4
 724              		.loc 1 351 0
 725 0002 0F4B     		ldr	r3, .L37
 726              		.loc 1 350 0
 727 0004 0446     		mov	r4, r0
 728              		.loc 1 351 0
 729 0006 9D69     		ldr	r5, [r3, #24]
 730              	.LVL80:
ARM GAS  C:\Users\Elis\AppData\Local\Temp\ccCxncIf.s 			page 14


 731              	.LBB23:
 732              		.loc 1 354 0
 733 0008 2023     		movs	r3, #32
 734              	.LVL81:
 735              	@ 354 "../../chibios/os/kernel/src/chevents.c" 1
 736 000a 83F31188 		msr     BASEPRI, r3
 737              	@ 0 "" 2
 738              	.LVL82:
 739              		.thumb
 740              	.LBE23:
 741 000e FFF7FEFF 		bl	dbg_check_lock
 742              	.LVL83:
 743              		.loc 1 356 0
 744 0012 A86B     		ldr	r0, [r5, #56]
 745              	.LVL84:
 746 0014 14EA0002 		ands	r2, r4, r0
 747              	.LVL85:
 748 0018 06D1     		bne	.L36
 749              		.loc 1 358 0
 750 001a 0820     		movs	r0, #8
 751              		.loc 1 357 0
 752 001c 6C62     		str	r4, [r5, #36]
 753              		.loc 1 358 0
 754 001e FFF7FEFF 		bl	chSchGoSleepS
 755              	.LVL86:
 756              		.loc 1 359 0
 757 0022 A86B     		ldr	r0, [r5, #56]
 758 0024 04EA0002 		and	r2, r4, r0
 759              	.LVL87:
 760              	.L36:
 761              		.loc 1 361 0
 762 0028 5442     		negs	r4, r2
 763              	.LVL88:
 764 002a 1440     		ands	r4, r4, r2
 765              	.LVL89:
 766              		.loc 1 362 0
 767 002c 20EA0400 		bic	r0, r0, r4
 768 0030 A863     		str	r0, [r5, #56]
 769              		.loc 1 364 0
 770 0032 FFF7FEFF 		bl	dbg_check_unlock
 771              	.LVL90:
 772              	.LBB24:
 773 0036 0023     		movs	r3, #0
 774              	.LVL91:
 775              	@ 364 "../../chibios/os/kernel/src/chevents.c" 1
 776 0038 83F31188 		msr     BASEPRI, r3
 777              	@ 0 "" 2
 778              	.LVL92:
 779              		.thumb
 780              	.LBE24:
 781              		.loc 1 366 0
 782 003c 2046     		mov	r0, r4
 783 003e 38BD     		pop	{r3, r4, r5, pc}
 784              	.L38:
 785              		.align	2
 786              	.L37:
 787 0040 00000000 		.word	rlist
ARM GAS  C:\Users\Elis\AppData\Local\Temp\ccCxncIf.s 			page 15


 788              		.cfi_endproc
 789              	.LFE18:
 790              		.size	chEvtWaitOne, .-chEvtWaitOne
 791 0044 AFF30080 		.section	.text.chEvtWaitAny,"ax",%progbits
 791      AFF30080 
 791      AFF30080 
 792              		.align	2
 793              		.p2align 4,,15
 794              		.global	chEvtWaitAny
 795              		.thumb
 796              		.thumb_func
 797              		.type	chEvtWaitAny, %function
 798              	chEvtWaitAny:
 799              	.LFB19:
 800              		.loc 1 379 0
 801              		.cfi_startproc
 802              		@ args = 0, pretend = 0, frame = 0
 803              		@ frame_needed = 0, uses_anonymous_args = 0
 804              	.LVL93:
 805              		.loc 1 380 0
 806 0000 0E4B     		ldr	r3, .L41
 807              		.loc 1 379 0
 808 0002 70B5     		push	{r4, r5, r6, lr}
 809              	.LCFI11:
 810              		.cfi_def_cfa_offset 16
 811              		.cfi_offset 4, -16
 812              		.cfi_offset 5, -12
 813              		.cfi_offset 6, -8
 814              		.cfi_offset 14, -4
 815              		.loc 1 380 0
 816 0004 9D69     		ldr	r5, [r3, #24]
 817              	.LVL94:
 818              		.loc 1 379 0
 819 0006 0446     		mov	r4, r0
 820              	.LBB25:
 821              		.loc 1 383 0
 822 0008 2023     		movs	r3, #32
 823              	.LVL95:
 824              	@ 383 "../../chibios/os/kernel/src/chevents.c" 1
 825 000a 83F31188 		msr     BASEPRI, r3
 826              	@ 0 "" 2
 827              	.LVL96:
 828              		.thumb
 829              	.LBE25:
 830 000e FFF7FEFF 		bl	dbg_check_lock
 831              	.LVL97:
 832              		.loc 1 385 0
 833 0012 A86B     		ldr	r0, [r5, #56]
 834              	.LVL98:
 835 0014 14EA0006 		ands	r6, r4, r0
 836              	.LVL99:
 837 0018 06D1     		bne	.L40
 838              		.loc 1 387 0
 839 001a 0820     		movs	r0, #8
 840              		.loc 1 386 0
 841 001c 6C62     		str	r4, [r5, #36]
 842              		.loc 1 387 0
ARM GAS  C:\Users\Elis\AppData\Local\Temp\ccCxncIf.s 			page 16


 843 001e FFF7FEFF 		bl	chSchGoSleepS
 844              	.LVL100:
 845              		.loc 1 388 0
 846 0022 A86B     		ldr	r0, [r5, #56]
 847 0024 04EA0006 		and	r6, r4, r0
 848              	.LVL101:
 849              	.L40:
 850              		.loc 1 390 0
 851 0028 20EA0600 		bic	r0, r0, r6
 852 002c A863     		str	r0, [r5, #56]
 853              		.loc 1 392 0
 854 002e FFF7FEFF 		bl	dbg_check_unlock
 855              	.LVL102:
 856              	.LBB26:
 857 0032 0023     		movs	r3, #0
 858              	.LVL103:
 859              	@ 392 "../../chibios/os/kernel/src/chevents.c" 1
 860 0034 83F31188 		msr     BASEPRI, r3
 861              	@ 0 "" 2
 862              	.LVL104:
 863              		.thumb
 864              	.LBE26:
 865              		.loc 1 394 0
 866 0038 3046     		mov	r0, r6
 867 003a 70BD     		pop	{r4, r5, r6, pc}
 868              	.L42:
 869              		.align	2
 870              	.L41:
 871 003c 00000000 		.word	rlist
 872              		.cfi_endproc
 873              	.LFE19:
 874              		.size	chEvtWaitAny, .-chEvtWaitAny
 875              		.section	.text.chEvtWaitAll,"ax",%progbits
 876              		.align	2
 877              		.p2align 4,,15
 878              		.global	chEvtWaitAll
 879              		.thumb
 880              		.thumb_func
 881              		.type	chEvtWaitAll, %function
 882              	chEvtWaitAll:
 883              	.LFB20:
 884              		.loc 1 407 0
 885              		.cfi_startproc
 886              		@ args = 0, pretend = 0, frame = 0
 887              		@ frame_needed = 0, uses_anonymous_args = 0
 888              	.LVL105:
 889 0000 38B5     		push	{r3, r4, r5, lr}
 890              	.LCFI12:
 891              		.cfi_def_cfa_offset 16
 892              		.cfi_offset 3, -16
 893              		.cfi_offset 4, -12
 894              		.cfi_offset 5, -8
 895              		.cfi_offset 14, -4
 896              		.loc 1 408 0
 897 0002 0E4B     		ldr	r3, .L45
 898              		.loc 1 407 0
 899 0004 0446     		mov	r4, r0
ARM GAS  C:\Users\Elis\AppData\Local\Temp\ccCxncIf.s 			page 17


 900              		.loc 1 408 0
 901 0006 9D69     		ldr	r5, [r3, #24]
 902              	.LVL106:
 903              	.LBB27:
 904              		.loc 1 410 0
 905 0008 2023     		movs	r3, #32
 906              	.LVL107:
 907              	@ 410 "../../chibios/os/kernel/src/chevents.c" 1
 908 000a 83F31188 		msr     BASEPRI, r3
 909              	@ 0 "" 2
 910              	.LVL108:
 911              		.thumb
 912              	.LBE27:
 913 000e FFF7FEFF 		bl	dbg_check_lock
 914              	.LVL109:
 915              		.loc 1 412 0
 916 0012 A86B     		ldr	r0, [r5, #56]
 917 0014 04EA0002 		and	r2, r4, r0
 918 0018 A242     		cmp	r2, r4
 919 001a 04D0     		beq	.L44
 920              		.loc 1 414 0
 921 001c 0920     		movs	r0, #9
 922              		.loc 1 413 0
 923 001e 6C62     		str	r4, [r5, #36]
 924              		.loc 1 414 0
 925 0020 FFF7FEFF 		bl	chSchGoSleepS
 926              	.LVL110:
 927 0024 A86B     		ldr	r0, [r5, #56]
 928              	.L44:
 929              		.loc 1 416 0
 930 0026 20EA0400 		bic	r0, r0, r4
 931 002a A863     		str	r0, [r5, #56]
 932              		.loc 1 418 0
 933 002c FFF7FEFF 		bl	dbg_check_unlock
 934              	.LVL111:
 935              	.LBB28:
 936 0030 0023     		movs	r3, #0
 937              	.LVL112:
 938              	@ 418 "../../chibios/os/kernel/src/chevents.c" 1
 939 0032 83F31188 		msr     BASEPRI, r3
 940              	@ 0 "" 2
 941              	.LVL113:
 942              		.thumb
 943              	.LBE28:
 944              		.loc 1 420 0
 945 0036 2046     		mov	r0, r4
 946 0038 38BD     		pop	{r3, r4, r5, pc}
 947              	.L46:
 948 003a 00BF     		.align	2
 949              	.L45:
 950 003c 00000000 		.word	rlist
 951              		.cfi_endproc
 952              	.LFE20:
 953              		.size	chEvtWaitAll, .-chEvtWaitAll
 954              		.section	.text.chEvtWaitOneTimeout,"ax",%progbits
 955              		.align	2
 956              		.p2align 4,,15
ARM GAS  C:\Users\Elis\AppData\Local\Temp\ccCxncIf.s 			page 18


 957              		.global	chEvtWaitOneTimeout
 958              		.thumb
 959              		.thumb_func
 960              		.type	chEvtWaitOneTimeout, %function
 961              	chEvtWaitOneTimeout:
 962              	.LFB21:
 963              		.loc 1 446 0
 964              		.cfi_startproc
 965              		@ args = 0, pretend = 0, frame = 0
 966              		@ frame_needed = 0, uses_anonymous_args = 0
 967              	.LVL114:
 968 0000 F8B5     		push	{r3, r4, r5, r6, r7, lr}
 969              	.LCFI13:
 970              		.cfi_def_cfa_offset 24
 971              		.cfi_offset 3, -24
 972              		.cfi_offset 4, -20
 973              		.cfi_offset 5, -16
 974              		.cfi_offset 6, -12
 975              		.cfi_offset 7, -8
 976              		.cfi_offset 14, -4
 977              		.loc 1 447 0
 978 0002 154B     		ldr	r3, .L53
 979              		.loc 1 446 0
 980 0004 0546     		mov	r5, r0
 981              		.loc 1 447 0
 982 0006 9E69     		ldr	r6, [r3, #24]
 983              	.LVL115:
 984              		.loc 1 446 0
 985 0008 0F46     		mov	r7, r1
 986              	.LBB29:
 987              		.loc 1 450 0
 988 000a 2023     		movs	r3, #32
 989              	.LVL116:
 990              	@ 450 "../../chibios/os/kernel/src/chevents.c" 1
 991 000c 83F31188 		msr     BASEPRI, r3
 992              	@ 0 "" 2
 993              	.LVL117:
 994              		.thumb
 995              	.LBE29:
 996 0010 FFF7FEFF 		bl	dbg_check_lock
 997              	.LVL118:
 998              		.loc 1 452 0
 999 0014 B06B     		ldr	r0, [r6, #56]
 1000              	.LVL119:
 1001 0016 15EA0004 		ands	r4, r5, r0
 1002              	.LVL120:
 1003 001a 0AD1     		bne	.L48
 1004              		.loc 1 453 0
 1005 001c AFB1     		cbz	r7, .L52
 1006              		.loc 1 458 0
 1007 001e 0820     		movs	r0, #8
 1008              		.loc 1 457 0
 1009 0020 7562     		str	r5, [r6, #36]
 1010              		.loc 1 458 0
 1011 0022 3946     		mov	r1, r7
 1012 0024 FFF7FEFF 		bl	chSchGoSleepTimeoutS
 1013              	.LVL121:
ARM GAS  C:\Users\Elis\AppData\Local\Temp\ccCxncIf.s 			page 19


 1014 0028 0028     		cmp	r0, #0
 1015 002a 0EDB     		blt	.L52
 1016              		.loc 1 462 0
 1017 002c B06B     		ldr	r0, [r6, #56]
 1018 002e 05EA0004 		and	r4, r5, r0
 1019              	.LVL122:
 1020              	.L48:
 1021              		.loc 1 464 0
 1022 0032 6242     		negs	r2, r4
 1023 0034 1440     		ands	r4, r4, r2
 1024              	.LVL123:
 1025              		.loc 1 465 0
 1026 0036 20EA0400 		bic	r0, r0, r4
 1027 003a B063     		str	r0, [r6, #56]
 1028              		.loc 1 467 0
 1029 003c FFF7FEFF 		bl	dbg_check_unlock
 1030              	.LVL124:
 1031              	.LBB30:
 1032 0040 0023     		movs	r3, #0
 1033              	.LVL125:
 1034              	@ 467 "../../chibios/os/kernel/src/chevents.c" 1
 1035 0042 83F31188 		msr     BASEPRI, r3
 1036              	@ 0 "" 2
 1037              	.LVL126:
 1038              		.thumb
 1039              	.LBE30:
 1040              		.loc 1 469 0
 1041 0046 2046     		mov	r0, r4
 1042 0048 F8BD     		pop	{r3, r4, r5, r6, r7, pc}
 1043              	.LVL127:
 1044              	.L52:
 1045              		.loc 1 459 0
 1046 004a FFF7FEFF 		bl	dbg_check_unlock
 1047              	.LVL128:
 1048              	.LBB31:
 1049 004e 2346     		mov	r3, r4
 1050              	.LVL129:
 1051              	@ 459 "../../chibios/os/kernel/src/chevents.c" 1
 1052 0050 83F31188 		msr     BASEPRI, r3
 1053              	@ 0 "" 2
 1054              	.LVL130:
 1055              		.thumb
 1056              	.LBE31:
 1057              		.loc 1 469 0
 1058 0054 2046     		mov	r0, r4
 1059 0056 F8BD     		pop	{r3, r4, r5, r6, r7, pc}
 1060              	.L54:
 1061              		.align	2
 1062              	.L53:
 1063 0058 00000000 		.word	rlist
 1064              		.cfi_endproc
 1065              	.LFE21:
 1066              		.size	chEvtWaitOneTimeout, .-chEvtWaitOneTimeout
 1067 005c AFF30080 		.section	.text.chEvtWaitAnyTimeout,"ax",%progbits
 1068              		.align	2
 1069              		.p2align 4,,15
 1070              		.global	chEvtWaitAnyTimeout
ARM GAS  C:\Users\Elis\AppData\Local\Temp\ccCxncIf.s 			page 20


 1071              		.thumb
 1072              		.thumb_func
 1073              		.type	chEvtWaitAnyTimeout, %function
 1074              	chEvtWaitAnyTimeout:
 1075              	.LFB22:
 1076              		.loc 1 489 0
 1077              		.cfi_startproc
 1078              		@ args = 0, pretend = 0, frame = 0
 1079              		@ frame_needed = 0, uses_anonymous_args = 0
 1080              	.LVL131:
 1081 0000 F8B5     		push	{r3, r4, r5, r6, r7, lr}
 1082              	.LCFI14:
 1083              		.cfi_def_cfa_offset 24
 1084              		.cfi_offset 3, -24
 1085              		.cfi_offset 4, -20
 1086              		.cfi_offset 5, -16
 1087              		.cfi_offset 6, -12
 1088              		.cfi_offset 7, -8
 1089              		.cfi_offset 14, -4
 1090              		.loc 1 490 0
 1091 0002 144B     		ldr	r3, .L61
 1092              		.loc 1 489 0
 1093 0004 0446     		mov	r4, r0
 1094              		.loc 1 490 0
 1095 0006 9D69     		ldr	r5, [r3, #24]
 1096              	.LVL132:
 1097              		.loc 1 489 0
 1098 0008 0F46     		mov	r7, r1
 1099              	.LBB32:
 1100              		.loc 1 493 0
 1101 000a 2023     		movs	r3, #32
 1102              	.LVL133:
 1103              	@ 493 "../../chibios/os/kernel/src/chevents.c" 1
 1104 000c 83F31188 		msr     BASEPRI, r3
 1105              	@ 0 "" 2
 1106              	.LVL134:
 1107              		.thumb
 1108              	.LBE32:
 1109 0010 FFF7FEFF 		bl	dbg_check_lock
 1110              	.LVL135:
 1111              		.loc 1 495 0
 1112 0014 AA6B     		ldr	r2, [r5, #56]
 1113              	.LVL136:
 1114 0016 14EA0206 		ands	r6, r4, r2
 1115              	.LVL137:
 1116 001a 0AD1     		bne	.L56
 1117              		.loc 1 496 0
 1118 001c 9FB1     		cbz	r7, .L60
 1119              		.loc 1 501 0
 1120 001e 0820     		movs	r0, #8
 1121              		.loc 1 500 0
 1122 0020 6C62     		str	r4, [r5, #36]
 1123              		.loc 1 501 0
 1124 0022 3946     		mov	r1, r7
 1125 0024 FFF7FEFF 		bl	chSchGoSleepTimeoutS
 1126              	.LVL138:
 1127 0028 0028     		cmp	r0, #0
ARM GAS  C:\Users\Elis\AppData\Local\Temp\ccCxncIf.s 			page 21


 1128 002a 0CDB     		blt	.L60
 1129              		.loc 1 505 0
 1130 002c AA6B     		ldr	r2, [r5, #56]
 1131 002e 04EA0206 		and	r6, r4, r2
 1132              	.LVL139:
 1133              	.L56:
 1134              		.loc 1 507 0
 1135 0032 22EA0602 		bic	r2, r2, r6
 1136 0036 AA63     		str	r2, [r5, #56]
 1137              		.loc 1 509 0
 1138 0038 FFF7FEFF 		bl	dbg_check_unlock
 1139              	.LVL140:
 1140              	.LBB33:
 1141 003c 0023     		movs	r3, #0
 1142              	.LVL141:
 1143              	@ 509 "../../chibios/os/kernel/src/chevents.c" 1
 1144 003e 83F31188 		msr     BASEPRI, r3
 1145              	@ 0 "" 2
 1146              	.LVL142:
 1147              		.thumb
 1148              	.LBE33:
 1149              		.loc 1 511 0
 1150 0042 3046     		mov	r0, r6
 1151 0044 F8BD     		pop	{r3, r4, r5, r6, r7, pc}
 1152              	.LVL143:
 1153              	.L60:
 1154              		.loc 1 502 0
 1155 0046 FFF7FEFF 		bl	dbg_check_unlock
 1156              	.LVL144:
 1157              	.LBB34:
 1158 004a 3346     		mov	r3, r6
 1159              	.LVL145:
 1160              	@ 502 "../../chibios/os/kernel/src/chevents.c" 1
 1161 004c 83F31188 		msr     BASEPRI, r3
 1162              	@ 0 "" 2
 1163              	.LVL146:
 1164              		.thumb
 1165              	.LBE34:
 1166              		.loc 1 511 0
 1167 0050 3046     		mov	r0, r6
 1168 0052 F8BD     		pop	{r3, r4, r5, r6, r7, pc}
 1169              	.L62:
 1170              		.align	2
 1171              	.L61:
 1172 0054 00000000 		.word	rlist
 1173              		.cfi_endproc
 1174              	.LFE22:
 1175              		.size	chEvtWaitAnyTimeout, .-chEvtWaitAnyTimeout
 1176 0058 AFF30080 		.section	.text.chEvtWaitAllTimeout,"ax",%progbits
 1176      AFF30080 
 1177              		.align	2
 1178              		.p2align 4,,15
 1179              		.global	chEvtWaitAllTimeout
 1180              		.thumb
 1181              		.thumb_func
 1182              		.type	chEvtWaitAllTimeout, %function
 1183              	chEvtWaitAllTimeout:
ARM GAS  C:\Users\Elis\AppData\Local\Temp\ccCxncIf.s 			page 22


 1184              	.LFB23:
 1185              		.loc 1 530 0
 1186              		.cfi_startproc
 1187              		@ args = 0, pretend = 0, frame = 0
 1188              		@ frame_needed = 0, uses_anonymous_args = 0
 1189              	.LVL147:
 1190              		.loc 1 531 0
 1191 0000 184B     		ldr	r3, .L69
 1192              		.loc 1 530 0
 1193 0002 70B5     		push	{r4, r5, r6, lr}
 1194              	.LCFI15:
 1195              		.cfi_def_cfa_offset 16
 1196              		.cfi_offset 4, -16
 1197              		.cfi_offset 5, -12
 1198              		.cfi_offset 6, -8
 1199              		.cfi_offset 14, -4
 1200              		.loc 1 531 0
 1201 0004 9D69     		ldr	r5, [r3, #24]
 1202              	.LVL148:
 1203              		.loc 1 530 0
 1204 0006 0446     		mov	r4, r0
 1205 0008 0E46     		mov	r6, r1
 1206              	.LBB35:
 1207              		.loc 1 533 0
 1208 000a 2023     		movs	r3, #32
 1209              	.LVL149:
 1210              	@ 533 "../../chibios/os/kernel/src/chevents.c" 1
 1211 000c 83F31188 		msr     BASEPRI, r3
 1212              	@ 0 "" 2
 1213              	.LVL150:
 1214              		.thumb
 1215              	.LBE35:
 1216 0010 FFF7FEFF 		bl	dbg_check_lock
 1217              	.LVL151:
 1218              		.loc 1 535 0
 1219 0014 AA6B     		ldr	r2, [r5, #56]
 1220 0016 04EA0200 		and	r0, r4, r2
 1221 001a A042     		cmp	r0, r4
 1222 001c 08D0     		beq	.L64
 1223              		.loc 1 536 0
 1224 001e 8EB1     		cbz	r6, .L68
 1225              		.loc 1 541 0
 1226 0020 0920     		movs	r0, #9
 1227              		.loc 1 540 0
 1228 0022 6C62     		str	r4, [r5, #36]
 1229              		.loc 1 541 0
 1230 0024 3146     		mov	r1, r6
 1231 0026 FFF7FEFF 		bl	chSchGoSleepTimeoutS
 1232              	.LVL152:
 1233 002a 0028     		cmp	r0, #0
 1234 002c 12DB     		blt	.L67
 1235 002e AA6B     		ldr	r2, [r5, #56]
 1236              	.L64:
 1237              		.loc 1 546 0
 1238 0030 22EA0402 		bic	r2, r2, r4
 1239 0034 AA63     		str	r2, [r5, #56]
 1240              		.loc 1 548 0
ARM GAS  C:\Users\Elis\AppData\Local\Temp\ccCxncIf.s 			page 23


 1241 0036 FFF7FEFF 		bl	dbg_check_unlock
 1242              	.LVL153:
 1243              	.LBB36:
 1244 003a 0023     		movs	r3, #0
 1245              	.LVL154:
 1246              	@ 548 "../../chibios/os/kernel/src/chevents.c" 1
 1247 003c 83F31188 		msr     BASEPRI, r3
 1248              	@ 0 "" 2
 1249              	.LVL155:
 1250              		.thumb
 1251              	.L66:
 1252              	.LBE36:
 1253              		.loc 1 550 0
 1254 0040 2046     		mov	r0, r4
 1255 0042 70BD     		pop	{r4, r5, r6, pc}
 1256              	.LVL156:
 1257              	.L68:
 1258              		.loc 1 537 0
 1259 0044 FFF7FEFF 		bl	dbg_check_unlock
 1260              	.LVL157:
 1261              	.LBB37:
 1262 0048 3346     		mov	r3, r6
 1263              	.LVL158:
 1264              	@ 537 "../../chibios/os/kernel/src/chevents.c" 1
 1265 004a 83F31188 		msr     BASEPRI, r3
 1266              	@ 0 "" 2
 1267              	.LVL159:
 1268              		.thumb
 1269              	.LBE37:
 1270              		.loc 1 538 0
 1271 004e 3446     		mov	r4, r6
 1272              	.LVL160:
 1273              		.loc 1 550 0
 1274 0050 2046     		mov	r0, r4
 1275 0052 70BD     		pop	{r4, r5, r6, pc}
 1276              	.LVL161:
 1277              	.L67:
 1278              		.loc 1 542 0
 1279 0054 FFF7FEFF 		bl	dbg_check_unlock
 1280              	.LVL162:
 1281              	.LBB38:
 1282 0058 0023     		movs	r3, #0
 1283              	@ 542 "../../chibios/os/kernel/src/chevents.c" 1
 1284 005a 83F31188 		msr     BASEPRI, r3
 1285              	@ 0 "" 2
 1286              	.LVL163:
 1287              		.thumb
 1288              	.LBE38:
 1289              		.loc 1 543 0
 1290 005e 1C46     		mov	r4, r3
 1291              	.LVL164:
 1292 0060 EEE7     		b	.L66
 1293              	.L70:
 1294 0062 00BF     		.align	2
 1295              	.L69:
 1296 0064 00000000 		.word	rlist
 1297              		.cfi_endproc
ARM GAS  C:\Users\Elis\AppData\Local\Temp\ccCxncIf.s 			page 24


 1298              	.LFE23:
 1299              		.size	chEvtWaitAllTimeout, .-chEvtWaitAllTimeout
 1300 0068 AFF30080 		.text
 1300      AFF30080 
 1301              	.Letext0:
 1302              		.file 2 "c:\\chibistudio\\tools\\gnu tools arm embedded\\4.7 2014q2\\bin\\../lib/gcc/arm-none-eabi
 1303              		.file 3 "../../chibios/os/ports/GCC/ARMCMx/chtypes.h"
 1304              		.file 4 "../../chibios/os/kernel/include/chlists.h"
 1305              		.file 5 "../../chibios/os/kernel/include/chthreads.h"
 1306              		.file 6 "../../chibios/os/ports/GCC/ARMCMx/chcore_v7m.h"
 1307              		.file 7 "../../chibios/os/kernel/include/chschd.h"
 1308              		.file 8 "../../chibios/os/kernel/include/chmtx.h"
 1309              		.file 9 "../../chibios/os/kernel/include/chevents.h"
 1310              		.file 10 "../../chibios/os/kernel/include/chdebug.h"