ARM GAS  C:\Users\Elis\AppData\Local\Temp\cccKuORV.s 			page 1


   1              		.syntax unified
   2              		.cpu cortex-m4
   3              		.fpu softvfp
   4              		.eabi_attribute 20, 1
   5              		.eabi_attribute 21, 1
   6              		.eabi_attribute 23, 3
   7              		.eabi_attribute 24, 1
   8              		.eabi_attribute 25, 1
   9              		.eabi_attribute 26, 1
  10              		.eabi_attribute 30, 2
  11              		.eabi_attribute 34, 1
  12              		.eabi_attribute 18, 4
  13              		.thumb
  14              		.file	"chmempools.c"
  15              		.text
  16              	.Ltext0:
  17              		.cfi_sections	.debug_frame
  18              		.section	.text.chPoolInit,"ax",%progbits
  19              		.align	2
  20              		.p2align 4,,15
  21              		.global	chPoolInit
  22              		.thumb
  23              		.thumb_func
  24              		.type	chPoolInit, %function
  25              	chPoolInit:
  26              	.LFB7:
  27              		.file 1 "../../chibios/os/kernel/src/chmempools.c"
  28              		.loc 1 62 0
  29              		.cfi_startproc
  30              		@ args = 0, pretend = 0, frame = 0
  31              		@ frame_needed = 0, uses_anonymous_args = 0
  32              		@ link register save eliminated.
  33              	.LVL0:
  34              		.loc 1 66 0
  35 0000 0023     		movs	r3, #0
  36 0002 0360     		str	r3, [r0, #0]
  37              		.loc 1 67 0
  38 0004 4160     		str	r1, [r0, #4]
  39              		.loc 1 68 0
  40 0006 8260     		str	r2, [r0, #8]
  41 0008 7047     		bx	lr
  42              		.cfi_endproc
  43              	.LFE7:
  44              		.size	chPoolInit, .-chPoolInit
  45 000a 00BFAFF3 		.section	.text.chPoolAllocI,"ax",%progbits
  45      0080
  46              		.align	2
  47              		.p2align 4,,15
  48              		.global	chPoolAllocI
  49              		.thumb
  50              		.thumb_func
  51              		.type	chPoolAllocI, %function
  52              	chPoolAllocI:
  53              	.LFB9:
  54              		.loc 1 105 0
  55              		.cfi_startproc
  56              		@ args = 0, pretend = 0, frame = 0
ARM GAS  C:\Users\Elis\AppData\Local\Temp\cccKuORV.s 			page 2


  57              		@ frame_needed = 0, uses_anonymous_args = 0
  58              	.LVL1:
  59 0000 10B5     		push	{r4, lr}
  60              	.LCFI0:
  61              		.cfi_def_cfa_offset 8
  62              		.cfi_offset 4, -8
  63              		.cfi_offset 14, -4
  64              		.loc 1 105 0
  65 0002 0446     		mov	r4, r0
  66              		.loc 1 108 0
  67 0004 FFF7FEFF 		bl	chDbgCheckClassI
  68              	.LVL2:
  69              		.loc 1 111 0
  70 0008 2068     		ldr	r0, [r4, #0]
  71              	.LVL3:
  72 000a 10B1     		cbz	r0, .L3
  73              		.loc 1 112 0
  74 000c 0168     		ldr	r1, [r0, #0]
  75 000e 2160     		str	r1, [r4, #0]
  76 0010 10BD     		pop	{r4, pc}
  77              	.L3:
  78              		.loc 1 113 0
  79 0012 A368     		ldr	r3, [r4, #8]
  80 0014 0BB1     		cbz	r3, .L4
  81              		.loc 1 114 0
  82 0016 6068     		ldr	r0, [r4, #4]
  83              	.LVL4:
  84 0018 9847     		blx	r3
  85              	.LVL5:
  86              	.L4:
  87              		.loc 1 116 0
  88 001a 10BD     		pop	{r4, pc}
  89              		.cfi_endproc
  90              	.LFE9:
  91              		.size	chPoolAllocI, .-chPoolAllocI
  92 001c AFF30080 		.section	.text.chPoolAlloc,"ax",%progbits
  93              		.align	2
  94              		.p2align 4,,15
  95              		.global	chPoolAlloc
  96              		.thumb
  97              		.thumb_func
  98              		.type	chPoolAlloc, %function
  99              	chPoolAlloc:
 100              	.LFB10:
 101              		.loc 1 128 0
 102              		.cfi_startproc
 103              		@ args = 0, pretend = 0, frame = 0
 104              		@ frame_needed = 0, uses_anonymous_args = 0
 105              	.LVL6:
 106 0000 10B5     		push	{r4, lr}
 107              	.LCFI1:
 108              		.cfi_def_cfa_offset 8
 109              		.cfi_offset 4, -8
 110              		.cfi_offset 14, -4
 111              	.LBB6:
 112              		.loc 1 131 0
 113 0002 2023     		movs	r3, #32
ARM GAS  C:\Users\Elis\AppData\Local\Temp\cccKuORV.s 			page 3


 114              	.LVL7:
 115              	.LBE6:
 116              		.loc 1 128 0
 117 0004 0446     		mov	r4, r0
 118              	.LBB7:
 119              		.loc 1 131 0
 120              	@ 131 "../../chibios/os/kernel/src/chmempools.c" 1
 121 0006 83F31188 		msr     BASEPRI, r3
 122              	@ 0 "" 2
 123              	.LVL8:
 124              		.thumb
 125              	.LBE7:
 126 000a FFF7FEFF 		bl	dbg_check_lock
 127              	.LVL9:
 128              		.loc 1 132 0
 129 000e 2046     		mov	r0, r4
 130 0010 FFF7FEFF 		bl	chPoolAllocI
 131              	.LVL10:
 132 0014 0446     		mov	r4, r0
 133              	.LVL11:
 134              		.loc 1 133 0
 135 0016 FFF7FEFF 		bl	dbg_check_unlock
 136              	.LVL12:
 137              	.LBB8:
 138 001a 0023     		movs	r3, #0
 139              	.LVL13:
 140              	@ 133 "../../chibios/os/kernel/src/chmempools.c" 1
 141 001c 83F31188 		msr     BASEPRI, r3
 142              	@ 0 "" 2
 143              	.LVL14:
 144              		.thumb
 145              	.LBE8:
 146              		.loc 1 135 0
 147 0020 2046     		mov	r0, r4
 148 0022 10BD     		pop	{r4, pc}
 149              		.cfi_endproc
 150              	.LFE10:
 151              		.size	chPoolAlloc, .-chPoolAlloc
 152 0024 AFF30080 		.section	.text.chPoolFreeI,"ax",%progbits
 152      AFF30080 
 152      AFF30080 
 153              		.align	2
 154              		.p2align 4,,15
 155              		.global	chPoolFreeI
 156              		.thumb
 157              		.thumb_func
 158              		.type	chPoolFreeI, %function
 159              	chPoolFreeI:
 160              	.LFB11:
 161              		.loc 1 149 0
 162              		.cfi_startproc
 163              		@ args = 0, pretend = 0, frame = 0
 164              		@ frame_needed = 0, uses_anonymous_args = 0
 165              	.LVL15:
 166 0000 38B5     		push	{r3, r4, r5, lr}
 167              	.LCFI2:
 168              		.cfi_def_cfa_offset 16
ARM GAS  C:\Users\Elis\AppData\Local\Temp\cccKuORV.s 			page 4


 169              		.cfi_offset 3, -16
 170              		.cfi_offset 4, -12
 171              		.cfi_offset 5, -8
 172              		.cfi_offset 14, -4
 173              		.loc 1 149 0
 174 0002 0446     		mov	r4, r0
 175 0004 0D46     		mov	r5, r1
 176              	.LVL16:
 177              		.loc 1 152 0
 178 0006 FFF7FEFF 		bl	chDbgCheckClassI
 179              	.LVL17:
 180              		.loc 1 155 0
 181 000a 2368     		ldr	r3, [r4, #0]
 182 000c 2B60     		str	r3, [r5, #0]
 183              		.loc 1 156 0
 184 000e 2560     		str	r5, [r4, #0]
 185 0010 38BD     		pop	{r3, r4, r5, pc}
 186              		.cfi_endproc
 187              	.LFE11:
 188              		.size	chPoolFreeI, .-chPoolFreeI
 189 0012 00BFAFF3 		.section	.text.chPoolFree,"ax",%progbits
 189      0080AFF3 
 189      0080AFF3 
 189      0080
 190              		.align	2
 191              		.p2align 4,,15
 192              		.global	chPoolFree
 193              		.thumb
 194              		.thumb_func
 195              		.type	chPoolFree, %function
 196              	chPoolFree:
 197              	.LFB12:
 198              		.loc 1 171 0
 199              		.cfi_startproc
 200              		@ args = 0, pretend = 0, frame = 0
 201              		@ frame_needed = 0, uses_anonymous_args = 0
 202              	.LVL18:
 203 0000 38B5     		push	{r3, r4, r5, lr}
 204              	.LCFI3:
 205              		.cfi_def_cfa_offset 16
 206              		.cfi_offset 3, -16
 207              		.cfi_offset 4, -12
 208              		.cfi_offset 5, -8
 209              		.cfi_offset 14, -4
 210              		.loc 1 171 0
 211 0002 0446     		mov	r4, r0
 212 0004 0D46     		mov	r5, r1
 213              	.LBB9:
 214              		.loc 1 173 0
 215 0006 2023     		movs	r3, #32
 216              	.LVL19:
 217              	@ 173 "../../chibios/os/kernel/src/chmempools.c" 1
 218 0008 83F31188 		msr     BASEPRI, r3
 219              	@ 0 "" 2
 220              	.LVL20:
 221              		.thumb
 222              	.LBE9:
ARM GAS  C:\Users\Elis\AppData\Local\Temp\cccKuORV.s 			page 5


 223 000c FFF7FEFF 		bl	dbg_check_lock
 224              	.LVL21:
 225              	.LBB10:
 226              	.LBB11:
 227              		.loc 1 152 0
 228 0010 FFF7FEFF 		bl	chDbgCheckClassI
 229              	.LVL22:
 230              		.loc 1 155 0
 231 0014 2368     		ldr	r3, [r4, #0]
 232 0016 2B60     		str	r3, [r5, #0]
 233              		.loc 1 156 0
 234 0018 2560     		str	r5, [r4, #0]
 235              	.LBE11:
 236              	.LBE10:
 237              		.loc 1 175 0
 238 001a FFF7FEFF 		bl	dbg_check_unlock
 239              	.LVL23:
 240              	.LBB12:
 241 001e 0023     		movs	r3, #0
 242              	.LVL24:
 243              	@ 175 "../../chibios/os/kernel/src/chmempools.c" 1
 244 0020 83F31188 		msr     BASEPRI, r3
 245              	@ 0 "" 2
 246              	.LVL25:
 247              		.thumb
 248 0024 38BD     		pop	{r3, r4, r5, pc}
 249              	.LBE12:
 250              		.cfi_endproc
 251              	.LFE12:
 252              		.size	chPoolFree, .-chPoolFree
 253 0026 00BFAFF3 		.section	.text.chPoolLoadArray,"ax",%progbits
 253      0080AFF3 
 253      0080
 254              		.align	2
 255              		.p2align 4,,15
 256              		.global	chPoolLoadArray
 257              		.thumb
 258              		.thumb_func
 259              		.type	chPoolLoadArray, %function
 260              	chPoolLoadArray:
 261              	.LFB8:
 262              		.loc 1 84 0
 263              		.cfi_startproc
 264              		@ args = 0, pretend = 0, frame = 0
 265              		@ frame_needed = 0, uses_anonymous_args = 0
 266              	.LVL26:
 267 0000 F8B5     		push	{r3, r4, r5, r6, r7, lr}
 268              	.LCFI4:
 269              		.cfi_def_cfa_offset 24
 270              		.cfi_offset 3, -24
 271              		.cfi_offset 4, -20
 272              		.cfi_offset 5, -16
 273              		.cfi_offset 6, -12
 274              		.cfi_offset 7, -8
 275              		.cfi_offset 14, -4
 276              		.loc 1 84 0
 277 0002 0446     		mov	r4, r0
ARM GAS  C:\Users\Elis\AppData\Local\Temp\cccKuORV.s 			page 6


 278 0004 0D46     		mov	r5, r1
 279              		.loc 1 88 0
 280 0006 02B3     		cbz	r2, .L12
 281 0008 571E     		subs	r7, r2, #1
 282              		.loc 1 89 0
 283 000a FFF7FEFF 		bl	chPoolFree
 284              	.LVL27:
 285              		.loc 1 90 0
 286 000e 6368     		ldr	r3, [r4, #4]
 287              		.loc 1 88 0
 288 0010 3E46     		mov	r6, r7
 289              		.loc 1 90 0
 290 0012 ED18     		adds	r5, r5, r3
 291              	.LVL28:
 292 0014 07F00107 		and	r7, r7, #1
 293              	.LVL29:
 294              		.loc 1 88 0
 295 0018 C6B1     		cbz	r6, .L25
 296 001a 3FB1     		cbz	r7, .L16
 297              		.loc 1 89 0
 298 001c 2946     		mov	r1, r5
 299 001e 2046     		mov	r0, r4
 300 0020 FFF7FEFF 		bl	chPoolFree
 301              	.LVL30:
 302              		.loc 1 90 0
 303 0024 6068     		ldr	r0, [r4, #4]
 304              		.loc 1 88 0
 305 0026 013E     		subs	r6, r6, #1
 306              	.LVL31:
 307              		.loc 1 90 0
 308 0028 0544     		add	r5, r5, r0
 309              	.LVL32:
 310              		.loc 1 88 0
 311 002a 10D0     		beq	.L26
 312              	.L16:
 313              		.loc 1 89 0
 314 002c 2946     		mov	r1, r5
 315 002e 2046     		mov	r0, r4
 316 0030 FFF7FEFF 		bl	chPoolFree
 317              	.LVL33:
 318              		.loc 1 90 0
 319 0034 6168     		ldr	r1, [r4, #4]
 320 0036 6D18     		adds	r5, r5, r1
 321              		.loc 1 89 0
 322 0038 2946     		mov	r1, r5
 323 003a 2046     		mov	r0, r4
 324 003c FFF7FEFF 		bl	chPoolFree
 325              	.LVL34:
 326              		.loc 1 91 0
 327 0040 013E     		subs	r6, r6, #1
 328              		.loc 1 90 0
 329 0042 6268     		ldr	r2, [r4, #4]
 330              		.loc 1 88 0
 331 0044 013E     		subs	r6, r6, #1
 332              		.loc 1 90 0
 333 0046 1544     		add	r5, r5, r2
 334              		.loc 1 88 0
ARM GAS  C:\Users\Elis\AppData\Local\Temp\cccKuORV.s 			page 7


 335 0048 F0D1     		bne	.L16
 336              	.L12:
 337 004a F8BD     		pop	{r3, r4, r5, r6, r7, pc}
 338              	.LVL35:
 339              	.L25:
 340 004c F8BD     		pop	{r3, r4, r5, r6, r7, pc}
 341              	.LVL36:
 342              	.L26:
 343 004e F8BD     		pop	{r3, r4, r5, r6, r7, pc}
 344              		.cfi_endproc
 345              	.LFE8:
 346              		.size	chPoolLoadArray, .-chPoolLoadArray
 347              		.text
 348              	.Letext0:
 349              		.file 2 "c:\\chibistudio\\tools\\gnu tools arm embedded\\4.7 2014q2\\bin\\../lib/gcc/arm-none-eabi
 350              		.file 3 "c:\\chibistudio\\tools\\gnu tools arm embedded\\4.7 2014q2\\bin\\../lib/gcc/arm-none-eabi
 351              		.file 4 "../../chibios/os/kernel/include/chmemcore.h"
 352              		.file 5 "../../chibios/os/kernel/include/chmempools.h"
 353              		.file 6 "../../chibios/os/kernel/include/chdebug.h"