ARM GAS  C:\Users\Elis\AppData\Local\Temp\ccePlebJ.s 			page 1


   1              		.syntax unified
   2              		.cpu cortex-m4
   3              		.fpu softvfp
   4              		.eabi_attribute 20, 1
   5              		.eabi_attribute 21, 1
   6              		.eabi_attribute 23, 3
   7              		.eabi_attribute 24, 1
   8              		.eabi_attribute 25, 1
   9              		.eabi_attribute 26, 1
  10              		.eabi_attribute 30, 2
  11              		.eabi_attribute 34, 1
  12              		.eabi_attribute 18, 4
  13              		.thumb
  14              		.file	"chqueues.c"
  15              		.text
  16              	.Ltext0:
  17              		.cfi_sections	.debug_frame
  18              		.section	.text.qwait,"ax",%progbits
  19              		.align	2
  20              		.p2align 4,,15
  21              		.thumb
  22              		.thumb_func
  23              		.type	qwait, %function
  24              	qwait:
  25              	.LFB7:
  26              		.file 1 "../../chibios/os/kernel/src/chqueues.c"
  27              		.loc 1 70 0
  28              		.cfi_startproc
  29              		@ args = 0, pretend = 0, frame = 0
  30              		@ frame_needed = 0, uses_anonymous_args = 0
  31              		@ link register save eliminated.
  32              	.LVL0:
  33 0000 10B4     		push	{r4}
  34              	.LCFI0:
  35              		.cfi_def_cfa_offset 4
  36              		.cfi_offset 4, -4
  37              		.loc 1 70 0
  38 0002 0246     		mov	r2, r0
  39              		.loc 1 72 0
  40 0004 59B1     		cbz	r1, .L2
  41              		.loc 1 74 0
  42 0006 084B     		ldr	r3, .L4
  43 0008 9B69     		ldr	r3, [r3, #24]
  44 000a 5862     		str	r0, [r3, #36]
  45              	.LVL1:
  46              	.LBB12:
  47              	.LBB13:
  48              		.file 2 "../../chibios/os/kernel/include/chinline.h"
  49              		.loc 2 55 0
  50 000c 4468     		ldr	r4, [r0, #4]
  51              	.LBE13:
  52              	.LBE12:
  53              		.loc 1 76 0
  54 000e 0D20     		movs	r0, #13
  55              	.LVL2:
  56              	.LBB15:
  57              	.LBB14:
ARM GAS  C:\Users\Elis\AppData\Local\Temp\ccePlebJ.s 			page 2


  58              		.loc 2 55 0
  59 0010 83E81400 		stmia	r3, {r2, r4}
  60              		.loc 2 56 0
  61 0014 5360     		str	r3, [r2, #4]
  62 0016 2360     		str	r3, [r4, #0]
  63              	.LBE14:
  64              	.LBE15:
  65              		.loc 1 77 0
  66 0018 10BC     		pop	{r4}
  67              		.loc 1 76 0
  68 001a FFF7FEBF 		b	chSchGoSleepTimeoutS
  69              	.LVL3:
  70              	.L2:
  71              		.loc 1 77 0
  72 001e 4FF0FF30 		mov	r0, #-1
  73              	.LVL4:
  74 0022 10BC     		pop	{r4}
  75 0024 7047     		bx	lr
  76              	.L5:
  77 0026 00BF     		.align	2
  78              	.L4:
  79 0028 00000000 		.word	rlist
  80              		.cfi_endproc
  81              	.LFE7:
  82              		.size	qwait, .-qwait
  83 002c AFF30080 		.section	.text.chIQInit,"ax",%progbits
  84              		.align	2
  85              		.p2align 4,,15
  86              		.global	chIQInit
  87              		.thumb
  88              		.thumb_func
  89              		.type	chIQInit, %function
  90              	chIQInit:
  91              	.LFB8:
  92              		.loc 1 96 0
  93              		.cfi_startproc
  94              		@ args = 4, pretend = 0, frame = 0
  95              		@ frame_needed = 0, uses_anonymous_args = 0
  96              		@ link register save eliminated.
  97              	.LVL5:
  98 0000 10B4     		push	{r4}
  99              	.LCFI1:
 100              		.cfi_def_cfa_offset 4
 101              		.cfi_offset 4, -4
 102              		.loc 1 102 0
 103 0002 C361     		str	r3, [r0, #28]
 104              		.loc 1 103 0
 105 0004 019B     		ldr	r3, [sp, #4]
 106              	.LVL6:
 107              		.loc 1 98 0
 108 0006 4060     		str	r0, [r0, #4]
 109              		.loc 1 101 0
 110 0008 8A18     		adds	r2, r1, r2
 111              	.LVL7:
 112              		.loc 1 99 0
 113 000a 0024     		movs	r4, #0
 114              		.loc 1 98 0
ARM GAS  C:\Users\Elis\AppData\Local\Temp\ccePlebJ.s 			page 3


 115 000c 0060     		str	r0, [r0, #0]
 116              		.loc 1 99 0
 117 000e 8460     		str	r4, [r0, #8]
 118              		.loc 1 100 0
 119 0010 4161     		str	r1, [r0, #20]
 120 0012 8161     		str	r1, [r0, #24]
 121 0014 C160     		str	r1, [r0, #12]
 122              		.loc 1 101 0
 123 0016 0261     		str	r2, [r0, #16]
 124              		.loc 1 103 0
 125 0018 0362     		str	r3, [r0, #32]
 126              		.loc 1 104 0
 127 001a 10BC     		pop	{r4}
 128 001c 7047     		bx	lr
 129              		.cfi_endproc
 130              	.LFE8:
 131              		.size	chIQInit, .-chIQInit
 132 001e 00BF     		.section	.text.chIQResetI,"ax",%progbits
 133              		.align	2
 134              		.p2align 4,,15
 135              		.global	chIQResetI
 136              		.thumb
 137              		.thumb_func
 138              		.type	chIQResetI, %function
 139              	chIQResetI:
 140              	.LFB9:
 141              		.loc 1 117 0
 142              		.cfi_startproc
 143              		@ args = 0, pretend = 0, frame = 0
 144              		@ frame_needed = 0, uses_anonymous_args = 0
 145              	.LVL8:
 146 0000 38B5     		push	{r3, r4, r5, lr}
 147              	.LCFI2:
 148              		.cfi_def_cfa_offset 16
 149              		.cfi_offset 3, -16
 150              		.cfi_offset 4, -12
 151              		.cfi_offset 5, -8
 152              		.cfi_offset 14, -4
 153              		.loc 1 117 0
 154 0002 0446     		mov	r4, r0
 155              		.loc 1 119 0
 156 0004 FFF7FEFF 		bl	chDbgCheckClassI
 157              	.LVL9:
 158              		.loc 1 123 0
 159 0008 2068     		ldr	r0, [r4, #0]
 160              		.loc 1 121 0
 161 000a E368     		ldr	r3, [r4, #12]
 162              		.loc 1 122 0
 163 000c 0021     		movs	r1, #0
 164              		.loc 1 123 0
 165 000e A042     		cmp	r0, r4
 166              		.loc 1 121 0
 167 0010 6361     		str	r3, [r4, #20]
 168 0012 A361     		str	r3, [r4, #24]
 169              		.loc 1 122 0
 170 0014 A160     		str	r1, [r4, #8]
 171              		.loc 1 123 0
ARM GAS  C:\Users\Elis\AppData\Local\Temp\ccePlebJ.s 			page 4


 172 0016 0AD0     		beq	.L7
 173              		.loc 1 124 0
 174 0018 6FF00105 		mvn	r5, #1
 175              	.L11:
 176              	.LVL10:
 177              	.LBB16:
 178              	.LBB17:
 179              		.loc 2 62 0
 180 001c 0268     		ldr	r2, [r0, #0]
 181 001e 2260     		str	r2, [r4, #0]
 182 0020 5460     		str	r4, [r2, #4]
 183              	.LBE17:
 184              	.LBE16:
 185              		.loc 1 124 0
 186 0022 FFF7FEFF 		bl	chSchReadyI
 187              	.LVL11:
 188 0026 4562     		str	r5, [r0, #36]
 189              		.loc 1 123 0
 190 0028 2068     		ldr	r0, [r4, #0]
 191 002a A042     		cmp	r0, r4
 192 002c F6D1     		bne	.L11
 193              	.LVL12:
 194              	.L7:
 195 002e 38BD     		pop	{r3, r4, r5, pc}
 196              		.cfi_endproc
 197              	.LFE9:
 198              		.size	chIQResetI, .-chIQResetI
 199              		.section	.text.chIQPutI,"ax",%progbits
 200              		.align	2
 201              		.p2align 4,,15
 202              		.global	chIQPutI
 203              		.thumb
 204              		.thumb_func
 205              		.type	chIQPutI, %function
 206              	chIQPutI:
 207              	.LFB10:
 208              		.loc 1 140 0
 209              		.cfi_startproc
 210              		@ args = 0, pretend = 0, frame = 0
 211              		@ frame_needed = 0, uses_anonymous_args = 0
 212              	.LVL13:
 213 0000 38B5     		push	{r3, r4, r5, lr}
 214              	.LCFI3:
 215              		.cfi_def_cfa_offset 16
 216              		.cfi_offset 3, -16
 217              		.cfi_offset 4, -12
 218              		.cfi_offset 5, -8
 219              		.cfi_offset 14, -4
 220              		.loc 1 140 0
 221 0002 0446     		mov	r4, r0
 222 0004 0D46     		mov	r5, r1
 223              		.loc 1 142 0
 224 0006 FFF7FEFF 		bl	chDbgCheckClassI
 225              	.LVL14:
 226              		.loc 1 144 0
 227 000a 6369     		ldr	r3, [r4, #20]
 228 000c A269     		ldr	r2, [r4, #24]
ARM GAS  C:\Users\Elis\AppData\Local\Temp\ccePlebJ.s 			page 5


 229 000e A068     		ldr	r0, [r4, #8]
 230 0010 9342     		cmp	r3, r2
 231 0012 1AD0     		beq	.L22
 232              	.L16:
 233              		.loc 1 147 0
 234 0014 411C     		adds	r1, r0, #1
 235 0016 A160     		str	r1, [r4, #8]
 236              		.loc 1 148 0
 237 0018 03F8015B 		strb	r5, [r3], #1
 238              		.loc 1 149 0
 239 001c 2269     		ldr	r2, [r4, #16]
 240              		.loc 1 148 0
 241 001e 6361     		str	r3, [r4, #20]
 242              		.loc 1 149 0
 243 0020 9342     		cmp	r3, r2
 244 0022 0BD2     		bcs	.L17
 245              		.loc 1 152 0
 246 0024 2068     		ldr	r0, [r4, #0]
 247 0026 A042     		cmp	r0, r4
 248 0028 0DD0     		beq	.L20
 249              	.L23:
 250              	.LVL15:
 251              	.LBB18:
 252              	.LBB19:
 253              		.loc 2 62 0
 254 002a 0168     		ldr	r1, [r0, #0]
 255 002c 2160     		str	r1, [r4, #0]
 256 002e 4C60     		str	r4, [r1, #4]
 257              	.LBE19:
 258              	.LBE18:
 259              		.loc 1 153 0
 260 0030 FFF7FEFF 		bl	chSchReadyI
 261              	.LVL16:
 262 0034 0022     		movs	r2, #0
 263 0036 4262     		str	r2, [r0, #36]
 264              		.loc 1 155 0
 265 0038 1046     		mov	r0, r2
 266 003a 38BD     		pop	{r3, r4, r5, pc}
 267              	.LVL17:
 268              	.L17:
 269              		.loc 1 152 0
 270 003c 2068     		ldr	r0, [r4, #0]
 271              		.loc 1 150 0
 272 003e E368     		ldr	r3, [r4, #12]
 273              		.loc 1 152 0
 274 0040 A042     		cmp	r0, r4
 275              		.loc 1 150 0
 276 0042 6361     		str	r3, [r4, #20]
 277              		.loc 1 152 0
 278 0044 F1D1     		bne	.L23
 279              	.L20:
 280              		.loc 1 155 0
 281 0046 0020     		movs	r0, #0
 282 0048 38BD     		pop	{r3, r4, r5, pc}
 283              	.L22:
 284              		.loc 1 144 0 discriminator 1
 285 004a 0028     		cmp	r0, #0
ARM GAS  C:\Users\Elis\AppData\Local\Temp\ccePlebJ.s 			page 6


 286 004c E2D0     		beq	.L16
 287              		.loc 1 145 0
 288 004e 6FF00300 		mvn	r0, #3
 289 0052 38BD     		pop	{r3, r4, r5, pc}
 290              		.cfi_endproc
 291              	.LFE10:
 292              		.size	chIQPutI, .-chIQPutI
 293 0054 AFF30080 		.section	.text.chIQGetTimeout,"ax",%progbits
 293      AFF30080 
 293      AFF30080 
 294              		.align	2
 295              		.p2align 4,,15
 296              		.global	chIQGetTimeout
 297              		.thumb
 298              		.thumb_func
 299              		.type	chIQGetTimeout, %function
 300              	chIQGetTimeout:
 301              	.LFB11:
 302              		.loc 1 178 0
 303              		.cfi_startproc
 304              		@ args = 0, pretend = 0, frame = 0
 305              		@ frame_needed = 0, uses_anonymous_args = 0
 306              	.LVL18:
 307 0000 F8B5     		push	{r3, r4, r5, r6, r7, lr}
 308              	.LCFI4:
 309              		.cfi_def_cfa_offset 24
 310              		.cfi_offset 3, -24
 311              		.cfi_offset 4, -20
 312              		.cfi_offset 5, -16
 313              		.cfi_offset 6, -12
 314              		.cfi_offset 7, -8
 315              		.cfi_offset 14, -4
 316              		.loc 1 178 0
 317 0002 0446     		mov	r4, r0
 318 0004 0E46     		mov	r6, r1
 319              	.LBB20:
 320              		.loc 1 181 0
 321 0006 2023     		movs	r3, #32
 322              	.LVL19:
 323              	@ 181 "../../chibios/os/kernel/src/chqueues.c" 1
 324 0008 83F31188 		msr     BASEPRI, r3
 325              	@ 0 "" 2
 326              	.LVL20:
 327              		.thumb
 328              	.LBE20:
 329 000c FFF7FEFF 		bl	dbg_check_lock
 330              	.LVL21:
 331              		.loc 1 182 0
 332 0010 E369     		ldr	r3, [r4, #28]
 333 0012 0BB1     		cbz	r3, .L32
 334              		.loc 1 183 0
 335 0014 2046     		mov	r0, r4
 336 0016 9847     		blx	r3
 337              	.LVL22:
 338              	.L32:
 339              		.loc 1 185 0 discriminator 1
 340 0018 A568     		ldr	r5, [r4, #8]
ARM GAS  C:\Users\Elis\AppData\Local\Temp\ccePlebJ.s 			page 7


 341              	.LBB21:
 342              		.loc 1 187 0 discriminator 1
 343 001a 2046     		mov	r0, r4
 344 001c 3146     		mov	r1, r6
 345              	.LBE21:
 346              		.loc 1 185 0 discriminator 1
 347 001e 55B9     		cbnz	r5, .L35
 348              	.LVL23:
 349              	.LBB23:
 350              		.loc 1 187 0
 351 0020 FFF7FEFF 		bl	qwait
 352              	.LVL24:
 353 0024 071E     		subs	r7, r0, #0
 354 0026 F7DA     		bge	.L32
 355              		.loc 1 188 0
 356 0028 FFF7FEFF 		bl	dbg_check_unlock
 357              	.LVL25:
 358              	.LBB22:
 359 002c 2B46     		mov	r3, r5
 360              	.LVL26:
 361              	@ 188 "../../chibios/os/kernel/src/chqueues.c" 1
 362 002e 83F31188 		msr     BASEPRI, r3
 363              	@ 0 "" 2
 364              	.LVL27:
 365              		.thumb
 366              	.LBE22:
 367              	.LBE23:
 368              		.loc 1 200 0
 369 0032 3846     		mov	r0, r7
 370 0034 F8BD     		pop	{r3, r4, r5, r6, r7, pc}
 371              	.LVL28:
 372              	.L35:
 373              		.loc 1 194 0
 374 0036 A069     		ldr	r0, [r4, #24]
 375              	.LVL29:
 376              		.loc 1 195 0
 377 0038 2269     		ldr	r2, [r4, #16]
 378              		.loc 1 193 0
 379 003a 013D     		subs	r5, r5, #1
 380 003c A560     		str	r5, [r4, #8]
 381              		.loc 1 194 0
 382 003e 10F8017B 		ldrb	r7, [r0], #1	@ zero_extendqisi2
 383              	.LVL30:
 384              		.loc 1 195 0
 385 0042 9042     		cmp	r0, r2
 386              		.loc 1 194 0
 387 0044 A061     		str	r0, [r4, #24]
 388              		.loc 1 196 0
 389 0046 24BF     		itt	cs
 390 0048 E068     		ldrcs	r0, [r4, #12]
 391 004a A061     		strcs	r0, [r4, #24]
 392              		.loc 1 198 0
 393 004c FFF7FEFF 		bl	dbg_check_unlock
 394              	.LVL31:
 395              	.LBB24:
 396 0050 0023     		movs	r3, #0
 397              	.LVL32:
ARM GAS  C:\Users\Elis\AppData\Local\Temp\ccePlebJ.s 			page 8


 398              	@ 198 "../../chibios/os/kernel/src/chqueues.c" 1
 399 0052 83F31188 		msr     BASEPRI, r3
 400              	@ 0 "" 2
 401              	.LVL33:
 402              		.thumb
 403              	.LBE24:
 404              		.loc 1 200 0
 405 0056 3846     		mov	r0, r7
 406 0058 F8BD     		pop	{r3, r4, r5, r6, r7, pc}
 407              		.cfi_endproc
 408              	.LFE11:
 409              		.size	chIQGetTimeout, .-chIQGetTimeout
 410 005a 00BFAFF3 		.section	.text.chIQReadTimeout,"ax",%progbits
 410      0080
 411              		.align	2
 412              		.p2align 4,,15
 413              		.global	chIQReadTimeout
 414              		.thumb
 415              		.thumb_func
 416              		.type	chIQReadTimeout, %function
 417              	chIQReadTimeout:
 418              	.LFB12:
 419              		.loc 1 227 0
 420              		.cfi_startproc
 421              		@ args = 0, pretend = 0, frame = 0
 422              		@ frame_needed = 0, uses_anonymous_args = 0
 423              	.LVL34:
 424 0000 2DE9F047 		push	{r4, r5, r6, r7, r8, r9, sl, lr}
 425              	.LCFI5:
 426              		.cfi_def_cfa_offset 32
 427              		.cfi_offset 4, -32
 428              		.cfi_offset 5, -28
 429              		.cfi_offset 6, -24
 430              		.cfi_offset 7, -20
 431              		.cfi_offset 8, -16
 432              		.cfi_offset 9, -12
 433              		.cfi_offset 10, -8
 434              		.cfi_offset 14, -4
 435              		.loc 1 227 0
 436 0004 1E46     		mov	r6, r3
 437 0006 0446     		mov	r4, r0
 438 0008 0D46     		mov	r5, r1
 439 000a 9046     		mov	r8, r2
 440              		.loc 1 228 0
 441 000c C769     		ldr	r7, [r0, #28]
 442              	.LVL35:
 443              	.LBB25:
 444              		.loc 1 233 0
 445 000e 2023     		movs	r3, #32
 446              	.LVL36:
 447              	@ 233 "../../chibios/os/kernel/src/chqueues.c" 1
 448 0010 83F31188 		msr     BASEPRI, r3
 449              	@ 0 "" 2
 450              	.LVL37:
 451              		.thumb
 452              	.LBE25:
 453 0014 FFF7FEFF 		bl	dbg_check_lock
ARM GAS  C:\Users\Elis\AppData\Local\Temp\ccePlebJ.s 			page 9


 454              	.LVL38:
 455              		.loc 1 226 0
 456 0018 05EB080A 		add	sl, r5, r8
 457 001c 05F10109 		add	r9, r5, #1
 458              		.loc 1 229 0
 459 0020 4FF00008 		mov	r8, #0
 460              	.LVL39:
 461              	.L42:
 462              		.loc 1 235 0
 463 0024 0FB1     		cbz	r7, .L47
 464              		.loc 1 236 0
 465 0026 2046     		mov	r0, r4
 466 0028 B847     		blx	r7
 467              	.LVL40:
 468              	.L47:
 469              		.loc 1 238 0 discriminator 1
 470 002a A568     		ldr	r5, [r4, #8]
 471              		.loc 1 239 0 discriminator 1
 472 002c 2046     		mov	r0, r4
 473 002e 3146     		mov	r1, r6
 474              		.loc 1 238 0 discriminator 1
 475 0030 5DB9     		cbnz	r5, .L51
 476              	.LVL41:
 477              		.loc 1 239 0
 478 0032 FFF7FEFF 		bl	qwait
 479              	.LVL42:
 480 0036 0028     		cmp	r0, #0
 481 0038 F7D0     		beq	.L47
 482              		.loc 1 240 0
 483 003a FFF7FEFF 		bl	dbg_check_unlock
 484              	.LVL43:
 485              	.LBB26:
 486 003e 2B46     		mov	r3, r5
 487              	.LVL44:
 488              	@ 240 "../../chibios/os/kernel/src/chqueues.c" 1
 489 0040 83F31188 		msr     BASEPRI, r3
 490              	@ 0 "" 2
 491              	.LVL45:
 492              		.thumb
 493              	.L39:
 494              	.LBE26:
 495              		.loc 1 257 0
 496 0044 4046     		mov	r0, r8
 497 0046 BDE8F087 		pop	{r4, r5, r6, r7, r8, r9, sl, pc}
 498              	.LVL46:
 499              	.L51:
 500              		.loc 1 246 0
 501 004a A369     		ldr	r3, [r4, #24]
 502              		.loc 1 245 0
 503 004c 013D     		subs	r5, r5, #1
 504 004e A560     		str	r5, [r4, #8]
 505              		.loc 1 246 0
 506 0050 13F8012B 		ldrb	r2, [r3], #1	@ zero_extendqisi2
 507 0054 09F8012C 		strb	r2, [r9, #-1]
 508              		.loc 1 247 0
 509 0058 2069     		ldr	r0, [r4, #16]
 510              	.LVL47:
ARM GAS  C:\Users\Elis\AppData\Local\Temp\ccePlebJ.s 			page 10


 511              		.loc 1 246 0
 512 005a A361     		str	r3, [r4, #24]
 513              		.loc 1 247 0
 514 005c 8342     		cmp	r3, r0
 515              		.loc 1 248 0
 516 005e 24BF     		itt	cs
 517 0060 E368     		ldrcs	r3, [r4, #12]
 518 0062 A361     		strcs	r3, [r4, #24]
 519              		.loc 1 250 0
 520 0064 FFF7FEFF 		bl	dbg_check_unlock
 521              	.LVL48:
 522              	.LBB27:
 523 0068 0023     		movs	r3, #0
 524              	@ 250 "../../chibios/os/kernel/src/chqueues.c" 1
 525 006a 83F31188 		msr     BASEPRI, r3
 526              	@ 0 "" 2
 527              	.LVL49:
 528              		.thumb
 529              	.LBE27:
 530              		.loc 1 252 0
 531 006e D145     		cmp	r9, sl
 532              		.loc 1 251 0
 533 0070 08F10108 		add	r8, r8, #1
 534              	.LVL50:
 535              		.loc 1 252 0
 536 0074 E6D0     		beq	.L39
 537              	.LBB28:
 538              		.loc 1 255 0
 539 0076 2023     		movs	r3, #32
 540              	.LVL51:
 541              	@ 255 "../../chibios/os/kernel/src/chqueues.c" 1
 542 0078 83F31188 		msr     BASEPRI, r3
 543              	@ 0 "" 2
 544              	.LVL52:
 545              		.thumb
 546              	.LBE28:
 547 007c FFF7FEFF 		bl	dbg_check_lock
 548              	.LVL53:
 549 0080 09F10109 		add	r9, r9, #1
 550              		.loc 1 256 0
 551 0084 CEE7     		b	.L42
 552              		.cfi_endproc
 553              	.LFE12:
 554              		.size	chIQReadTimeout, .-chIQReadTimeout
 555 0086 00BFAFF3 		.section	.text.chOQInit,"ax",%progbits
 555      0080AFF3 
 555      0080
 556              		.align	2
 557              		.p2align 4,,15
 558              		.global	chOQInit
 559              		.thumb
 560              		.thumb_func
 561              		.type	chOQInit, %function
 562              	chOQInit:
 563              	.LFB13:
 564              		.loc 1 276 0
 565              		.cfi_startproc
ARM GAS  C:\Users\Elis\AppData\Local\Temp\ccePlebJ.s 			page 11


 566              		@ args = 4, pretend = 0, frame = 0
 567              		@ frame_needed = 0, uses_anonymous_args = 0
 568              		@ link register save eliminated.
 569              	.LVL54:
 570 0000 10B4     		push	{r4}
 571              	.LCFI6:
 572              		.cfi_def_cfa_offset 4
 573              		.cfi_offset 4, -4
 574              		.loc 1 282 0
 575 0002 C361     		str	r3, [r0, #28]
 576              		.loc 1 283 0
 577 0004 019B     		ldr	r3, [sp, #4]
 578              	.LVL55:
 579              		.loc 1 278 0
 580 0006 4060     		str	r0, [r0, #4]
 581              		.loc 1 281 0
 582 0008 8C18     		adds	r4, r1, r2
 583              		.loc 1 278 0
 584 000a 0060     		str	r0, [r0, #0]
 585              		.loc 1 279 0
 586 000c 8260     		str	r2, [r0, #8]
 587              		.loc 1 280 0
 588 000e 4161     		str	r1, [r0, #20]
 589 0010 8161     		str	r1, [r0, #24]
 590 0012 C160     		str	r1, [r0, #12]
 591              		.loc 1 281 0
 592 0014 0461     		str	r4, [r0, #16]
 593              		.loc 1 283 0
 594 0016 0362     		str	r3, [r0, #32]
 595              		.loc 1 284 0
 596 0018 10BC     		pop	{r4}
 597 001a 7047     		bx	lr
 598              		.cfi_endproc
 599              	.LFE13:
 600              		.size	chOQInit, .-chOQInit
 601 001c AFF30080 		.section	.text.chOQResetI,"ax",%progbits
 602              		.align	2
 603              		.p2align 4,,15
 604              		.global	chOQResetI
 605              		.thumb
 606              		.thumb_func
 607              		.type	chOQResetI, %function
 608              	chOQResetI:
 609              	.LFB14:
 610              		.loc 1 297 0
 611              		.cfi_startproc
 612              		@ args = 0, pretend = 0, frame = 0
 613              		@ frame_needed = 0, uses_anonymous_args = 0
 614              	.LVL56:
 615 0000 38B5     		push	{r3, r4, r5, lr}
 616              	.LCFI7:
 617              		.cfi_def_cfa_offset 16
 618              		.cfi_offset 3, -16
 619              		.cfi_offset 4, -12
 620              		.cfi_offset 5, -8
 621              		.cfi_offset 14, -4
 622              		.loc 1 297 0
ARM GAS  C:\Users\Elis\AppData\Local\Temp\ccePlebJ.s 			page 12


 623 0002 0446     		mov	r4, r0
 624              		.loc 1 299 0
 625 0004 FFF7FEFF 		bl	chDbgCheckClassI
 626              	.LVL57:
 627              		.loc 1 301 0
 628 0008 E368     		ldr	r3, [r4, #12]
 629              		.loc 1 302 0
 630 000a 2269     		ldr	r2, [r4, #16]
 631              		.loc 1 303 0
 632 000c 2068     		ldr	r0, [r4, #0]
 633              		.loc 1 301 0
 634 000e 6361     		str	r3, [r4, #20]
 635              		.loc 1 302 0
 636 0010 D11A     		subs	r1, r2, r3
 637              		.loc 1 303 0
 638 0012 A042     		cmp	r0, r4
 639              		.loc 1 301 0
 640 0014 A361     		str	r3, [r4, #24]
 641              		.loc 1 302 0
 642 0016 A160     		str	r1, [r4, #8]
 643              		.loc 1 303 0
 644 0018 0AD0     		beq	.L53
 645              		.loc 1 304 0
 646 001a 6FF00105 		mvn	r5, #1
 647              	.L57:
 648              	.LVL58:
 649              	.LBB29:
 650              	.LBB30:
 651              		.loc 2 62 0
 652 001e 0368     		ldr	r3, [r0, #0]
 653 0020 2360     		str	r3, [r4, #0]
 654 0022 5C60     		str	r4, [r3, #4]
 655              	.LBE30:
 656              	.LBE29:
 657              		.loc 1 304 0
 658 0024 FFF7FEFF 		bl	chSchReadyI
 659              	.LVL59:
 660 0028 4562     		str	r5, [r0, #36]
 661              		.loc 1 303 0
 662 002a 2068     		ldr	r0, [r4, #0]
 663 002c A042     		cmp	r0, r4
 664 002e F6D1     		bne	.L57
 665              	.LVL60:
 666              	.L53:
 667 0030 38BD     		pop	{r3, r4, r5, pc}
 668              		.cfi_endproc
 669              	.LFE14:
 670              		.size	chOQResetI, .-chOQResetI
 671 0032 00BFAFF3 		.section	.text.chOQPutTimeout,"ax",%progbits
 671      0080AFF3 
 671      0080AFF3 
 671      0080
 672              		.align	2
 673              		.p2align 4,,15
 674              		.global	chOQPutTimeout
 675              		.thumb
 676              		.thumb_func
ARM GAS  C:\Users\Elis\AppData\Local\Temp\ccePlebJ.s 			page 13


 677              		.type	chOQPutTimeout, %function
 678              	chOQPutTimeout:
 679              	.LFB15:
 680              		.loc 1 329 0
 681              		.cfi_startproc
 682              		@ args = 0, pretend = 0, frame = 0
 683              		@ frame_needed = 0, uses_anonymous_args = 0
 684              	.LVL61:
 685 0000 2DE9F041 		push	{r4, r5, r6, r7, r8, lr}
 686              	.LCFI8:
 687              		.cfi_def_cfa_offset 24
 688              		.cfi_offset 4, -24
 689              		.cfi_offset 5, -20
 690              		.cfi_offset 6, -16
 691              		.cfi_offset 7, -12
 692              		.cfi_offset 8, -8
 693              		.cfi_offset 14, -4
 694              	.LBB31:
 695              		.loc 1 331 0
 696 0004 2023     		movs	r3, #32
 697              	.LVL62:
 698              	.LBE31:
 699              		.loc 1 329 0
 700 0006 0446     		mov	r4, r0
 701 0008 8846     		mov	r8, r1
 702 000a 1646     		mov	r6, r2
 703              	.LBB32:
 704              		.loc 1 331 0
 705              	@ 331 "../../chibios/os/kernel/src/chqueues.c" 1
 706 000c 83F31188 		msr     BASEPRI, r3
 707              	@ 0 "" 2
 708              	.LVL63:
 709              		.thumb
 710              	.LBE32:
 711 0010 FFF7FEFF 		bl	dbg_check_lock
 712              	.LVL64:
 713              	.L60:
 714              		.loc 1 332 0 discriminator 1
 715 0014 A568     		ldr	r5, [r4, #8]
 716              	.LBB33:
 717              		.loc 1 335 0 discriminator 1
 718 0016 2046     		mov	r0, r4
 719 0018 3146     		mov	r1, r6
 720              	.LBE33:
 721              		.loc 1 332 0 discriminator 1
 722 001a 5DB9     		cbnz	r5, .L69
 723              	.LVL65:
 724              	.LBB35:
 725              		.loc 1 335 0
 726 001c FFF7FEFF 		bl	qwait
 727              	.LVL66:
 728 0020 071E     		subs	r7, r0, #0
 729 0022 F7DA     		bge	.L60
 730              		.loc 1 336 0
 731 0024 FFF7FEFF 		bl	dbg_check_unlock
 732              	.LVL67:
 733              	.LBB34:
ARM GAS  C:\Users\Elis\AppData\Local\Temp\ccePlebJ.s 			page 14


 734 0028 2B46     		mov	r3, r5
 735              	.LVL68:
 736              	@ 336 "../../chibios/os/kernel/src/chqueues.c" 1
 737 002a 83F31188 		msr     BASEPRI, r3
 738              	@ 0 "" 2
 739              	.LVL69:
 740              		.thumb
 741              	.LBE34:
 742              	.LBE35:
 743              		.loc 1 351 0
 744 002e 3846     		mov	r0, r7
 745 0030 BDE8F081 		pop	{r4, r5, r6, r7, r8, pc}
 746              	.LVL70:
 747              	.L69:
 748              		.loc 1 342 0
 749 0034 6369     		ldr	r3, [r4, #20]
 750              		.loc 1 341 0
 751 0036 013D     		subs	r5, r5, #1
 752 0038 A560     		str	r5, [r4, #8]
 753              		.loc 1 342 0
 754 003a 03F8018B 		strb	r8, [r3], #1
 755              		.loc 1 343 0
 756 003e 2269     		ldr	r2, [r4, #16]
 757              		.loc 1 342 0
 758 0040 6361     		str	r3, [r4, #20]
 759              		.loc 1 343 0
 760 0042 9342     		cmp	r3, r2
 761              		.loc 1 344 0
 762 0044 28BF     		it	cs
 763 0046 E368     		ldrcs	r3, [r4, #12]
 764              		.loc 1 346 0
 765 0048 E169     		ldr	r1, [r4, #28]
 766              	.LVL71:
 767              		.loc 1 344 0
 768 004a 28BF     		it	cs
 769 004c 6361     		strcs	r3, [r4, #20]
 770              		.loc 1 346 0
 771 004e 09B1     		cbz	r1, .L64
 772              		.loc 1 347 0
 773 0050 2046     		mov	r0, r4
 774              	.LVL72:
 775 0052 8847     		blx	r1
 776              	.LVL73:
 777              	.L64:
 778              		.loc 1 349 0
 779 0054 FFF7FEFF 		bl	dbg_check_unlock
 780              	.LVL74:
 781              	.LBB36:
 782 0058 0023     		movs	r3, #0
 783              	.LVL75:
 784              	@ 349 "../../chibios/os/kernel/src/chqueues.c" 1
 785 005a 83F31188 		msr     BASEPRI, r3
 786              	@ 0 "" 2
 787              	.LVL76:
 788              		.thumb
 789              	.LBE36:
 790              		.loc 1 350 0
ARM GAS  C:\Users\Elis\AppData\Local\Temp\ccePlebJ.s 			page 15


 791 005e 1F46     		mov	r7, r3
 792              		.loc 1 351 0
 793 0060 3846     		mov	r0, r7
 794 0062 BDE8F081 		pop	{r4, r5, r6, r7, r8, pc}
 795              		.cfi_endproc
 796              	.LFE15:
 797              		.size	chOQPutTimeout, .-chOQPutTimeout
 798 0066 00BFAFF3 		.section	.text.chOQGetI,"ax",%progbits
 798      0080AFF3 
 798      0080
 799              		.align	2
 800              		.p2align 4,,15
 801              		.global	chOQGetI
 802              		.thumb
 803              		.thumb_func
 804              		.type	chOQGetI, %function
 805              	chOQGetI:
 806              	.LFB16:
 807              		.loc 1 363 0
 808              		.cfi_startproc
 809              		@ args = 0, pretend = 0, frame = 0
 810              		@ frame_needed = 0, uses_anonymous_args = 0
 811              	.LVL77:
 812 0000 38B5     		push	{r3, r4, r5, lr}
 813              	.LCFI9:
 814              		.cfi_def_cfa_offset 16
 815              		.cfi_offset 3, -16
 816              		.cfi_offset 4, -12
 817              		.cfi_offset 5, -8
 818              		.cfi_offset 14, -4
 819              		.loc 1 363 0
 820 0002 0446     		mov	r4, r0
 821              		.loc 1 366 0
 822 0004 FFF7FEFF 		bl	chDbgCheckClassI
 823              	.LVL78:
 824              		.loc 1 368 0
 825 0008 A369     		ldr	r3, [r4, #24]
 826 000a 6269     		ldr	r2, [r4, #20]
 827 000c A068     		ldr	r0, [r4, #8]
 828 000e 9A42     		cmp	r2, r3
 829 0010 16D0     		beq	.L79
 830              	.L73:
 831              		.loc 1 371 0
 832 0012 411C     		adds	r1, r0, #1
 833 0014 A160     		str	r1, [r4, #8]
 834              		.loc 1 372 0
 835 0016 13F8015B 		ldrb	r5, [r3], #1	@ zero_extendqisi2
 836              	.LVL79:
 837              		.loc 1 373 0
 838 001a 2269     		ldr	r2, [r4, #16]
 839              		.loc 1 372 0
 840 001c A361     		str	r3, [r4, #24]
 841              		.loc 1 373 0
 842 001e 9342     		cmp	r3, r2
 843 0020 0BD2     		bcs	.L75
 844              	.L76:
 845              		.loc 1 376 0
ARM GAS  C:\Users\Elis\AppData\Local\Temp\ccePlebJ.s 			page 16


 846 0022 2068     		ldr	r0, [r4, #0]
 847 0024 A042     		cmp	r0, r4
 848 0026 06D0     		beq	.L74
 849              	.LVL80:
 850              	.LBB37:
 851              	.LBB38:
 852              		.loc 2 62 0
 853 0028 0168     		ldr	r1, [r0, #0]
 854 002a 2160     		str	r1, [r4, #0]
 855 002c 4C60     		str	r4, [r1, #4]
 856              	.LBE38:
 857              	.LBE37:
 858              		.loc 1 377 0
 859 002e FFF7FEFF 		bl	chSchReadyI
 860              	.LVL81:
 861 0032 0022     		movs	r2, #0
 862 0034 4262     		str	r2, [r0, #36]
 863              	.LVL82:
 864              	.L74:
 865              		.loc 1 379 0
 866 0036 2846     		mov	r0, r5
 867 0038 38BD     		pop	{r3, r4, r5, pc}
 868              	.LVL83:
 869              	.L75:
 870              		.loc 1 374 0
 871 003a E368     		ldr	r3, [r4, #12]
 872 003c A361     		str	r3, [r4, #24]
 873 003e F0E7     		b	.L76
 874              	.LVL84:
 875              	.L79:
 876              		.loc 1 368 0 discriminator 1
 877 0040 0028     		cmp	r0, #0
 878 0042 E6D0     		beq	.L73
 879              		.loc 1 369 0
 880 0044 6FF00200 		mvn	r0, #2
 881 0048 38BD     		pop	{r3, r4, r5, pc}
 882              		.cfi_endproc
 883              	.LFE16:
 884              		.size	chOQGetI, .-chOQGetI
 885 004a 00BFAFF3 		.section	.text.chOQWriteTimeout,"ax",%progbits
 885      0080
 886              		.align	2
 887              		.p2align 4,,15
 888              		.global	chOQWriteTimeout
 889              		.thumb
 890              		.thumb_func
 891              		.type	chOQWriteTimeout, %function
 892              	chOQWriteTimeout:
 893              	.LFB17:
 894              		.loc 1 407 0
 895              		.cfi_startproc
 896              		@ args = 0, pretend = 0, frame = 0
 897              		@ frame_needed = 0, uses_anonymous_args = 0
 898              	.LVL85:
 899 0000 2DE9F047 		push	{r4, r5, r6, r7, r8, r9, sl, lr}
 900              	.LCFI10:
 901              		.cfi_def_cfa_offset 32
ARM GAS  C:\Users\Elis\AppData\Local\Temp\ccePlebJ.s 			page 17


 902              		.cfi_offset 4, -32
 903              		.cfi_offset 5, -28
 904              		.cfi_offset 6, -24
 905              		.cfi_offset 7, -20
 906              		.cfi_offset 8, -16
 907              		.cfi_offset 9, -12
 908              		.cfi_offset 10, -8
 909              		.cfi_offset 14, -4
 910              		.loc 1 407 0
 911 0004 9A46     		mov	sl, r3
 912 0006 0446     		mov	r4, r0
 913 0008 8846     		mov	r8, r1
 914 000a 1646     		mov	r6, r2
 915              		.loc 1 408 0
 916 000c D0F81C90 		ldr	r9, [r0, #28]
 917              	.LVL86:
 918              	.LBB39:
 919              		.loc 1 413 0
 920 0010 2023     		movs	r3, #32
 921              	.LVL87:
 922              	@ 413 "../../chibios/os/kernel/src/chqueues.c" 1
 923 0012 83F31188 		msr     BASEPRI, r3
 924              	@ 0 "" 2
 925              	.LVL88:
 926              		.thumb
 927              	.LBE39:
 928 0016 FFF7FEFF 		bl	dbg_check_lock
 929              	.LVL89:
 930              		.loc 1 409 0
 931 001a 0027     		movs	r7, #0
 932              	.LVL90:
 933              	.L98:
 934              		.loc 1 415 0 discriminator 1
 935 001c A568     		ldr	r5, [r4, #8]
 936              		.loc 1 427 0 discriminator 1
 937 001e 2046     		mov	r0, r4
 938              		.loc 1 421 0 discriminator 1
 939 0020 6B1E     		subs	r3, r5, #1
 940              		.loc 1 415 0 discriminator 1
 941 0022 0DB3     		cbz	r5, .L84
 942              	.LVL91:
 943              	.L99:
 944              		.loc 1 421 0
 945 0024 A360     		str	r3, [r4, #8]
 946              		.loc 1 422 0
 947 0026 6569     		ldr	r5, [r4, #20]
 948 0028 18F8011B 		ldrb	r1, [r8], #1	@ zero_extendqisi2
 949              	.LVL92:
 950 002c 05F8011B 		strb	r1, [r5], #1
 951              		.loc 1 423 0
 952 0030 2269     		ldr	r2, [r4, #16]
 953              		.loc 1 422 0
 954 0032 6561     		str	r5, [r4, #20]
 955              	.LVL93:
 956              		.loc 1 423 0
 957 0034 9542     		cmp	r5, r2
 958              		.loc 1 424 0
ARM GAS  C:\Users\Elis\AppData\Local\Temp\ccePlebJ.s 			page 18


 959 0036 24BF     		itt	cs
 960 0038 E268     		ldrcs	r2, [r4, #12]
 961 003a 6261     		strcs	r2, [r4, #20]
 962              		.loc 1 426 0
 963 003c B9F1000F 		cmp	r9, #0
 964 0040 00D0     		beq	.L86
 965              		.loc 1 427 0
 966 0042 C847     		blx	r9
 967              	.LVL94:
 968              	.L86:
 969              		.loc 1 429 0
 970 0044 FFF7FEFF 		bl	dbg_check_unlock
 971              	.LVL95:
 972              	.LBB40:
 973 0048 0023     		movs	r3, #0
 974              	.LVL96:
 975              	@ 429 "../../chibios/os/kernel/src/chqueues.c" 1
 976 004a 83F31188 		msr     BASEPRI, r3
 977              	@ 0 "" 2
 978              	.LVL97:
 979              		.thumb
 980              	.LBE40:
 981              		.loc 1 430 0
 982 004e 0137     		adds	r7, r7, #1
 983              	.LVL98:
 984              		.loc 1 431 0
 985 0050 013E     		subs	r6, r6, #1
 986              	.LVL99:
 987 0052 14D0     		beq	.L83
 988              	.LBB41:
 989              		.loc 1 433 0
 990 0054 2023     		movs	r3, #32
 991              	.LVL100:
 992              	@ 433 "../../chibios/os/kernel/src/chqueues.c" 1
 993 0056 83F31188 		msr     BASEPRI, r3
 994              	@ 0 "" 2
 995              	.LVL101:
 996              		.thumb
 997              	.LBE41:
 998 005a FFF7FEFF 		bl	dbg_check_lock
 999              	.LVL102:
 1000              		.loc 1 415 0
 1001 005e A568     		ldr	r5, [r4, #8]
 1002              		.loc 1 427 0
 1003 0060 2046     		mov	r0, r4
 1004              		.loc 1 421 0
 1005 0062 6B1E     		subs	r3, r5, #1
 1006              		.loc 1 415 0
 1007 0064 002D     		cmp	r5, #0
 1008 0066 DDD1     		bne	.L99
 1009              	.LVL103:
 1010              	.L84:
 1011              		.loc 1 416 0
 1012 0068 2046     		mov	r0, r4
 1013              	.LVL104:
 1014 006a 5146     		mov	r1, sl
 1015 006c FFF7FEFF 		bl	qwait
ARM GAS  C:\Users\Elis\AppData\Local\Temp\ccePlebJ.s 			page 19


 1016              	.LVL105:
 1017 0070 0028     		cmp	r0, #0
 1018 0072 D3D0     		beq	.L98
 1019              		.loc 1 417 0
 1020 0074 FFF7FEFF 		bl	dbg_check_unlock
 1021              	.LVL106:
 1022              	.LBB42:
 1023 0078 2B46     		mov	r3, r5
 1024              	.LVL107:
 1025              	@ 417 "../../chibios/os/kernel/src/chqueues.c" 1
 1026 007a 83F31188 		msr     BASEPRI, r3
 1027              	@ 0 "" 2
 1028              	.LVL108:
 1029              		.thumb
 1030              	.L83:
 1031              	.LBE42:
 1032              		.loc 1 435 0
 1033 007e 3846     		mov	r0, r7
 1034 0080 BDE8F087 		pop	{r4, r5, r6, r7, r8, r9, sl, pc}
 1035              		.cfi_endproc
 1036              	.LFE17:
 1037              		.size	chOQWriteTimeout, .-chOQWriteTimeout
 1038 0084 AFF30080 		.text
 1038      AFF30080 
 1038      AFF30080 
 1039              	.Letext0:
 1040              		.file 3 "c:\\chibistudio\\tools\\gnu tools arm embedded\\4.7 2014q2\\bin\\../lib/gcc/arm-none-eabi
 1041              		.file 4 "c:\\chibistudio\\tools\\gnu tools arm embedded\\4.7 2014q2\\bin\\../lib/gcc/arm-none-eabi
 1042              		.file 5 "../../chibios/os/ports/GCC/ARMCMx/chtypes.h"
 1043              		.file 6 "../../chibios/os/kernel/include/chlists.h"
 1044              		.file 7 "../../chibios/os/kernel/include/chthreads.h"
 1045              		.file 8 "../../chibios/os/ports/GCC/ARMCMx/chcore_v7m.h"
 1046              		.file 9 "../../chibios/os/kernel/include/chschd.h"
 1047              		.file 10 "../../chibios/os/kernel/include/chmtx.h"
 1048              		.file 11 "../../chibios/os/kernel/include/chqueues.h"
 1049              		.file 12 "../../chibios/os/kernel/include/chdebug.h"