ARM GAS  C:\Users\Elis\AppData\Local\Temp\ccrQgIYb.s 			page 1


   1              		.syntax unified
   2              		.cpu cortex-m4
   3              		.fpu softvfp
   4              		.eabi_attribute 20, 1
   5              		.eabi_attribute 21, 1
   6              		.eabi_attribute 23, 3
   7              		.eabi_attribute 24, 1
   8              		.eabi_attribute 25, 1
   9              		.eabi_attribute 26, 1
  10              		.eabi_attribute 30, 2
  11              		.eabi_attribute 34, 1
  12              		.eabi_attribute 18, 4
  13              		.thumb
  14              		.file	"chregistry.c"
  15              		.text
  16              	.Ltext0:
  17              		.cfi_sections	.debug_frame
  18              		.section	.text.chRegFirstThread,"ax",%progbits
  19              		.align	2
  20              		.p2align 4,,15
  21              		.global	chRegFirstThread
  22              		.thumb
  23              		.thumb_func
  24              		.type	chRegFirstThread, %function
  25              	chRegFirstThread:
  26              	.LFB7:
  27              		.file 1 "../../chibios/os/kernel/src/chregistry.c"
  28              		.loc 1 117 0
  29              		.cfi_startproc
  30              		@ args = 0, pretend = 0, frame = 0
  31              		@ frame_needed = 0, uses_anonymous_args = 0
  32 0000 10B5     		push	{r4, lr}
  33              	.LCFI0:
  34              		.cfi_def_cfa_offset 8
  35              		.cfi_offset 4, -8
  36              		.cfi_offset 14, -4
  37              	.LBB2:
  38              		.loc 1 120 0
  39 0002 2023     		movs	r3, #32
  40              	.LVL0:
  41              	@ 120 "../../chibios/os/kernel/src/chregistry.c" 1
  42 0004 83F31188 		msr     BASEPRI, r3
  43              	@ 0 "" 2
  44              	.LVL1:
  45              		.thumb
  46              	.LBE2:
  47 0008 FFF7FEFF 		bl	dbg_check_lock
  48              	.LVL2:
  49              		.loc 1 121 0
  50 000c 40F20003 		movw	r3, #:lower16:rlist
  51 0010 C0F20003 		movt	r3, #:upper16:rlist
  52 0014 1C69     		ldr	r4, [r3, #16]
  53              	.LVL3:
  54              		.loc 1 123 0
  55 0016 A07F     		ldrb	r0, [r4, #30]	@ zero_extendqisi2
  56 0018 411C     		adds	r1, r0, #1
  57 001a A177     		strb	r1, [r4, #30]
ARM GAS  C:\Users\Elis\AppData\Local\Temp\ccrQgIYb.s 			page 2


  58              		.loc 1 125 0
  59 001c FFF7FEFF 		bl	dbg_check_unlock
  60              	.LVL4:
  61              	.LBB3:
  62 0020 0023     		movs	r3, #0
  63              	.LVL5:
  64              	@ 125 "../../chibios/os/kernel/src/chregistry.c" 1
  65 0022 83F31188 		msr     BASEPRI, r3
  66              	@ 0 "" 2
  67              	.LVL6:
  68              		.thumb
  69              	.LBE3:
  70              		.loc 1 127 0
  71 0026 2046     		mov	r0, r4
  72 0028 10BD     		pop	{r4, pc}
  73              		.cfi_endproc
  74              	.LFE7:
  75              		.size	chRegFirstThread, .-chRegFirstThread
  76 002a 00BFAFF3 		.section	.text.chRegNextThread,"ax",%progbits
  76      0080
  77              		.align	2
  78              		.p2align 4,,15
  79              		.global	chRegNextThread
  80              		.thumb
  81              		.thumb_func
  82              		.type	chRegNextThread, %function
  83              	chRegNextThread:
  84              	.LFB8:
  85              		.loc 1 140 0
  86              		.cfi_startproc
  87              		@ args = 0, pretend = 0, frame = 0
  88              		@ frame_needed = 0, uses_anonymous_args = 0
  89              	.LVL7:
  90 0000 38B5     		push	{r3, r4, r5, lr}
  91              	.LCFI1:
  92              		.cfi_def_cfa_offset 16
  93              		.cfi_offset 3, -16
  94              		.cfi_offset 4, -12
  95              		.cfi_offset 5, -8
  96              		.cfi_offset 14, -4
  97              		.loc 1 140 0
  98 0002 0546     		mov	r5, r0
  99              	.LBB4:
 100              		.loc 1 143 0
 101 0004 2023     		movs	r3, #32
 102              	.LVL8:
 103              	@ 143 "../../chibios/os/kernel/src/chregistry.c" 1
 104 0006 83F31188 		msr     BASEPRI, r3
 105              	@ 0 "" 2
 106              	.LVL9:
 107              		.thumb
 108              	.LBE4:
 109 000a FFF7FEFF 		bl	dbg_check_lock
 110              	.LVL10:
 111              		.loc 1 144 0
 112 000e 2C69     		ldr	r4, [r5, #16]
 113              	.LVL11:
ARM GAS  C:\Users\Elis\AppData\Local\Temp\ccrQgIYb.s 			page 3


 114              		.loc 1 145 0
 115 0010 084B     		ldr	r3, .L6
 116 0012 9C42     		cmp	r4, r3
 117 0014 0CD0     		beq	.L4
 118              		.loc 1 151 0
 119 0016 A07F     		ldrb	r0, [r4, #30]	@ zero_extendqisi2
 120 0018 411C     		adds	r1, r0, #1
 121 001a A177     		strb	r1, [r4, #30]
 122              	.LVL12:
 123              	.L3:
 124              		.loc 1 154 0
 125 001c FFF7FEFF 		bl	dbg_check_unlock
 126              	.LVL13:
 127              	.LBB5:
 128 0020 0023     		movs	r3, #0
 129              	.LVL14:
 130              	@ 154 "../../chibios/os/kernel/src/chregistry.c" 1
 131 0022 83F31188 		msr     BASEPRI, r3
 132              	@ 0 "" 2
 133              	.LVL15:
 134              		.thumb
 135              	.LBE5:
 136              		.loc 1 156 0
 137 0026 2846     		mov	r0, r5
 138 0028 FFF7FEFF 		bl	chThdRelease
 139              	.LVL16:
 140              		.loc 1 159 0
 141 002c 2046     		mov	r0, r4
 142 002e 38BD     		pop	{r3, r4, r5, pc}
 143              	.L4:
 144              		.loc 1 146 0
 145 0030 0024     		movs	r4, #0
 146              	.LVL17:
 147 0032 F3E7     		b	.L3
 148              	.L7:
 149              		.align	2
 150              	.L6:
 151 0034 00000000 		.word	rlist
 152              		.cfi_endproc
 153              	.LFE8:
 154              		.size	chRegNextThread, .-chRegNextThread
 155              		.global	ch_debug
 156 0038 AFF30080 		.section	.rodata.ch_debug,"a",%progbits
 156      AFF30080 
 157              		.align	2
 158              		.type	ch_debug, %object
 159              		.size	ch_debug, 22
 160              	ch_debug:
 161 0000 6D61696E 		.ascii	"main"
 162 0004 00       		.byte	0
 163 0005 16       		.byte	22
 164 0006 8611     		.short	4486
 165 0008 04       		.byte	4
 166 0009 04       		.byte	4
 167 000a 48       		.byte	72
 168 000b 08       		.byte	8
 169 000c 0C       		.byte	12
ARM GAS  C:\Users\Elis\AppData\Local\Temp\ccrQgIYb.s 			page 4


 170 000d 10       		.byte	16
 171 000e 14       		.byte	20
 172 000f 18       		.byte	24
 173 0010 00       		.byte	0
 174 0011 1C       		.byte	28
 175 0012 1D       		.byte	29
 176 0013 1E       		.byte	30
 177 0014 1F       		.byte	31
 178 0015 20       		.byte	32
 179 0016 0000     		.text
 180              	.Letext0:
 181              		.file 2 "c:\\chibistudio\\tools\\gnu tools arm embedded\\4.7 2014q2\\bin\\../lib/gcc/arm-none-eabi
 182              		.file 3 "c:\\chibistudio\\tools\\gnu tools arm embedded\\4.7 2014q2\\bin\\../lib/gcc/arm-none-eabi
 183              		.file 4 "../../chibios/os/ports/GCC/ARMCMx/chtypes.h"
 184              		.file 5 "../../chibios/os/kernel/include/chlists.h"
 185              		.file 6 "../../chibios/os/kernel/include/chthreads.h"
 186              		.file 7 "../../chibios/os/ports/GCC/ARMCMx/chcore_v7m.h"
 187              		.file 8 "../../chibios/os/kernel/include/chschd.h"
 188              		.file 9 "../../chibios/os/kernel/include/chmtx.h"
 189              		.file 10 "../../chibios/os/kernel/include/chregistry.h"
 190              		.file 11 "../../chibios/os/kernel/include/chdebug.h"
 191              		.file 12 "../../chibios/os/kernel/include/chdynamic.h"