ARM GAS  C:\Users\Elis\AppData\Local\Temp\cc7fgMMZ.s 			page 1


   1              		.syntax unified
   2              		.cpu cortex-m4
   3              		.fpu softvfp
   4              		.eabi_attribute 20, 1
   5              		.eabi_attribute 21, 1
   6              		.eabi_attribute 23, 3
   7              		.eabi_attribute 24, 1
   8              		.eabi_attribute 25, 1
   9              		.eabi_attribute 26, 1
  10              		.eabi_attribute 30, 2
  11              		.eabi_attribute 34, 1
  12              		.eabi_attribute 18, 4
  13              		.thumb
  14              		.file	"chschd.c"
  15              		.text
  16              	.Ltext0:
  17              		.cfi_sections	.debug_frame
  18              		.section	.text._scheduler_init,"ax",%progbits
  19              		.align	2
  20              		.p2align 4,,15
  21              		.global	_scheduler_init
  22              		.thumb
  23              		.thumb_func
  24              		.type	_scheduler_init, %function
  25              	_scheduler_init:
  26              	.LFB7:
  27              		.file 1 "../../chibios/os/kernel/src/chschd.c"
  28              		.loc 1 55 0
  29              		.cfi_startproc
  30              		@ args = 0, pretend = 0, frame = 0
  31              		@ frame_needed = 0, uses_anonymous_args = 0
  32              		@ link register save eliminated.
  33              		.loc 1 57 0
  34 0000 40F20003 		movw	r3, #:lower16:.LANCHOR0
  35 0004 C0F20003 		movt	r3, #:upper16:.LANCHOR0
  36              		.loc 1 58 0
  37 0008 0022     		movs	r2, #0
  38              		.loc 1 57 0
  39 000a 5B60     		str	r3, [r3, #4]
  40 000c 1B60     		str	r3, [r3, #0]
  41              		.loc 1 58 0
  42 000e 9A60     		str	r2, [r3, #8]
  43              		.loc 1 60 0
  44 0010 5B61     		str	r3, [r3, #20]
  45 0012 1B61     		str	r3, [r3, #16]
  46 0014 7047     		bx	lr
  47              		.cfi_endproc
  48              	.LFE7:
  49              		.size	_scheduler_init, .-_scheduler_init
  50 0016 00BFAFF3 		.section	.text.chSchReadyI,"ax",%progbits
  50      0080AFF3 
  50      0080
  51              		.align	2
  52              		.p2align 4,,15
  53              		.global	chSchReadyI
  54              		.thumb
  55              		.thumb_func
ARM GAS  C:\Users\Elis\AppData\Local\Temp\cc7fgMMZ.s 			page 2


  56              		.type	chSchReadyI, %function
  57              	chSchReadyI:
  58              	.LFB8:
  59              		.loc 1 81 0
  60              		.cfi_startproc
  61              		@ args = 0, pretend = 0, frame = 0
  62              		@ frame_needed = 0, uses_anonymous_args = 0
  63              	.LVL0:
  64 0000 10B5     		push	{r4, lr}
  65              	.LCFI0:
  66              		.cfi_def_cfa_offset 8
  67              		.cfi_offset 4, -8
  68              		.cfi_offset 14, -4
  69              		.loc 1 81 0
  70 0002 0446     		mov	r4, r0
  71              		.loc 1 84 0
  72 0004 FFF7FEFF 		bl	chDbgCheckClassI
  73              	.LVL1:
  74              		.loc 1 92 0
  75 0008 0022     		movs	r2, #0
  76 000a A168     		ldr	r1, [r4, #8]
  77              		.loc 1 93 0
  78 000c 064B     		ldr	r3, .L6
  79              		.loc 1 92 0
  80 000e 2277     		strb	r2, [r4, #28]
  81              	.LVL2:
  82              	.L3:
  83              		.loc 1 95 0 discriminator 1
  84 0010 1B68     		ldr	r3, [r3, #0]
  85              	.LVL3:
  86              		.loc 1 96 0 discriminator 1
  87 0012 9868     		ldr	r0, [r3, #8]
  88 0014 8842     		cmp	r0, r1
  89 0016 FBD2     		bcs	.L3
  90              		.loc 1 99 0
  91 0018 5968     		ldr	r1, [r3, #4]
  92              		.loc 1 98 0
  93 001a 2360     		str	r3, [r4, #0]
  94              		.loc 1 99 0
  95 001c 6160     		str	r1, [r4, #4]
  96              		.loc 1 100 0
  97 001e 0C60     		str	r4, [r1, #0]
  98 0020 5C60     		str	r4, [r3, #4]
  99              		.loc 1 102 0
 100 0022 2046     		mov	r0, r4
 101 0024 10BD     		pop	{r4, pc}
 102              	.L7:
 103 0026 00BF     		.align	2
 104              	.L6:
 105 0028 00000000 		.word	.LANCHOR0
 106              		.cfi_endproc
 107              	.LFE8:
 108              		.size	chSchReadyI, .-chSchReadyI
 109 002c AFF30080 		.section	.text.wakeup,"ax",%progbits
 110              		.align	2
 111              		.p2align 4,,15
 112              		.thumb
ARM GAS  C:\Users\Elis\AppData\Local\Temp\cc7fgMMZ.s 			page 3


 113              		.thumb_func
 114              		.type	wakeup, %function
 115              	wakeup:
 116              	.LFB10:
 117              		.loc 1 136 0
 118              		.cfi_startproc
 119              		@ args = 0, pretend = 0, frame = 0
 120              		@ frame_needed = 0, uses_anonymous_args = 0
 121              	.LVL4:
 122 0000 10B5     		push	{r4, lr}
 123              	.LCFI1:
 124              		.cfi_def_cfa_offset 8
 125              		.cfi_offset 4, -8
 126              		.cfi_offset 14, -4
 127              	.LBB29:
 128              		.loc 1 139 0
 129 0002 2023     		movs	r3, #32
 130              	.LVL5:
 131              	.LBE29:
 132              		.loc 1 136 0
 133 0004 0446     		mov	r4, r0
 134              	.LVL6:
 135              	.LBB30:
 136              		.loc 1 139 0
 137              	@ 139 "../../chibios/os/kernel/src/chschd.c" 1
 138 0006 83F31188 		msr     BASEPRI, r3
 139              	@ 0 "" 2
 140              	.LVL7:
 141              		.thumb
 142              	.LBE30:
 143 000a FFF7FEFF 		bl	dbg_check_lock_from_isr
 144              	.LVL8:
 145              		.loc 1 140 0
 146 000e 237F     		ldrb	r3, [r4, #28]	@ zero_extendqisi2
 147 0010 0D2B     		cmp	r3, #13
 148 0012 11D8     		bhi	.L9
 149 0014 DFE803F0 		tbb	[pc, r3]
 150              	.L13:
 151 0018 16       		.byte	(.L15-.L13)/2
 152 0019 10       		.byte	(.L9-.L13)/2
 153 001a 10       		.byte	(.L9-.L13)/2
 154 001b 07       		.byte	(.L11-.L13)/2
 155 001c 10       		.byte	(.L9-.L13)/2
 156 001d 0B       		.byte	(.L12-.L13)/2
 157 001e 10       		.byte	(.L9-.L13)/2
 158 001f 10       		.byte	(.L9-.L13)/2
 159 0020 10       		.byte	(.L9-.L13)/2
 160 0021 10       		.byte	(.L9-.L13)/2
 161 0022 10       		.byte	(.L9-.L13)/2
 162 0023 10       		.byte	(.L9-.L13)/2
 163 0024 10       		.byte	(.L9-.L13)/2
 164 0025 0B       		.byte	(.L12-.L13)/2
 165              		.align	1
 166              	.L11:
 167              		.loc 1 150 0
 168 0026 606A     		ldr	r0, [r4, #36]
 169 0028 8268     		ldr	r2, [r0, #8]
ARM GAS  C:\Users\Elis\AppData\Local\Temp\cc7fgMMZ.s 			page 4


 170 002a 511C     		adds	r1, r2, #1
 171 002c 8160     		str	r1, [r0, #8]
 172              	.L12:
 173              	.LVL9:
 174              	.LBB31:
 175              	.LBB32:
 176              		.file 2 "../../chibios/os/kernel/include/chinline.h"
 177              		.loc 2 75 0
 178 002e 94E80C00 		ldmia	r4, {r2, r3}
 179 0032 1A60     		str	r2, [r3, #0]
 180              		.loc 2 76 0
 181 0034 2068     		ldr	r0, [r4, #0]
 182 0036 4360     		str	r3, [r0, #4]
 183              	.LVL10:
 184              	.L9:
 185              	.LBE32:
 186              	.LBE31:
 187              		.loc 1 163 0
 188 0038 4FF0FF33 		mov	r3, #-1
 189 003c 6362     		str	r3, [r4, #36]
 190              		.loc 1 164 0
 191 003e 2046     		mov	r0, r4
 192 0040 FFF7FEFF 		bl	chSchReadyI
 193              	.LVL11:
 194              	.L15:
 195              		.loc 1 165 0
 196 0044 FFF7FEFF 		bl	dbg_check_unlock_from_isr
 197              	.LVL12:
 198              	.LBB33:
 199 0048 0023     		movs	r3, #0
 200              	.LVL13:
 201              	@ 165 "../../chibios/os/kernel/src/chschd.c" 1
 202 004a 83F31188 		msr     BASEPRI, r3
 203              	@ 0 "" 2
 204              	.LVL14:
 205              		.thumb
 206 004e 10BD     		pop	{r4, pc}
 207              	.LBE33:
 208              		.cfi_endproc
 209              	.LFE10:
 210              		.size	wakeup, .-wakeup
 211              		.section	.text.chSchGoSleepS,"ax",%progbits
 212              		.align	2
 213              		.p2align 4,,15
 214              		.global	chSchGoSleepS
 215              		.thumb
 216              		.thumb_func
 217              		.type	chSchGoSleepS, %function
 218              	chSchGoSleepS:
 219              	.LFB9:
 220              		.loc 1 115 0
 221              		.cfi_startproc
 222              		@ args = 0, pretend = 0, frame = 0
 223              		@ frame_needed = 0, uses_anonymous_args = 0
 224              	.LVL15:
 225 0000 38B5     		push	{r3, r4, r5, lr}
 226              	.LCFI2:
ARM GAS  C:\Users\Elis\AppData\Local\Temp\cc7fgMMZ.s 			page 5


 227              		.cfi_def_cfa_offset 16
 228              		.cfi_offset 3, -16
 229              		.cfi_offset 4, -12
 230              		.cfi_offset 5, -8
 231              		.cfi_offset 14, -4
 232              		.loc 1 115 0
 233 0002 0546     		mov	r5, r0
 234              		.loc 1 118 0
 235 0004 FFF7FEFF 		bl	chDbgCheckClassS
 236              	.LVL16:
 237              		.loc 1 120 0
 238 0008 40F20003 		movw	r3, #:lower16:.LANCHOR0
 239 000c C0F20003 		movt	r3, #:upper16:.LANCHOR0
 240              		.loc 1 124 0
 241 0010 1420     		movs	r0, #20
 242              	.LBB34:
 243              	.LBB35:
 244              		.loc 2 60 0
 245 0012 1A68     		ldr	r2, [r3, #0]
 246              	.LBE35:
 247              	.LBE34:
 248              		.loc 1 120 0
 249 0014 9969     		ldr	r1, [r3, #24]
 250              	.LVL17:
 251              	.LBB38:
 252              	.LBB36:
 253              		.loc 2 62 0
 254 0016 1468     		ldr	r4, [r2, #0]
 255              	.LBE36:
 256              	.LBE38:
 257              		.loc 1 124 0
 258 0018 C877     		strb	r0, [r1, #31]
 259              	.LVL18:
 260              		.loc 1 127 0
 261 001a 0120     		movs	r0, #1
 262              		.loc 1 120 0
 263 001c 0D77     		strb	r5, [r1, #28]
 264              		.loc 1 127 0
 265 001e 1077     		strb	r0, [r2, #28]
 266              		.loc 1 128 0
 267 0020 1046     		mov	r0, r2
 268              	.LBB39:
 269              	.LBB37:
 270              		.loc 2 62 0
 271 0022 6360     		str	r3, [r4, #4]
 272 0024 1C60     		str	r4, [r3, #0]
 273              	.LBE37:
 274              	.LBE39:
 275              		.loc 1 126 0
 276 0026 9A61     		str	r2, [r3, #24]
 277              		.loc 1 129 0
 278 0028 BDE83840 		pop	{r3, r4, r5, lr}
 279              		.loc 1 128 0
 280 002c FFF7FEBF 		b	_port_switch
 281              	.LVL19:
 282              		.cfi_endproc
 283              	.LFE9:
ARM GAS  C:\Users\Elis\AppData\Local\Temp\cc7fgMMZ.s 			page 6


 284              		.size	chSchGoSleepS, .-chSchGoSleepS
 285              		.section	.text.chSchGoSleepTimeoutS,"ax",%progbits
 286              		.align	2
 287              		.p2align 4,,15
 288              		.global	chSchGoSleepTimeoutS
 289              		.thumb
 290              		.thumb_func
 291              		.type	chSchGoSleepTimeoutS, %function
 292              	chSchGoSleepTimeoutS:
 293              	.LFB11:
 294              		.loc 1 189 0
 295              		.cfi_startproc
 296              		@ args = 0, pretend = 0, frame = 24
 297              		@ frame_needed = 0, uses_anonymous_args = 0
 298              	.LVL20:
 299 0000 70B5     		push	{r4, r5, r6, lr}
 300              	.LCFI3:
 301              		.cfi_def_cfa_offset 16
 302              		.cfi_offset 4, -16
 303              		.cfi_offset 5, -12
 304              		.cfi_offset 6, -8
 305              		.cfi_offset 14, -4
 306 0002 0C46     		mov	r4, r1
 307 0004 86B0     		sub	sp, sp, #24
 308              	.LCFI4:
 309              		.cfi_def_cfa_offset 40
 310              		.loc 1 189 0
 311 0006 0646     		mov	r6, r0
 312              		.loc 1 191 0
 313 0008 FFF7FEFF 		bl	chDbgCheckClassS
 314              	.LVL21:
 315              		.loc 1 193 0
 316 000c 631C     		adds	r3, r4, #1
 317 000e 12D0     		beq	.L18
 318              	.LBB40:
 319              		.loc 1 196 0
 320 0010 0B4D     		ldr	r5, .L24
 321 0012 0C4A     		ldr	r2, .L24+4
 322 0014 AB69     		ldr	r3, [r5, #24]
 323 0016 2146     		mov	r1, r4
 324 0018 01A8     		add	r0, sp, #4
 325 001a FFF7FEFF 		bl	chVTSetI
 326              	.LVL22:
 327              		.loc 1 197 0
 328 001e 3046     		mov	r0, r6
 329 0020 FFF7FEFF 		bl	chSchGoSleepS
 330              	.LVL23:
 331              		.loc 1 198 0
 332 0024 049B     		ldr	r3, [sp, #16]
 333 0026 13B1     		cbz	r3, .L20
 334              		.loc 1 199 0
 335 0028 01A8     		add	r0, sp, #4
 336 002a FFF7FEFF 		bl	chVTResetI
 337              	.LVL24:
 338              	.L20:
 339              	.LBE40:
 340              		.loc 1 203 0
ARM GAS  C:\Users\Elis\AppData\Local\Temp\cc7fgMMZ.s 			page 7


 341 002e A869     		ldr	r0, [r5, #24]
 342              		.loc 1 204 0
 343 0030 406A     		ldr	r0, [r0, #36]
 344 0032 06B0     		add	sp, sp, #24
 345 0034 70BD     		pop	{r4, r5, r6, pc}
 346              	.L18:
 347              		.loc 1 202 0
 348 0036 3046     		mov	r0, r6
 349 0038 FFF7FEFF 		bl	chSchGoSleepS
 350              	.LVL25:
 351 003c 004D     		ldr	r5, .L24
 352 003e F6E7     		b	.L20
 353              	.L25:
 354              		.align	2
 355              	.L24:
 356 0040 00000000 		.word	.LANCHOR0
 357 0044 00000000 		.word	wakeup
 358              		.cfi_endproc
 359              	.LFE11:
 360              		.size	chSchGoSleepTimeoutS, .-chSchGoSleepTimeoutS
 361 0048 AFF30080 		.section	.text.chSchWakeupS,"ax",%progbits
 361      AFF30080 
 362              		.align	2
 363              		.p2align 4,,15
 364              		.global	chSchWakeupS
 365              		.thumb
 366              		.thumb_func
 367              		.type	chSchWakeupS, %function
 368              	chSchWakeupS:
 369              	.LFB12:
 370              		.loc 1 225 0
 371              		.cfi_startproc
 372              		@ args = 0, pretend = 0, frame = 0
 373              		@ frame_needed = 0, uses_anonymous_args = 0
 374              	.LVL26:
 375 0000 70B5     		push	{r4, r5, r6, lr}
 376              	.LCFI5:
 377              		.cfi_def_cfa_offset 16
 378              		.cfi_offset 4, -16
 379              		.cfi_offset 5, -12
 380              		.cfi_offset 6, -8
 381              		.cfi_offset 14, -4
 382              		.loc 1 234 0
 383 0002 0D4D     		ldr	r5, .L29
 384              		.loc 1 225 0
 385 0004 0446     		mov	r4, r0
 386 0006 0E46     		mov	r6, r1
 387              		.loc 1 227 0
 388 0008 FFF7FEFF 		bl	chDbgCheckClassS
 389              	.LVL27:
 390              		.loc 1 234 0
 391 000c A869     		ldr	r0, [r5, #24]
 392 000e A268     		ldr	r2, [r4, #8]
 393 0010 8368     		ldr	r3, [r0, #8]
 394              		.loc 1 229 0
 395 0012 6662     		str	r6, [r4, #36]
 396              		.loc 1 234 0
ARM GAS  C:\Users\Elis\AppData\Local\Temp\cc7fgMMZ.s 			page 8


 397 0014 9A42     		cmp	r2, r3
 398 0016 0AD9     		bls	.L28
 399              	.LBB41:
 400              		.loc 1 237 0
 401 0018 FFF7FEFF 		bl	chSchReadyI
 402              	.LVL28:
 403 001c 0146     		mov	r1, r0
 404              	.LVL29:
 405              		.loc 1 239 0
 406 001e 0120     		movs	r0, #1
 407              	.LVL30:
 408 0020 2077     		strb	r0, [r4, #28]
 409              		.loc 1 240 0
 410 0022 2046     		mov	r0, r4
 411              		.loc 1 238 0
 412 0024 AC61     		str	r4, [r5, #24]
 413              	.LBE41:
 414              		.loc 1 242 0
 415 0026 BDE87040 		pop	{r4, r5, r6, lr}
 416              	.LBB42:
 417              		.loc 1 240 0
 418 002a FFF7FEBF 		b	_port_switch
 419              	.LVL31:
 420              	.L28:
 421              	.LBE42:
 422              		.loc 1 235 0
 423 002e 2046     		mov	r0, r4
 424              		.loc 1 242 0
 425 0030 BDE87040 		pop	{r4, r5, r6, lr}
 426              		.loc 1 235 0
 427 0034 FFF7FEBF 		b	chSchReadyI
 428              	.LVL32:
 429              	.L30:
 430              		.align	2
 431              	.L29:
 432 0038 00000000 		.word	.LANCHOR0
 433              		.cfi_endproc
 434              	.LFE12:
 435              		.size	chSchWakeupS, .-chSchWakeupS
 436 003c AFF30080 		.section	.text.chSchDoRescheduleBehind,"ax",%progbits
 437              		.align	2
 438              		.p2align 4,,15
 439              		.global	chSchDoRescheduleBehind
 440              		.thumb
 441              		.thumb_func
 442              		.type	chSchDoRescheduleBehind, %function
 443              	chSchDoRescheduleBehind:
 444              	.LFB14:
 445              		.loc 1 304 0
 446              		.cfi_startproc
 447              		@ args = 0, pretend = 0, frame = 0
 448              		@ frame_needed = 0, uses_anonymous_args = 0
 449 0000 38B5     		push	{r3, r4, r5, lr}
 450              	.LCFI6:
 451              		.cfi_def_cfa_offset 16
 452              		.cfi_offset 3, -16
 453              		.cfi_offset 4, -12
ARM GAS  C:\Users\Elis\AppData\Local\Temp\cc7fgMMZ.s 			page 9


 454              		.cfi_offset 5, -8
 455              		.cfi_offset 14, -4
 456              		.loc 1 307 0
 457 0002 40F20004 		movw	r4, #:lower16:.LANCHOR0
 458 0006 C0F20004 		movt	r4, #:upper16:.LANCHOR0
 459              		.loc 1 310 0
 460 000a 0121     		movs	r1, #1
 461              	.LBB43:
 462              	.LBB44:
 463              		.loc 2 60 0
 464 000c 2368     		ldr	r3, [r4, #0]
 465              	.LBE44:
 466              	.LBE43:
 467              		.loc 1 307 0
 468 000e A569     		ldr	r5, [r4, #24]
 469              	.LVL33:
 470              	.LBB48:
 471              	.LBB45:
 472              		.loc 2 62 0
 473 0010 1A68     		ldr	r2, [r3, #0]
 474              	.LBE45:
 475              	.LBE48:
 476              		.loc 1 310 0
 477 0012 1977     		strb	r1, [r3, #28]
 478              		.loc 1 312 0
 479 0014 1420     		movs	r0, #20
 480              	.LBB49:
 481              	.LBB46:
 482              		.loc 2 62 0
 483 0016 5460     		str	r4, [r2, #4]
 484              	.LBE46:
 485              	.LBE49:
 486              		.loc 1 312 0
 487 0018 E877     		strb	r0, [r5, #31]
 488              		.loc 1 314 0
 489 001a 2846     		mov	r0, r5
 490              	.LBB50:
 491              	.LBB47:
 492              		.loc 2 62 0
 493 001c 2260     		str	r2, [r4, #0]
 494              	.LBE47:
 495              	.LBE50:
 496              		.loc 1 309 0
 497 001e A361     		str	r3, [r4, #24]
 498              		.loc 1 314 0
 499 0020 FFF7FEFF 		bl	chSchReadyI
 500              	.LVL34:
 501              		.loc 1 315 0
 502 0024 A069     		ldr	r0, [r4, #24]
 503 0026 2946     		mov	r1, r5
 504              		.loc 1 316 0
 505 0028 BDE83840 		pop	{r3, r4, r5, lr}
 506              		.loc 1 315 0
 507 002c FFF7FEBF 		b	_port_switch
 508              	.LVL35:
 509              		.cfi_endproc
 510              	.LFE14:
ARM GAS  C:\Users\Elis\AppData\Local\Temp\cc7fgMMZ.s 			page 10


 511              		.size	chSchDoRescheduleBehind, .-chSchDoRescheduleBehind
 512              		.section	.text.chSchDoRescheduleAhead,"ax",%progbits
 513              		.align	2
 514              		.p2align 4,,15
 515              		.global	chSchDoRescheduleAhead
 516              		.thumb
 517              		.thumb_func
 518              		.type	chSchDoRescheduleAhead, %function
 519              	chSchDoRescheduleAhead:
 520              	.LFB15:
 521              		.loc 1 329 0
 522              		.cfi_startproc
 523              		@ args = 0, pretend = 0, frame = 0
 524              		@ frame_needed = 0, uses_anonymous_args = 0
 525              		@ link register save eliminated.
 526              		.loc 1 332 0
 527 0000 0D4B     		ldr	r3, .L36
 528              	.LBB51:
 529              	.LBB52:
 530              		.loc 2 60 0
 531 0002 1868     		ldr	r0, [r3, #0]
 532              	.LBE52:
 533              	.LBE51:
 534              		.loc 1 332 0
 535 0004 9969     		ldr	r1, [r3, #24]
 536              	.LVL36:
 537              	.LBB55:
 538              	.LBB53:
 539              		.loc 2 62 0
 540 0006 0268     		ldr	r2, [r0, #0]
 541              	.LBE53:
 542              	.LBE55:
 543              		.loc 1 329 0
 544 0008 30B4     		push	{r4, r5}
 545              	.LCFI7:
 546              		.cfi_def_cfa_offset 8
 547              		.cfi_offset 4, -8
 548              		.cfi_offset 5, -4
 549              	.LBB56:
 550              	.LBB54:
 551              		.loc 2 62 0
 552 000a 5360     		str	r3, [r2, #4]
 553 000c 8C68     		ldr	r4, [r1, #8]
 554 000e 1A60     		str	r2, [r3, #0]
 555              	.LBE54:
 556              	.LBE56:
 557              		.loc 1 335 0
 558 0010 0125     		movs	r5, #1
 559              		.loc 1 334 0
 560 0012 9861     		str	r0, [r3, #24]
 561              		.loc 1 337 0
 562 0014 0023     		movs	r3, #0
 563              		.loc 1 335 0
 564 0016 0577     		strb	r5, [r0, #28]
 565              		.loc 1 337 0
 566 0018 0B77     		strb	r3, [r1, #28]
 567              	.LVL37:
ARM GAS  C:\Users\Elis\AppData\Local\Temp\cc7fgMMZ.s 			page 11


 568 001a 0346     		mov	r3, r0
 569 001c 00E0     		b	.L34
 570              	.LVL38:
 571              	.L35:
 572 001e 1B68     		ldr	r3, [r3, #0]
 573              	.LVL39:
 574              	.L34:
 575              		.loc 1 341 0 discriminator 1
 576 0020 9A68     		ldr	r2, [r3, #8]
 577 0022 A242     		cmp	r2, r4
 578 0024 FBD8     		bhi	.L35
 579              		.loc 1 344 0
 580 0026 5A68     		ldr	r2, [r3, #4]
 581              		.loc 1 343 0
 582 0028 0B60     		str	r3, [r1, #0]
 583              		.loc 1 344 0
 584 002a 4A60     		str	r2, [r1, #4]
 585              		.loc 1 345 0
 586 002c 1160     		str	r1, [r2, #0]
 587 002e 5960     		str	r1, [r3, #4]
 588              		.loc 1 348 0
 589 0030 30BC     		pop	{r4, r5}
 590              		.loc 1 347 0
 591 0032 FFF7FEBF 		b	_port_switch
 592              	.LVL40:
 593              	.L37:
 594 0036 00BF     		.align	2
 595              	.L36:
 596 0038 00000000 		.word	.LANCHOR0
 597              		.cfi_endproc
 598              	.LFE15:
 599              		.size	chSchDoRescheduleAhead, .-chSchDoRescheduleAhead
 600 003c AFF30080 		.section	.text.chSchRescheduleS,"ax",%progbits
 601              		.align	2
 602              		.p2align 4,,15
 603              		.global	chSchRescheduleS
 604              		.thumb
 605              		.thumb_func
 606              		.type	chSchRescheduleS, %function
 607              	chSchRescheduleS:
 608              	.LFB13:
 609              		.loc 1 253 0
 610              		.cfi_startproc
 611              		@ args = 0, pretend = 0, frame = 0
 612              		@ frame_needed = 0, uses_anonymous_args = 0
 613 0000 08B5     		push	{r3, lr}
 614              	.LCFI8:
 615              		.cfi_def_cfa_offset 8
 616              		.cfi_offset 3, -8
 617              		.cfi_offset 14, -4
 618              		.loc 1 255 0
 619 0002 FFF7FEFF 		bl	chDbgCheckClassS
 620              	.LVL41:
 621              		.loc 1 257 0
 622 0006 064B     		ldr	r3, .L41
 623 0008 1A68     		ldr	r2, [r3, #0]
 624 000a 9869     		ldr	r0, [r3, #24]
ARM GAS  C:\Users\Elis\AppData\Local\Temp\cc7fgMMZ.s 			page 12


 625 000c 9168     		ldr	r1, [r2, #8]
 626 000e 8368     		ldr	r3, [r0, #8]
 627 0010 9942     		cmp	r1, r3
 628 0012 00D8     		bhi	.L40
 629 0014 08BD     		pop	{r3, pc}
 630              	.L40:
 631              		.loc 1 259 0
 632 0016 BDE80840 		pop	{r3, lr}
 633              		.loc 1 258 0
 634 001a FFF7FEBF 		b	chSchDoRescheduleAhead
 635              	.LVL42:
 636              	.L42:
 637 001e 00BF     		.align	2
 638              	.L41:
 639 0020 00000000 		.word	.LANCHOR0
 640              		.cfi_endproc
 641              	.LFE13:
 642              		.size	chSchRescheduleS, .-chSchRescheduleS
 643 0024 AFF30080 		.section	.text.chSchDoReschedule,"ax",%progbits
 643      AFF30080 
 643      AFF30080 
 644              		.align	2
 645              		.p2align 4,,15
 646              		.global	chSchDoReschedule
 647              		.thumb
 648              		.thumb_func
 649              		.type	chSchDoReschedule, %function
 650              	chSchDoReschedule:
 651              	.LFB16:
 652              		.loc 1 362 0
 653              		.cfi_startproc
 654              		@ args = 0, pretend = 0, frame = 0
 655              		@ frame_needed = 0, uses_anonymous_args = 0
 656              		@ link register save eliminated.
 657              		.loc 1 367 0
 658 0000 034B     		ldr	r3, .L46
 659 0002 9869     		ldr	r0, [r3, #24]
 660 0004 C17F     		ldrb	r1, [r0, #31]	@ zero_extendqisi2
 661 0006 09B1     		cbz	r1, .L45
 662              		.loc 1 382 0
 663              		.loc 1 375 0
 664 0008 FFF7FEBF 		b	chSchDoRescheduleAhead
 665              	.LVL43:
 666              	.L45:
 667              		.loc 1 382 0
 668              		.loc 1 370 0
 669 000c FFF7FEBF 		b	chSchDoRescheduleBehind
 670              	.LVL44:
 671              	.L47:
 672              		.align	2
 673              	.L46:
 674 0010 00000000 		.word	.LANCHOR0
 675              		.cfi_endproc
 676              	.LFE16:
 677              		.size	chSchDoReschedule, .-chSchDoReschedule
 678              		.global	rlist
 679 0014 AFF30080 		.section	.bss.rlist,"aw",%nobits
ARM GAS  C:\Users\Elis\AppData\Local\Temp\cc7fgMMZ.s 			page 13


 679      AFF30080 
 679      AFF30080 
 680              		.align	2
 681              		.set	.LANCHOR0,. + 0
 682              		.type	rlist, %object
 683              		.size	rlist, 28
 684              	rlist:
 685 0000 00000000 		.space	28
 685      00000000 
 685      00000000 
 685      00000000 
 685      00000000 
 686              		.text
 687              	.Letext0:
 688              		.file 3 "c:\\chibistudio\\tools\\gnu tools arm embedded\\4.7 2014q2\\bin\\../lib/gcc/arm-none-eabi
 689              		.file 4 "../../chibios/os/ports/GCC/ARMCMx/chtypes.h"
 690              		.file 5 "../../chibios/os/kernel/include/chlists.h"
 691              		.file 6 "../../chibios/os/kernel/include/chthreads.h"
 692              		.file 7 "../../chibios/os/ports/GCC/ARMCMx/chcore_v7m.h"
 693              		.file 8 "../../chibios/os/kernel/include/chvt.h"
 694              		.file 9 "../../chibios/os/kernel/include/chschd.h"
 695              		.file 10 "../../chibios/os/kernel/include/chsem.h"
 696              		.file 11 "../../chibios/os/kernel/include/chmtx.h"
 697              		.file 12 "../../chibios/os/kernel/include/chdebug.h"