ARM GAS  C:\Users\Elis\AppData\Local\Temp\cc0TgQXe.s 			page 1


   1              		.syntax unified
   2              		.cpu cortex-m4
   3              		.fpu softvfp
   4              		.eabi_attribute 20, 1
   5              		.eabi_attribute 21, 1
   6              		.eabi_attribute 23, 3
   7              		.eabi_attribute 24, 1
   8              		.eabi_attribute 25, 1
   9              		.eabi_attribute 26, 1
  10              		.eabi_attribute 30, 2
  11              		.eabi_attribute 34, 1
  12              		.eabi_attribute 18, 4
  13              		.thumb
  14              		.file	"chsem.c"
  15              		.text
  16              	.Ltext0:
  17              		.cfi_sections	.debug_frame
  18              		.section	.text.chSemInit,"ax",%progbits
  19              		.align	2
  20              		.p2align 4,,15
  21              		.global	chSemInit
  22              		.thumb
  23              		.thumb_func
  24              		.type	chSemInit, %function
  25              	chSemInit:
  26              	.LFB7:
  27              		.file 1 "../../chibios/os/kernel/src/chsem.c"
  28              		.loc 1 86 0
  29              		.cfi_startproc
  30              		@ args = 0, pretend = 0, frame = 0
  31              		@ frame_needed = 0, uses_anonymous_args = 0
  32              		@ link register save eliminated.
  33              	.LVL0:
  34              		.loc 1 90 0
  35 0000 4060     		str	r0, [r0, #4]
  36 0002 0060     		str	r0, [r0, #0]
  37              		.loc 1 91 0
  38 0004 8160     		str	r1, [r0, #8]
  39 0006 7047     		bx	lr
  40              		.cfi_endproc
  41              	.LFE7:
  42              		.size	chSemInit, .-chSemInit
  43 0008 AFF30080 		.section	.text.chSemResetI,"ax",%progbits
  43      AFF30080 
  44              		.align	2
  45              		.p2align 4,,15
  46              		.global	chSemResetI
  47              		.thumb
  48              		.thumb_func
  49              		.type	chSemResetI, %function
  50              	chSemResetI:
  51              	.LFB9:
  52              		.loc 1 136 0
  53              		.cfi_startproc
  54              		@ args = 0, pretend = 0, frame = 0
  55              		@ frame_needed = 0, uses_anonymous_args = 0
  56              	.LVL1:
ARM GAS  C:\Users\Elis\AppData\Local\Temp\cc0TgQXe.s 			page 2


  57 0000 F8B5     		push	{r3, r4, r5, r6, r7, lr}
  58              	.LCFI0:
  59              		.cfi_def_cfa_offset 24
  60              		.cfi_offset 3, -24
  61              		.cfi_offset 4, -20
  62              		.cfi_offset 5, -16
  63              		.cfi_offset 6, -12
  64              		.cfi_offset 7, -8
  65              		.cfi_offset 14, -4
  66              		.loc 1 136 0
  67 0002 0446     		mov	r4, r0
  68 0004 0D46     		mov	r5, r1
  69              		.loc 1 139 0
  70 0006 FFF7FEFF 		bl	chDbgCheckClassI
  71              	.LVL2:
  72              		.loc 1 141 0
  73 000a A768     		ldr	r7, [r4, #8]
  74              	.LVL3:
  75              		.loc 1 147 0
  76 000c A560     		str	r5, [r4, #8]
  77              		.loc 1 148 0
  78 000e 0137     		adds	r7, r7, #1
  79              	.LVL4:
  80 0010 002F     		cmp	r7, #0
  81 0012 29DC     		bgt	.L2
  82              	.LBB24:
  83              	.LBB25:
  84              		.file 2 "../../chibios/os/kernel/include/chinline.h"
  85              		.loc 2 67 0
  86 0014 6068     		ldr	r0, [r4, #4]
  87              		.loc 2 69 0
  88 0016 4368     		ldr	r3, [r0, #4]
  89 0018 6360     		str	r3, [r4, #4]
  90 001a 1C60     		str	r4, [r3, #0]
  91              	.LBE25:
  92              	.LBE24:
  93              		.loc 1 149 0
  94 001c FFF7FEFF 		bl	chSchReadyI
  95              	.LVL5:
  96 0020 6FF00106 		mvn	r6, #1
  97 0024 07F00101 		and	r1, r7, #1
  98              	.LVL6:
  99 0028 4662     		str	r6, [r0, #36]
 100              		.loc 1 148 0
 101 002a 7D1C     		adds	r5, r7, #1
 102              	.LVL7:
 103 002c EFB1     		cbz	r7, .L15
 104 002e 49B1     		cbz	r1, .L6
 105              	.LBB29:
 106              	.LBB26:
 107              		.loc 2 67 0
 108 0030 6068     		ldr	r0, [r4, #4]
 109              		.loc 2 69 0
 110 0032 4268     		ldr	r2, [r0, #4]
 111 0034 6260     		str	r2, [r4, #4]
 112 0036 1460     		str	r4, [r2, #0]
 113              	.LBE26:
ARM GAS  C:\Users\Elis\AppData\Local\Temp\cc0TgQXe.s 			page 3


 114              	.LBE29:
 115              		.loc 1 149 0
 116 0038 FFF7FEFF 		bl	chSchReadyI
 117              	.LVL8:
 118              		.loc 1 148 0
 119 003c 0135     		adds	r5, r5, #1
 120 003e 012D     		cmp	r5, #1
 121              		.loc 1 149 0
 122 0040 4662     		str	r6, [r0, #36]
 123              	.LVL9:
 124              		.loc 1 148 0
 125 0042 13D0     		beq	.L16
 126              	.L6:
 127              	.LBB30:
 128              	.LBB27:
 129              		.loc 2 67 0
 130 0044 6068     		ldr	r0, [r4, #4]
 131              		.loc 2 69 0
 132 0046 4368     		ldr	r3, [r0, #4]
 133 0048 6360     		str	r3, [r4, #4]
 134 004a 1C60     		str	r4, [r3, #0]
 135              	.LBE27:
 136              	.LBE30:
 137              		.loc 1 149 0
 138 004c FFF7FEFF 		bl	chSchReadyI
 139              	.LVL10:
 140 0050 4662     		str	r6, [r0, #36]
 141              	.LBB31:
 142              	.LBB28:
 143              		.loc 2 67 0
 144 0052 6068     		ldr	r0, [r4, #4]
 145              		.loc 2 69 0
 146 0054 4168     		ldr	r1, [r0, #4]
 147 0056 6160     		str	r1, [r4, #4]
 148 0058 0C60     		str	r4, [r1, #0]
 149              	.LBE28:
 150              	.LBE31:
 151              		.loc 1 149 0
 152 005a FFF7FEFF 		bl	chSchReadyI
 153              	.LVL11:
 154              		.loc 1 148 0
 155 005e 6A1C     		adds	r2, r5, #1
 156              		.loc 1 149 0
 157 0060 4662     		str	r6, [r0, #36]
 158              		.loc 1 148 0
 159 0062 0235     		adds	r5, r5, #2
 160 0064 002A     		cmp	r2, #0
 161 0066 EDD1     		bne	.L6
 162              	.LVL12:
 163              	.L2:
 164 0068 F8BD     		pop	{r3, r4, r5, r6, r7, pc}
 165              	.LVL13:
 166              	.L15:
 167 006a F8BD     		pop	{r3, r4, r5, r6, r7, pc}
 168              	.LVL14:
 169              	.L16:
 170 006c F8BD     		pop	{r3, r4, r5, r6, r7, pc}
ARM GAS  C:\Users\Elis\AppData\Local\Temp\cc0TgQXe.s 			page 4


 171              		.cfi_endproc
 172              	.LFE9:
 173              		.size	chSemResetI, .-chSemResetI
 174 006e 00BF     		.section	.text.chSemReset,"ax",%progbits
 175              		.align	2
 176              		.p2align 4,,15
 177              		.global	chSemReset
 178              		.thumb
 179              		.thumb_func
 180              		.type	chSemReset, %function
 181              	chSemReset:
 182              	.LFB8:
 183              		.loc 1 109 0
 184              		.cfi_startproc
 185              		@ args = 0, pretend = 0, frame = 0
 186              		@ frame_needed = 0, uses_anonymous_args = 0
 187              	.LVL15:
 188 0000 38B5     		push	{r3, r4, r5, lr}
 189              	.LCFI1:
 190              		.cfi_def_cfa_offset 16
 191              		.cfi_offset 3, -16
 192              		.cfi_offset 4, -12
 193              		.cfi_offset 5, -8
 194              		.cfi_offset 14, -4
 195              		.loc 1 109 0
 196 0002 0546     		mov	r5, r0
 197 0004 0C46     		mov	r4, r1
 198              	.LBB32:
 199              		.loc 1 111 0
 200 0006 2023     		movs	r3, #32
 201              	.LVL16:
 202              	@ 111 "../../chibios/os/kernel/src/chsem.c" 1
 203 0008 83F31188 		msr     BASEPRI, r3
 204              	@ 0 "" 2
 205              	.LVL17:
 206              		.thumb
 207              	.LBE32:
 208 000c FFF7FEFF 		bl	dbg_check_lock
 209              	.LVL18:
 210              		.loc 1 112 0
 211 0010 2846     		mov	r0, r5
 212 0012 2146     		mov	r1, r4
 213 0014 FFF7FEFF 		bl	chSemResetI
 214              	.LVL19:
 215              		.loc 1 113 0
 216 0018 FFF7FEFF 		bl	chSchRescheduleS
 217              	.LVL20:
 218              		.loc 1 114 0
 219 001c FFF7FEFF 		bl	dbg_check_unlock
 220              	.LVL21:
 221              	.LBB33:
 222 0020 0023     		movs	r3, #0
 223              	.LVL22:
 224              	@ 114 "../../chibios/os/kernel/src/chsem.c" 1
 225 0022 83F31188 		msr     BASEPRI, r3
 226              	@ 0 "" 2
 227              	.LVL23:
ARM GAS  C:\Users\Elis\AppData\Local\Temp\cc0TgQXe.s 			page 5


 228              		.thumb
 229 0026 38BD     		pop	{r3, r4, r5, pc}
 230              	.LBE33:
 231              		.cfi_endproc
 232              	.LFE8:
 233              		.size	chSemReset, .-chSemReset
 234 0028 AFF30080 		.section	.text.chSemWaitS,"ax",%progbits
 234      AFF30080 
 235              		.align	2
 236              		.p2align 4,,15
 237              		.global	chSemWaitS
 238              		.thumb
 239              		.thumb_func
 240              		.type	chSemWaitS, %function
 241              	chSemWaitS:
 242              	.LFB11:
 243              		.loc 1 185 0
 244              		.cfi_startproc
 245              		@ args = 0, pretend = 0, frame = 0
 246              		@ frame_needed = 0, uses_anonymous_args = 0
 247              	.LVL24:
 248 0000 38B5     		push	{r3, r4, r5, lr}
 249              	.LCFI2:
 250              		.cfi_def_cfa_offset 16
 251              		.cfi_offset 3, -16
 252              		.cfi_offset 4, -12
 253              		.cfi_offset 5, -8
 254              		.cfi_offset 14, -4
 255              		.loc 1 185 0
 256 0002 0446     		mov	r4, r0
 257              		.loc 1 187 0
 258 0004 FFF7FEFF 		bl	chDbgCheckClassS
 259              	.LVL25:
 260              		.loc 1 194 0
 261 0008 A368     		ldr	r3, [r4, #8]
 262 000a 581E     		subs	r0, r3, #1
 263 000c 0028     		cmp	r0, #0
 264 000e A060     		str	r0, [r4, #8]
 265 0010 01DB     		blt	.L21
 266              		.loc 1 200 0
 267 0012 0020     		movs	r0, #0
 268              		.loc 1 201 0
 269 0014 38BD     		pop	{r3, r4, r5, pc}
 270              	.L21:
 271              		.loc 1 195 0
 272 0016 074D     		ldr	r5, .L22
 273 0018 A969     		ldr	r1, [r5, #24]
 274 001a 4C62     		str	r4, [r1, #36]
 275              	.LVL26:
 276              	.LBB34:
 277              	.LBB35:
 278              		.loc 2 55 0
 279 001c 6268     		ldr	r2, [r4, #4]
 280              		.loc 2 54 0
 281 001e 0C60     		str	r4, [r1, #0]
 282              		.loc 2 55 0
 283 0020 4A60     		str	r2, [r1, #4]
ARM GAS  C:\Users\Elis\AppData\Local\Temp\cc0TgQXe.s 			page 6


 284              	.LBE35:
 285              	.LBE34:
 286              		.loc 1 197 0
 287 0022 0320     		movs	r0, #3
 288              	.LBB37:
 289              	.LBB36:
 290              		.loc 2 56 0
 291 0024 6160     		str	r1, [r4, #4]
 292 0026 1160     		str	r1, [r2, #0]
 293              	.LBE36:
 294              	.LBE37:
 295              		.loc 1 197 0
 296 0028 FFF7FEFF 		bl	chSchGoSleepS
 297              	.LVL27:
 298              		.loc 1 198 0
 299 002c AB69     		ldr	r3, [r5, #24]
 300 002e 586A     		ldr	r0, [r3, #36]
 301 0030 38BD     		pop	{r3, r4, r5, pc}
 302              	.L23:
 303 0032 00BF     		.align	2
 304              	.L22:
 305 0034 00000000 		.word	rlist
 306              		.cfi_endproc
 307              	.LFE11:
 308              		.size	chSemWaitS, .-chSemWaitS
 309 0038 AFF30080 		.section	.text.chSemWait,"ax",%progbits
 309      AFF30080 
 310              		.align	2
 311              		.p2align 4,,15
 312              		.global	chSemWait
 313              		.thumb
 314              		.thumb_func
 315              		.type	chSemWait, %function
 316              	chSemWait:
 317              	.LFB10:
 318              		.loc 1 164 0
 319              		.cfi_startproc
 320              		@ args = 0, pretend = 0, frame = 0
 321              		@ frame_needed = 0, uses_anonymous_args = 0
 322              	.LVL28:
 323 0000 10B5     		push	{r4, lr}
 324              	.LCFI3:
 325              		.cfi_def_cfa_offset 8
 326              		.cfi_offset 4, -8
 327              		.cfi_offset 14, -4
 328              	.LBB38:
 329              		.loc 1 167 0
 330 0002 2023     		movs	r3, #32
 331              	.LVL29:
 332              	.LBE38:
 333              		.loc 1 164 0
 334 0004 0446     		mov	r4, r0
 335              	.LBB39:
 336              		.loc 1 167 0
 337              	@ 167 "../../chibios/os/kernel/src/chsem.c" 1
 338 0006 83F31188 		msr     BASEPRI, r3
 339              	@ 0 "" 2
ARM GAS  C:\Users\Elis\AppData\Local\Temp\cc0TgQXe.s 			page 7


 340              	.LVL30:
 341              		.thumb
 342              	.LBE39:
 343 000a FFF7FEFF 		bl	dbg_check_lock
 344              	.LVL31:
 345              		.loc 1 168 0
 346 000e 2046     		mov	r0, r4
 347 0010 FFF7FEFF 		bl	chSemWaitS
 348              	.LVL32:
 349 0014 0446     		mov	r4, r0
 350              	.LVL33:
 351              		.loc 1 169 0
 352 0016 FFF7FEFF 		bl	dbg_check_unlock
 353              	.LVL34:
 354              	.LBB40:
 355 001a 0023     		movs	r3, #0
 356              	.LVL35:
 357              	@ 169 "../../chibios/os/kernel/src/chsem.c" 1
 358 001c 83F31188 		msr     BASEPRI, r3
 359              	@ 0 "" 2
 360              	.LVL36:
 361              		.thumb
 362              	.LBE40:
 363              		.loc 1 171 0
 364 0020 2046     		mov	r0, r4
 365 0022 10BD     		pop	{r4, pc}
 366              		.cfi_endproc
 367              	.LFE10:
 368              		.size	chSemWait, .-chSemWait
 369 0024 AFF30080 		.section	.text.chSemWaitTimeoutS,"ax",%progbits
 369      AFF30080 
 369      AFF30080 
 370              		.align	2
 371              		.p2align 4,,15
 372              		.global	chSemWaitTimeoutS
 373              		.thumb
 374              		.thumb_func
 375              		.type	chSemWaitTimeoutS, %function
 376              	chSemWaitTimeoutS:
 377              	.LFB13:
 378              		.loc 1 250 0
 379              		.cfi_startproc
 380              		@ args = 0, pretend = 0, frame = 0
 381              		@ frame_needed = 0, uses_anonymous_args = 0
 382              	.LVL37:
 383 0000 38B5     		push	{r3, r4, r5, lr}
 384              	.LCFI4:
 385              		.cfi_def_cfa_offset 16
 386              		.cfi_offset 3, -16
 387              		.cfi_offset 4, -12
 388              		.cfi_offset 5, -8
 389              		.cfi_offset 14, -4
 390              		.loc 1 250 0
 391 0002 0446     		mov	r4, r0
 392 0004 0D46     		mov	r5, r1
 393              		.loc 1 252 0
 394 0006 FFF7FEFF 		bl	chDbgCheckClassS
ARM GAS  C:\Users\Elis\AppData\Local\Temp\cc0TgQXe.s 			page 8


 395              	.LVL38:
 396              		.loc 1 254 0
 397 000a A268     		ldr	r2, [r4, #8]
 398              		.loc 1 259 0
 399 000c 531E     		subs	r3, r2, #1
 400 000e 002B     		cmp	r3, #0
 401 0010 A360     		str	r3, [r4, #8]
 402 0012 01DB     		blt	.L29
 403              		.loc 1 268 0
 404 0014 0020     		movs	r0, #0
 405              		.loc 1 269 0
 406 0016 38BD     		pop	{r3, r4, r5, pc}
 407              	.L29:
 408              		.loc 1 260 0
 409 0018 6DB1     		cbz	r5, .L30
 410              		.loc 1 264 0
 411 001a 0948     		ldr	r0, .L31
 412 001c 8369     		ldr	r3, [r0, #24]
 413 001e 5C62     		str	r4, [r3, #36]
 414              	.LVL39:
 415              	.LBB41:
 416              	.LBB42:
 417              		.loc 2 55 0
 418 0020 6268     		ldr	r2, [r4, #4]
 419              		.loc 2 54 0
 420 0022 1C60     		str	r4, [r3, #0]
 421              	.LBE42:
 422              	.LBE41:
 423              		.loc 1 266 0
 424 0024 0320     		movs	r0, #3
 425 0026 2946     		mov	r1, r5
 426              	.LBB44:
 427              	.LBB43:
 428              		.loc 2 55 0
 429 0028 5A60     		str	r2, [r3, #4]
 430              		.loc 2 56 0
 431 002a 6360     		str	r3, [r4, #4]
 432 002c 1360     		str	r3, [r2, #0]
 433              	.LBE43:
 434              	.LBE44:
 435              		.loc 1 269 0
 436 002e BDE83840 		pop	{r3, r4, r5, lr}
 437              		.loc 1 266 0
 438 0032 FFF7FEBF 		b	chSchGoSleepTimeoutS
 439              	.LVL40:
 440              	.L30:
 441              		.loc 1 261 0
 442 0036 A260     		str	r2, [r4, #8]
 443              		.loc 1 262 0
 444 0038 4FF0FF30 		mov	r0, #-1
 445 003c 38BD     		pop	{r3, r4, r5, pc}
 446              	.L32:
 447 003e 00BF     		.align	2
 448              	.L31:
 449 0040 00000000 		.word	rlist
 450              		.cfi_endproc
 451              	.LFE13:
ARM GAS  C:\Users\Elis\AppData\Local\Temp\cc0TgQXe.s 			page 9


 452              		.size	chSemWaitTimeoutS, .-chSemWaitTimeoutS
 453 0044 AFF30080 		.section	.text.chSemWaitTimeout,"ax",%progbits
 453      AFF30080 
 453      AFF30080 
 454              		.align	2
 455              		.p2align 4,,15
 456              		.global	chSemWaitTimeout
 457              		.thumb
 458              		.thumb_func
 459              		.type	chSemWaitTimeout, %function
 460              	chSemWaitTimeout:
 461              	.LFB12:
 462              		.loc 1 222 0
 463              		.cfi_startproc
 464              		@ args = 0, pretend = 0, frame = 0
 465              		@ frame_needed = 0, uses_anonymous_args = 0
 466              	.LVL41:
 467 0000 38B5     		push	{r3, r4, r5, lr}
 468              	.LCFI5:
 469              		.cfi_def_cfa_offset 16
 470              		.cfi_offset 3, -16
 471              		.cfi_offset 4, -12
 472              		.cfi_offset 5, -8
 473              		.cfi_offset 14, -4
 474              		.loc 1 222 0
 475 0002 0546     		mov	r5, r0
 476 0004 0C46     		mov	r4, r1
 477              	.LBB45:
 478              		.loc 1 225 0
 479 0006 2023     		movs	r3, #32
 480              	.LVL42:
 481              	@ 225 "../../chibios/os/kernel/src/chsem.c" 1
 482 0008 83F31188 		msr     BASEPRI, r3
 483              	@ 0 "" 2
 484              	.LVL43:
 485              		.thumb
 486              	.LBE45:
 487 000c FFF7FEFF 		bl	dbg_check_lock
 488              	.LVL44:
 489              		.loc 1 226 0
 490 0010 2146     		mov	r1, r4
 491 0012 2846     		mov	r0, r5
 492 0014 FFF7FEFF 		bl	chSemWaitTimeoutS
 493              	.LVL45:
 494 0018 0446     		mov	r4, r0
 495              	.LVL46:
 496              		.loc 1 227 0
 497 001a FFF7FEFF 		bl	dbg_check_unlock
 498              	.LVL47:
 499              	.LBB46:
 500 001e 0023     		movs	r3, #0
 501              	.LVL48:
 502              	@ 227 "../../chibios/os/kernel/src/chsem.c" 1
 503 0020 83F31188 		msr     BASEPRI, r3
 504              	@ 0 "" 2
 505              	.LVL49:
 506              		.thumb
ARM GAS  C:\Users\Elis\AppData\Local\Temp\cc0TgQXe.s 			page 10


 507              	.LBE46:
 508              		.loc 1 229 0
 509 0024 2046     		mov	r0, r4
 510 0026 38BD     		pop	{r3, r4, r5, pc}
 511              		.cfi_endproc
 512              	.LFE12:
 513              		.size	chSemWaitTimeout, .-chSemWaitTimeout
 514 0028 AFF30080 		.section	.text.chSemSignal,"ax",%progbits
 514      AFF30080 
 515              		.align	2
 516              		.p2align 4,,15
 517              		.global	chSemSignal
 518              		.thumb
 519              		.thumb_func
 520              		.type	chSemSignal, %function
 521              	chSemSignal:
 522              	.LFB14:
 523              		.loc 1 278 0
 524              		.cfi_startproc
 525              		@ args = 0, pretend = 0, frame = 0
 526              		@ frame_needed = 0, uses_anonymous_args = 0
 527              	.LVL50:
 528 0000 10B5     		push	{r4, lr}
 529              	.LCFI6:
 530              		.cfi_def_cfa_offset 8
 531              		.cfi_offset 4, -8
 532              		.cfi_offset 14, -4
 533              	.LBB47:
 534              		.loc 1 286 0
 535 0002 2023     		movs	r3, #32
 536              	.LVL51:
 537              	.LBE47:
 538              		.loc 1 278 0
 539 0004 0446     		mov	r4, r0
 540              	.LBB48:
 541              		.loc 1 286 0
 542              	@ 286 "../../chibios/os/kernel/src/chsem.c" 1
 543 0006 83F31188 		msr     BASEPRI, r3
 544              	@ 0 "" 2
 545              	.LVL52:
 546              		.thumb
 547              	.LBE48:
 548 000a FFF7FEFF 		bl	dbg_check_lock
 549              	.LVL53:
 550              		.loc 1 287 0
 551 000e A368     		ldr	r3, [r4, #8]
 552 0010 581C     		adds	r0, r3, #1
 553 0012 0028     		cmp	r0, #0
 554 0014 A060     		str	r0, [r4, #8]
 555 0016 05DD     		ble	.L36
 556              	.L35:
 557              		.loc 1 289 0
 558 0018 FFF7FEFF 		bl	dbg_check_unlock
 559              	.LVL54:
 560              	.LBB49:
 561 001c 0023     		movs	r3, #0
 562              	.LVL55:
ARM GAS  C:\Users\Elis\AppData\Local\Temp\cc0TgQXe.s 			page 11


 563              	@ 289 "../../chibios/os/kernel/src/chsem.c" 1
 564 001e 83F31188 		msr     BASEPRI, r3
 565              	@ 0 "" 2
 566              	.LVL56:
 567              		.thumb
 568 0022 10BD     		pop	{r4, pc}
 569              	.LVL57:
 570              	.L36:
 571              	.LBE49:
 572              	.LBB50:
 573              	.LBB51:
 574              		.loc 2 60 0
 575 0024 2068     		ldr	r0, [r4, #0]
 576              	.LVL58:
 577              		.loc 2 62 0
 578 0026 0268     		ldr	r2, [r0, #0]
 579              	.LBE51:
 580              	.LBE50:
 581              		.loc 1 288 0
 582 0028 0021     		movs	r1, #0
 583              	.LBB53:
 584              	.LBB52:
 585              		.loc 2 62 0
 586 002a 2260     		str	r2, [r4, #0]
 587 002c 5460     		str	r4, [r2, #4]
 588              	.LBE52:
 589              	.LBE53:
 590              		.loc 1 288 0
 591 002e FFF7FEFF 		bl	chSchWakeupS
 592              	.LVL59:
 593 0032 F1E7     		b	.L35
 594              		.cfi_endproc
 595              	.LFE14:
 596              		.size	chSemSignal, .-chSemSignal
 597 0034 AFF30080 		.section	.text.chSemSignalI,"ax",%progbits
 597      AFF30080 
 597      AFF30080 
 598              		.align	2
 599              		.p2align 4,,15
 600              		.global	chSemSignalI
 601              		.thumb
 602              		.thumb_func
 603              		.type	chSemSignalI, %function
 604              	chSemSignalI:
 605              	.LFB15:
 606              		.loc 1 303 0
 607              		.cfi_startproc
 608              		@ args = 0, pretend = 0, frame = 0
 609              		@ frame_needed = 0, uses_anonymous_args = 0
 610              	.LVL60:
 611 0000 10B5     		push	{r4, lr}
 612              	.LCFI7:
 613              		.cfi_def_cfa_offset 8
 614              		.cfi_offset 4, -8
 615              		.cfi_offset 14, -4
 616              		.loc 1 303 0
 617 0002 0446     		mov	r4, r0
ARM GAS  C:\Users\Elis\AppData\Local\Temp\cc0TgQXe.s 			page 12


 618              		.loc 1 305 0
 619 0004 FFF7FEFF 		bl	chDbgCheckClassI
 620              	.LVL61:
 621              		.loc 1 312 0
 622 0008 A368     		ldr	r3, [r4, #8]
 623 000a 581C     		adds	r0, r3, #1
 624 000c 0028     		cmp	r0, #0
 625 000e A060     		str	r0, [r4, #8]
 626 0010 00DD     		ble	.L39
 627 0012 10BD     		pop	{r4, pc}
 628              	.L39:
 629              	.LVL62:
 630              	.LBB54:
 631              	.LBB55:
 632              	.LBB56:
 633              		.loc 2 60 0
 634 0014 2168     		ldr	r1, [r4, #0]
 635              	.LVL63:
 636              		.loc 2 62 0
 637 0016 0A68     		ldr	r2, [r1, #0]
 638              	.LBE56:
 639              	.LBE55:
 640              		.loc 1 316 0
 641 0018 0023     		movs	r3, #0
 642              		.loc 1 317 0
 643 001a 0846     		mov	r0, r1
 644              	.LBB58:
 645              	.LBB57:
 646              		.loc 2 62 0
 647 001c 2260     		str	r2, [r4, #0]
 648 001e 5460     		str	r4, [r2, #4]
 649              	.LBE57:
 650              	.LBE58:
 651              		.loc 1 316 0
 652 0020 4B62     		str	r3, [r1, #36]
 653              	.LBE54:
 654              		.loc 1 319 0
 655 0022 BDE81040 		pop	{r4, lr}
 656              	.LBB59:
 657              		.loc 1 317 0
 658 0026 FFF7FEBF 		b	chSchReadyI
 659              	.LVL64:
 660              	.LBE59:
 661              		.cfi_endproc
 662              	.LFE15:
 663              		.size	chSemSignalI, .-chSemSignalI
 664 002a 00BFAFF3 		.section	.text.chSemAddCounterI,"ax",%progbits
 664      0080
 665              		.align	2
 666              		.p2align 4,,15
 667              		.global	chSemAddCounterI
 668              		.thumb
 669              		.thumb_func
 670              		.type	chSemAddCounterI, %function
 671              	chSemAddCounterI:
 672              	.LFB16:
 673              		.loc 1 334 0
ARM GAS  C:\Users\Elis\AppData\Local\Temp\cc0TgQXe.s 			page 13


 674              		.cfi_startproc
 675              		@ args = 0, pretend = 0, frame = 0
 676              		@ frame_needed = 0, uses_anonymous_args = 0
 677              	.LVL65:
 678 0000 F8B5     		push	{r3, r4, r5, r6, r7, lr}
 679              	.LCFI8:
 680              		.cfi_def_cfa_offset 24
 681              		.cfi_offset 3, -24
 682              		.cfi_offset 4, -20
 683              		.cfi_offset 5, -16
 684              		.cfi_offset 6, -12
 685              		.cfi_offset 7, -8
 686              		.cfi_offset 14, -4
 687              		.loc 1 334 0
 688 0002 0D46     		mov	r5, r1
 689 0004 0446     		mov	r4, r0
 690              		.loc 1 336 0
 691 0006 FFF7FEFF 		bl	chDbgCheckClassI
 692              	.LVL66:
 693              		.loc 1 343 0
 694 000a 002D     		cmp	r5, #0
 695 000c 37DD     		ble	.L40
 696              		.loc 1 344 0
 697 000e A368     		ldr	r3, [r4, #8]
 698              		.loc 1 345 0
 699 0010 0026     		movs	r6, #0
 700              		.loc 1 344 0
 701 0012 581C     		adds	r0, r3, #1
 702 0014 6A1E     		subs	r2, r5, #1
 703 0016 B042     		cmp	r0, r6
 704 0018 A060     		str	r0, [r4, #8]
 705 001a 02F00107 		and	r7, r2, #1
 706 001e 2FDD     		ble	.L58
 707              	.L47:
 708              		.loc 1 343 0
 709 0020 013D     		subs	r5, r5, #1
 710              	.LVL67:
 711 0022 2CD0     		beq	.L40
 712 0024 77B1     		cbz	r7, .L45
 713              		.loc 1 344 0
 714 0026 A368     		ldr	r3, [r4, #8]
 715 0028 5A1C     		adds	r2, r3, #1
 716 002a 002A     		cmp	r2, #0
 717 002c A260     		str	r2, [r4, #8]
 718 002e 2FDD     		ble	.L59
 719              	.L49:
 720              	.LVL68:
 721              		.loc 1 343 0
 722 0030 013D     		subs	r5, r5, #1
 723 0032 07D1     		bne	.L45
 724 0034 34E0     		b	.L63
 725              	.L42:
 726              		.loc 1 344 0
 727 0036 A168     		ldr	r1, [r4, #8]
 728 0038 481C     		adds	r0, r1, #1
 729 003a 0028     		cmp	r0, #0
 730 003c A060     		str	r0, [r4, #8]
ARM GAS  C:\Users\Elis\AppData\Local\Temp\cc0TgQXe.s 			page 14


 731 003e 14DD     		ble	.L61
 732              	.L52:
 733              		.loc 1 343 0
 734 0040 013D     		subs	r5, r5, #1
 735 0042 1BD0     		beq	.L62
 736              	.L45:
 737              		.loc 1 344 0
 738 0044 A068     		ldr	r0, [r4, #8]
 739 0046 431C     		adds	r3, r0, #1
 740 0048 002B     		cmp	r3, #0
 741 004a A360     		str	r3, [r4, #8]
 742              		.loc 1 346 0
 743 004c 05F1FF35 		add	r5, r5, #-1
 744              		.loc 1 344 0
 745 0050 F1DC     		bgt	.L42
 746              	.LVL69:
 747              	.LBB60:
 748              	.LBB61:
 749              		.loc 2 60 0
 750 0052 2068     		ldr	r0, [r4, #0]
 751              	.LVL70:
 752              		.loc 2 62 0
 753 0054 0268     		ldr	r2, [r0, #0]
 754 0056 2260     		str	r2, [r4, #0]
 755 0058 5460     		str	r4, [r2, #4]
 756              	.LBE61:
 757              	.LBE60:
 758              		.loc 1 345 0
 759 005a FFF7FEFF 		bl	chSchReadyI
 760              	.LVL71:
 761 005e 4662     		str	r6, [r0, #36]
 762              		.loc 1 344 0
 763 0060 A168     		ldr	r1, [r4, #8]
 764 0062 481C     		adds	r0, r1, #1
 765 0064 0028     		cmp	r0, #0
 766 0066 A060     		str	r0, [r4, #8]
 767 0068 EADC     		bgt	.L52
 768              	.LVL72:
 769              	.L61:
 770              	.LBB65:
 771              	.LBB62:
 772              		.loc 2 60 0
 773 006a 2068     		ldr	r0, [r4, #0]
 774              		.loc 2 62 0
 775 006c 0368     		ldr	r3, [r0, #0]
 776 006e 2360     		str	r3, [r4, #0]
 777 0070 5C60     		str	r4, [r3, #4]
 778              	.LBE62:
 779              	.LBE65:
 780              		.loc 1 345 0
 781 0072 FFF7FEFF 		bl	chSchReadyI
 782              	.LVL73:
 783              		.loc 1 343 0
 784 0076 013D     		subs	r5, r5, #1
 785              		.loc 1 345 0
 786 0078 4662     		str	r6, [r0, #36]
 787              		.loc 1 343 0
ARM GAS  C:\Users\Elis\AppData\Local\Temp\cc0TgQXe.s 			page 15


 788 007a E3D1     		bne	.L45
 789              	.LVL74:
 790              	.L62:
 791 007c F8BD     		pop	{r3, r4, r5, r6, r7, pc}
 792              	.L40:
 793 007e F8BD     		pop	{r3, r4, r5, r6, r7, pc}
 794              	.LVL75:
 795              	.L58:
 796              	.LBB66:
 797              	.LBB63:
 798              		.loc 2 60 0
 799 0080 2068     		ldr	r0, [r4, #0]
 800              		.loc 2 62 0
 801 0082 0168     		ldr	r1, [r0, #0]
 802 0084 2160     		str	r1, [r4, #0]
 803 0086 4C60     		str	r4, [r1, #4]
 804              	.LBE63:
 805              	.LBE66:
 806              		.loc 1 345 0
 807 0088 FFF7FEFF 		bl	chSchReadyI
 808              	.LVL76:
 809 008c 4662     		str	r6, [r0, #36]
 810 008e C7E7     		b	.L47
 811              	.LVL77:
 812              	.L59:
 813              	.LBB67:
 814              	.LBB64:
 815              		.loc 2 60 0
 816 0090 2068     		ldr	r0, [r4, #0]
 817              		.loc 2 62 0
 818 0092 0168     		ldr	r1, [r0, #0]
 819 0094 2160     		str	r1, [r4, #0]
 820 0096 4C60     		str	r4, [r1, #4]
 821              	.LBE64:
 822              	.LBE67:
 823              		.loc 1 345 0
 824 0098 FFF7FEFF 		bl	chSchReadyI
 825              	.LVL78:
 826 009c 4662     		str	r6, [r0, #36]
 827 009e C7E7     		b	.L49
 828              	.LVL79:
 829              	.L63:
 830 00a0 F8BD     		pop	{r3, r4, r5, r6, r7, pc}
 831              		.cfi_endproc
 832              	.LFE16:
 833              		.size	chSemAddCounterI, .-chSemAddCounterI
 834 00a2 00BFAFF3 		.section	.text.chSemSignalWait,"ax",%progbits
 834      0080AFF3 
 834      0080AFF3 
 834      0080
 835              		.align	2
 836              		.p2align 4,,15
 837              		.global	chSemSignalWait
 838              		.thumb
 839              		.thumb_func
 840              		.type	chSemSignalWait, %function
 841              	chSemSignalWait:
ARM GAS  C:\Users\Elis\AppData\Local\Temp\cc0TgQXe.s 			page 16


 842              	.LFB17:
 843              		.loc 1 366 0
 844              		.cfi_startproc
 845              		@ args = 0, pretend = 0, frame = 0
 846              		@ frame_needed = 0, uses_anonymous_args = 0
 847              	.LVL80:
 848 0000 38B5     		push	{r3, r4, r5, lr}
 849              	.LCFI9:
 850              		.cfi_def_cfa_offset 16
 851              		.cfi_offset 3, -16
 852              		.cfi_offset 4, -12
 853              		.cfi_offset 5, -8
 854              		.cfi_offset 14, -4
 855              		.loc 1 366 0
 856 0002 0546     		mov	r5, r0
 857 0004 0C46     		mov	r4, r1
 858              	.LBB68:
 859              		.loc 1 379 0
 860 0006 2023     		movs	r3, #32
 861              	.LVL81:
 862              	@ 379 "../../chibios/os/kernel/src/chsem.c" 1
 863 0008 83F31188 		msr     BASEPRI, r3
 864              	@ 0 "" 2
 865              	.LVL82:
 866              		.thumb
 867              	.LBE68:
 868 000c FFF7FEFF 		bl	dbg_check_lock
 869              	.LVL83:
 870              		.loc 1 380 0
 871 0010 AB68     		ldr	r3, [r5, #8]
 872 0012 581C     		adds	r0, r3, #1
 873 0014 0028     		cmp	r0, #0
 874 0016 A860     		str	r0, [r5, #8]
 875 0018 1BDD     		ble	.L68
 876              	.L65:
 877              		.loc 1 382 0
 878 001a A368     		ldr	r3, [r4, #8]
 879 001c 581E     		subs	r0, r3, #1
 880 001e 0028     		cmp	r0, #0
 881 0020 A060     		str	r0, [r4, #8]
 882 0022 09DB     		blt	.L69
 883              		.loc 1 390 0
 884 0024 FFF7FEFF 		bl	chSchRescheduleS
 885              	.LVL84:
 886              		.loc 1 391 0
 887 0028 0024     		movs	r4, #0
 888              	.LVL85:
 889              	.L67:
 890              		.loc 1 393 0
 891 002a FFF7FEFF 		bl	dbg_check_unlock
 892              	.LVL86:
 893              	.LBB69:
 894 002e 0023     		movs	r3, #0
 895              	.LVL87:
 896              	@ 393 "../../chibios/os/kernel/src/chsem.c" 1
 897 0030 83F31188 		msr     BASEPRI, r3
 898              	@ 0 "" 2
ARM GAS  C:\Users\Elis\AppData\Local\Temp\cc0TgQXe.s 			page 17


 899              	.LVL88:
 900              		.thumb
 901              	.LBE69:
 902              		.loc 1 395 0
 903 0034 2046     		mov	r0, r4
 904 0036 38BD     		pop	{r3, r4, r5, pc}
 905              	.LVL89:
 906              	.L69:
 907              	.LBB70:
 908              		.loc 1 383 0
 909 0038 0A4D     		ldr	r5, .L70
 910              	.LVL90:
 911              	.LBB71:
 912              	.LBB72:
 913              		.loc 2 55 0
 914 003a 6168     		ldr	r1, [r4, #4]
 915              	.LBE72:
 916              	.LBE71:
 917              		.loc 1 383 0
 918 003c AD69     		ldr	r5, [r5, #24]
 919              	.LVL91:
 920              		.loc 1 386 0
 921 003e 0320     		movs	r0, #3
 922              	.LBB75:
 923              	.LBB73:
 924              		.loc 2 54 0
 925 0040 2C60     		str	r4, [r5, #0]
 926              		.loc 2 55 0
 927 0042 6960     		str	r1, [r5, #4]
 928              		.loc 2 56 0
 929 0044 6560     		str	r5, [r4, #4]
 930              	.LBE73:
 931              	.LBE75:
 932              		.loc 1 385 0
 933 0046 6C62     		str	r4, [r5, #36]
 934              	.LBB76:
 935              	.LBB74:
 936              		.loc 2 56 0
 937 0048 0D60     		str	r5, [r1, #0]
 938              	.LBE74:
 939              	.LBE76:
 940              		.loc 1 386 0
 941 004a FFF7FEFF 		bl	chSchGoSleepS
 942              	.LVL92:
 943              		.loc 1 387 0
 944 004e 6C6A     		ldr	r4, [r5, #36]
 945              	.LVL93:
 946 0050 EBE7     		b	.L67
 947              	.LVL94:
 948              	.L68:
 949              	.LBE70:
 950              	.LBB77:
 951              	.LBB78:
 952              		.loc 2 60 0
 953 0052 2868     		ldr	r0, [r5, #0]
 954              	.LVL95:
 955              		.loc 2 62 0
ARM GAS  C:\Users\Elis\AppData\Local\Temp\cc0TgQXe.s 			page 18


 956 0054 0168     		ldr	r1, [r0, #0]
 957 0056 2960     		str	r1, [r5, #0]
 958 0058 4D60     		str	r5, [r1, #4]
 959              	.LBE78:
 960              	.LBE77:
 961              		.loc 1 381 0
 962 005a FFF7FEFF 		bl	chSchReadyI
 963              	.LVL96:
 964 005e 0022     		movs	r2, #0
 965 0060 4262     		str	r2, [r0, #36]
 966 0062 DAE7     		b	.L65
 967              	.L71:
 968              		.align	2
 969              	.L70:
 970 0064 00000000 		.word	rlist
 971              		.cfi_endproc
 972              	.LFE17:
 973              		.size	chSemSignalWait, .-chSemSignalWait
 974 0068 AFF30080 		.text
 974      AFF30080 
 975              	.Letext0:
 976              		.file 3 "c:\\chibistudio\\tools\\gnu tools arm embedded\\4.7 2014q2\\bin\\../lib/gcc/arm-none-eabi
 977              		.file 4 "../../chibios/os/ports/GCC/ARMCMx/chtypes.h"
 978              		.file 5 "../../chibios/os/kernel/include/chlists.h"
 979              		.file 6 "../../chibios/os/kernel/include/chthreads.h"
 980              		.file 7 "../../chibios/os/ports/GCC/ARMCMx/chcore_v7m.h"
 981              		.file 8 "../../chibios/os/kernel/include/chschd.h"
 982              		.file 9 "../../chibios/os/kernel/include/chsem.h"
 983              		.file 10 "../../chibios/os/kernel/include/chmtx.h"
 984              		.file 11 "../../chibios/os/kernel/include/chdebug.h"