ARM GAS  C:\Users\Elis\AppData\Local\Temp\cchiUJ5c.s 			page 1


   1              		.syntax unified
   2              		.cpu cortex-m4
   3              		.fpu softvfp
   4              		.eabi_attribute 20, 1
   5              		.eabi_attribute 21, 1
   6              		.eabi_attribute 23, 3
   7              		.eabi_attribute 24, 1
   8              		.eabi_attribute 25, 1
   9              		.eabi_attribute 26, 1
  10              		.eabi_attribute 30, 2
  11              		.eabi_attribute 34, 1
  12              		.eabi_attribute 18, 4
  13              		.thumb
  14              		.file	"configuration_t.c"
  15              		.text
  16              	.Ltext0:
  17              		.cfi_sections	.debug_frame
  18              		.section	.text.configuration_t,"ax",%progbits
  19              		.align	2
  20              		.p2align 4,,15
  21              		.global	configuration_t
  22              		.thumb
  23              		.thumb_func
  24              		.type	configuration_t, %function
  25              	configuration_t:
  26              	.LFB118:
  27              		.file 1 "../../workspace26/Mobile_phone/tasks/configuration_t.c"
  28              		.loc 1 3 0
  29              		.cfi_startproc
  30              		@ args = 0, pretend = 0, frame = 72
  31              		@ frame_needed = 0, uses_anonymous_args = 0
  32              	.LVL0:
  33 0000 30B5     		push	{r4, r5, lr}
  34              	.LCFI0:
  35              		.cfi_def_cfa_offset 12
  36              		.cfi_offset 4, -12
  37              		.cfi_offset 5, -8
  38              		.cfi_offset 14, -4
  39 0002 93B0     		sub	sp, sp, #76
  40              	.LCFI1:
  41              		.cfi_def_cfa_offset 88
  42              		.loc 1 15 0
  43 0004 0023     		movs	r3, #0
  44 0006 1093     		str	r3, [sp, #64]
  45              	.LVL1:
  46              	.L10:
  47              		.loc 1 21 0
  48 0008 FFF7FEFF 		bl	chMsgWait
  49              	.LVL2:
  50              		.loc 1 27 0
  51 000c 456B     		ldr	r5, [r0, #52]
  52              		.loc 1 21 0
  53 000e 0446     		mov	r4, r0
  54              	.LVL3:
  55              		.loc 1 27 0
  56 0010 95F84000 		ldrb	r0, [r5, #64]	@ zero_extendqisi2
  57              	.LVL4:
ARM GAS  C:\Users\Elis\AppData\Local\Temp\cchiUJ5c.s 			page 2


  58 0014 00F00202 		and	r2, r0, #2
  59 0018 D1B2     		uxtb	r1, r2
  60 001a 69B9     		cbnz	r1, .L12
  61              		.loc 1 40 0
  62 001c 10F0010F 		tst	r0, #1
  63              		.loc 1 44 0
  64 0020 01A8     		add	r0, sp, #4
  65              		.loc 1 40 0
  66 0022 F1D0     		beq	.L10
  67              		.loc 1 44 0
  68 0024 FFF7FEFF 		bl	readConfiguration
  69              	.LVL5:
  70              		.loc 1 48 0
  71 0028 01A8     		add	r0, sp, #4
  72 002a FFF7FEFF 		bl	getThemes
  73              	.LVL6:
  74              		.loc 1 52 0
  75 002e 2046     		mov	r0, r4
  76 0030 01A9     		add	r1, sp, #4
  77 0032 FFF7FEFF 		bl	chMsgRelease
  78              	.LVL7:
  79 0036 E7E7     		b	.L10
  80              	.L12:
  81              		.loc 1 29 0
  82 0038 2946     		mov	r1, r5
  83 003a 3222     		movs	r2, #50
  84 003c 01A8     		add	r0, sp, #4
  85 003e FFF7FEFF 		bl	strlcpy
  86              	.LVL8:
  87              		.loc 1 31 0
  88 0042 95F83830 		ldrb	r3, [r5, #56]	@ zero_extendqisi2
  89              		.loc 1 35 0
  90 0046 01A8     		add	r0, sp, #4
  91              		.loc 1 31 0
  92 0048 8DF83C30 		strb	r3, [sp, #60]
  93              		.loc 1 35 0
  94 004c FFF7FEFF 		bl	writeConfiguration
  95              	.LVL9:
  96              		.loc 1 37 0
  97 0050 2046     		mov	r0, r4
  98 0052 0021     		movs	r1, #0
  99 0054 FFF7FEFF 		bl	chMsgRelease
 100              	.LVL10:
 101 0058 D6E7     		b	.L10
 102              		.cfi_endproc
 103              	.LFE118:
 104              		.size	configuration_t, .-configuration_t
 105 005a 00BFAFF3 		.text
 105      0080
 106              	.Letext0:
 107              		.file 2 "../../workspace26/Mobile_phone/structures/structures.h"
 108              		.file 3 "c:\\chibistudio\\tools\\gnu tools arm embedded\\4.7 2014q2\\bin\\../lib/gcc/arm-none-eabi
 109              		.file 4 "c:\\chibistudio\\tools\\gnu tools arm embedded\\4.7 2014q2\\bin\\../lib/gcc/arm-none-eabi
 110              		.file 5 "../../chibios/os/ports/GCC/ARMCMx/chtypes.h"
 111              		.file 6 "../../chibios/os/kernel/include/chlists.h"
 112              		.file 7 "../../chibios/os/kernel/include/chthreads.h"
 113              		.file 8 "../../chibios/os/ports/GCC/ARMCMx/chcore_v7m.h"
ARM GAS  C:\Users\Elis\AppData\Local\Temp\cchiUJ5c.s 			page 3


 114              		.file 9 "../../chibios/os/kernel/include/chmtx.h"
 115              		.file 10 "../../ugfx/src/gos/gos_chibios.h"
 116              		.file 11 "../../workspace26/Mobile_phone/sdcard/sdcard.h"
 117              		.file 12 "../../chibios/os/kernel/include/chmsg.h"
 118              		.file 13 "../../chibios/os/ports/common/ARMCMx/CMSIS/include/core_cm4.h"
 119              		.file 14 "c:\\chibistudio\\tools\\gnu tools arm embedded\\4.7 2014q2\\bin\\../lib/gcc/arm-none-eab