ARM GAS  C:\Users\Elis\AppData\Local\Temp\ccGbXKEy.s 			page 1


   1              		.syntax unified
   2              		.cpu cortex-m4
   3              		.fpu softvfp
   4              		.eabi_attribute 20, 1
   5              		.eabi_attribute 21, 1
   6              		.eabi_attribute 23, 3
   7              		.eabi_attribute 24, 1
   8              		.eabi_attribute 25, 1
   9              		.eabi_attribute 26, 1
  10              		.eabi_attribute 30, 2
  11              		.eabi_attribute 34, 1
  12              		.eabi_attribute 18, 4
  13              		.thumb
  14              		.file	"contactsScreen.c"
  15              		.text
  16              	.Ltext0:
  17              		.cfi_sections	.debug_frame
  18              		.section	.text.createContactsScreen,"ax",%progbits
  19              		.align	2
  20              		.p2align 4,,15
  21              		.global	createContactsScreen
  22              		.thumb
  23              		.thumb_func
  24              		.type	createContactsScreen, %function
  25              	createContactsScreen:
  26              	.LFB118:
  27              		.file 1 "../../workspace26/Mobile_phone/gui/contactsScreen.c"
  28              		.loc 1 23 0
  29              		.cfi_startproc
  30              		@ args = 0, pretend = 0, frame = 152
  31              		@ frame_needed = 0, uses_anonymous_args = 0
  32              	.LVL0:
  33 0000 2DE9F04F 		push	{r4, r5, r6, r7, r8, r9, sl, fp, lr}
  34              	.LCFI0:
  35              		.cfi_def_cfa_offset 36
  36              		.cfi_offset 4, -36
  37              		.cfi_offset 5, -32
  38              		.cfi_offset 6, -28
  39              		.cfi_offset 7, -24
  40              		.cfi_offset 8, -20
  41              		.cfi_offset 9, -16
  42              		.cfi_offset 10, -12
  43              		.cfi_offset 11, -8
  44              		.cfi_offset 14, -4
  45 0004 A7B0     		sub	sp, sp, #156
  46              	.LCFI1:
  47              		.cfi_def_cfa_offset 192
  48              		.loc 1 23 0
  49 0006 8046     		mov	r8, r0
  50              		.loc 1 38 0
  51 0008 05A8     		add	r0, sp, #20
  52              	.LVL1:
  53              		.loc 1 46 0
  54 000a 0DAC     		add	r4, sp, #52
  55              		.loc 1 23 0
  56 000c 0391     		str	r1, [sp, #12]
  57 000e 1546     		mov	r5, r2
ARM GAS  C:\Users\Elis\AppData\Local\Temp\ccGbXKEy.s 			page 2


  58              		.loc 1 38 0
  59 0010 FFF7FEFF 		bl	gwinWidgetClearInit
  60              	.LVL2:
  61              		.loc 1 42 0
  62 0014 7F20     		movs	r0, #127
  63 0016 FFF7FEFF 		bl	chThdSetPriority
  64              	.LVL3:
  65              		.loc 1 46 0
  66 001a 0021     		movs	r1, #0
  67 001c 6422     		movs	r2, #100
  68 001e 2046     		mov	r0, r4
  69 0020 FFF7FEFF 		bl	memset
  70              	.LVL4:
  71 0024 2046     		mov	r0, r4
  72 0026 FFF7FEFF 		bl	strlen
  73              	.LVL5:
  74 002a B84E     		ldr	r6, .L28
  75 002c 0246     		mov	r2, r0
  76 002e 03CE     		ldmia	r6!, {r0, r1}
  77 0030 B146     		mov	r9, r6
  78 0032 A318     		adds	r3, r4, r2
  79 0034 19F80879 		ldrb	r7, [r9], #-8	@ zero_extendqisi2
  80 0038 A050     		str	r0, [r4, r2]	@ unaligned
  81 003a 5960     		str	r1, [r3, #4]	@ unaligned
  82 003c 1F72     		strb	r7, [r3, #8]
  83 003e 6422     		movs	r2, #100
  84 0040 2046     		mov	r0, r4
  85 0042 4146     		mov	r1, r8
  86 0044 FFF7FEFF 		bl	strlcat
  87              	.LVL6:
  88 0048 6422     		movs	r2, #100
  89 004a 2046     		mov	r0, r4
  90 004c B049     		ldr	r1, .L28+4
  91 004e FFF7FEFF 		bl	strlcat
  92              	.LVL7:
  93              		.loc 1 48 0
  94 0052 2046     		mov	r0, r4
  95 0054 AF49     		ldr	r1, .L28+8
  96 0056 FFF7FEFF 		bl	gfileOpen
  97              	.LVL8:
  98              		.loc 1 50 0
  99 005a 0021     		movs	r1, #0
 100              		.loc 1 48 0
 101 005c 0346     		mov	r3, r0
 102              	.LVL9:
 103              		.loc 1 50 0
 104 005e 6422     		movs	r2, #100
 105 0060 2046     		mov	r0, r4
 106              	.LVL10:
 107 0062 0193     		str	r3, [sp, #4]
 108 0064 FFF7FEFF 		bl	memset
 109              	.LVL11:
 110 0068 2046     		mov	r0, r4
 111 006a FFF7FEFF 		bl	strlen
 112              	.LVL12:
 113 006e 0246     		mov	r2, r0
 114 0070 B9E80300 		ldmia	r9!, {r0, r1}
ARM GAS  C:\Users\Elis\AppData\Local\Temp\ccGbXKEy.s 			page 3


 115 0074 04EB020E 		add	lr, r4, r2
 116 0078 A050     		str	r0, [r4, r2]	@ unaligned
 117 007a CEF80410 		str	r1, [lr, #4]	@ unaligned
 118 007e 8EF80870 		strb	r7, [lr, #8]
 119 0082 6422     		movs	r2, #100
 120 0084 2046     		mov	r0, r4
 121 0086 4146     		mov	r1, r8
 122 0088 FFF7FEFF 		bl	strlcat
 123              	.LVL13:
 124 008c 6422     		movs	r2, #100
 125 008e 2046     		mov	r0, r4
 126 0090 A149     		ldr	r1, .L28+12
 127 0092 FFF7FEFF 		bl	strlcat
 128              	.LVL14:
 129              		.loc 1 52 0
 130 0096 2046     		mov	r0, r4
 131 0098 9E49     		ldr	r1, .L28+8
 132 009a FFF7FEFF 		bl	gfileOpen
 133              	.LVL15:
 134              		.loc 1 54 0
 135 009e 0021     		movs	r1, #0
 136 00a0 6422     		movs	r2, #100
 137              		.loc 1 52 0
 138 00a2 8346     		mov	fp, r0
 139              	.LVL16:
 140              		.loc 1 54 0
 141 00a4 2046     		mov	r0, r4
 142              	.LVL17:
 143 00a6 FFF7FEFF 		bl	memset
 144              	.LVL18:
 145 00aa 2046     		mov	r0, r4
 146 00ac FFF7FEFF 		bl	strlen
 147              	.LVL19:
 148 00b0 A6F10803 		sub	r3, r6, #8
 149 00b4 8446     		mov	ip, r0
 150 00b6 03CB     		ldmia	r3!, {r0, r1}
 151 00b8 04EB0C0A 		add	sl, r4, ip
 152 00bc 44F80C00 		str	r0, [r4, ip]	@ unaligned
 153 00c0 6422     		movs	r2, #100
 154 00c2 CAF80410 		str	r1, [sl, #4]	@ unaligned
 155 00c6 8AF80870 		strb	r7, [sl, #8]
 156 00ca 2046     		mov	r0, r4
 157 00cc 4146     		mov	r1, r8
 158 00ce FFF7FEFF 		bl	strlcat
 159              	.LVL20:
 160 00d2 6422     		movs	r2, #100
 161 00d4 2046     		mov	r0, r4
 162 00d6 9149     		ldr	r1, .L28+16
 163 00d8 FFF7FEFF 		bl	strlcat
 164              	.LVL21:
 165              		.loc 1 56 0
 166 00dc 2046     		mov	r0, r4
 167 00de 8D49     		ldr	r1, .L28+8
 168 00e0 FFF7FEFF 		bl	gfileOpen
 169              	.LVL22:
 170              		.loc 1 58 0
 171 00e4 0021     		movs	r1, #0
ARM GAS  C:\Users\Elis\AppData\Local\Temp\ccGbXKEy.s 			page 4


 172 00e6 6422     		movs	r2, #100
 173              		.loc 1 56 0
 174 00e8 8246     		mov	sl, r0
 175              	.LVL23:
 176              		.loc 1 58 0
 177 00ea 2046     		mov	r0, r4
 178              	.LVL24:
 179 00ec FFF7FEFF 		bl	memset
 180              	.LVL25:
 181 00f0 2046     		mov	r0, r4
 182 00f2 FFF7FEFF 		bl	strlen
 183              	.LVL26:
 184 00f6 083E     		subs	r6, r6, #8
 185 00f8 0246     		mov	r2, r0
 186 00fa 03CE     		ldmia	r6!, {r0, r1}
 187 00fc A618     		adds	r6, r4, r2
 188 00fe A050     		str	r0, [r4, r2]	@ unaligned
 189 0100 6422     		movs	r2, #100
 190 0102 7160     		str	r1, [r6, #4]	@ unaligned
 191 0104 2046     		mov	r0, r4
 192 0106 4146     		mov	r1, r8
 193 0108 3772     		strb	r7, [r6, #8]
 194 010a FFF7FEFF 		bl	strlcat
 195              	.LVL27:
 196 010e 2046     		mov	r0, r4
 197 0110 8349     		ldr	r1, .L28+20
 198 0112 6422     		movs	r2, #100
 199 0114 FFF7FEFF 		bl	strlcat
 200              	.LVL28:
 201              		.loc 1 60 0
 202 0118 2046     		mov	r0, r4
 203 011a 7E49     		ldr	r1, .L28+8
 204 011c FFF7FEFF 		bl	gfileOpen
 205              	.LVL29:
 206 0120 0290     		str	r0, [sp, #8]
 207              	.LVL30:
 208              		.loc 1 64 0
 209 0122 0120     		movs	r0, #1
 210              	.LVL31:
 211 0124 8DF81C00 		strb	r0, [sp, #28]
 212              		.loc 1 70 0
 213 0128 7E4B     		ldr	r3, .L28+24
 214              		.loc 1 72 0
 215 012a 0198     		ldr	r0, [sp, #4]
 216              		.loc 1 70 0
 217 012c 0993     		str	r3, [sp, #36]
 218              		.loc 1 65 0
 219 012e 0024     		movs	r4, #0
 220              		.loc 1 67 0
 221 0130 F021     		movs	r1, #240
 222              		.loc 1 68 0
 223 0132 4FF4A077 		mov	r7, #320
 224              		.loc 1 65 0
 225 0136 ADF81440 		strh	r4, [sp, #20]	@ movhi
 226              		.loc 1 66 0
 227 013a ADF81640 		strh	r4, [sp, #22]	@ movhi
 228              		.loc 1 67 0
ARM GAS  C:\Users\Elis\AppData\Local\Temp\ccGbXKEy.s 			page 5


 229 013e ADF81810 		strh	r1, [sp, #24]	@ movhi
 230              		.loc 1 68 0
 231 0142 ADF81A70 		strh	r7, [sp, #26]	@ movhi
 232              		.loc 1 69 0
 233 0146 0894     		str	r4, [sp, #32]
 234              		.loc 1 72 0
 235 0148 0028     		cmp	r0, #0
 236 014a 00F00F81 		beq	.L24
 237              		.loc 1 81 0
 238 014e 764E     		ldr	r6, .L28+28
 239 0150 0146     		mov	r1, r0
 240 0152 3046     		mov	r0, r6
 241 0154 FFF7FEFF 		bl	gdispImageOpenGFile
 242              	.LVL32:
 243              		.loc 1 82 0
 244 0158 744A     		ldr	r2, .L28+32
 245              		.loc 1 83 0
 246 015a 0B96     		str	r6, [sp, #44]
 247              		.loc 1 82 0
 248 015c 0A92     		str	r2, [sp, #40]
 249              		.loc 1 84 0
 250 015e 0C94     		str	r4, [sp, #48]
 251              	.L3:
 252              		.loc 1 88 0
 253 0160 734F     		ldr	r7, .L28+36
 254 0162 DFF8F481 		ldr	r8, .L28+76
 255              	.LVL33:
 256 0166 3868     		ldr	r0, [r7, #0]
 257              		.loc 1 103 0
 258 0168 724C     		ldr	r4, .L28+40
 259              		.loc 1 88 0
 260 016a 0021     		movs	r1, #0
 261 016c 0B46     		mov	r3, r1
 262 016e 05AA     		add	r2, sp, #20
 263 0170 FFF7FEFF 		bl	gwinGContainerCreate
 264              	.LVL34:
 265              		.loc 1 93 0
 266 0174 4FF00A0C 		mov	ip, #10
 267              		.loc 1 88 0
 268 0178 8646     		mov	lr, r0
 269              		.loc 1 99 0
 270 017a 0026     		movs	r6, #0
 271              		.loc 1 88 0
 272 017c C8F800E0 		str	lr, [r8, #0]
 273              		.loc 1 93 0
 274 0180 ADF814C0 		strh	ip, [sp, #20]	@ movhi
 275              		.loc 1 94 0
 276 0184 ADF816C0 		strh	ip, [sp, #22]	@ movhi
 277              		.loc 1 97 0
 278 0188 CDF820E0 		str	lr, [sp, #32]
 279              		.loc 1 95 0
 280 018c 4FF0DC0C 		mov	ip, #220
 281              		.loc 1 98 0
 282 0190 DFF8C8E1 		ldr	lr, .L28+80
 283              		.loc 1 95 0
 284 0194 ADF818C0 		strh	ip, [sp, #24]	@ movhi
 285              		.loc 1 103 0
ARM GAS  C:\Users\Elis\AppData\Local\Temp\ccGbXKEy.s 			page 6


 286 0198 05AA     		add	r2, sp, #20
 287 019a 3346     		mov	r3, r6
 288              		.loc 1 96 0
 289 019c 4FF0C80C 		mov	ip, #200
 290              		.loc 1 92 0
 291 01a0 4FF00109 		mov	r9, #1
 292              		.loc 1 103 0
 293 01a4 3146     		mov	r1, r6
 294 01a6 3868     		ldr	r0, [r7, #0]
 295              		.loc 1 96 0
 296 01a8 ADF81AC0 		strh	ip, [sp, #26]	@ movhi
 297              		.loc 1 98 0
 298 01ac CDF824E0 		str	lr, [sp, #36]
 299              		.loc 1 92 0
 300 01b0 8DF81C90 		strb	r9, [sp, #28]
 301              		.loc 1 99 0
 302 01b4 0A96     		str	r6, [sp, #40]
 303              		.loc 1 100 0
 304 01b6 0B96     		str	r6, [sp, #44]
 305              		.loc 1 101 0
 306 01b8 0C96     		str	r6, [sp, #48]
 307              		.loc 1 103 0
 308 01ba FFF7FEFF 		bl	gwinGListCreate
 309              	.LVL35:
 310              		.loc 1 107 0
 311 01be 0221     		movs	r1, #2
 312              		.loc 1 103 0
 313 01c0 2060     		str	r0, [r4, #0]
 314              		.loc 1 107 0
 315 01c2 FFF7FEFF 		bl	gwinListSetScroll
 316              	.LVL36:
 317              		.loc 1 116 0
 318 01c6 D8F80000 		ldr	r0, [r8, #0]
 319              		.loc 1 111 0
 320 01ca 8DF81C90 		strb	r9, [sp, #28]
 321              		.loc 1 114 0
 322 01ce 3C23     		movs	r3, #60
 323              		.loc 1 112 0
 324 01d0 5A22     		movs	r2, #90
 325              		.loc 1 113 0
 326 01d2 F021     		movs	r1, #240
 327              		.loc 1 112 0
 328 01d4 ADF81420 		strh	r2, [sp, #20]	@ movhi
 329              		.loc 1 113 0
 330 01d8 ADF81610 		strh	r1, [sp, #22]	@ movhi
 331              		.loc 1 114 0
 332 01dc ADF81830 		strh	r3, [sp, #24]	@ movhi
 333              		.loc 1 115 0
 334 01e0 ADF81A30 		strh	r3, [sp, #26]	@ movhi
 335              		.loc 1 116 0
 336 01e4 0890     		str	r0, [sp, #32]
 337              		.loc 1 118 0
 338 01e6 BBF1000F 		cmp	fp, #0
 339 01ea 00F0D780 		beq	.L25
 340              		.loc 1 128 0
 341 01ee 524B     		ldr	r3, .L28+44
 342 01f0 5946     		mov	r1, fp
ARM GAS  C:\Users\Elis\AppData\Local\Temp\ccGbXKEy.s 			page 7


 343 01f2 1846     		mov	r0, r3
 344 01f4 0193     		str	r3, [sp, #4]
 345 01f6 FFF7FEFF 		bl	gdispImageOpenGFile
 346              	.LVL37:
 347              		.loc 1 129 0
 348 01fa 5048     		ldr	r0, .L28+48
 349              		.loc 1 130 0
 350 01fc 019A     		ldr	r2, [sp, #4]
 351              		.loc 1 132 0
 352 01fe 5049     		ldr	r1, .L28+52
 353              		.loc 1 129 0
 354 0200 0A90     		str	r0, [sp, #40]
 355              		.loc 1 130 0
 356 0202 0B92     		str	r2, [sp, #44]
 357              		.loc 1 131 0
 358 0204 0C96     		str	r6, [sp, #48]
 359              		.loc 1 132 0
 360 0206 0991     		str	r1, [sp, #36]
 361              	.L5:
 362              		.loc 1 136 0
 363 0208 0021     		movs	r1, #0
 364 020a 05AA     		add	r2, sp, #20
 365 020c 3868     		ldr	r0, [r7, #0]
 366 020e FFF7FEFF 		bl	gwinGButtonCreate
 367              	.LVL38:
 368 0212 4C49     		ldr	r1, .L28+56
 369              		.loc 1 145 0
 370 0214 D8F80020 		ldr	r2, [r8, #0]
 371              		.loc 1 136 0
 372 0218 0860     		str	r0, [r1, #0]
 373              		.loc 1 140 0
 374 021a 0120     		movs	r0, #1
 375              		.loc 1 143 0
 376 021c 3C23     		movs	r3, #60
 377              		.loc 1 140 0
 378 021e 8DF81C00 		strb	r0, [sp, #28]
 379              		.loc 1 141 0
 380 0222 0A21     		movs	r1, #10
 381              		.loc 1 142 0
 382 0224 F020     		movs	r0, #240
 383              		.loc 1 141 0
 384 0226 ADF81410 		strh	r1, [sp, #20]	@ movhi
 385              		.loc 1 142 0
 386 022a ADF81600 		strh	r0, [sp, #22]	@ movhi
 387              		.loc 1 143 0
 388 022e ADF81830 		strh	r3, [sp, #24]	@ movhi
 389              		.loc 1 144 0
 390 0232 ADF81A30 		strh	r3, [sp, #26]	@ movhi
 391              		.loc 1 145 0
 392 0236 0892     		str	r2, [sp, #32]
 393              		.loc 1 147 0
 394 0238 BAF1000F 		cmp	sl, #0
 395 023c 00F0A580 		beq	.L26
 396              		.loc 1 157 0
 397 0240 414E     		ldr	r6, .L28+60
 398 0242 5146     		mov	r1, sl
 399 0244 3046     		mov	r0, r6
ARM GAS  C:\Users\Elis\AppData\Local\Temp\ccGbXKEy.s 			page 8


 400 0246 FFF7FEFF 		bl	gdispImageOpenGFile
 401              	.LVL39:
 402              		.loc 1 158 0
 403 024a 3C4A     		ldr	r2, .L28+48
 404              		.loc 1 161 0
 405 024c 3C49     		ldr	r1, .L28+52
 406              		.loc 1 158 0
 407 024e 0A92     		str	r2, [sp, #40]
 408              		.loc 1 160 0
 409 0250 0023     		movs	r3, #0
 410              		.loc 1 159 0
 411 0252 0B96     		str	r6, [sp, #44]
 412              		.loc 1 160 0
 413 0254 0C93     		str	r3, [sp, #48]
 414              		.loc 1 161 0
 415 0256 0991     		str	r1, [sp, #36]
 416              	.L7:
 417              		.loc 1 165 0
 418 0258 0021     		movs	r1, #0
 419 025a 05AA     		add	r2, sp, #20
 420 025c 3868     		ldr	r0, [r7, #0]
 421 025e FFF7FEFF 		bl	gwinGButtonCreate
 422              	.LVL40:
 423              		.loc 1 174 0
 424 0262 D8F80020 		ldr	r2, [r8, #0]
 425              		.loc 1 165 0
 426 0266 3949     		ldr	r1, .L28+64
 427              		.loc 1 174 0
 428 0268 0892     		str	r2, [sp, #32]
 429              		.loc 1 169 0
 430 026a 0123     		movs	r3, #1
 431              		.loc 1 176 0
 432 026c 029A     		ldr	r2, [sp, #8]
 433              		.loc 1 165 0
 434 026e 0860     		str	r0, [r1, #0]
 435              		.loc 1 169 0
 436 0270 8DF81C30 		strb	r3, [sp, #28]
 437              		.loc 1 172 0
 438 0274 3C20     		movs	r0, #60
 439              		.loc 1 170 0
 440 0276 AA21     		movs	r1, #170
 441              		.loc 1 171 0
 442 0278 F023     		movs	r3, #240
 443              		.loc 1 170 0
 444 027a ADF81410 		strh	r1, [sp, #20]	@ movhi
 445              		.loc 1 171 0
 446 027e ADF81630 		strh	r3, [sp, #22]	@ movhi
 447              		.loc 1 172 0
 448 0282 ADF81800 		strh	r0, [sp, #24]	@ movhi
 449              		.loc 1 173 0
 450 0286 ADF81A00 		strh	r0, [sp, #26]	@ movhi
 451              		.loc 1 176 0
 452 028a 002A     		cmp	r2, #0
 453 028c 74D0     		beq	.L27
 454              		.loc 1 186 0
 455 028e 304E     		ldr	r6, .L28+68
 456 0290 0299     		ldr	r1, [sp, #8]
ARM GAS  C:\Users\Elis\AppData\Local\Temp\ccGbXKEy.s 			page 9


 457 0292 3046     		mov	r0, r6
 458 0294 FFF7FEFF 		bl	gdispImageOpenGFile
 459              	.LVL41:
 460              		.loc 1 187 0
 461 0298 2848     		ldr	r0, .L28+48
 462              		.loc 1 190 0
 463 029a 294B     		ldr	r3, .L28+52
 464              		.loc 1 187 0
 465 029c 0A90     		str	r0, [sp, #40]
 466              		.loc 1 189 0
 467 029e 0021     		movs	r1, #0
 468              		.loc 1 188 0
 469 02a0 0B96     		str	r6, [sp, #44]
 470              		.loc 1 189 0
 471 02a2 0C91     		str	r1, [sp, #48]
 472              		.loc 1 190 0
 473 02a4 0993     		str	r3, [sp, #36]
 474              	.L9:
 475              		.loc 1 194 0
 476 02a6 0021     		movs	r1, #0
 477 02a8 05AA     		add	r2, sp, #20
 478 02aa 3868     		ldr	r0, [r7, #0]
 479 02ac FFF7FEFF 		bl	gwinGButtonCreate
 480              	.LVL42:
 481 02b0 284A     		ldr	r2, .L28+72
 482              		.loc 1 198 0
 483 02b2 002D     		cmp	r5, #0
 484              		.loc 1 194 0
 485 02b4 1060     		str	r0, [r2, #0]
 486              	.LVL43:
 487              		.loc 1 198 0
 488 02b6 53DD     		ble	.L12
 489 02b8 039F     		ldr	r7, [sp, #12]
 490              		.loc 1 200 0
 491 02ba 2068     		ldr	r0, [r4, #0]
 492 02bc 3968     		ldr	r1, [r7, #0]
 493 02be 0126     		movs	r6, #1
 494 02c0 6B1E     		subs	r3, r5, #1
 495 02c2 3246     		mov	r2, r6
 496 02c4 03EA0608 		and	r8, r3, r6
 497 02c8 FFF7FEFF 		bl	gwinListAddItem
 498              	.LVL44:
 499              		.loc 1 198 0
 500 02cc AE42     		cmp	r6, r5
 501 02ce 47D0     		beq	.L12
 502 02d0 B8F1000F 		cmp	r8, #0
 503 02d4 08D0     		beq	.L11
 504              		.loc 1 200 0
 505 02d6 3246     		mov	r2, r6
 506 02d8 2068     		ldr	r0, [r4, #0]
 507 02da 57F8041F 		ldr	r1, [r7, #4]!
 508              		.loc 1 198 0
 509 02de 0226     		movs	r6, #2
 510              		.loc 1 200 0
 511 02e0 FFF7FEFF 		bl	gwinListAddItem
 512              	.LVL45:
 513              		.loc 1 198 0
ARM GAS  C:\Users\Elis\AppData\Local\Temp\ccGbXKEy.s 			page 10


 514 02e4 AE42     		cmp	r6, r5
 515 02e6 3BD0     		beq	.L12
 516              	.L11:
 517              		.loc 1 200 0 discriminator 2
 518 02e8 0122     		movs	r2, #1
 519 02ea 7968     		ldr	r1, [r7, #4]
 520 02ec 2068     		ldr	r0, [r4, #0]
 521              		.loc 1 198 0 discriminator 2
 522 02ee B618     		adds	r6, r6, r2
 523 02f0 0136     		adds	r6, r6, #1
 524              		.loc 1 200 0 discriminator 2
 525 02f2 FFF7FEFF 		bl	gwinListAddItem
 526              	.LVL46:
 527 02f6 B968     		ldr	r1, [r7, #8]
 528 02f8 2068     		ldr	r0, [r4, #0]
 529 02fa 0122     		movs	r2, #1
 530 02fc 07F10408 		add	r8, r7, #4
 531 0300 FFF7FEFF 		bl	gwinListAddItem
 532              	.LVL47:
 533 0304 0837     		adds	r7, r7, #8
 534              		.loc 1 198 0 discriminator 2
 535 0306 AE42     		cmp	r6, r5
 536 0308 EED1     		bne	.L11
 537 030a 29E0     		b	.L29
 538              	.L30:
 539              		.align	2
 540              	.L28:
 541 030c 00000000 		.word	.LC0
 542 0310 0C000000 		.word	.LC1
 543 0314 28000000 		.word	.LC2
 544 0318 2C000000 		.word	.LC3
 545 031c 44000000 		.word	.LC4
 546 0320 5C000000 		.word	.LC5
 547 0324 74000000 		.word	.LC6
 548 0328 00000000 		.word	.LANCHOR0
 549 032c 00000000 		.word	gwinContainerDraw_Image
 550 0330 00000000 		.word	GDISP
 551 0334 00000000 		.word	.LANCHOR2
 552 0338 00000000 		.word	.LANCHOR3
 553 033c 00000000 		.word	gwinButtonDraw_Image
 554 0340 94000000 		.word	.LC9
 555 0344 00000000 		.word	.LANCHOR4
 556 0348 00000000 		.word	.LANCHOR5
 557 034c 00000000 		.word	.LANCHOR6
 558 0350 00000000 		.word	.LANCHOR7
 559 0354 00000000 		.word	.LANCHOR8
 560 0358 00000000 		.word	.LANCHOR1
 561 035c 80000000 		.word	.LC7
 562              	.L29:
 563              	.L12:
 564              		.loc 1 206 0
 565 0360 4020     		movs	r0, #64
 566 0362 FFF7FEFF 		bl	chThdSetPriority
 567              	.LVL48:
 568              		.loc 1 208 0
 569 0366 27B0     		add	sp, sp, #156
 570 0368 BDE8F08F 		pop	{r4, r5, r6, r7, r8, r9, sl, fp, pc}
ARM GAS  C:\Users\Elis\AppData\Local\Temp\ccGbXKEy.s 			page 11


 571              	.LVL49:
 572              	.L24:
 573              		.loc 1 74 0
 574 036c 104C     		ldr	r4, .L31
 575              		.loc 1 75 0
 576 036e 1149     		ldr	r1, .L31+4
 577              		.loc 1 74 0
 578 0370 0A94     		str	r4, [sp, #40]
 579              		.loc 1 75 0
 580 0372 0C91     		str	r1, [sp, #48]
 581              		.loc 1 76 0
 582 0374 0B90     		str	r0, [sp, #44]
 583 0376 F3E6     		b	.L3
 584              	.LVL50:
 585              	.L27:
 586              		.loc 1 178 0
 587 0378 0F4A     		ldr	r2, .L31+8
 588              		.loc 1 179 0
 589 037a 0E48     		ldr	r0, .L31+4
 590              		.loc 1 180 0
 591 037c 0299     		ldr	r1, [sp, #8]
 592              		.loc 1 181 0
 593 037e 0F4B     		ldr	r3, .L31+12
 594              		.loc 1 178 0
 595 0380 0A92     		str	r2, [sp, #40]
 596              		.loc 1 179 0
 597 0382 0C90     		str	r0, [sp, #48]
 598              		.loc 1 180 0
 599 0384 0B91     		str	r1, [sp, #44]
 600              		.loc 1 181 0
 601 0386 0993     		str	r3, [sp, #36]
 602 0388 8DE7     		b	.L9
 603              	.L26:
 604              		.loc 1 149 0
 605 038a 0B48     		ldr	r0, .L31+8
 606              		.loc 1 150 0
 607 038c 094A     		ldr	r2, .L31+4
 608              		.loc 1 152 0
 609 038e 0C4B     		ldr	r3, .L31+16
 610              		.loc 1 149 0
 611 0390 0A90     		str	r0, [sp, #40]
 612              		.loc 1 150 0
 613 0392 0C92     		str	r2, [sp, #48]
 614              		.loc 1 151 0
 615 0394 CDF82CA0 		str	sl, [sp, #44]
 616              		.loc 1 152 0
 617 0398 0993     		str	r3, [sp, #36]
 618 039a 5DE7     		b	.L7
 619              	.L25:
 620              		.loc 1 120 0
 621 039c 064B     		ldr	r3, .L31+8
 622              		.loc 1 121 0
 623 039e 0548     		ldr	r0, .L31+4
 624              		.loc 1 123 0
 625 03a0 084A     		ldr	r2, .L31+20
 626              		.loc 1 120 0
 627 03a2 0A93     		str	r3, [sp, #40]
ARM GAS  C:\Users\Elis\AppData\Local\Temp\ccGbXKEy.s 			page 12


 628              		.loc 1 121 0
 629 03a4 0C90     		str	r0, [sp, #48]
 630              		.loc 1 122 0
 631 03a6 CDF82CB0 		str	fp, [sp, #44]
 632              		.loc 1 123 0
 633 03aa 0992     		str	r2, [sp, #36]
 634 03ac 2CE7     		b	.L5
 635              	.L32:
 636 03ae 00BF     		.align	2
 637              	.L31:
 638 03b0 00000000 		.word	gwinContainerDraw_Std
 639 03b4 00000000 		.word	WhiteWidgetStyle
 640 03b8 00000000 		.word	gwinButtonDraw_Normal
 641 03bc 9C000000 		.word	.LC11
 642 03c0 98000000 		.word	.LC10
 643 03c4 8C000000 		.word	.LC8
 644              		.cfi_endproc
 645              	.LFE118:
 646              		.size	createContactsScreen, .-createContactsScreen
 647 03c8 AFF30080 		.section	.text.destroyContactsScreen,"ax",%progbits
 647      AFF30080 
 648              		.align	2
 649              		.p2align 4,,15
 650              		.global	destroyContactsScreen
 651              		.thumb
 652              		.thumb_func
 653              		.type	destroyContactsScreen, %function
 654              	destroyContactsScreen:
 655              	.LFB119:
 656              		.loc 1 210 0
 657              		.cfi_startproc
 658              		@ args = 0, pretend = 0, frame = 0
 659              		@ frame_needed = 0, uses_anonymous_args = 0
 660 0000 08B5     		push	{r3, lr}
 661              	.LCFI2:
 662              		.cfi_def_cfa_offset 8
 663              		.cfi_offset 3, -8
 664              		.cfi_offset 14, -4
 665              		.loc 1 214 0
 666 0002 7F20     		movs	r0, #127
 667 0004 FFF7FEFF 		bl	chThdSetPriority
 668              	.LVL51:
 669              		.loc 1 218 0
 670 0008 40F20000 		movw	r0, #:lower16:.LANCHOR0
 671 000c C0F20000 		movt	r0, #:upper16:.LANCHOR0
 672 0010 FFF7FEFF 		bl	gdispImageClose
 673              	.LVL52:
 674              		.loc 1 220 0
 675 0014 40F20000 		movw	r0, #:lower16:.LANCHOR3
 676 0018 C0F20000 		movt	r0, #:upper16:.LANCHOR3
 677 001c FFF7FEFF 		bl	gdispImageClose
 678              	.LVL53:
 679              		.loc 1 222 0
 680 0020 40F20000 		movw	r0, #:lower16:.LANCHOR5
 681 0024 C0F20000 		movt	r0, #:upper16:.LANCHOR5
 682 0028 FFF7FEFF 		bl	gdispImageClose
 683              	.LVL54:
ARM GAS  C:\Users\Elis\AppData\Local\Temp\ccGbXKEy.s 			page 13


 684              		.loc 1 224 0
 685 002c 40F20000 		movw	r0, #:lower16:.LANCHOR7
 686 0030 C0F20000 		movt	r0, #:upper16:.LANCHOR7
 687 0034 FFF7FEFF 		bl	gdispImageClose
 688              	.LVL55:
 689              		.loc 1 228 0
 690 0038 40F20003 		movw	r3, #:lower16:.LANCHOR1
 691 003c C0F20003 		movt	r3, #:upper16:.LANCHOR1
 692 0040 1868     		ldr	r0, [r3, #0]
 693 0042 FFF7FEFF 		bl	gwinDestroy
 694              	.LVL56:
 695              		.loc 1 232 0
 696 0046 4020     		movs	r0, #64
 697              		.loc 1 234 0
 698 0048 BDE80840 		pop	{r3, lr}
 699              		.loc 1 232 0
 700 004c FFF7FEBF 		b	chThdSetPriority
 701              	.LVL57:
 702              		.cfi_endproc
 703              	.LFE119:
 704              		.size	destroyContactsScreen, .-destroyContactsScreen
 705              		.section	.text.createContactAddScreen,"ax",%progbits
 706              		.align	2
 707              		.p2align 4,,15
 708              		.global	createContactAddScreen
 709              		.thumb
 710              		.thumb_func
 711              		.type	createContactAddScreen, %function
 712              	createContactAddScreen:
 713              	.LFB120:
 714              		.loc 1 236 0
 715              		.cfi_startproc
 716              		@ args = 0, pretend = 0, frame = 152
 717              		@ frame_needed = 0, uses_anonymous_args = 0
 718              	.LVL58:
 719 0000 2DE9F04F 		push	{r4, r5, r6, r7, r8, r9, sl, fp, lr}
 720              	.LCFI3:
 721              		.cfi_def_cfa_offset 36
 722              		.cfi_offset 4, -36
 723              		.cfi_offset 5, -32
 724              		.cfi_offset 6, -28
 725              		.cfi_offset 7, -24
 726              		.cfi_offset 8, -20
 727              		.cfi_offset 9, -16
 728              		.cfi_offset 10, -12
 729              		.cfi_offset 11, -8
 730              		.cfi_offset 14, -4
 731 0004 A7B0     		sub	sp, sp, #156
 732              	.LCFI4:
 733              		.cfi_def_cfa_offset 192
 734              		.loc 1 236 0
 735 0006 0746     		mov	r7, r0
 736              		.loc 1 248 0
 737 0008 05A8     		add	r0, sp, #20
 738              	.LVL59:
 739              		.loc 1 256 0
 740 000a 0DAC     		add	r4, sp, #52
ARM GAS  C:\Users\Elis\AppData\Local\Temp\ccGbXKEy.s 			page 14


 741              		.loc 1 248 0
 742 000c FFF7FEFF 		bl	gwinWidgetClearInit
 743              	.LVL60:
 744              		.loc 1 252 0
 745 0010 7F20     		movs	r0, #127
 746 0012 FFF7FEFF 		bl	chThdSetPriority
 747              	.LVL61:
 748              		.loc 1 256 0
 749 0016 0021     		movs	r1, #0
 750 0018 6422     		movs	r2, #100
 751 001a 2046     		mov	r0, r4
 752 001c FFF7FEFF 		bl	memset
 753              	.LVL62:
 754 0020 2046     		mov	r0, r4
 755 0022 FFF7FEFF 		bl	strlen
 756              	.LVL63:
 757 0026 BE4D     		ldr	r5, .L44
 758 0028 0246     		mov	r2, r0
 759 002a 03CD     		ldmia	r5!, {r0, r1}
 760 002c 2E46     		mov	r6, r5
 761 002e A318     		adds	r3, r4, r2
 762 0030 16F80899 		ldrb	r9, [r6], #-8	@ zero_extendqisi2
 763 0034 A050     		str	r0, [r4, r2]	@ unaligned
 764 0036 5960     		str	r1, [r3, #4]	@ unaligned
 765 0038 83F80890 		strb	r9, [r3, #8]
 766 003c 6422     		movs	r2, #100
 767 003e 3946     		mov	r1, r7
 768 0040 2046     		mov	r0, r4
 769 0042 FFF7FEFF 		bl	strlcat
 770              	.LVL64:
 771 0046 6422     		movs	r2, #100
 772 0048 2046     		mov	r0, r4
 773 004a B649     		ldr	r1, .L44+4
 774 004c FFF7FEFF 		bl	strlcat
 775              	.LVL65:
 776              		.loc 1 258 0
 777 0050 2046     		mov	r0, r4
 778 0052 B549     		ldr	r1, .L44+8
 779 0054 FFF7FEFF 		bl	gfileOpen
 780              	.LVL66:
 781              		.loc 1 260 0
 782 0058 0021     		movs	r1, #0
 783 005a 6422     		movs	r2, #100
 784              		.loc 1 258 0
 785 005c 8046     		mov	r8, r0
 786              	.LVL67:
 787              		.loc 1 260 0
 788 005e 2046     		mov	r0, r4
 789              	.LVL68:
 790 0060 FFF7FEFF 		bl	memset
 791              	.LVL69:
 792 0064 2046     		mov	r0, r4
 793 0066 FFF7FEFF 		bl	strlen
 794              	.LVL70:
 795 006a 0246     		mov	r2, r0
 796 006c 03CE     		ldmia	r6!, {r0, r1}
 797 006e A618     		adds	r6, r4, r2
ARM GAS  C:\Users\Elis\AppData\Local\Temp\ccGbXKEy.s 			page 15


 798 0070 A050     		str	r0, [r4, r2]	@ unaligned
 799 0072 6422     		movs	r2, #100
 800 0074 7160     		str	r1, [r6, #4]	@ unaligned
 801 0076 2046     		mov	r0, r4
 802 0078 3946     		mov	r1, r7
 803 007a 86F80890 		strb	r9, [r6, #8]
 804 007e FFF7FEFF 		bl	strlcat
 805              	.LVL71:
 806 0082 6422     		movs	r2, #100
 807 0084 2046     		mov	r0, r4
 808 0086 A949     		ldr	r1, .L44+12
 809 0088 FFF7FEFF 		bl	strlcat
 810              	.LVL72:
 811              		.loc 1 262 0
 812 008c 2046     		mov	r0, r4
 813 008e A649     		ldr	r1, .L44+8
 814 0090 FFF7FEFF 		bl	gfileOpen
 815              	.LVL73:
 816              		.loc 1 264 0
 817 0094 0021     		movs	r1, #0
 818 0096 6422     		movs	r2, #100
 819              		.loc 1 262 0
 820 0098 0290     		str	r0, [sp, #8]
 821              	.LVL74:
 822              		.loc 1 264 0
 823 009a 2046     		mov	r0, r4
 824              	.LVL75:
 825 009c FFF7FEFF 		bl	memset
 826              	.LVL76:
 827 00a0 2046     		mov	r0, r4
 828 00a2 FFF7FEFF 		bl	strlen
 829              	.LVL77:
 830 00a6 083D     		subs	r5, r5, #8
 831 00a8 0246     		mov	r2, r0
 832 00aa 03CD     		ldmia	r5!, {r0, r1}
 833 00ac A518     		adds	r5, r4, r2
 834 00ae A050     		str	r0, [r4, r2]	@ unaligned
 835 00b0 6422     		movs	r2, #100
 836 00b2 6960     		str	r1, [r5, #4]	@ unaligned
 837 00b4 2046     		mov	r0, r4
 838 00b6 3946     		mov	r1, r7
 839 00b8 85F80890 		strb	r9, [r5, #8]
 840 00bc FFF7FEFF 		bl	strlcat
 841              	.LVL78:
 842 00c0 6422     		movs	r2, #100
 843 00c2 2046     		mov	r0, r4
 844 00c4 9A49     		ldr	r1, .L44+16
 845 00c6 FFF7FEFF 		bl	strlcat
 846              	.LVL79:
 847              		.loc 1 266 0
 848 00ca 2046     		mov	r0, r4
 849 00cc 9649     		ldr	r1, .L44+8
 850 00ce FFF7FEFF 		bl	gfileOpen
 851              	.LVL80:
 852              		.loc 1 276 0
 853 00d2 984B     		ldr	r3, .L44+20
 854              		.loc 1 266 0
ARM GAS  C:\Users\Elis\AppData\Local\Temp\ccGbXKEy.s 			page 16


 855 00d4 0390     		str	r0, [sp, #12]
 856              	.LVL81:
 857              		.loc 1 271 0
 858 00d6 0027     		movs	r7, #0
 859              	.LVL82:
 860              		.loc 1 270 0
 861 00d8 0120     		movs	r0, #1
 862              	.LVL83:
 863              		.loc 1 274 0
 864 00da 4FF4A074 		mov	r4, #320
 865              		.loc 1 273 0
 866 00de F021     		movs	r1, #240
 867              		.loc 1 270 0
 868 00e0 8DF81C00 		strb	r0, [sp, #28]
 869              		.loc 1 271 0
 870 00e4 ADF81470 		strh	r7, [sp, #20]	@ movhi
 871              		.loc 1 272 0
 872 00e8 ADF81670 		strh	r7, [sp, #22]	@ movhi
 873              		.loc 1 273 0
 874 00ec ADF81810 		strh	r1, [sp, #24]	@ movhi
 875              		.loc 1 274 0
 876 00f0 ADF81A40 		strh	r4, [sp, #26]	@ movhi
 877              		.loc 1 275 0
 878 00f4 0897     		str	r7, [sp, #32]
 879              		.loc 1 276 0
 880 00f6 0993     		str	r3, [sp, #36]
 881              		.loc 1 278 0
 882 00f8 B8F1000F 		cmp	r8, #0
 883 00fc 00F03F84 		beq	.L41
 884              		.loc 1 287 0
 885 0100 8D4E     		ldr	r6, .L44+24
 886 0102 8E4A     		ldr	r2, .L44+28
 887              		.loc 1 288 0
 888 0104 8E4D     		ldr	r5, .L44+32
 889 0106 0192     		str	r2, [sp, #4]
 890              		.loc 1 287 0
 891 0108 3046     		mov	r0, r6
 892 010a 4146     		mov	r1, r8
 893 010c FFF7FEFF 		bl	gdispImageOpenGFile
 894              	.LVL84:
 895              		.loc 1 289 0
 896 0110 0B96     		str	r6, [sp, #44]
 897              		.loc 1 288 0
 898 0112 0A95     		str	r5, [sp, #40]
 899              		.loc 1 290 0
 900 0114 0C97     		str	r7, [sp, #48]
 901              	.L36:
 902              		.loc 1 294 0
 903 0116 8B4C     		ldr	r4, .L44+36
 904 0118 8B4F     		ldr	r7, .L44+40
 905 011a 2068     		ldr	r0, [r4, #0]
 906              		.loc 1 302 0
 907 011c DFF880A2 		ldr	sl, .L44+128
 908              		.loc 1 294 0
 909 0120 0021     		movs	r1, #0
 910 0122 0B46     		mov	r3, r1
 911 0124 05AA     		add	r2, sp, #20
ARM GAS  C:\Users\Elis\AppData\Local\Temp\ccGbXKEy.s 			page 17


 912 0126 FFF7FEFF 		bl	gwinGContainerCreate
 913              	.LVL85:
 914 012a 0346     		mov	r3, r0
 915 012c 3B60     		str	r3, [r7, #0]
 916              		.loc 1 303 0
 917 012e 0893     		str	r3, [sp, #32]
 918              		.loc 1 304 0
 919 0130 40F20003 		movw	r3, #:lower16:gwinButtonDraw_Normal
 920 0134 C0F20003 		movt	r3, #:upper16:gwinButtonDraw_Normal
 921 0138 0A93     		str	r3, [sp, #40]
 922              		.loc 1 305 0
 923 013a 019B     		ldr	r3, [sp, #4]
 924              		.loc 1 309 0
 925 013c 2068     		ldr	r0, [r4, #0]
 926              		.loc 1 305 0
 927 013e 0C93     		str	r3, [sp, #48]
 928              		.loc 1 301 0
 929 0140 4FF01409 		mov	r9, #20
 930              		.loc 1 306 0
 931 0144 0025     		movs	r5, #0
 932              		.loc 1 298 0
 933 0146 4FF00A0C 		mov	ip, #10
 934              		.loc 1 300 0
 935 014a DC26     		movs	r6, #220
 936              		.loc 1 307 0
 937 014c 0123     		movs	r3, #1
 938              		.loc 1 309 0
 939 014e 2946     		mov	r1, r5
 940 0150 0DEB0902 		add	r2, sp, r9
 941              		.loc 1 298 0
 942 0154 ADF816C0 		strh	ip, [sp, #22]	@ movhi
 943              		.loc 1 299 0
 944 0158 ADF814C0 		strh	ip, [sp, #20]	@ movhi
 945              		.loc 1 309 0
 946 015c CDF800C0 		str	ip, [sp, #0]
 947              		.loc 1 300 0
 948 0160 ADF81860 		strh	r6, [sp, #24]	@ movhi
 949              		.loc 1 302 0
 950 0164 CDF824A0 		str	sl, [sp, #36]
 951              		.loc 1 307 0
 952 0168 8DF81C30 		strb	r3, [sp, #28]
 953              		.loc 1 301 0
 954 016c ADF81A90 		strh	r9, [sp, #26]	@ movhi
 955              		.loc 1 306 0
 956 0170 0B95     		str	r5, [sp, #44]
 957              		.loc 1 309 0
 958 0172 FFF7FEFF 		bl	gwinGButtonCreate
 959              	.LVL86:
 960              		.loc 1 315 0
 961 0176 ADF81860 		strh	r6, [sp, #24]	@ movhi
 962              		.loc 1 317 0
 963 017a 744E     		ldr	r6, .L44+44
 964              		.loc 1 318 0
 965 017c 3B68     		ldr	r3, [r7, #0]
 966              		.loc 1 309 0
 967 017e 7449     		ldr	r1, .L44+48
 968              		.loc 1 317 0
ARM GAS  C:\Users\Elis\AppData\Local\Temp\ccGbXKEy.s 			page 18


 969 0180 0996     		str	r6, [sp, #36]
 970              		.loc 1 319 0
 971 0182 40F20006 		movw	r6, #:lower16:gwinButtonDraw_Normal
 972              		.loc 1 314 0
 973 0186 DDF800B0 		ldr	fp, [sp, #0]
 974              		.loc 1 318 0
 975 018a 0893     		str	r3, [sp, #32]
 976              		.loc 1 319 0
 977 018c C0F20006 		movt	r6, #:upper16:gwinButtonDraw_Normal
 978              		.loc 1 320 0
 979 0190 019B     		ldr	r3, [sp, #4]
 980              		.loc 1 309 0
 981 0192 0860     		str	r0, [r1, #0]
 982              		.loc 1 313 0
 983 0194 4FF0280E 		mov	lr, #40
 984              		.loc 1 324 0
 985 0198 2946     		mov	r1, r5
 986 019a 0DEB0902 		add	r2, sp, r9
 987              		.loc 1 319 0
 988 019e 0A96     		str	r6, [sp, #40]
 989              		.loc 1 324 0
 990 01a0 2068     		ldr	r0, [r4, #0]
 991              		.loc 1 313 0
 992 01a2 ADF816E0 		strh	lr, [sp, #22]	@ movhi
 993              		.loc 1 322 0
 994 01a6 0126     		movs	r6, #1
 995              		.loc 1 314 0
 996 01a8 ADF814B0 		strh	fp, [sp, #20]	@ movhi
 997              		.loc 1 320 0
 998 01ac 0C93     		str	r3, [sp, #48]
 999              		.loc 1 322 0
 1000 01ae 8DF81C60 		strb	r6, [sp, #28]
 1001              		.loc 1 316 0
 1002 01b2 ADF81A90 		strh	r9, [sp, #26]	@ movhi
 1003              		.loc 1 321 0
 1004 01b6 0B95     		str	r5, [sp, #44]
 1005              		.loc 1 324 0
 1006 01b8 FFF7FEFF 		bl	gwinGButtonCreate
 1007              	.LVL87:
 1008 01bc 654A     		ldr	r2, .L44+52
 1009              		.loc 1 332 0
 1010 01be 664B     		ldr	r3, .L44+56
 1011              		.loc 1 324 0
 1012 01c0 1060     		str	r0, [r2, #0]
 1013              		.loc 1 328 0
 1014 01c2 5A26     		movs	r6, #90
 1015              		.loc 1 329 0
 1016 01c4 4FF00B0B 		mov	fp, #11
 1017              		.loc 1 334 0
 1018 01c8 2946     		mov	r1, r5
 1019 01ca 0DEB0902 		add	r2, sp, r9
 1020 01ce 2068     		ldr	r0, [r4, #0]
 1021              		.loc 1 328 0
 1022 01d0 ADF81660 		strh	r6, [sp, #22]	@ movhi
 1023              		.loc 1 332 0
 1024 01d4 0993     		str	r3, [sp, #36]
 1025              		.loc 1 329 0
ARM GAS  C:\Users\Elis\AppData\Local\Temp\ccGbXKEy.s 			page 19


 1026 01d6 ADF814B0 		strh	fp, [sp, #20]	@ movhi
 1027              		.loc 1 330 0
 1028 01da ADF81890 		strh	r9, [sp, #24]	@ movhi
 1029              		.loc 1 331 0
 1030 01de ADF81A90 		strh	r9, [sp, #26]	@ movhi
 1031              		.loc 1 334 0
 1032 01e2 FFF7FEFF 		bl	gwinGButtonCreate
 1033              	.LVL88:
 1034 01e6 5D49     		ldr	r1, .L44+60
 1035              		.loc 1 340 0
 1036 01e8 5D4B     		ldr	r3, .L44+64
 1037              		.loc 1 334 0
 1038 01ea 0860     		str	r0, [r1, #0]
 1039              		.loc 1 337 0
 1040 01ec 4FF0210A 		mov	sl, #33
 1041              		.loc 1 342 0
 1042 01f0 2946     		mov	r1, r5
 1043 01f2 0DEB0902 		add	r2, sp, r9
 1044 01f6 2068     		ldr	r0, [r4, #0]
 1045              		.loc 1 336 0
 1046 01f8 ADF81660 		strh	r6, [sp, #22]	@ movhi
 1047              		.loc 1 340 0
 1048 01fc 0993     		str	r3, [sp, #36]
 1049              		.loc 1 337 0
 1050 01fe ADF814A0 		strh	sl, [sp, #20]	@ movhi
 1051              		.loc 1 338 0
 1052 0202 ADF81890 		strh	r9, [sp, #24]	@ movhi
 1053              		.loc 1 339 0
 1054 0206 ADF81A90 		strh	r9, [sp, #26]	@ movhi
 1055              		.loc 1 342 0
 1056 020a FFF7FEFF 		bl	gwinGButtonCreate
 1057              	.LVL89:
 1058              		.loc 1 345 0
 1059 020e 3723     		movs	r3, #55
 1060              		.loc 1 342 0
 1061 0210 544A     		ldr	r2, .L44+68
 1062              		.loc 1 345 0
 1063 0212 ADF81430 		strh	r3, [sp, #20]	@ movhi
 1064              		.loc 1 348 0
 1065 0216 544B     		ldr	r3, .L44+72
 1066              		.loc 1 342 0
 1067 0218 1060     		str	r0, [r2, #0]
 1068              		.loc 1 350 0
 1069 021a 2946     		mov	r1, r5
 1070 021c 0DEB0902 		add	r2, sp, r9
 1071 0220 2068     		ldr	r0, [r4, #0]
 1072              		.loc 1 344 0
 1073 0222 ADF81660 		strh	r6, [sp, #22]	@ movhi
 1074              		.loc 1 348 0
 1075 0226 0993     		str	r3, [sp, #36]
 1076              		.loc 1 346 0
 1077 0228 ADF81890 		strh	r9, [sp, #24]	@ movhi
 1078              		.loc 1 347 0
 1079 022c ADF81A90 		strh	r9, [sp, #26]	@ movhi
 1080              		.loc 1 350 0
 1081 0230 FFF7FEFF 		bl	gwinGButtonCreate
 1082              	.LVL90:
ARM GAS  C:\Users\Elis\AppData\Local\Temp\ccGbXKEy.s 			page 20


 1083              		.loc 1 353 0
 1084 0234 4D23     		movs	r3, #77
 1085              		.loc 1 350 0
 1086 0236 4D49     		ldr	r1, .L44+76
 1087              		.loc 1 353 0
 1088 0238 ADF81430 		strh	r3, [sp, #20]	@ movhi
 1089              		.loc 1 356 0
 1090 023c 4C4B     		ldr	r3, .L44+80
 1091              		.loc 1 350 0
 1092 023e 0860     		str	r0, [r1, #0]
 1093              		.loc 1 358 0
 1094 0240 0DEB0902 		add	r2, sp, r9
 1095 0244 2946     		mov	r1, r5
 1096 0246 2068     		ldr	r0, [r4, #0]
 1097              		.loc 1 352 0
 1098 0248 ADF81660 		strh	r6, [sp, #22]	@ movhi
 1099              		.loc 1 356 0
 1100 024c 0993     		str	r3, [sp, #36]
 1101              		.loc 1 354 0
 1102 024e ADF81890 		strh	r9, [sp, #24]	@ movhi
 1103              		.loc 1 355 0
 1104 0252 ADF81A90 		strh	r9, [sp, #26]	@ movhi
 1105              		.loc 1 358 0
 1106 0256 FFF7FEFF 		bl	gwinGButtonCreate
 1107              	.LVL91:
 1108              		.loc 1 361 0
 1109 025a 6323     		movs	r3, #99
 1110              		.loc 1 358 0
 1111 025c 454A     		ldr	r2, .L44+84
 1112              		.loc 1 361 0
 1113 025e ADF81430 		strh	r3, [sp, #20]	@ movhi
 1114              		.loc 1 364 0
 1115 0262 454B     		ldr	r3, .L44+88
 1116              		.loc 1 358 0
 1117 0264 1060     		str	r0, [r2, #0]
 1118              		.loc 1 366 0
 1119 0266 2946     		mov	r1, r5
 1120 0268 0DEB0902 		add	r2, sp, r9
 1121 026c 2068     		ldr	r0, [r4, #0]
 1122              		.loc 1 360 0
 1123 026e ADF81660 		strh	r6, [sp, #22]	@ movhi
 1124              		.loc 1 364 0
 1125 0272 0993     		str	r3, [sp, #36]
 1126              		.loc 1 362 0
 1127 0274 ADF81890 		strh	r9, [sp, #24]	@ movhi
 1128              		.loc 1 363 0
 1129 0278 ADF81A90 		strh	r9, [sp, #26]	@ movhi
 1130              		.loc 1 366 0
 1131 027c FFF7FEFF 		bl	gwinGButtonCreate
 1132              	.LVL92:
 1133              		.loc 1 369 0
 1134 0280 7923     		movs	r3, #121
 1135              		.loc 1 366 0
 1136 0282 3E49     		ldr	r1, .L44+92
 1137              		.loc 1 369 0
 1138 0284 ADF81430 		strh	r3, [sp, #20]	@ movhi
 1139              		.loc 1 372 0
ARM GAS  C:\Users\Elis\AppData\Local\Temp\ccGbXKEy.s 			page 21


 1140 0288 3D4B     		ldr	r3, .L44+96
 1141              		.loc 1 366 0
 1142 028a 0860     		str	r0, [r1, #0]
 1143              		.loc 1 374 0
 1144 028c 0DEB0902 		add	r2, sp, r9
 1145 0290 2946     		mov	r1, r5
 1146 0292 2068     		ldr	r0, [r4, #0]
 1147              		.loc 1 368 0
 1148 0294 ADF81660 		strh	r6, [sp, #22]	@ movhi
 1149              		.loc 1 372 0
 1150 0298 0993     		str	r3, [sp, #36]
 1151              		.loc 1 370 0
 1152 029a ADF81890 		strh	r9, [sp, #24]	@ movhi
 1153              		.loc 1 371 0
 1154 029e ADF81A90 		strh	r9, [sp, #26]	@ movhi
 1155              		.loc 1 374 0
 1156 02a2 FFF7FEFF 		bl	gwinGButtonCreate
 1157              	.LVL93:
 1158              		.loc 1 377 0
 1159 02a6 8F23     		movs	r3, #143
 1160              		.loc 1 374 0
 1161 02a8 364A     		ldr	r2, .L44+100
 1162              		.loc 1 377 0
 1163 02aa ADF81430 		strh	r3, [sp, #20]	@ movhi
 1164              		.loc 1 380 0
 1165 02ae 364B     		ldr	r3, .L44+104
 1166              		.loc 1 374 0
 1167 02b0 1060     		str	r0, [r2, #0]
 1168              		.loc 1 382 0
 1169 02b2 2946     		mov	r1, r5
 1170 02b4 0DEB0902 		add	r2, sp, r9
 1171 02b8 2068     		ldr	r0, [r4, #0]
 1172              		.loc 1 376 0
 1173 02ba ADF81660 		strh	r6, [sp, #22]	@ movhi
 1174              		.loc 1 380 0
 1175 02be 0993     		str	r3, [sp, #36]
 1176              		.loc 1 378 0
 1177 02c0 ADF81890 		strh	r9, [sp, #24]	@ movhi
 1178              		.loc 1 379 0
 1179 02c4 ADF81A90 		strh	r9, [sp, #26]	@ movhi
 1180              		.loc 1 382 0
 1181 02c8 FFF7FEFF 		bl	gwinGButtonCreate
 1182              	.LVL94:
 1183              		.loc 1 385 0
 1184 02cc A523     		movs	r3, #165
 1185              		.loc 1 382 0
 1186 02ce 2F49     		ldr	r1, .L44+108
 1187              		.loc 1 385 0
 1188 02d0 ADF81430 		strh	r3, [sp, #20]	@ movhi
 1189              		.loc 1 388 0
 1190 02d4 2E4B     		ldr	r3, .L44+112
 1191              		.loc 1 382 0
 1192 02d6 0860     		str	r0, [r1, #0]
 1193              		.loc 1 390 0
 1194 02d8 0DEB0902 		add	r2, sp, r9
 1195 02dc 2946     		mov	r1, r5
 1196 02de 2068     		ldr	r0, [r4, #0]
ARM GAS  C:\Users\Elis\AppData\Local\Temp\ccGbXKEy.s 			page 22


 1197              		.loc 1 384 0
 1198 02e0 ADF81660 		strh	r6, [sp, #22]	@ movhi
 1199              		.loc 1 388 0
 1200 02e4 0993     		str	r3, [sp, #36]
 1201              		.loc 1 386 0
 1202 02e6 ADF81890 		strh	r9, [sp, #24]	@ movhi
 1203              		.loc 1 387 0
 1204 02ea ADF81A90 		strh	r9, [sp, #26]	@ movhi
 1205              		.loc 1 390 0
 1206 02ee FFF7FEFF 		bl	gwinGButtonCreate
 1207              	.LVL95:
 1208              		.loc 1 393 0
 1209 02f2 BB23     		movs	r3, #187
 1210              		.loc 1 390 0
 1211 02f4 274A     		ldr	r2, .L44+116
 1212              		.loc 1 393 0
 1213 02f6 ADF81430 		strh	r3, [sp, #20]	@ movhi
 1214              		.loc 1 396 0
 1215 02fa 274B     		ldr	r3, .L44+120
 1216              		.loc 1 390 0
 1217 02fc 1060     		str	r0, [r2, #0]
 1218              		.loc 1 398 0
 1219 02fe 2946     		mov	r1, r5
 1220 0300 0DEB0902 		add	r2, sp, r9
 1221 0304 2068     		ldr	r0, [r4, #0]
 1222              		.loc 1 396 0
 1223 0306 0993     		str	r3, [sp, #36]
 1224              		.loc 1 392 0
 1225 0308 ADF81660 		strh	r6, [sp, #22]	@ movhi
 1226              		.loc 1 394 0
 1227 030c ADF81890 		strh	r9, [sp, #24]	@ movhi
 1228              		.loc 1 395 0
 1229 0310 ADF81A90 		strh	r9, [sp, #26]	@ movhi
 1230              		.loc 1 398 0
 1231 0314 FFF7FEFF 		bl	gwinGButtonCreate
 1232              	.LVL96:
 1233 0318 2049     		ldr	r1, .L44+124
 1234              		.loc 1 400 0
 1235 031a ADF81660 		strh	r6, [sp, #22]	@ movhi
 1236 031e 41E0     		b	.L45
 1237              	.L46:
 1238              		.align	2
 1239              	.L44:
 1240 0320 00000000 		.word	.LC0
 1241 0324 0C000000 		.word	.LC1
 1242 0328 28000000 		.word	.LC2
 1243 032c 44000000 		.word	.LC4
 1244 0330 A0000000 		.word	.LC12
 1245 0334 74000000 		.word	.LC6
 1246 0338 00000000 		.word	.LANCHOR0
 1247 033c 00000000 		.word	WhiteWidgetStyle
 1248 0340 00000000 		.word	gwinContainerDraw_Image
 1249 0344 00000000 		.word	GDISP
 1250 0348 00000000 		.word	.LANCHOR1
 1251 034c C0000000 		.word	.LC14
 1252 0350 00000000 		.word	.LANCHOR9
 1253 0354 00000000 		.word	.LANCHOR10
ARM GAS  C:\Users\Elis\AppData\Local\Temp\ccGbXKEy.s 			page 23


 1254 0358 CC000000 		.word	.LC15
 1255 035c 00000000 		.word	_0_b
 1256 0360 D0000000 		.word	.LC16
 1257 0364 00000000 		.word	_1_b
 1258 0368 D4000000 		.word	.LC17
 1259 036c 00000000 		.word	_2_b
 1260 0370 D8000000 		.word	.LC18
 1261 0374 00000000 		.word	_3_b
 1262 0378 DC000000 		.word	.LC19
 1263 037c 00000000 		.word	_4_b
 1264 0380 E0000000 		.word	.LC20
 1265 0384 00000000 		.word	_5_b
 1266 0388 E4000000 		.word	.LC21
 1267 038c 00000000 		.word	_6_b
 1268 0390 E8000000 		.word	.LC22
 1269 0394 00000000 		.word	_7_b
 1270 0398 EC000000 		.word	.LC23
 1271 039c 00000000 		.word	_8_b
 1272 03a0 B0000000 		.word	.LC13
 1273              	.L45:
 1274              		.loc 1 404 0
 1275 03a4 C04E     		ldr	r6, .L47
 1276              		.loc 1 398 0
 1277 03a6 0860     		str	r0, [r1, #0]
 1278              		.loc 1 401 0
 1279 03a8 4FF0D108 		mov	r8, #209
 1280              	.LVL97:
 1281              		.loc 1 406 0
 1282 03ac 2946     		mov	r1, r5
 1283 03ae 0DEB0902 		add	r2, sp, r9
 1284 03b2 2068     		ldr	r0, [r4, #0]
 1285              		.loc 1 404 0
 1286 03b4 0996     		str	r6, [sp, #36]
 1287              		.loc 1 401 0
 1288 03b6 ADF81480 		strh	r8, [sp, #20]	@ movhi
 1289              		.loc 1 402 0
 1290 03ba ADF81890 		strh	r9, [sp, #24]	@ movhi
 1291              		.loc 1 403 0
 1292 03be ADF81A90 		strh	r9, [sp, #26]	@ movhi
 1293              		.loc 1 406 0
 1294 03c2 FFF7FEFF 		bl	gwinGButtonCreate
 1295              	.LVL98:
 1296 03c6 B94A     		ldr	r2, .L47+4
 1297              		.loc 1 412 0
 1298 03c8 B94B     		ldr	r3, .L47+8
 1299              		.loc 1 406 0
 1300 03ca 1060     		str	r0, [r2, #0]
 1301              		.loc 1 408 0
 1302 03cc 7826     		movs	r6, #120
 1303              		.loc 1 414 0
 1304 03ce 2946     		mov	r1, r5
 1305 03d0 0DEB0902 		add	r2, sp, r9
 1306 03d4 2068     		ldr	r0, [r4, #0]
 1307              		.loc 1 408 0
 1308 03d6 ADF81660 		strh	r6, [sp, #22]	@ movhi
 1309              		.loc 1 412 0
 1310 03da 0993     		str	r3, [sp, #36]
ARM GAS  C:\Users\Elis\AppData\Local\Temp\ccGbXKEy.s 			page 24


 1311              		.loc 1 409 0
 1312 03dc ADF814B0 		strh	fp, [sp, #20]	@ movhi
 1313              		.loc 1 410 0
 1314 03e0 ADF81890 		strh	r9, [sp, #24]	@ movhi
 1315              		.loc 1 411 0
 1316 03e4 ADF81A90 		strh	r9, [sp, #26]	@ movhi
 1317              		.loc 1 414 0
 1318 03e8 FFF7FEFF 		bl	gwinGButtonCreate
 1319              	.LVL99:
 1320 03ec B149     		ldr	r1, .L47+12
 1321              		.loc 1 420 0
 1322 03ee B24B     		ldr	r3, .L47+16
 1323              		.loc 1 414 0
 1324 03f0 0860     		str	r0, [r1, #0]
 1325              		.loc 1 422 0
 1326 03f2 0DEB0902 		add	r2, sp, r9
 1327 03f6 2946     		mov	r1, r5
 1328 03f8 2068     		ldr	r0, [r4, #0]
 1329              		.loc 1 416 0
 1330 03fa ADF81660 		strh	r6, [sp, #22]	@ movhi
 1331              		.loc 1 420 0
 1332 03fe 0993     		str	r3, [sp, #36]
 1333              		.loc 1 417 0
 1334 0400 ADF814A0 		strh	sl, [sp, #20]	@ movhi
 1335              		.loc 1 418 0
 1336 0404 ADF81890 		strh	r9, [sp, #24]	@ movhi
 1337              		.loc 1 419 0
 1338 0408 ADF81A90 		strh	r9, [sp, #26]	@ movhi
 1339              		.loc 1 422 0
 1340 040c FFF7FEFF 		bl	gwinGButtonCreate
 1341              	.LVL100:
 1342              		.loc 1 425 0
 1343 0410 3723     		movs	r3, #55
 1344              		.loc 1 422 0
 1345 0412 AA4A     		ldr	r2, .L47+20
 1346              		.loc 1 425 0
 1347 0414 ADF81430 		strh	r3, [sp, #20]	@ movhi
 1348              		.loc 1 428 0
 1349 0418 A94B     		ldr	r3, .L47+24
 1350              		.loc 1 422 0
 1351 041a 1060     		str	r0, [r2, #0]
 1352              		.loc 1 430 0
 1353 041c 2946     		mov	r1, r5
 1354 041e 0DEB0902 		add	r2, sp, r9
 1355 0422 2068     		ldr	r0, [r4, #0]
 1356              		.loc 1 424 0
 1357 0424 ADF81660 		strh	r6, [sp, #22]	@ movhi
 1358              		.loc 1 428 0
 1359 0428 0993     		str	r3, [sp, #36]
 1360              		.loc 1 426 0
 1361 042a ADF81890 		strh	r9, [sp, #24]	@ movhi
 1362              		.loc 1 427 0
 1363 042e ADF81A90 		strh	r9, [sp, #26]	@ movhi
 1364              		.loc 1 430 0
 1365 0432 FFF7FEFF 		bl	gwinGButtonCreate
 1366              	.LVL101:
 1367              		.loc 1 433 0
ARM GAS  C:\Users\Elis\AppData\Local\Temp\ccGbXKEy.s 			page 25


 1368 0436 4D23     		movs	r3, #77
 1369              		.loc 1 430 0
 1370 0438 A249     		ldr	r1, .L47+28
 1371              		.loc 1 433 0
 1372 043a ADF81430 		strh	r3, [sp, #20]	@ movhi
 1373              		.loc 1 436 0
 1374 043e A24B     		ldr	r3, .L47+32
 1375              		.loc 1 430 0
 1376 0440 0860     		str	r0, [r1, #0]
 1377              		.loc 1 438 0
 1378 0442 0DEB0902 		add	r2, sp, r9
 1379 0446 2946     		mov	r1, r5
 1380 0448 2068     		ldr	r0, [r4, #0]
 1381              		.loc 1 432 0
 1382 044a ADF81660 		strh	r6, [sp, #22]	@ movhi
 1383              		.loc 1 436 0
 1384 044e 0993     		str	r3, [sp, #36]
 1385              		.loc 1 434 0
 1386 0450 ADF81890 		strh	r9, [sp, #24]	@ movhi
 1387              		.loc 1 435 0
 1388 0454 ADF81A90 		strh	r9, [sp, #26]	@ movhi
 1389              		.loc 1 438 0
 1390 0458 FFF7FEFF 		bl	gwinGButtonCreate
 1391              	.LVL102:
 1392              		.loc 1 441 0
 1393 045c 6323     		movs	r3, #99
 1394              		.loc 1 438 0
 1395 045e 9B4A     		ldr	r2, .L47+36
 1396              		.loc 1 441 0
 1397 0460 ADF81430 		strh	r3, [sp, #20]	@ movhi
 1398              		.loc 1 444 0
 1399 0464 9A4B     		ldr	r3, .L47+40
 1400              		.loc 1 438 0
 1401 0466 1060     		str	r0, [r2, #0]
 1402              		.loc 1 446 0
 1403 0468 2946     		mov	r1, r5
 1404 046a 0DEB0902 		add	r2, sp, r9
 1405 046e 2068     		ldr	r0, [r4, #0]
 1406              		.loc 1 440 0
 1407 0470 ADF81660 		strh	r6, [sp, #22]	@ movhi
 1408              		.loc 1 444 0
 1409 0474 0993     		str	r3, [sp, #36]
 1410              		.loc 1 442 0
 1411 0476 ADF81890 		strh	r9, [sp, #24]	@ movhi
 1412              		.loc 1 443 0
 1413 047a ADF81A90 		strh	r9, [sp, #26]	@ movhi
 1414              		.loc 1 446 0
 1415 047e FFF7FEFF 		bl	gwinGButtonCreate
 1416              	.LVL103:
 1417              		.loc 1 449 0
 1418 0482 7923     		movs	r3, #121
 1419              		.loc 1 446 0
 1420 0484 9349     		ldr	r1, .L47+44
 1421              		.loc 1 449 0
 1422 0486 ADF81430 		strh	r3, [sp, #20]	@ movhi
 1423              		.loc 1 452 0
 1424 048a 934B     		ldr	r3, .L47+48
ARM GAS  C:\Users\Elis\AppData\Local\Temp\ccGbXKEy.s 			page 26


 1425              		.loc 1 446 0
 1426 048c 0860     		str	r0, [r1, #0]
 1427              		.loc 1 454 0
 1428 048e 0DEB0902 		add	r2, sp, r9
 1429 0492 2946     		mov	r1, r5
 1430 0494 2068     		ldr	r0, [r4, #0]
 1431              		.loc 1 448 0
 1432 0496 ADF81660 		strh	r6, [sp, #22]	@ movhi
 1433              		.loc 1 452 0
 1434 049a 0993     		str	r3, [sp, #36]
 1435              		.loc 1 450 0
 1436 049c ADF81890 		strh	r9, [sp, #24]	@ movhi
 1437              		.loc 1 451 0
 1438 04a0 ADF81A90 		strh	r9, [sp, #26]	@ movhi
 1439              		.loc 1 454 0
 1440 04a4 FFF7FEFF 		bl	gwinGButtonCreate
 1441              	.LVL104:
 1442              		.loc 1 457 0
 1443 04a8 8F23     		movs	r3, #143
 1444              		.loc 1 454 0
 1445 04aa 8C4A     		ldr	r2, .L47+52
 1446              		.loc 1 457 0
 1447 04ac ADF81430 		strh	r3, [sp, #20]	@ movhi
 1448              		.loc 1 460 0
 1449 04b0 8B4B     		ldr	r3, .L47+56
 1450              		.loc 1 454 0
 1451 04b2 1060     		str	r0, [r2, #0]
 1452              		.loc 1 462 0
 1453 04b4 2946     		mov	r1, r5
 1454 04b6 0DEB0902 		add	r2, sp, r9
 1455 04ba 2068     		ldr	r0, [r4, #0]
 1456              		.loc 1 456 0
 1457 04bc ADF81660 		strh	r6, [sp, #22]	@ movhi
 1458              		.loc 1 460 0
 1459 04c0 0993     		str	r3, [sp, #36]
 1460              		.loc 1 458 0
 1461 04c2 ADF81890 		strh	r9, [sp, #24]	@ movhi
 1462              		.loc 1 459 0
 1463 04c6 ADF81A90 		strh	r9, [sp, #26]	@ movhi
 1464              		.loc 1 462 0
 1465 04ca FFF7FEFF 		bl	gwinGButtonCreate
 1466              	.LVL105:
 1467              		.loc 1 465 0
 1468 04ce A523     		movs	r3, #165
 1469              		.loc 1 462 0
 1470 04d0 8449     		ldr	r1, .L47+60
 1471              		.loc 1 465 0
 1472 04d2 ADF81430 		strh	r3, [sp, #20]	@ movhi
 1473              		.loc 1 468 0
 1474 04d6 844B     		ldr	r3, .L47+64
 1475              		.loc 1 462 0
 1476 04d8 0860     		str	r0, [r1, #0]
 1477              		.loc 1 470 0
 1478 04da 0DEB0902 		add	r2, sp, r9
 1479 04de 2946     		mov	r1, r5
 1480 04e0 2068     		ldr	r0, [r4, #0]
 1481              		.loc 1 464 0
ARM GAS  C:\Users\Elis\AppData\Local\Temp\ccGbXKEy.s 			page 27


 1482 04e2 ADF81660 		strh	r6, [sp, #22]	@ movhi
 1483              		.loc 1 468 0
 1484 04e6 0993     		str	r3, [sp, #36]
 1485              		.loc 1 466 0
 1486 04e8 ADF81890 		strh	r9, [sp, #24]	@ movhi
 1487              		.loc 1 467 0
 1488 04ec ADF81A90 		strh	r9, [sp, #26]	@ movhi
 1489              		.loc 1 470 0
 1490 04f0 FFF7FEFF 		bl	gwinGButtonCreate
 1491              	.LVL106:
 1492              		.loc 1 473 0
 1493 04f4 BB23     		movs	r3, #187
 1494              		.loc 1 470 0
 1495 04f6 7D4A     		ldr	r2, .L47+68
 1496              		.loc 1 473 0
 1497 04f8 ADF81430 		strh	r3, [sp, #20]	@ movhi
 1498              		.loc 1 476 0
 1499 04fc 7C4B     		ldr	r3, .L47+72
 1500              		.loc 1 470 0
 1501 04fe 1060     		str	r0, [r2, #0]
 1502              		.loc 1 478 0
 1503 0500 2946     		mov	r1, r5
 1504 0502 0DEB0902 		add	r2, sp, r9
 1505 0506 2068     		ldr	r0, [r4, #0]
 1506              		.loc 1 476 0
 1507 0508 0993     		str	r3, [sp, #36]
 1508              		.loc 1 472 0
 1509 050a ADF81660 		strh	r6, [sp, #22]	@ movhi
 1510              		.loc 1 474 0
 1511 050e ADF81890 		strh	r9, [sp, #24]	@ movhi
 1512              		.loc 1 475 0
 1513 0512 ADF81A90 		strh	r9, [sp, #26]	@ movhi
 1514              		.loc 1 478 0
 1515 0516 FFF7FEFF 		bl	gwinGButtonCreate
 1516              	.LVL107:
 1517 051a 7649     		ldr	r1, .L47+76
 1518              		.loc 1 480 0
 1519 051c ADF81660 		strh	r6, [sp, #22]	@ movhi
 1520              		.loc 1 484 0
 1521 0520 754E     		ldr	r6, .L47+80
 1522              		.loc 1 478 0
 1523 0522 0860     		str	r0, [r1, #0]
 1524              		.loc 1 486 0
 1525 0524 0DEB0902 		add	r2, sp, r9
 1526 0528 2946     		mov	r1, r5
 1527 052a 2068     		ldr	r0, [r4, #0]
 1528              		.loc 1 484 0
 1529 052c 0996     		str	r6, [sp, #36]
 1530              		.loc 1 481 0
 1531 052e ADF81480 		strh	r8, [sp, #20]	@ movhi
 1532              		.loc 1 482 0
 1533 0532 ADF81890 		strh	r9, [sp, #24]	@ movhi
 1534              		.loc 1 483 0
 1535 0536 ADF81A90 		strh	r9, [sp, #26]	@ movhi
 1536              		.loc 1 486 0
 1537 053a FFF7FEFF 		bl	gwinGButtonCreate
 1538              	.LVL108:
ARM GAS  C:\Users\Elis\AppData\Local\Temp\ccGbXKEy.s 			page 28


 1539 053e 6F4A     		ldr	r2, .L47+84
 1540              		.loc 1 492 0
 1541 0540 6F4B     		ldr	r3, .L47+88
 1542              		.loc 1 486 0
 1543 0542 1060     		str	r0, [r2, #0]
 1544              		.loc 1 488 0
 1545 0544 9626     		movs	r6, #150
 1546              		.loc 1 494 0
 1547 0546 2946     		mov	r1, r5
 1548 0548 0DEB0902 		add	r2, sp, r9
 1549 054c 2068     		ldr	r0, [r4, #0]
 1550              		.loc 1 488 0
 1551 054e ADF81660 		strh	r6, [sp, #22]	@ movhi
 1552              		.loc 1 492 0
 1553 0552 0993     		str	r3, [sp, #36]
 1554              		.loc 1 489 0
 1555 0554 ADF814B0 		strh	fp, [sp, #20]	@ movhi
 1556              		.loc 1 490 0
 1557 0558 ADF81890 		strh	r9, [sp, #24]	@ movhi
 1558              		.loc 1 491 0
 1559 055c ADF81A90 		strh	r9, [sp, #26]	@ movhi
 1560              		.loc 1 494 0
 1561 0560 FFF7FEFF 		bl	gwinGButtonCreate
 1562              	.LVL109:
 1563 0564 6749     		ldr	r1, .L47+92
 1564              		.loc 1 500 0
 1565 0566 684B     		ldr	r3, .L47+96
 1566              		.loc 1 494 0
 1567 0568 0860     		str	r0, [r1, #0]
 1568              		.loc 1 502 0
 1569 056a 0DEB0902 		add	r2, sp, r9
 1570 056e 2946     		mov	r1, r5
 1571 0570 2068     		ldr	r0, [r4, #0]
 1572              		.loc 1 496 0
 1573 0572 ADF81660 		strh	r6, [sp, #22]	@ movhi
 1574              		.loc 1 500 0
 1575 0576 0993     		str	r3, [sp, #36]
 1576              		.loc 1 497 0
 1577 0578 ADF814A0 		strh	sl, [sp, #20]	@ movhi
 1578              		.loc 1 498 0
 1579 057c ADF81890 		strh	r9, [sp, #24]	@ movhi
 1580              		.loc 1 499 0
 1581 0580 ADF81A90 		strh	r9, [sp, #26]	@ movhi
 1582              		.loc 1 502 0
 1583 0584 FFF7FEFF 		bl	gwinGButtonCreate
 1584              	.LVL110:
 1585              		.loc 1 505 0
 1586 0588 3723     		movs	r3, #55
 1587              		.loc 1 502 0
 1588 058a 604A     		ldr	r2, .L47+100
 1589              		.loc 1 505 0
 1590 058c ADF81430 		strh	r3, [sp, #20]	@ movhi
 1591              		.loc 1 508 0
 1592 0590 5F4B     		ldr	r3, .L47+104
 1593              		.loc 1 502 0
 1594 0592 1060     		str	r0, [r2, #0]
 1595              		.loc 1 510 0
ARM GAS  C:\Users\Elis\AppData\Local\Temp\ccGbXKEy.s 			page 29


 1596 0594 2946     		mov	r1, r5
 1597 0596 0DEB0902 		add	r2, sp, r9
 1598 059a 2068     		ldr	r0, [r4, #0]
 1599              		.loc 1 504 0
 1600 059c ADF81660 		strh	r6, [sp, #22]	@ movhi
 1601              		.loc 1 508 0
 1602 05a0 0993     		str	r3, [sp, #36]
 1603              		.loc 1 506 0
 1604 05a2 ADF81890 		strh	r9, [sp, #24]	@ movhi
 1605              		.loc 1 507 0
 1606 05a6 ADF81A90 		strh	r9, [sp, #26]	@ movhi
 1607              		.loc 1 510 0
 1608 05aa FFF7FEFF 		bl	gwinGButtonCreate
 1609              	.LVL111:
 1610              		.loc 1 513 0
 1611 05ae 4D23     		movs	r3, #77
 1612              		.loc 1 510 0
 1613 05b0 5849     		ldr	r1, .L47+108
 1614              		.loc 1 513 0
 1615 05b2 ADF81430 		strh	r3, [sp, #20]	@ movhi
 1616              		.loc 1 516 0
 1617 05b6 584B     		ldr	r3, .L47+112
 1618              		.loc 1 510 0
 1619 05b8 0860     		str	r0, [r1, #0]
 1620              		.loc 1 518 0
 1621 05ba 0DEB0902 		add	r2, sp, r9
 1622 05be 2946     		mov	r1, r5
 1623 05c0 2068     		ldr	r0, [r4, #0]
 1624              		.loc 1 512 0
 1625 05c2 ADF81660 		strh	r6, [sp, #22]	@ movhi
 1626              		.loc 1 516 0
 1627 05c6 0993     		str	r3, [sp, #36]
 1628              		.loc 1 514 0
 1629 05c8 ADF81890 		strh	r9, [sp, #24]	@ movhi
 1630              		.loc 1 515 0
 1631 05cc ADF81A90 		strh	r9, [sp, #26]	@ movhi
 1632              		.loc 1 518 0
 1633 05d0 FFF7FEFF 		bl	gwinGButtonCreate
 1634              	.LVL112:
 1635              		.loc 1 521 0
 1636 05d4 6323     		movs	r3, #99
 1637              		.loc 1 518 0
 1638 05d6 514A     		ldr	r2, .L47+116
 1639              		.loc 1 521 0
 1640 05d8 ADF81430 		strh	r3, [sp, #20]	@ movhi
 1641              		.loc 1 524 0
 1642 05dc 504B     		ldr	r3, .L47+120
 1643              		.loc 1 518 0
 1644 05de 1060     		str	r0, [r2, #0]
 1645              		.loc 1 526 0
 1646 05e0 2946     		mov	r1, r5
 1647 05e2 0DEB0902 		add	r2, sp, r9
 1648 05e6 2068     		ldr	r0, [r4, #0]
 1649              		.loc 1 520 0
 1650 05e8 ADF81660 		strh	r6, [sp, #22]	@ movhi
 1651              		.loc 1 524 0
 1652 05ec 0993     		str	r3, [sp, #36]
ARM GAS  C:\Users\Elis\AppData\Local\Temp\ccGbXKEy.s 			page 30


 1653              		.loc 1 522 0
 1654 05ee ADF81890 		strh	r9, [sp, #24]	@ movhi
 1655              		.loc 1 523 0
 1656 05f2 ADF81A90 		strh	r9, [sp, #26]	@ movhi
 1657              		.loc 1 526 0
 1658 05f6 FFF7FEFF 		bl	gwinGButtonCreate
 1659              	.LVL113:
 1660              		.loc 1 529 0
 1661 05fa 7923     		movs	r3, #121
 1662              		.loc 1 526 0
 1663 05fc 4949     		ldr	r1, .L47+124
 1664              		.loc 1 529 0
 1665 05fe ADF81430 		strh	r3, [sp, #20]	@ movhi
 1666              		.loc 1 532 0
 1667 0602 494B     		ldr	r3, .L47+128
 1668              		.loc 1 526 0
 1669 0604 0860     		str	r0, [r1, #0]
 1670              		.loc 1 534 0
 1671 0606 0DEB0902 		add	r2, sp, r9
 1672 060a 2946     		mov	r1, r5
 1673 060c 2068     		ldr	r0, [r4, #0]
 1674              		.loc 1 528 0
 1675 060e ADF81660 		strh	r6, [sp, #22]	@ movhi
 1676              		.loc 1 532 0
 1677 0612 0993     		str	r3, [sp, #36]
 1678              		.loc 1 530 0
 1679 0614 ADF81890 		strh	r9, [sp, #24]	@ movhi
 1680              		.loc 1 531 0
 1681 0618 ADF81A90 		strh	r9, [sp, #26]	@ movhi
 1682              		.loc 1 534 0
 1683 061c FFF7FEFF 		bl	gwinGButtonCreate
 1684              	.LVL114:
 1685              		.loc 1 537 0
 1686 0620 8F23     		movs	r3, #143
 1687              		.loc 1 534 0
 1688 0622 424A     		ldr	r2, .L47+132
 1689              		.loc 1 537 0
 1690 0624 ADF81430 		strh	r3, [sp, #20]	@ movhi
 1691              		.loc 1 540 0
 1692 0628 414B     		ldr	r3, .L47+136
 1693              		.loc 1 534 0
 1694 062a 1060     		str	r0, [r2, #0]
 1695              		.loc 1 542 0
 1696 062c 2946     		mov	r1, r5
 1697 062e 0DEB0902 		add	r2, sp, r9
 1698 0632 2068     		ldr	r0, [r4, #0]
 1699              		.loc 1 536 0
 1700 0634 ADF81660 		strh	r6, [sp, #22]	@ movhi
 1701              		.loc 1 540 0
 1702 0638 0993     		str	r3, [sp, #36]
 1703              		.loc 1 538 0
 1704 063a ADF81890 		strh	r9, [sp, #24]	@ movhi
 1705              		.loc 1 539 0
 1706 063e ADF81A90 		strh	r9, [sp, #26]	@ movhi
 1707              		.loc 1 542 0
 1708 0642 FFF7FEFF 		bl	gwinGButtonCreate
 1709              	.LVL115:
ARM GAS  C:\Users\Elis\AppData\Local\Temp\ccGbXKEy.s 			page 31


 1710              		.loc 1 545 0
 1711 0646 A523     		movs	r3, #165
 1712              		.loc 1 542 0
 1713 0648 3A49     		ldr	r1, .L47+140
 1714              		.loc 1 545 0
 1715 064a ADF81430 		strh	r3, [sp, #20]	@ movhi
 1716              		.loc 1 548 0
 1717 064e 3A4B     		ldr	r3, .L47+144
 1718              		.loc 1 542 0
 1719 0650 0860     		str	r0, [r1, #0]
 1720              		.loc 1 550 0
 1721 0652 0DEB0902 		add	r2, sp, r9
 1722 0656 2946     		mov	r1, r5
 1723 0658 2068     		ldr	r0, [r4, #0]
 1724              		.loc 1 544 0
 1725 065a ADF81660 		strh	r6, [sp, #22]	@ movhi
 1726              		.loc 1 548 0
 1727 065e 0993     		str	r3, [sp, #36]
 1728              		.loc 1 546 0
 1729 0660 ADF81890 		strh	r9, [sp, #24]	@ movhi
 1730              		.loc 1 547 0
 1731 0664 ADF81A90 		strh	r9, [sp, #26]	@ movhi
 1732              		.loc 1 550 0
 1733 0668 FFF7FEFF 		bl	gwinGButtonCreate
 1734              	.LVL116:
 1735              		.loc 1 553 0
 1736 066c BB23     		movs	r3, #187
 1737              		.loc 1 550 0
 1738 066e 334A     		ldr	r2, .L47+148
 1739              		.loc 1 553 0
 1740 0670 ADF81430 		strh	r3, [sp, #20]	@ movhi
 1741              		.loc 1 556 0
 1742 0674 324B     		ldr	r3, .L47+152
 1743              		.loc 1 550 0
 1744 0676 1060     		str	r0, [r2, #0]
 1745              		.loc 1 558 0
 1746 0678 2946     		mov	r1, r5
 1747 067a 0DEB0902 		add	r2, sp, r9
 1748 067e 2068     		ldr	r0, [r4, #0]
 1749              		.loc 1 556 0
 1750 0680 0993     		str	r3, [sp, #36]
 1751              		.loc 1 552 0
 1752 0682 ADF81660 		strh	r6, [sp, #22]	@ movhi
 1753              		.loc 1 554 0
 1754 0686 ADF81890 		strh	r9, [sp, #24]	@ movhi
 1755              		.loc 1 555 0
 1756 068a ADF81A90 		strh	r9, [sp, #26]	@ movhi
 1757              		.loc 1 558 0
 1758 068e FFF7FEFF 		bl	gwinGButtonCreate
 1759              	.LVL117:
 1760 0692 2C49     		ldr	r1, .L47+156
 1761              		.loc 1 560 0
 1762 0694 ADF81660 		strh	r6, [sp, #22]	@ movhi
 1763              		.loc 1 564 0
 1764 0698 2B4E     		ldr	r6, .L47+160
 1765              		.loc 1 558 0
 1766 069a 0860     		str	r0, [r1, #0]
ARM GAS  C:\Users\Elis\AppData\Local\Temp\ccGbXKEy.s 			page 32


 1767              		.loc 1 566 0
 1768 069c 0DEB0902 		add	r2, sp, r9
 1769 06a0 2946     		mov	r1, r5
 1770 06a2 2068     		ldr	r0, [r4, #0]
 1771 06a4 52E0     		b	.L48
 1772              	.L49:
 1773 06a6 00BF     		.align	2
 1774              	.L47:
 1775 06a8 F0000000 		.word	.LC24
 1776 06ac 00000000 		.word	_9_b
 1777 06b0 F4000000 		.word	.LC25
 1778 06b4 00000000 		.word	_a_b
 1779 06b8 F8000000 		.word	.LC26
 1780 06bc 00000000 		.word	_b_b
 1781 06c0 FC000000 		.word	.LC27
 1782 06c4 00000000 		.word	_c_b
 1783 06c8 00010000 		.word	.LC28
 1784 06cc 00000000 		.word	_d_b
 1785 06d0 04010000 		.word	.LC29
 1786 06d4 00000000 		.word	_e_b
 1787 06d8 08010000 		.word	.LC30
 1788 06dc 00000000 		.word	_f_b
 1789 06e0 0C010000 		.word	.LC31
 1790 06e4 00000000 		.word	_g_b
 1791 06e8 10010000 		.word	.LC32
 1792 06ec 00000000 		.word	_h_b
 1793 06f0 14010000 		.word	.LC33
 1794 06f4 00000000 		.word	_i_b
 1795 06f8 18010000 		.word	.LC34
 1796 06fc 00000000 		.word	_j_b
 1797 0700 1C010000 		.word	.LC35
 1798 0704 00000000 		.word	_k_b
 1799 0708 20010000 		.word	.LC36
 1800 070c 00000000 		.word	_l_b
 1801 0710 24010000 		.word	.LC37
 1802 0714 00000000 		.word	_m_b
 1803 0718 28010000 		.word	.LC38
 1804 071c 00000000 		.word	_n_b
 1805 0720 2C010000 		.word	.LC39
 1806 0724 00000000 		.word	_o_b
 1807 0728 30010000 		.word	.LC40
 1808 072c 00000000 		.word	_p_b
 1809 0730 34010000 		.word	.LC41
 1810 0734 00000000 		.word	_r_b
 1811 0738 38010000 		.word	.LC42
 1812 073c 00000000 		.word	_s_b
 1813 0740 3C010000 		.word	.LC43
 1814 0744 00000000 		.word	_t_b
 1815 0748 40010000 		.word	.LC44
 1816              	.L48:
 1817              		.loc 1 564 0
 1818 074c 0996     		str	r6, [sp, #36]
 1819              		.loc 1 561 0
 1820 074e ADF81480 		strh	r8, [sp, #20]	@ movhi
 1821              		.loc 1 562 0
 1822 0752 ADF81890 		strh	r9, [sp, #24]	@ movhi
 1823              		.loc 1 563 0
ARM GAS  C:\Users\Elis\AppData\Local\Temp\ccGbXKEy.s 			page 33


 1824 0756 ADF81A90 		strh	r9, [sp, #26]	@ movhi
 1825              		.loc 1 566 0
 1826 075a FFF7FEFF 		bl	gwinGButtonCreate
 1827              	.LVL118:
 1828 075e 984A     		ldr	r2, .L50
 1829              		.loc 1 572 0
 1830 0760 984B     		ldr	r3, .L50+4
 1831              		.loc 1 566 0
 1832 0762 1060     		str	r0, [r2, #0]
 1833              		.loc 1 568 0
 1834 0764 B426     		movs	r6, #180
 1835              		.loc 1 574 0
 1836 0766 2946     		mov	r1, r5
 1837 0768 0DEB0902 		add	r2, sp, r9
 1838 076c 2068     		ldr	r0, [r4, #0]
 1839              		.loc 1 572 0
 1840 076e 0993     		str	r3, [sp, #36]
 1841              		.loc 1 568 0
 1842 0770 ADF81660 		strh	r6, [sp, #22]	@ movhi
 1843              		.loc 1 569 0
 1844 0774 ADF814B0 		strh	fp, [sp, #20]	@ movhi
 1845              		.loc 1 570 0
 1846 0778 ADF81890 		strh	r9, [sp, #24]	@ movhi
 1847              		.loc 1 571 0
 1848 077c ADF81A90 		strh	r9, [sp, #26]	@ movhi
 1849              		.loc 1 574 0
 1850 0780 FFF7FEFF 		bl	gwinGButtonCreate
 1851              	.LVL119:
 1852 0784 9049     		ldr	r1, .L50+8
 1853              		.loc 1 580 0
 1854 0786 914B     		ldr	r3, .L50+12
 1855              		.loc 1 574 0
 1856 0788 0860     		str	r0, [r1, #0]
 1857              		.loc 1 582 0
 1858 078a 0DEB0902 		add	r2, sp, r9
 1859 078e 2946     		mov	r1, r5
 1860 0790 2068     		ldr	r0, [r4, #0]
 1861              		.loc 1 580 0
 1862 0792 0993     		str	r3, [sp, #36]
 1863              		.loc 1 576 0
 1864 0794 ADF81660 		strh	r6, [sp, #22]	@ movhi
 1865              		.loc 1 577 0
 1866 0798 ADF814A0 		strh	sl, [sp, #20]	@ movhi
 1867              		.loc 1 578 0
 1868 079c ADF81890 		strh	r9, [sp, #24]	@ movhi
 1869              		.loc 1 579 0
 1870 07a0 ADF81A90 		strh	r9, [sp, #26]	@ movhi
 1871              		.loc 1 582 0
 1872 07a4 FFF7FEFF 		bl	gwinGButtonCreate
 1873              	.LVL120:
 1874              		.loc 1 585 0
 1875 07a8 3723     		movs	r3, #55
 1876              		.loc 1 582 0
 1877 07aa 894A     		ldr	r2, .L50+16
 1878              		.loc 1 585 0
 1879 07ac ADF81430 		strh	r3, [sp, #20]	@ movhi
 1880              		.loc 1 588 0
ARM GAS  C:\Users\Elis\AppData\Local\Temp\ccGbXKEy.s 			page 34


 1881 07b0 884B     		ldr	r3, .L50+20
 1882              		.loc 1 582 0
 1883 07b2 1060     		str	r0, [r2, #0]
 1884              		.loc 1 590 0
 1885 07b4 2946     		mov	r1, r5
 1886 07b6 0DEB0902 		add	r2, sp, r9
 1887 07ba 2068     		ldr	r0, [r4, #0]
 1888              		.loc 1 588 0
 1889 07bc 0993     		str	r3, [sp, #36]
 1890              		.loc 1 584 0
 1891 07be ADF81660 		strh	r6, [sp, #22]	@ movhi
 1892              		.loc 1 586 0
 1893 07c2 ADF81890 		strh	r9, [sp, #24]	@ movhi
 1894              		.loc 1 587 0
 1895 07c6 ADF81A90 		strh	r9, [sp, #26]	@ movhi
 1896              		.loc 1 590 0
 1897 07ca FFF7FEFF 		bl	gwinGButtonCreate
 1898              	.LVL121:
 1899 07ce 8249     		ldr	r1, .L50+24
 1900              		.loc 1 592 0
 1901 07d0 ADF81660 		strh	r6, [sp, #22]	@ movhi
 1902              		.loc 1 593 0
 1903 07d4 4D23     		movs	r3, #77
 1904 07d6 ADF81430 		strh	r3, [sp, #20]	@ movhi
 1905              		.loc 1 596 0
 1906 07da 804B     		ldr	r3, .L50+28
 1907              		.loc 1 590 0
 1908 07dc 0860     		str	r0, [r1, #0]
 1909              		.loc 1 598 0
 1910 07de 0DEB0902 		add	r2, sp, r9
 1911 07e2 2946     		mov	r1, r5
 1912 07e4 2068     		ldr	r0, [r4, #0]
 1913              		.loc 1 596 0
 1914 07e6 0993     		str	r3, [sp, #36]
 1915              		.loc 1 594 0
 1916 07e8 ADF81890 		strh	r9, [sp, #24]	@ movhi
 1917              		.loc 1 595 0
 1918 07ec ADF81A90 		strh	r9, [sp, #26]	@ movhi
 1919              		.loc 1 598 0
 1920 07f0 FFF7FEFF 		bl	gwinGButtonCreate
 1921              	.LVL122:
 1922 07f4 7A4A     		ldr	r2, .L50+32
 1923              		.loc 1 600 0
 1924 07f6 ADF81660 		strh	r6, [sp, #22]	@ movhi
 1925              		.loc 1 601 0
 1926 07fa 6323     		movs	r3, #99
 1927 07fc ADF81430 		strh	r3, [sp, #20]	@ movhi
 1928              		.loc 1 604 0
 1929 0800 784B     		ldr	r3, .L50+36
 1930              		.loc 1 598 0
 1931 0802 1060     		str	r0, [r2, #0]
 1932              		.loc 1 606 0
 1933 0804 2946     		mov	r1, r5
 1934 0806 0DEB0902 		add	r2, sp, r9
 1935 080a 2068     		ldr	r0, [r4, #0]
 1936              		.loc 1 604 0
 1937 080c 0993     		str	r3, [sp, #36]
ARM GAS  C:\Users\Elis\AppData\Local\Temp\ccGbXKEy.s 			page 35


 1938              		.loc 1 602 0
 1939 080e ADF81890 		strh	r9, [sp, #24]	@ movhi
 1940              		.loc 1 603 0
 1941 0812 ADF81A90 		strh	r9, [sp, #26]	@ movhi
 1942              		.loc 1 606 0
 1943 0816 FFF7FEFF 		bl	gwinGButtonCreate
 1944              	.LVL123:
 1945 081a 7349     		ldr	r1, .L50+40
 1946              		.loc 1 608 0
 1947 081c ADF81660 		strh	r6, [sp, #22]	@ movhi
 1948              		.loc 1 609 0
 1949 0820 7923     		movs	r3, #121
 1950 0822 ADF81430 		strh	r3, [sp, #20]	@ movhi
 1951              		.loc 1 612 0
 1952 0826 714B     		ldr	r3, .L50+44
 1953              		.loc 1 606 0
 1954 0828 0860     		str	r0, [r1, #0]
 1955              		.loc 1 614 0
 1956 082a 0DEB0902 		add	r2, sp, r9
 1957 082e 2946     		mov	r1, r5
 1958 0830 2068     		ldr	r0, [r4, #0]
 1959              		.loc 1 612 0
 1960 0832 0993     		str	r3, [sp, #36]
 1961              		.loc 1 610 0
 1962 0834 ADF81890 		strh	r9, [sp, #24]	@ movhi
 1963              		.loc 1 611 0
 1964 0838 ADF81A90 		strh	r9, [sp, #26]	@ movhi
 1965              		.loc 1 614 0
 1966 083c FFF7FEFF 		bl	gwinGButtonCreate
 1967              	.LVL124:
 1968 0840 6B4A     		ldr	r2, .L50+48
 1969              		.loc 1 616 0
 1970 0842 ADF81660 		strh	r6, [sp, #22]	@ movhi
 1971              		.loc 1 617 0
 1972 0846 8F23     		movs	r3, #143
 1973 0848 ADF81430 		strh	r3, [sp, #20]	@ movhi
 1974              		.loc 1 620 0
 1975 084c 694B     		ldr	r3, .L50+52
 1976              		.loc 1 614 0
 1977 084e 1060     		str	r0, [r2, #0]
 1978              		.loc 1 622 0
 1979 0850 2946     		mov	r1, r5
 1980 0852 0DEB0902 		add	r2, sp, r9
 1981 0856 2068     		ldr	r0, [r4, #0]
 1982              		.loc 1 620 0
 1983 0858 0993     		str	r3, [sp, #36]
 1984              		.loc 1 618 0
 1985 085a ADF81890 		strh	r9, [sp, #24]	@ movhi
 1986              		.loc 1 619 0
 1987 085e ADF81A90 		strh	r9, [sp, #26]	@ movhi
 1988              		.loc 1 622 0
 1989 0862 FFF7FEFF 		bl	gwinGButtonCreate
 1990              	.LVL125:
 1991 0866 6449     		ldr	r1, .L50+56
 1992              		.loc 1 624 0
 1993 0868 ADF81660 		strh	r6, [sp, #22]	@ movhi
 1994              		.loc 1 625 0
ARM GAS  C:\Users\Elis\AppData\Local\Temp\ccGbXKEy.s 			page 36


 1995 086c A523     		movs	r3, #165
 1996 086e ADF81430 		strh	r3, [sp, #20]	@ movhi
 1997              		.loc 1 628 0
 1998 0872 624B     		ldr	r3, .L50+60
 1999              		.loc 1 622 0
 2000 0874 0860     		str	r0, [r1, #0]
 2001              		.loc 1 630 0
 2002 0876 0DEB0902 		add	r2, sp, r9
 2003 087a 2946     		mov	r1, r5
 2004 087c 2068     		ldr	r0, [r4, #0]
 2005              		.loc 1 628 0
 2006 087e 0993     		str	r3, [sp, #36]
 2007              		.loc 1 626 0
 2008 0880 ADF81890 		strh	r9, [sp, #24]	@ movhi
 2009              		.loc 1 627 0
 2010 0884 ADF81A90 		strh	r9, [sp, #26]	@ movhi
 2011              		.loc 1 630 0
 2012 0888 FFF7FEFF 		bl	gwinGButtonCreate
 2013              	.LVL126:
 2014 088c 5C4A     		ldr	r2, .L50+64
 2015              		.loc 1 632 0
 2016 088e ADF81660 		strh	r6, [sp, #22]	@ movhi
 2017              		.loc 1 633 0
 2018 0892 BB23     		movs	r3, #187
 2019 0894 ADF81430 		strh	r3, [sp, #20]	@ movhi
 2020              		.loc 1 636 0
 2021 0898 5A4B     		ldr	r3, .L50+68
 2022              		.loc 1 630 0
 2023 089a 1060     		str	r0, [r2, #0]
 2024              		.loc 1 638 0
 2025 089c 2946     		mov	r1, r5
 2026 089e 0DEB0902 		add	r2, sp, r9
 2027 08a2 2068     		ldr	r0, [r4, #0]
 2028              		.loc 1 636 0
 2029 08a4 0993     		str	r3, [sp, #36]
 2030              		.loc 1 634 0
 2031 08a6 ADF81890 		strh	r9, [sp, #24]	@ movhi
 2032              		.loc 1 635 0
 2033 08aa ADF81A90 		strh	r9, [sp, #26]	@ movhi
 2034              		.loc 1 638 0
 2035 08ae FFF7FEFF 		bl	gwinGButtonCreate
 2036              	.LVL127:
 2037 08b2 5549     		ldr	r1, .L50+72
 2038              		.loc 1 644 0
 2039 08b4 554B     		ldr	r3, .L50+76
 2040              		.loc 1 638 0
 2041 08b6 0860     		str	r0, [r1, #0]
 2042              		.loc 1 646 0
 2043 08b8 0DEB0902 		add	r2, sp, r9
 2044 08bc 2946     		mov	r1, r5
 2045 08be 2068     		ldr	r0, [r4, #0]
 2046              		.loc 1 644 0
 2047 08c0 0993     		str	r3, [sp, #36]
 2048              		.loc 1 640 0
 2049 08c2 ADF81660 		strh	r6, [sp, #22]	@ movhi
 2050              		.loc 1 641 0
 2051 08c6 ADF81480 		strh	r8, [sp, #20]	@ movhi
ARM GAS  C:\Users\Elis\AppData\Local\Temp\ccGbXKEy.s 			page 37


 2052              		.loc 1 642 0
 2053 08ca ADF81890 		strh	r9, [sp, #24]	@ movhi
 2054              		.loc 1 643 0
 2055 08ce ADF81A90 		strh	r9, [sp, #26]	@ movhi
 2056              		.loc 1 646 0
 2057 08d2 FFF7FEFF 		bl	gwinGButtonCreate
 2058              	.LVL128:
 2059              		.loc 1 655 0
 2060 08d6 3A68     		ldr	r2, [r7, #0]
 2061              		.loc 1 646 0
 2062 08d8 4D49     		ldr	r1, .L50+80
 2063              		.loc 1 651 0
 2064 08da DDF800C0 		ldr	ip, [sp, #0]
 2065              		.loc 1 655 0
 2066 08de 0892     		str	r2, [sp, #32]
 2067              		.loc 1 657 0
 2068 08e0 029A     		ldr	r2, [sp, #8]
 2069              		.loc 1 646 0
 2070 08e2 0860     		str	r0, [r1, #0]
 2071              		.loc 1 650 0
 2072 08e4 0123     		movs	r3, #1
 2073              		.loc 1 653 0
 2074 08e6 3C20     		movs	r0, #60
 2075              		.loc 1 652 0
 2076 08e8 F021     		movs	r1, #240
 2077              		.loc 1 650 0
 2078 08ea 8DF81C30 		strb	r3, [sp, #28]
 2079              		.loc 1 651 0
 2080 08ee ADF814C0 		strh	ip, [sp, #20]	@ movhi
 2081              		.loc 1 652 0
 2082 08f2 ADF81610 		strh	r1, [sp, #22]	@ movhi
 2083              		.loc 1 653 0
 2084 08f6 ADF81800 		strh	r0, [sp, #24]	@ movhi
 2085              		.loc 1 654 0
 2086 08fa ADF81A00 		strh	r0, [sp, #26]	@ movhi
 2087              		.loc 1 657 0
 2088 08fe 002A     		cmp	r2, #0
 2089 0900 46D0     		beq	.L42
 2090              		.loc 1 667 0
 2091 0902 444E     		ldr	r6, .L50+84
 2092 0904 0299     		ldr	r1, [sp, #8]
 2093 0906 3046     		mov	r0, r6
 2094 0908 FFF7FEFF 		bl	gdispImageOpenGFile
 2095              	.LVL129:
 2096              		.loc 1 668 0
 2097 090c 4248     		ldr	r0, .L50+88
 2098              		.loc 1 671 0
 2099 090e 434B     		ldr	r3, .L50+92
 2100              		.loc 1 668 0
 2101 0910 0A90     		str	r0, [sp, #40]
 2102              		.loc 1 669 0
 2103 0912 0B96     		str	r6, [sp, #44]
 2104              		.loc 1 670 0
 2105 0914 0C95     		str	r5, [sp, #48]
 2106              		.loc 1 671 0
 2107 0916 0993     		str	r3, [sp, #36]
 2108              	.L38:
ARM GAS  C:\Users\Elis\AppData\Local\Temp\ccGbXKEy.s 			page 38


 2109              		.loc 1 675 0
 2110 0918 0021     		movs	r1, #0
 2111 091a 05AA     		add	r2, sp, #20
 2112 091c 2068     		ldr	r0, [r4, #0]
 2113 091e FFF7FEFF 		bl	gwinGButtonCreate
 2114              	.LVL130:
 2115              		.loc 1 684 0
 2116 0922 3A68     		ldr	r2, [r7, #0]
 2117              		.loc 1 675 0
 2118 0924 3E49     		ldr	r1, .L50+96
 2119              		.loc 1 684 0
 2120 0926 0892     		str	r2, [sp, #32]
 2121              		.loc 1 679 0
 2122 0928 0123     		movs	r3, #1
 2123              		.loc 1 686 0
 2124 092a 039A     		ldr	r2, [sp, #12]
 2125              		.loc 1 675 0
 2126 092c 0860     		str	r0, [r1, #0]
 2127              		.loc 1 679 0
 2128 092e 8DF81C30 		strb	r3, [sp, #28]
 2129              		.loc 1 682 0
 2130 0932 3C20     		movs	r0, #60
 2131              		.loc 1 680 0
 2132 0934 AA21     		movs	r1, #170
 2133              		.loc 1 681 0
 2134 0936 F023     		movs	r3, #240
 2135              		.loc 1 680 0
 2136 0938 ADF81410 		strh	r1, [sp, #20]	@ movhi
 2137              		.loc 1 681 0
 2138 093c ADF81630 		strh	r3, [sp, #22]	@ movhi
 2139              		.loc 1 682 0
 2140 0940 ADF81800 		strh	r0, [sp, #24]	@ movhi
 2141              		.loc 1 683 0
 2142 0944 ADF81A00 		strh	r0, [sp, #26]	@ movhi
 2143              		.loc 1 686 0
 2144 0948 002A     		cmp	r2, #0
 2145 094a 2DD0     		beq	.L43
 2146              		.loc 1 696 0
 2147 094c 354D     		ldr	r5, .L50+100
 2148 094e 0399     		ldr	r1, [sp, #12]
 2149 0950 2846     		mov	r0, r5
 2150 0952 FFF7FEFF 		bl	gdispImageOpenGFile
 2151              	.LVL131:
 2152              		.loc 1 697 0
 2153 0956 3048     		ldr	r0, .L50+88
 2154              		.loc 1 700 0
 2155 0958 304B     		ldr	r3, .L50+92
 2156              		.loc 1 697 0
 2157 095a 0A90     		str	r0, [sp, #40]
 2158              		.loc 1 699 0
 2159 095c 0021     		movs	r1, #0
 2160              		.loc 1 698 0
 2161 095e 0B95     		str	r5, [sp, #44]
 2162              		.loc 1 699 0
 2163 0960 0C91     		str	r1, [sp, #48]
 2164              		.loc 1 700 0
 2165 0962 0993     		str	r3, [sp, #36]
ARM GAS  C:\Users\Elis\AppData\Local\Temp\ccGbXKEy.s 			page 39


 2166              	.L40:
 2167              		.loc 1 704 0
 2168 0964 05AA     		add	r2, sp, #20
 2169 0966 2068     		ldr	r0, [r4, #0]
 2170 0968 0021     		movs	r1, #0
 2171 096a FFF7FEFF 		bl	gwinGButtonCreate
 2172              	.LVL132:
 2173 096e 2E4A     		ldr	r2, .L50+104
 2174 0970 1060     		str	r0, [r2, #0]
 2175              		.loc 1 708 0
 2176 0972 4020     		movs	r0, #64
 2177 0974 FFF7FEFF 		bl	chThdSetPriority
 2178              	.LVL133:
 2179              		.loc 1 710 0
 2180 0978 27B0     		add	sp, sp, #156
 2181 097a BDE8F08F 		pop	{r4, r5, r6, r7, r8, r9, sl, fp, pc}
 2182              	.LVL134:
 2183              	.L41:
 2184              		.loc 1 281 0
 2185 097e 2B4F     		ldr	r7, .L50+108
 2186              		.loc 1 280 0
 2187 0980 2B48     		ldr	r0, .L50+112
 2188              		.loc 1 281 0
 2189 0982 0197     		str	r7, [sp, #4]
 2190              		.loc 1 280 0
 2191 0984 0A90     		str	r0, [sp, #40]
 2192              		.loc 1 281 0
 2193 0986 0C97     		str	r7, [sp, #48]
 2194              		.loc 1 282 0
 2195 0988 CDF82C80 		str	r8, [sp, #44]
 2196 098c FFF7C3BB 		b	.L36
 2197              	.LVL135:
 2198              	.L42:
 2199              		.loc 1 659 0
 2200 0990 40F20001 		movw	r1, #:lower16:gwinButtonDraw_Normal
 2201              		.loc 1 660 0
 2202 0994 019A     		ldr	r2, [sp, #4]
 2203              		.loc 1 661 0
 2204 0996 0298     		ldr	r0, [sp, #8]
 2205              		.loc 1 662 0
 2206 0998 264B     		ldr	r3, .L50+116
 2207              		.loc 1 660 0
 2208 099a 0C92     		str	r2, [sp, #48]
 2209              		.loc 1 659 0
 2210 099c C0F20001 		movt	r1, #:upper16:gwinButtonDraw_Normal
 2211 09a0 0A91     		str	r1, [sp, #40]
 2212              		.loc 1 661 0
 2213 09a2 0B90     		str	r0, [sp, #44]
 2214              		.loc 1 662 0
 2215 09a4 0993     		str	r3, [sp, #36]
 2216 09a6 B7E7     		b	.L38
 2217              	.L43:
 2218              		.loc 1 688 0
 2219 09a8 40F20002 		movw	r2, #:lower16:gwinButtonDraw_Normal
 2220              		.loc 1 689 0
 2221 09ac 0198     		ldr	r0, [sp, #4]
 2222              		.loc 1 690 0
ARM GAS  C:\Users\Elis\AppData\Local\Temp\ccGbXKEy.s 			page 40


 2223 09ae 0399     		ldr	r1, [sp, #12]
 2224              		.loc 1 691 0
 2225 09b0 214B     		ldr	r3, .L50+120
 2226              		.loc 1 689 0
 2227 09b2 0C90     		str	r0, [sp, #48]
 2228              		.loc 1 688 0
 2229 09b4 C0F20002 		movt	r2, #:upper16:gwinButtonDraw_Normal
 2230 09b8 0A92     		str	r2, [sp, #40]
 2231              		.loc 1 690 0
 2232 09ba 0B91     		str	r1, [sp, #44]
 2233              		.loc 1 691 0
 2234 09bc 0993     		str	r3, [sp, #36]
 2235 09be D1E7     		b	.L40
 2236              	.L51:
 2237              		.align	2
 2238              	.L50:
 2239 09c0 00000000 		.word	_u_b
 2240 09c4 44010000 		.word	.LC45
 2241 09c8 00000000 		.word	_v_b
 2242 09cc 48010000 		.word	.LC46
 2243 09d0 00000000 		.word	_z_b
 2244 09d4 4C010000 		.word	.LC47
 2245 09d8 00000000 		.word	_x_b
 2246 09dc 50010000 		.word	.LC48
 2247 09e0 00000000 		.word	_y_b
 2248 09e4 54010000 		.word	.LC49
 2249 09e8 00000000 		.word	_q_b
 2250 09ec 58010000 		.word	.LC50
 2251 09f0 00000000 		.word	_dot_b
 2252 09f4 5C010000 		.word	.LC51
 2253 09f8 00000000 		.word	_comma_b
 2254 09fc 60010000 		.word	.LC52
 2255 0a00 00000000 		.word	_slash_b
 2256 0a04 64010000 		.word	.LC53
 2257 0a08 00000000 		.word	_exclamation_b
 2258 0a0c 68010000 		.word	.LC54
 2259 0a10 00000000 		.word	_space_b
 2260 0a14 00000000 		.word	.LANCHOR5
 2261 0a18 00000000 		.word	gwinButtonDraw_Image
 2262 0a1c 94000000 		.word	.LC9
 2263 0a20 00000000 		.word	.LANCHOR11
 2264 0a24 00000000 		.word	.LANCHOR12
 2265 0a28 00000000 		.word	.LANCHOR13
 2266 0a2c 00000000 		.word	WhiteWidgetStyle
 2267 0a30 00000000 		.word	gwinContainerDraw_Std
 2268 0a34 98000000 		.word	.LC10
 2269 0a38 6C010000 		.word	.LC55
 2270              		.cfi_endproc
 2271              	.LFE120:
 2272              		.size	createContactAddScreen, .-createContactAddScreen
 2273 0a3c AFF30080 		.section	.text.destroyContactAddScreen,"ax",%progbits
 2274              		.align	2
 2275              		.p2align 4,,15
 2276              		.global	destroyContactAddScreen
 2277              		.thumb
 2278              		.thumb_func
 2279              		.type	destroyContactAddScreen, %function
ARM GAS  C:\Users\Elis\AppData\Local\Temp\ccGbXKEy.s 			page 41


 2280              	destroyContactAddScreen:
 2281              	.LFB121:
 2282              		.loc 1 712 0
 2283              		.cfi_startproc
 2284              		@ args = 0, pretend = 0, frame = 152
 2285              		@ frame_needed = 0, uses_anonymous_args = 0
 2286 0000 2DE9F04F 		push	{r4, r5, r6, r7, r8, r9, sl, fp, lr}
 2287              	.LCFI5:
 2288              		.cfi_def_cfa_offset 36
 2289              		.cfi_offset 4, -36
 2290              		.cfi_offset 5, -32
 2291              		.cfi_offset 6, -28
 2292              		.cfi_offset 7, -24
 2293              		.cfi_offset 8, -20
 2294              		.cfi_offset 9, -16
 2295              		.cfi_offset 10, -12
 2296              		.cfi_offset 11, -8
 2297              		.cfi_offset 14, -4
 2298              		.loc 1 716 0
 2299 0004 7F20     		movs	r0, #127
 2300              		.loc 1 712 0
 2301 0006 A7B0     		sub	sp, sp, #156
 2302              	.LCFI6:
 2303              		.cfi_def_cfa_offset 192
 2304              		.loc 1 716 0
 2305 0008 FFF7FEFF 		bl	chThdSetPriority
 2306              	.LVL136:
 2307              		.loc 1 720 0
 2308 000c 40F20000 		movw	r0, #:lower16:.LANCHOR0
 2309 0010 C0F20000 		movt	r0, #:upper16:.LANCHOR0
 2310 0014 FFF7FEFF 		bl	gdispImageClose
 2311              	.LVL137:
 2312              		.loc 1 722 0
 2313 0018 40F20000 		movw	r0, #:lower16:.LANCHOR5
 2314 001c C0F20000 		movt	r0, #:upper16:.LANCHOR5
 2315 0020 FFF7FEFF 		bl	gdispImageClose
 2316              	.LVL138:
 2317              		.loc 1 724 0
 2318 0024 40F20000 		movw	r0, #:lower16:.LANCHOR12
 2319 0028 C0F20000 		movt	r0, #:upper16:.LANCHOR12
 2320 002c FFF7FEFF 		bl	gdispImageClose
 2321              	.LVL139:
 2322              		.loc 1 728 0
 2323 0030 40F20003 		movw	r3, #:lower16:.LANCHOR1
 2324 0034 C0F20003 		movt	r3, #:upper16:.LANCHOR1
 2325              		.loc 1 732 0
 2326 0038 40F2000B 		movw	fp, #:lower16:.LANCHOR2
 2327              		.loc 1 728 0
 2328 003c 1868     		ldr	r0, [r3, #0]
 2329 003e FFF7FEFF 		bl	gwinDestroy
 2330              	.LVL140:
 2331              		.loc 1 742 0
 2332 0042 40F20000 		movw	r0, #:lower16:.LANCHOR13
 2333              		.loc 1 744 0
 2334 0046 40F20003 		movw	r3, #:lower16:.LANCHOR10
 2335              		.loc 1 742 0
 2336 004a C0F20000 		movt	r0, #:upper16:.LANCHOR13
ARM GAS  C:\Users\Elis\AppData\Local\Temp\ccGbXKEy.s 			page 42


 2337              		.loc 1 744 0
 2338 004e C0F20003 		movt	r3, #:upper16:.LANCHOR10
 2339              		.loc 1 742 0
 2340 0052 0190     		str	r0, [sp, #4]
 2341              		.loc 1 744 0
 2342 0054 0293     		str	r3, [sp, #8]
 2343              		.loc 1 746 0
 2344 0056 40F20000 		movw	r0, #:lower16:.LANCHOR9
 2345              		.loc 1 748 0
 2346 005a 40F20003 		movw	r3, #:lower16:_0_b
 2347              		.loc 1 746 0
 2348 005e C0F20000 		movt	r0, #:upper16:.LANCHOR9
 2349              		.loc 1 748 0
 2350 0062 C0F20003 		movt	r3, #:upper16:_0_b
 2351              		.loc 1 746 0
 2352 0066 0390     		str	r0, [sp, #12]
 2353              		.loc 1 748 0
 2354 0068 0493     		str	r3, [sp, #16]
 2355 006a 40F20000 		movw	r0, #:lower16:_1_b
 2356 006e 40F20003 		movw	r3, #:lower16:_2_b
 2357 0072 C0F20000 		movt	r0, #:upper16:_1_b
 2358 0076 C0F20003 		movt	r3, #:upper16:_2_b
 2359 007a 0590     		str	r0, [sp, #20]
 2360 007c 0693     		str	r3, [sp, #24]
 2361 007e 40F20000 		movw	r0, #:lower16:_3_b
 2362 0082 40F20003 		movw	r3, #:lower16:_4_b
 2363 0086 C0F20000 		movt	r0, #:upper16:_3_b
 2364 008a C0F20003 		movt	r3, #:upper16:_4_b
 2365 008e 0790     		str	r0, [sp, #28]
 2366 0090 0893     		str	r3, [sp, #32]
 2367 0092 40F20000 		movw	r0, #:lower16:_5_b
 2368 0096 40F20003 		movw	r3, #:lower16:_6_b
 2369 009a C0F20000 		movt	r0, #:upper16:_5_b
 2370 009e C0F20003 		movt	r3, #:upper16:_6_b
 2371 00a2 0990     		str	r0, [sp, #36]
 2372 00a4 0A93     		str	r3, [sp, #40]
 2373 00a6 40F20000 		movw	r0, #:lower16:_7_b
 2374 00aa 40F20003 		movw	r3, #:lower16:_8_b
 2375 00ae C0F20000 		movt	r0, #:upper16:_7_b
 2376 00b2 C0F20003 		movt	r3, #:upper16:_8_b
 2377 00b6 0B90     		str	r0, [sp, #44]
 2378 00b8 0C93     		str	r3, [sp, #48]
 2379 00ba 40F20000 		movw	r0, #:lower16:_9_b
 2380              		.loc 1 750 0
 2381 00be 40F20003 		movw	r3, #:lower16:_a_b
 2382              		.loc 1 748 0
 2383 00c2 C0F20000 		movt	r0, #:upper16:_9_b
 2384              		.loc 1 750 0
 2385 00c6 C0F20003 		movt	r3, #:upper16:_a_b
 2386              		.loc 1 748 0
 2387 00ca 0D90     		str	r0, [sp, #52]
 2388              		.loc 1 750 0
 2389 00cc 0E93     		str	r3, [sp, #56]
 2390 00ce 40F20000 		movw	r0, #:lower16:_b_b
 2391 00d2 40F20003 		movw	r3, #:lower16:_c_b
 2392 00d6 C0F20000 		movt	r0, #:upper16:_b_b
 2393 00da C0F20003 		movt	r3, #:upper16:_c_b
ARM GAS  C:\Users\Elis\AppData\Local\Temp\ccGbXKEy.s 			page 43


 2394 00de 0F90     		str	r0, [sp, #60]
 2395 00e0 1093     		str	r3, [sp, #64]
 2396 00e2 40F20000 		movw	r0, #:lower16:_d_b
 2397 00e6 40F20003 		movw	r3, #:lower16:_e_b
 2398 00ea C0F20000 		movt	r0, #:upper16:_d_b
 2399 00ee C0F20003 		movt	r3, #:upper16:_e_b
 2400 00f2 1190     		str	r0, [sp, #68]
 2401 00f4 1293     		str	r3, [sp, #72]
 2402 00f6 40F20000 		movw	r0, #:lower16:_f_b
 2403 00fa 40F20003 		movw	r3, #:lower16:_g_b
 2404 00fe C0F20000 		movt	r0, #:upper16:_f_b
 2405 0102 C0F20003 		movt	r3, #:upper16:_g_b
 2406 0106 1390     		str	r0, [sp, #76]
 2407 0108 1493     		str	r3, [sp, #80]
 2408 010a 40F20000 		movw	r0, #:lower16:_h_b
 2409 010e 40F20003 		movw	r3, #:lower16:_i_b
 2410 0112 C0F20000 		movt	r0, #:upper16:_h_b
 2411 0116 C0F20003 		movt	r3, #:upper16:_i_b
 2412 011a 1590     		str	r0, [sp, #84]
 2413 011c 1693     		str	r3, [sp, #88]
 2414 011e 40F20000 		movw	r0, #:lower16:_j_b
 2415              		.loc 1 752 0
 2416 0122 40F20003 		movw	r3, #:lower16:_k_b
 2417              		.loc 1 750 0
 2418 0126 C0F20000 		movt	r0, #:upper16:_j_b
 2419              		.loc 1 752 0
 2420 012a C0F20003 		movt	r3, #:upper16:_k_b
 2421              		.loc 1 750 0
 2422 012e 1790     		str	r0, [sp, #92]
 2423              		.loc 1 752 0
 2424 0130 1893     		str	r3, [sp, #96]
 2425 0132 40F20000 		movw	r0, #:lower16:_l_b
 2426 0136 40F20003 		movw	r3, #:lower16:_m_b
 2427 013a C0F20000 		movt	r0, #:upper16:_l_b
 2428 013e C0F20003 		movt	r3, #:upper16:_m_b
 2429 0142 1990     		str	r0, [sp, #100]
 2430 0144 1A93     		str	r3, [sp, #104]
 2431 0146 40F20000 		movw	r0, #:lower16:_n_b
 2432 014a 40F20003 		movw	r3, #:lower16:_o_b
 2433 014e C0F20000 		movt	r0, #:upper16:_n_b
 2434 0152 C0F20003 		movt	r3, #:upper16:_o_b
 2435 0156 1B90     		str	r0, [sp, #108]
 2436 0158 1C93     		str	r3, [sp, #112]
 2437 015a 40F20000 		movw	r0, #:lower16:_p_b
 2438 015e 40F20003 		movw	r3, #:lower16:_r_b
 2439 0162 C0F20000 		movt	r0, #:upper16:_p_b
 2440 0166 C0F20003 		movt	r3, #:upper16:_r_b
 2441 016a 1D90     		str	r0, [sp, #116]
 2442 016c 1E93     		str	r3, [sp, #120]
 2443 016e 40F20000 		movw	r0, #:lower16:_s_b
 2444 0172 40F20003 		movw	r3, #:lower16:_t_b
 2445 0176 C0F20000 		movt	r0, #:upper16:_s_b
 2446 017a C0F20003 		movt	r3, #:upper16:_t_b
 2447 017e 1F90     		str	r0, [sp, #124]
 2448 0180 2093     		str	r3, [sp, #128]
 2449 0182 40F20000 		movw	r0, #:lower16:_u_b
 2450              		.loc 1 754 0
ARM GAS  C:\Users\Elis\AppData\Local\Temp\ccGbXKEy.s 			page 44


 2451 0186 40F20003 		movw	r3, #:lower16:_v_b
 2452              		.loc 1 752 0
 2453 018a C0F20000 		movt	r0, #:upper16:_u_b
 2454              		.loc 1 754 0
 2455 018e C0F20003 		movt	r3, #:upper16:_v_b
 2456              		.loc 1 752 0
 2457 0192 2190     		str	r0, [sp, #132]
 2458              		.loc 1 740 0
 2459 0194 40F2000C 		movw	ip, #:lower16:.LANCHOR8
 2460              		.loc 1 754 0
 2461 0198 2293     		str	r3, [sp, #136]
 2462 019a 40F20003 		movw	r3, #:lower16:_x_b
 2463              		.loc 1 740 0
 2464 019e C0F2000C 		movt	ip, #:upper16:.LANCHOR8
 2465              		.loc 1 754 0
 2466 01a2 C0F20003 		movt	r3, #:upper16:_x_b
 2467 01a6 2493     		str	r3, [sp, #144]
 2468              		.loc 1 732 0
 2469 01a8 0023     		movs	r3, #0
 2470              		.loc 1 740 0
 2471 01aa CCF80030 		str	r3, [ip, #0]
 2472              		.loc 1 742 0
 2473 01ae DDF804C0 		ldr	ip, [sp, #4]
 2474 01b2 CCF80030 		str	r3, [ip, #0]
 2475              		.loc 1 744 0
 2476 01b6 DDF808C0 		ldr	ip, [sp, #8]
 2477 01ba CCF80030 		str	r3, [ip, #0]
 2478              		.loc 1 746 0
 2479 01be DDF80CC0 		ldr	ip, [sp, #12]
 2480 01c2 CCF80030 		str	r3, [ip, #0]
 2481              		.loc 1 748 0
 2482 01c6 DDF810C0 		ldr	ip, [sp, #16]
 2483 01ca CCF80030 		str	r3, [ip, #0]
 2484 01ce DDF814C0 		ldr	ip, [sp, #20]
 2485 01d2 CCF80030 		str	r3, [ip, #0]
 2486 01d6 DDF818C0 		ldr	ip, [sp, #24]
 2487 01da CCF80030 		str	r3, [ip, #0]
 2488 01de DDF81CC0 		ldr	ip, [sp, #28]
 2489 01e2 CCF80030 		str	r3, [ip, #0]
 2490 01e6 DDF820C0 		ldr	ip, [sp, #32]
 2491 01ea CCF80030 		str	r3, [ip, #0]
 2492 01ee DDF824C0 		ldr	ip, [sp, #36]
 2493 01f2 CCF80030 		str	r3, [ip, #0]
 2494 01f6 DDF828C0 		ldr	ip, [sp, #40]
 2495 01fa CCF80030 		str	r3, [ip, #0]
 2496 01fe DDF82CC0 		ldr	ip, [sp, #44]
 2497              		.loc 1 754 0
 2498 0202 40F20000 		movw	r0, #:lower16:_z_b
 2499              		.loc 1 748 0
 2500 0206 CCF80030 		str	r3, [ip, #0]
 2501 020a DDF830C0 		ldr	ip, [sp, #48]
 2502              		.loc 1 754 0
 2503 020e C0F20000 		movt	r0, #:upper16:_z_b
 2504              		.loc 1 734 0
 2505 0212 40F2000A 		movw	sl, #:lower16:.LANCHOR4
 2506              		.loc 1 736 0
 2507 0216 40F20009 		movw	r9, #:lower16:.LANCHOR6
ARM GAS  C:\Users\Elis\AppData\Local\Temp\ccGbXKEy.s 			page 45


 2508              		.loc 1 738 0
 2509 021a 40F20008 		movw	r8, #:lower16:.LANCHOR11
 2510              		.loc 1 754 0
 2511 021e 2390     		str	r0, [sp, #140]
 2512              		.loc 1 748 0
 2513 0220 CCF80030 		str	r3, [ip, #0]
 2514              		.loc 1 732 0
 2515 0224 C0F2000B 		movt	fp, #:upper16:.LANCHOR2
 2516              		.loc 1 748 0
 2517 0228 DDF834C0 		ldr	ip, [sp, #52]
 2518              		.loc 1 732 0
 2519 022c CBF80030 		str	r3, [fp, #0]
 2520              		.loc 1 734 0
 2521 0230 C0F2000A 		movt	sl, #:upper16:.LANCHOR4
 2522              		.loc 1 736 0
 2523 0234 C0F20009 		movt	r9, #:upper16:.LANCHOR6
 2524              		.loc 1 738 0
 2525 0238 C0F20008 		movt	r8, #:upper16:.LANCHOR11
 2526              		.loc 1 756 0
 2527 023c 40F20000 		movw	r0, #:lower16:_space_b
 2528 0240 C0F20000 		movt	r0, #:upper16:_space_b
 2529 0244 2590     		str	r0, [sp, #148]
 2530              		.loc 1 734 0
 2531 0246 CAF80030 		str	r3, [sl, #0]
 2532              		.loc 1 736 0
 2533 024a C9F80030 		str	r3, [r9, #0]
 2534              		.loc 1 738 0
 2535 024e C8F80030 		str	r3, [r8, #0]
 2536              		.loc 1 748 0
 2537 0252 CCF80030 		str	r3, [ip, #0]
 2538              		.loc 1 750 0
 2539 0256 DDF838C0 		ldr	ip, [sp, #56]
 2540 025a CCF80030 		str	r3, [ip, #0]
 2541 025e DDF83CC0 		ldr	ip, [sp, #60]
 2542 0262 CCF80030 		str	r3, [ip, #0]
 2543 0266 DDF840C0 		ldr	ip, [sp, #64]
 2544 026a CCF80030 		str	r3, [ip, #0]
 2545 026e DDF844C0 		ldr	ip, [sp, #68]
 2546 0272 CCF80030 		str	r3, [ip, #0]
 2547 0276 DDF848C0 		ldr	ip, [sp, #72]
 2548 027a CCF80030 		str	r3, [ip, #0]
 2549 027e DDF84CC0 		ldr	ip, [sp, #76]
 2550 0282 CCF80030 		str	r3, [ip, #0]
 2551 0286 DDF850C0 		ldr	ip, [sp, #80]
 2552 028a CCF80030 		str	r3, [ip, #0]
 2553 028e DDF854C0 		ldr	ip, [sp, #84]
 2554 0292 CCF80030 		str	r3, [ip, #0]
 2555 0296 DDF858C0 		ldr	ip, [sp, #88]
 2556 029a CCF80030 		str	r3, [ip, #0]
 2557 029e DDF85CC0 		ldr	ip, [sp, #92]
 2558 02a2 CCF80030 		str	r3, [ip, #0]
 2559              		.loc 1 752 0
 2560 02a6 DDF860C0 		ldr	ip, [sp, #96]
 2561 02aa CCF80030 		str	r3, [ip, #0]
 2562 02ae DDF864C0 		ldr	ip, [sp, #100]
 2563 02b2 CCF80030 		str	r3, [ip, #0]
 2564 02b6 DDF868C0 		ldr	ip, [sp, #104]
ARM GAS  C:\Users\Elis\AppData\Local\Temp\ccGbXKEy.s 			page 46


 2565 02ba CCF80030 		str	r3, [ip, #0]
 2566 02be DDF86CC0 		ldr	ip, [sp, #108]
 2567 02c2 CCF80030 		str	r3, [ip, #0]
 2568 02c6 DDF870C0 		ldr	ip, [sp, #112]
 2569 02ca CCF80030 		str	r3, [ip, #0]
 2570 02ce DDF874C0 		ldr	ip, [sp, #116]
 2571 02d2 CCF80030 		str	r3, [ip, #0]
 2572 02d6 DDF878C0 		ldr	ip, [sp, #120]
 2573 02da CCF80030 		str	r3, [ip, #0]
 2574 02de DDF87CC0 		ldr	ip, [sp, #124]
 2575 02e2 CCF80030 		str	r3, [ip, #0]
 2576 02e6 DDF880C0 		ldr	ip, [sp, #128]
 2577 02ea CCF80030 		str	r3, [ip, #0]
 2578 02ee DDF884C0 		ldr	ip, [sp, #132]
 2579 02f2 CCF80030 		str	r3, [ip, #0]
 2580              		.loc 1 754 0
 2581 02f6 DDF888C0 		ldr	ip, [sp, #136]
 2582 02fa 40F20001 		movw	r1, #:lower16:_slash_b
 2583 02fe CCF80030 		str	r3, [ip, #0]
 2584 0302 C0F20001 		movt	r1, #:upper16:_slash_b
 2585 0306 DDF88CC0 		ldr	ip, [sp, #140]
 2586 030a 0B60     		str	r3, [r1, #0]
 2587 030c 40F20007 		movw	r7, #:lower16:_y_b
 2588 0310 40F20006 		movw	r6, #:lower16:_q_b
 2589 0314 40F20005 		movw	r5, #:lower16:_dot_b
 2590 0318 40F20004 		movw	r4, #:lower16:_comma_b
 2591 031c 40F20002 		movw	r2, #:lower16:_exclamation_b
 2592 0320 CCF80030 		str	r3, [ip, #0]
 2593 0324 C0F20007 		movt	r7, #:upper16:_y_b
 2594 0328 C0F20006 		movt	r6, #:upper16:_q_b
 2595 032c C0F20005 		movt	r5, #:upper16:_dot_b
 2596 0330 C0F20004 		movt	r4, #:upper16:_comma_b
 2597 0334 C0F20002 		movt	r2, #:upper16:_exclamation_b
 2598 0338 DDF890C0 		ldr	ip, [sp, #144]
 2599              		.loc 1 756 0
 2600 033c 2599     		ldr	r1, [sp, #148]
 2601              		.loc 1 754 0
 2602 033e CCF80030 		str	r3, [ip, #0]
 2603              		.loc 1 760 0
 2604 0342 4020     		movs	r0, #64
 2605              		.loc 1 754 0
 2606 0344 3B60     		str	r3, [r7, #0]
 2607 0346 3360     		str	r3, [r6, #0]
 2608 0348 2B60     		str	r3, [r5, #0]
 2609 034a 2360     		str	r3, [r4, #0]
 2610 034c 1360     		str	r3, [r2, #0]
 2611              		.loc 1 756 0
 2612 034e 0B60     		str	r3, [r1, #0]
 2613              		.loc 1 762 0
 2614 0350 27B0     		add	sp, sp, #156
 2615 0352 BDE8F04F 		pop	{r4, r5, r6, r7, r8, r9, sl, fp, lr}
 2616              		.loc 1 760 0
 2617 0356 FFF7FEBF 		b	chThdSetPriority
 2618              	.LVL141:
 2619              		.cfi_endproc
 2620              	.LFE121:
 2621              		.size	destroyContactAddScreen, .-destroyContactAddScreen
ARM GAS  C:\Users\Elis\AppData\Local\Temp\ccGbXKEy.s 			page 47


 2622              		.global	name_contacts_lb
 2623              		.global	telNum_contacts_lb
 2624              		.global	back_contacts_b
 2625              		.global	delete_contacts_b
 2626              		.global	save_contacts_b
 2627              		.global	add_contacts_b
 2628              		.global	home_contacts_b
 2629              		.global	contacts_contacts_l
 2630 035a 00BFAFF3 		.section	.bss.back_p,"aw",%nobits
 2630      0080
 2631              		.align	2
 2632              		.set	.LANCHOR12,. + 0
 2633              		.type	back_p, %object
 2634              		.size	back_p, 24
 2635              	back_p:
 2636 0000 00000000 		.space	24
 2636      00000000 
 2636      00000000 
 2636      00000000 
 2636      00000000 
 2637              		.section	.bss.back_contacts_b,"aw",%nobits
 2638              		.align	2
 2639              		.set	.LANCHOR13,. + 0
 2640              		.type	back_contacts_b, %object
 2641              		.size	back_contacts_b, 4
 2642              	back_contacts_b:
 2643 0000 00000000 		.space	4
 2644              		.section	.bss.mainContainer_c,"aw",%nobits
 2645              		.align	2
 2646              		.set	.LANCHOR1,. + 0
 2647              		.type	mainContainer_c, %object
 2648              		.size	mainContainer_c, 4
 2649              	mainContainer_c:
 2650 0000 00000000 		.space	4
 2651              		.section	.bss.name_contacts_lb,"aw",%nobits
 2652              		.align	2
 2653              		.set	.LANCHOR9,. + 0
 2654              		.type	name_contacts_lb, %object
 2655              		.size	name_contacts_lb, 4
 2656              	name_contacts_lb:
 2657 0000 00000000 		.space	4
 2658              		.section	.bss.del_p,"aw",%nobits
 2659              		.align	2
 2660              		.set	.LANCHOR7,. + 0
 2661              		.type	del_p, %object
 2662              		.size	del_p, 24
 2663              	del_p:
 2664 0000 00000000 		.space	24
 2664      00000000 
 2664      00000000 
 2664      00000000 
 2664      00000000 
 2665              		.section	.bss.add_p,"aw",%nobits
 2666              		.align	2
 2667              		.set	.LANCHOR5,. + 0
 2668              		.type	add_p, %object
 2669              		.size	add_p, 24
ARM GAS  C:\Users\Elis\AppData\Local\Temp\ccGbXKEy.s 			page 48


 2670              	add_p:
 2671 0000 00000000 		.space	24
 2671      00000000 
 2671      00000000 
 2671      00000000 
 2671      00000000 
 2672              		.section	.bss.contacts_contacts_l,"aw",%nobits
 2673              		.align	2
 2674              		.set	.LANCHOR2,. + 0
 2675              		.type	contacts_contacts_l, %object
 2676              		.size	contacts_contacts_l, 4
 2677              	contacts_contacts_l:
 2678 0000 00000000 		.space	4
 2679              		.section	.bss.telNum_contacts_lb,"aw",%nobits
 2680              		.align	2
 2681              		.set	.LANCHOR10,. + 0
 2682              		.type	telNum_contacts_lb, %object
 2683              		.size	telNum_contacts_lb, 4
 2684              	telNum_contacts_lb:
 2685 0000 00000000 		.space	4
 2686              		.section	.rodata.str1.4,"aMS",%progbits,1
 2687              		.align	2
 2688              	.LC0:
 2689 0000 2F746865 		.ascii	"/themes/\000"
 2689      6D65732F 
 2689      00
 2690 0009 000000   		.space	3
 2691              	.LC1:
 2692 000c 2F626163 		.ascii	"/background/background.gif\000"
 2692      6B67726F 
 2692      756E642F 
 2692      6261636B 
 2692      67726F75 
 2693 0027 00       		.space	1
 2694              	.LC2:
 2695 0028 726200   		.ascii	"rb\000"
 2696 002b 00       		.space	1
 2697              	.LC3:
 2698 002c 2F69636F 		.ascii	"/icons/homeButton.gif\000"
 2698      6E732F68 
 2698      6F6D6542 
 2698      7574746F 
 2698      6E2E6769 
 2699 0042 0000     		.space	2
 2700              	.LC4:
 2701 0044 2F69636F 		.ascii	"/icons/addButton.gif\000"
 2701      6E732F61 
 2701      64644275 
 2701      74746F6E 
 2701      2E676966 
 2702 0059 000000   		.space	3
 2703              	.LC5:
 2704 005c 2F69636F 		.ascii	"/icons/delButton.gif\000"
 2704      6E732F64 
 2704      656C4275 
 2704      74746F6E 
 2704      2E676966 
ARM GAS  C:\Users\Elis\AppData\Local\Temp\ccGbXKEy.s 			page 49


 2705 0071 000000   		.space	3
 2706              	.LC6:
 2707 0074 436F6E74 		.ascii	"Container\000"
 2707      61696E65 
 2707      7200
 2708 007e 0000     		.space	2
 2709              	.LC7:
 2710 0080 436F6E74 		.ascii	"Contacts\000"
 2710      61637473 
 2710      00
 2711 0089 000000   		.space	3
 2712              	.LC8:
 2713 008c 486F6D65 		.ascii	"Home\000"
 2713      00
 2714 0091 000000   		.space	3
 2715              	.LC9:
 2716 0094 00       		.ascii	"\000"
 2717 0095 000000   		.space	3
 2718              	.LC10:
 2719 0098 61646400 		.ascii	"add\000"
 2720              	.LC11:
 2721 009c 64656C00 		.ascii	"del\000"
 2722              	.LC12:
 2723 00a0 2F69636F 		.ascii	"/icons/back.gif\000"
 2723      6E732F62 
 2723      61636B2E 
 2723      67696600 
 2724              	.LC13:
 2725 00b0 456E7465 		.ascii	"Enter a name\000"
 2725      72206120 
 2725      6E616D65 
 2725      00
 2726 00bd 000000   		.space	3
 2727              	.LC14:
 2728 00c0 30303030 		.ascii	"000000000\000"
 2728      30303030 
 2728      3000
 2729 00ca 0000     		.space	2
 2730              	.LC15:
 2731 00cc 3000     		.ascii	"0\000"
 2732 00ce 0000     		.space	2
 2733              	.LC16:
 2734 00d0 3100     		.ascii	"1\000"
 2735 00d2 0000     		.space	2
 2736              	.LC17:
 2737 00d4 3200     		.ascii	"2\000"
 2738 00d6 0000     		.space	2
 2739              	.LC18:
 2740 00d8 3300     		.ascii	"3\000"
 2741 00da 0000     		.space	2
 2742              	.LC19:
 2743 00dc 3400     		.ascii	"4\000"
 2744 00de 0000     		.space	2
 2745              	.LC20:
 2746 00e0 3500     		.ascii	"5\000"
 2747 00e2 0000     		.space	2
 2748              	.LC21:
ARM GAS  C:\Users\Elis\AppData\Local\Temp\ccGbXKEy.s 			page 50


 2749 00e4 3600     		.ascii	"6\000"
 2750 00e6 0000     		.space	2
 2751              	.LC22:
 2752 00e8 3700     		.ascii	"7\000"
 2753 00ea 0000     		.space	2
 2754              	.LC23:
 2755 00ec 3800     		.ascii	"8\000"
 2756 00ee 0000     		.space	2
 2757              	.LC24:
 2758 00f0 3900     		.ascii	"9\000"
 2759 00f2 0000     		.space	2
 2760              	.LC25:
 2761 00f4 6100     		.ascii	"a\000"
 2762 00f6 0000     		.space	2
 2763              	.LC26:
 2764 00f8 6200     		.ascii	"b\000"
 2765 00fa 0000     		.space	2
 2766              	.LC27:
 2767 00fc 6300     		.ascii	"c\000"
 2768 00fe 0000     		.space	2
 2769              	.LC28:
 2770 0100 6400     		.ascii	"d\000"
 2771 0102 0000     		.space	2
 2772              	.LC29:
 2773 0104 6500     		.ascii	"e\000"
 2774 0106 0000     		.space	2
 2775              	.LC30:
 2776 0108 6600     		.ascii	"f\000"
 2777 010a 0000     		.space	2
 2778              	.LC31:
 2779 010c 6700     		.ascii	"g\000"
 2780 010e 0000     		.space	2
 2781              	.LC32:
 2782 0110 6800     		.ascii	"h\000"
 2783 0112 0000     		.space	2
 2784              	.LC33:
 2785 0114 6900     		.ascii	"i\000"
 2786 0116 0000     		.space	2
 2787              	.LC34:
 2788 0118 6A00     		.ascii	"j\000"
 2789 011a 0000     		.space	2
 2790              	.LC35:
 2791 011c 6B00     		.ascii	"k\000"
 2792 011e 0000     		.space	2
 2793              	.LC36:
 2794 0120 6C00     		.ascii	"l\000"
 2795 0122 0000     		.space	2
 2796              	.LC37:
 2797 0124 6D00     		.ascii	"m\000"
 2798 0126 0000     		.space	2
 2799              	.LC38:
 2800 0128 6E00     		.ascii	"n\000"
 2801 012a 0000     		.space	2
 2802              	.LC39:
 2803 012c 6F00     		.ascii	"o\000"
 2804 012e 0000     		.space	2
 2805              	.LC40:
ARM GAS  C:\Users\Elis\AppData\Local\Temp\ccGbXKEy.s 			page 51


 2806 0130 7000     		.ascii	"p\000"
 2807 0132 0000     		.space	2
 2808              	.LC41:
 2809 0134 7200     		.ascii	"r\000"
 2810 0136 0000     		.space	2
 2811              	.LC42:
 2812 0138 7300     		.ascii	"s\000"
 2813 013a 0000     		.space	2
 2814              	.LC43:
 2815 013c 7400     		.ascii	"t\000"
 2816 013e 0000     		.space	2
 2817              	.LC44:
 2818 0140 7500     		.ascii	"u\000"
 2819 0142 0000     		.space	2
 2820              	.LC45:
 2821 0144 7600     		.ascii	"v\000"
 2822 0146 0000     		.space	2
 2823              	.LC46:
 2824 0148 7A00     		.ascii	"z\000"
 2825 014a 0000     		.space	2
 2826              	.LC47:
 2827 014c 7800     		.ascii	"x\000"
 2828 014e 0000     		.space	2
 2829              	.LC48:
 2830 0150 7900     		.ascii	"y\000"
 2831 0152 0000     		.space	2
 2832              	.LC49:
 2833 0154 7100     		.ascii	"q\000"
 2834 0156 0000     		.space	2
 2835              	.LC50:
 2836 0158 2E00     		.ascii	".\000"
 2837 015a 0000     		.space	2
 2838              	.LC51:
 2839 015c 2C00     		.ascii	",\000"
 2840 015e 0000     		.space	2
 2841              	.LC52:
 2842 0160 2F00     		.ascii	"/\000"
 2843 0162 0000     		.space	2
 2844              	.LC53:
 2845 0164 2D00     		.ascii	"-\000"
 2846 0166 0000     		.space	2
 2847              	.LC54:
 2848 0168 2000     		.ascii	" \000"
 2849 016a 0000     		.space	2
 2850              	.LC55:
 2851 016c 4261636B 		.ascii	"Back\000"
 2851      00
 2852 0171 000000   		.section	.bss.home_p,"aw",%nobits
 2853              		.align	2
 2854              		.set	.LANCHOR3,. + 0
 2855              		.type	home_p, %object
 2856              		.size	home_p, 24
 2857              	home_p:
 2858 0000 00000000 		.space	24
 2858      00000000 
 2858      00000000 
 2858      00000000 
ARM GAS  C:\Users\Elis\AppData\Local\Temp\ccGbXKEy.s 			page 52


 2858      00000000 
 2859              		.section	.bss.add_contacts_b,"aw",%nobits
 2860              		.align	2
 2861              		.set	.LANCHOR6,. + 0
 2862              		.type	add_contacts_b, %object
 2863              		.size	add_contacts_b, 4
 2864              	add_contacts_b:
 2865 0000 00000000 		.space	4
 2866              		.section	.bss.background_p,"aw",%nobits
 2867              		.align	2
 2868              		.set	.LANCHOR0,. + 0
 2869              		.type	background_p, %object
 2870              		.size	background_p, 24
 2871              	background_p:
 2872 0000 00000000 		.space	24
 2872      00000000 
 2872      00000000 
 2872      00000000 
 2872      00000000 
 2873              		.section	.bss.save_contacts_b,"aw",%nobits
 2874              		.align	2
 2875              		.set	.LANCHOR11,. + 0
 2876              		.type	save_contacts_b, %object
 2877              		.size	save_contacts_b, 4
 2878              	save_contacts_b:
 2879 0000 00000000 		.space	4
 2880              		.section	.bss.delete_contacts_b,"aw",%nobits
 2881              		.align	2
 2882              		.set	.LANCHOR8,. + 0
 2883              		.type	delete_contacts_b, %object
 2884              		.size	delete_contacts_b, 4
 2885              	delete_contacts_b:
 2886 0000 00000000 		.space	4
 2887              		.section	.bss.home_contacts_b,"aw",%nobits
 2888              		.align	2
 2889              		.set	.LANCHOR4,. + 0
 2890              		.type	home_contacts_b, %object
 2891              		.size	home_contacts_b, 4
 2892              	home_contacts_b:
 2893 0000 00000000 		.space	4
 2894              		.text
 2895              	.Letext0:
 2896              		.file 2 "c:\\chibistudio\\tools\\gnu tools arm embedded\\4.7 2014q2\\bin\\../lib/gcc/arm-none-eabi
 2897              		.file 3 "c:\\chibistudio\\tools\\gnu tools arm embedded\\4.7 2014q2\\bin\\../lib/gcc/arm-none-eabi
 2898              		.file 4 "../../chibios/os/ports/GCC/ARMCMx/chtypes.h"
 2899              		.file 5 "../../ugfx/src/gfile/gfile.h"
 2900              		.file 6 "../../ugfx/src/gqueue/gqueue.h"
 2901              		.file 7 "../../ugfx/src/gdisp/gdisp.h"
 2902              		.file 8 "../../ugfx/src/gdisp/gdisp_colors.h"
 2903              		.file 9 "../../ugfx/src/gdisp/gdisp_image.h"
 2904              		.file 10 "../../ugfx/src/gwin/gwin.h"
 2905              		.file 11 "../../ugfx/src/gwin/gwin_widget.h"
 2906              		.file 12 "../../ugfx/src/gwin/gwin_button.h"
 2907              		.file 13 "../../ugfx/src/gwin/gwin_list.h"
 2908              		.file 14 "../../ugfx/src/gwin/gwin_container.h"
 2909              		.file 15 "../../workspace26/Mobile_phone/structures/structures.h"
 2910              		.file 16 "../../chibios/os/ports/common/ARMCMx/CMSIS/include/core_cm4.h"
ARM GAS  C:\Users\Elis\AppData\Local\Temp\ccGbXKEy.s 			page 53


 2911              		.file 17 "../../workspace26/Mobile_phone/gui/contactsScreen.h"
 2912              		.file 18 "../../chibios/os/kernel/include/chthreads.h"
 2913              		.file 19 "c:\\chibistudio\\tools\\gnu tools arm embedded\\4.7 2014q2\\bin\\../lib/gcc/arm-none-eab
 2914              		.file 20 "<built-in>"