ARM GAS  C:\Users\Elis\AppData\Local\Temp\ccGbXKEy.s 			page 1


   1              		.syntax unified
   2              		.cpu cortex-m4
   3              		.fpu softvfp
   4              		.eabi_attribute 20, 1
   5              		.eabi_attribute 21, 1
   6              		.eabi_attribute 23, 3
   7              		.eabi_attribute 24, 1
   8              		.eabi_attribute 25, 1
   9              		.eabi_attribute 26, 1
  10              		.eabi_attribute 30, 2
  11              		.eabi_attribute 34, 1
  12              		.eabi_attribute 18, 4
  13              		.thumb
  14              		.file	"contactsScreen.c"
  15              		.text
  16              	.Ltext0:
  17              		.cfi_sections	.debug_frame
  18              		.section	.text.createContactsScreen,"ax",%progbits
  19              		.align	2
  20              		.p2align 4,,15
  21              		.global	createContactsScreen
  22              		.thumb
  23              		.thumb_func
  24              		.type	createContactsScreen, %function
  25              	createContactsScreen:
  26              	.LFB118:
  27              		.file 1 "../../workspace26/Mobile_phone/gui/contactsScreen.c"
  28              		.loc 1 23 0
  29              		.cfi_startproc
  30              		@ args = 0, pretend = 0, frame = 152
  31              		@ frame_needed = 0, uses_anonymous_args = 0
  32              	.LVL0:
  33 0000 2DE9F04F 		push	{r4, r5, r6, r7, r8, r9, sl, fp, lr}
  34              	.LCFI0:
  35              		.cfi_def_cfa_offset 36
  36              		.cfi_offset 4, -36
  37              		.cfi_offset 5, -32
  38              		.cfi_offset 6, -28
  39              		.cfi_offset 7, -24
  40              		.cfi_offset 8, -20
  41              		.cfi_offset 9, -16
  42              		.cfi_offset 10, -12
  43              		.cfi_offset 11, -8
  44              		.cfi_offset 14, -4
  45 0004 A7B0     		sub	sp, sp, #156
  46              	.LCFI1:
  47              		.cfi_def_cfa_offset 192
  48              		.loc 1 23 0
  49 0006 8046     		mov	r8, r0
  50              		.loc 1 38 0
  51 0008 05A8     		add	r0, sp, #20
  52              	.LVL1:
  53              		.loc 1 46 0
  54 000a 0DAC     		add	r4, sp, #52
  55              		.loc 1 23 0
  56 000c 0391     		str	r1, [sp, #12]
  57 000e 1546     		mov	r5, r2
ARM GAS  C:\Users\Elis\AppData\Local\Temp\ccGbXKEy.s 			page 2


  58              		.loc 1 38 0
  59 0010 FFF7FEFF 		bl	gwinWidgetClearInit
  60              	.LVL2:
  61              		.loc 1 42 0
  62 0014 7F20     		movs	r0, #127
  63 0016 FFF7FEFF 		bl	chThdSetPriority
  64              	.LVL3:
  65              		.loc 1 46 0
  66 001a 0021     		movs	r1, #0
  67 001c 6422     		movs	r2, #100
  68 001e 2046     		mov	r0, r4
  69 0020 FFF7FEFF 		bl	memset
  70              	.LVL4:
  71 0024 2046     		mov	r0, r4
  72 0026 FFF7FEFF 		bl	strlen
  73              	.LVL5:
  74 002a B84E     		ldr	r6, .L28
  75 002c 0246     		mov	r2, r0
  76 002e 03CE     		ldmia	r6!, {r0, r1}
  77 0030 B146     		mov	r9, r6
  78 0032 A318     		adds	r3, r4, r2
  79 0034 19F80879 		ldrb	r7, [r9], #-8	@ zero_extendqisi2
  80 0038 A050     		str	r0, [r4, r2]	@ unaligned
  81 003a 5960     		str	r1, [r3, #4]	@ unaligned
  82 003c 1F72     		strb	r7, [r3, #8]
  83 003e 6422     		movs	r2, #100
  84 0040 2046     		mov	r0, r4
  85 0042 4146     		mov	r1, r8
  86 0044 FFF7FEFF 		bl	strlcat
  87              	.LVL6:
  88 0048 6422     		movs	r2, #100
  89 004a 2046     		mov	r0, r4
  90 004c B049     		ldr	r1, .L28+4
  91 004e FFF7FEFF 		bl	strlcat
  92              	.LVL7:
  93              		.loc 1 48 0
  94 0052 2046     		mov	r0, r4
  95 0054 AF49     		ldr	r1, .L28+8
  96 0056 FFF7FEFF 		bl	gfileOpen
  97              	.LVL8:
  98              		.loc 1 50 0
  99 005a 0021     		movs	r1, #0
 100              		.loc 1 48 0
 101 005c 0346     		mov	r3, r0
 102              	.LVL9:
 103              		.loc 1 50 0
 104 005e 6422     		movs	r2, #100
 105 0060 2046     		mov	r0, r4
 106              	.LVL10:
 107 0062 0193     		str	r3, [sp, #4]
 108 0064 FFF7FEFF 		bl	memset
 109              	.LVL11:
 110 0068 2046     		mov	r0, r4
 111 006a FFF7FEFF 		bl	strlen
 112              	.LVL12:
 113 006e 0246     		mov	r2, r0
 114 0070 B9E80300 		ldmia	r9!, {r0, r1}
ARM GAS  C:\Users\Elis\AppData\Local\Temp\ccGbXKEy.s 			page 3


 115 0074 04EB020E 		add	lr, r4, r2
 116 0078 A050     		str	r0, [r4, r2]	@ unaligned
 117 007a CEF80410 		str	r1, [lr, #4]	@ unaligned
 118 007e 8EF80870 		strb	r7, [lr, #8]
 119 0082 6422     		movs	r2, #100
 120 0084 2046     		mov	r0, r4
 121 0086 4146     		mov	r1, r8
 122 0088 FFF7FEFF 		bl	strlcat
 123              	.LVL13:
 124 008c 6422     		movs	r2, #100
 125 008e 2046     		mov	r0, r4
 126 0090 A149     		ldr	r1, .L28+12
 127 0092 FFF7FEFF 		bl	strlcat
 128              	.LVL14:
 129              		.loc 1 52 0
 130 0096 2046     		mov	r0, r4
 131 0098 9E49     		ldr	r1, .L28+8
 132 009a FFF7FEFF 		bl	gfileOpen
 133              	.LVL15:
 134              		.loc 1 54 0
 135 009e 0021     		movs	r1, #0
 136 00a0 6422     		movs	r2, #100
 137              		.loc 1 52 0
 138 00a2 8346     		mov	fp, r0
 139              	.LVL16:
 140              		.loc 1 54 0
 141 00a4 2046     		mov	r0, r4
 142              	.LVL17:
 143 00a6 FFF7FEFF 		bl	memset
 144              	.LVL18:
 145 00aa 2046     		mov	r0, r4
 146 00ac FFF7FEFF 		bl	strlen
 147              	.LVL19:
 148 00b0 A6F10803 		sub	r3, r6, #8
 149 00b4 8446     		mov	ip, r0
 150 00b6 03CB     		ldmia	r3!, {r0, r1}
 151 00b8 04EB0C0A 		add	sl, r4, ip
 152 00bc 44F80C00 		str	r0, [r4, ip]	@ unaligned
 153 00c0 6422     		movs	r2, #100
 154 00c2 CAF80410 		str	r1, [sl, #4]	@ unaligned
 155 00c6 8AF80870 		strb	r7, [sl, #8]
 156 00ca 2046     		mov	r0, r4
 157 00cc 4146     		mov	r1, r8
 158 00ce FFF7FEFF 		bl	strlcat
 159              	.LVL20:
 160 00d2 6422     		movs	r2, #100
 161 00d4 2046     		mov	r0, r4
 162 00d6 9149     		ldr	r1, .L28+16
 163 00d8 FFF7FEFF 		bl	strlcat
 164              	.LVL21:
 165              		.loc 1 56 0
 166 00dc 2046     		mov	r0, r4
 167 00de 8D49     		ldr	r1, .L28+8
 168 00e0 FFF7FEFF 		bl	gfileOpen
 169              	.LVL22:
 170              		.loc 1 58 0
 171 00e4 0021     		movs	r1, #0
ARM GAS  C:\Users\Elis\AppData\Local\Temp\ccGbXKEy.s 			page 4


 172 00e6 6422     		movs	r2, #100
 173              		.loc 1 56 0
 174 00e8 8246     		mov	sl, r0
 175              	.LVL23:
 176              		.loc 1 58 0
 177 00ea 2046     		mov	r0, r4
 178              	.LVL24:
 179 00ec FFF7FEFF 		bl	memset
 180              	.LVL25:
 181 00f0 2046     		mov	r0, r4
 182 00f2 FFF7FEFF 		bl	strlen
 183              	.LVL26:
 184 00f6 083E     		subs	r6, r6, #8
 185 00f8 0246     		mov	r2, r0
 186 00fa 03CE     		ldmia	r6!, {r0, r1}
 187 00fc A618     		adds	r6, r4, r2
 188 00fe A050     		str	r0, [r4, r2]	@ unaligned
 189 0100 6422     		movs	r2, #100
 190 0102 7160     		str	r1, [r6, #4]	@ unaligned
 191 0104 2046     		mov	r0, r4
 192 0106 4146     		mov	r1, r8
 193 0108 3772     		strb	r7, [r6, #8]
 194 010a FFF7FEFF 		bl	strlcat
 195              	.LVL27:
 196 010e 2046     		mov	r0, r4
 197 0110 8349     		ldr	r1, .L28+20
 198 0112 6422     		movs	r2, #100
 199 0114 FFF7FEFF 		bl	strlcat
 200              	.LVL28:
 201              		.loc 1 60 0
 202 0118 2046     		mov	r0, r4
 203 011a 7E49     		ldr	r1, .L28+8
 204 011c FFF7FEFF 		bl	gfileOpen
 205              	.LVL29:
 206 0120 0290     		str	r0, [sp, #8]
 207              	.LVL30:
 208              		.loc 1 64 0
 209 0122 0120     		movs	r0, #1
 210              	.LVL31:
 211 0124 8DF81C00 		strb	r0, [sp, #28]
 212              		.loc 1 70 0
 213 0128 7E4B     		ldr	r3, .L28+24
 214              		.loc 1 72 0
 215 012a 0198     		ldr	r0, [sp, #4]
 216              		.loc 1 70 0
 217 012c 0993     		str	r3, [sp, #36]
 218              		.loc 1 65 0
 219 012e 0024     		movs	r4, #0
 220              		.loc 1 67 0
 221 0130 F021     		movs	r1, #240
 222              		.loc 1 68 0
 223 0132 4FF4A077 		mov	r7, #320
 224              		.loc 1 65 0
 225 0136 ADF81440 		strh	r4, [sp, #20]	@ movhi
 226              		.loc 1 66 0
 227 013a ADF81640 		strh	r4, [sp, #22]	@ movhi
 228              		.loc 1 67 0
ARM GAS  C:\Users\Elis\AppData\Local\Temp\ccGbXKEy.s 			page 5


 229 013e ADF81810 		strh	r1, [sp, #24]	@ movhi
 230              		.loc 1 68 0
 231 0142 ADF81A70 		strh	r7, [sp, #26]	@ movhi
 232              		.loc 1 69 0
 233 0146 0894     		str	r4, [sp, #32]
 234              		.loc 1 72 0
 235 0148 0028     		cmp	r0, #0
 236 014a 00F00F81 		beq	.L24
 237              		.loc 1 81 0
 238 014e 764E     		ldr	r6, .L28+28
 239 0150 0146     		mov	r1, r0
 240 0152 3046     		mov	r0, r6
 241 0154 FFF7FEFF 		bl	gdispImageOpenGFile
 242              	.LVL32:
 243              		.loc 1 82 0
 244 0158 744A     		ldr	r2, .L28+32
 245              		.loc 1 83 0
 246 015a 0B96     		str	r6, [sp, #44]
 247              		.loc 1 82 0
 248 015c 0A92     		str	r2, [sp, #40]
 249              		.loc 1 84 0
 250 015e 0C94     		str	r4, [sp, #48]
 251              	.L3:
 252              		.loc 1 88 0
 253 0160 734F     		ldr	r7, .L28+36
 254 0162 DFF8F481 		ldr	r8, .L28+76
 255              	.LVL33:
 256 0166 3868     		ldr	r0, [r7, #0]
 257              		.loc 1 103 0
 258 0168 724C     		ldr	r4, .L28+40
 259              		.loc 1 88 0
 260 016a 0021     		movs	r1, #0
 261 016c 0B46     		mov	r3, r1
 262 016e 05AA     		add	r2, sp, #20
 263 0170 FFF7FEFF 		bl	gwinGContainerCreate
 264              	.LVL34:
 265              		.loc 1 93 0
 266 0174 4FF00A0C 		mov	ip, #10
 267              		.loc 1 88 0
 268 0178 8646     		mov	lr, r0
 269              		.loc 1 99 0
 270 017a 0026     		movs	r6, #0
 271              		.loc 1 88 0
 272 017c C8F800E0 		str	lr, [r8, #0]
 273              		.loc 1 93 0
 274 0180 ADF814C0 		strh	ip, [sp, #20]	@ movhi
 275              		.loc 1 94 0
 276 0184 ADF816C0 		strh	ip, [sp, #22]	@ movhi
 277              		.loc 1 97 0
 278 0188 CDF820E0 		str	lr, [sp, #32]
 279              		.loc 1 95 0
 280 018c 4FF0DC0C 		mov	ip, #220
 281              		.loc 1 98 0
 282 0190 DFF8C8E1 		ldr	lr, .L28+80
 283              		.loc 1 95 0
 284 0194 ADF818C0 		strh	ip, [sp, #24]	@ movhi
 285              		.loc 1 103 0
ARM GAS  C:\Users\Elis\AppData\Local\Temp\ccGbXKEy.s 			page 6


 286 0198 05AA     		add	r2, sp, #20
 287 019a 3346     		mov	r3, r6
 288              		.loc 1 96 0
 289 019c 4FF0C80C 		mov	ip, #200
 290              		.loc 1 92 0
 291 01a0 4FF00109 		mov	r9, #1
 292              		.loc 1 103 0
 293 01a4 3146     		mov	r1, r6
 294 01a6 3868     		ldr	r0, [r7, #0]
 295              		.loc 1 96 0
 296 01a8 ADF81AC0 		strh	ip, [sp, #26]	@ movhi
 297              		.loc 1 98 0
 298 01ac CDF824E0 		str	lr, [sp, #36]
 299              		.loc 1 92 0
 300 01b0 8DF81C90 		strb	r9, [sp, #28]
 301              		.loc 1 99 0
 302 01b4 0A96     		str	r6, [sp, #40]
 303              		.loc 1 100 0
 304 01b6 0B96     		str	r6, [sp, #44]
 305              		.loc 1 101 0
 306 01b8 0C96     		str	r6, [sp, #48]
 307              		.loc 1 103 0
 308 01ba FFF7FEFF 		bl	gwinGListCreate
 309              	.LVL35:
 310              		.loc 1 107 0
 311 01be 0221     		movs	r1, #2
 312              		.loc 1 103 0
 313 01c0 2060     		str	r0, [r4, #0]
 314              		.loc 1 107 0
 315 01c2 FFF7FEFF 		bl	gwinListSetScroll
 316              	.LVL36:
 317              		.loc 1 116 0
 318 01c6 D8F80000 		ldr	r0, [r8, #0]
 319              		.loc 1 111 0
 320 01ca 8DF81C90 		strb	r9, [sp, #28]
 321              		.loc 1 114 0
 322 01ce 3C23     		movs	r3, #60
 323              		.loc 1 112 0
 324 01d0 5A22     		movs	r2, #90
 325              		.loc 1 113 0
 326 01d2 F021     		movs	r1, #240
 327              		.loc 1 112 0
 328 01d4 ADF81420 		strh	r2, [sp, #20]	@ movhi
 329              		.loc 1 113 0
 330 01d8 ADF81610 		strh	r1, [sp, #22]	@ movhi
 331              		.loc 1 114 0
 332 01dc ADF81830 		strh	r3, [sp, #24]	@ movhi
 333              		.loc 1 115 0
 334 01e0 ADF81A30 		strh	r3, [sp, #26]	@ movhi
 335              		.loc 1 116 0
 336 01e4 0890     		str	r0, [sp, #32]
 337              		.loc 1 118 0
 338 01e6 BBF1000F 		cmp	fp, #0
 339 01ea 00F0D780 		beq	.L25
 340              		.loc 1 128 0
 341 01ee 524B     		ldr	r3, .L28+44
 342 01f0 5946     		mov	r1, fp
ARM GAS  C:\Users\Elis\AppData\Local\Temp\ccGbXKEy.s 			page 7


 343 01f2 1846     		mov	r0, r3
 344 01f4 0193     		str	r3, [sp, #4]
 345 01f6 FFF7FEFF 		bl	gdispImageOpenGFile
 346              	.LVL37:
 347              		.loc 1 129 0
 348 01fa 5048     		ldr	r0, .L28+48
 349              		.loc 1 130 0
 350 01fc 019A     		ldr	r2, [sp, #4]
 351              		.loc 1 132 0
 352 01fe 5049     		ldr	r1, .L28+52
 353              		.loc 1 129 0
 354 0200 0A90     		str	r0, [sp, #40]
 355              		.loc 1 130 0
 356 0202 0B92     		str	r2, [sp, #44]
 357              		.loc 1 131 0
 358 0204 0C96     		str	r6, [sp, #48]
 359              		.loc 1 132 0
 360 0206 0991     		str	r1, [sp, #36]
 361              	.L5:
 362              		.loc 1 136 0
 363 0208 0021     		movs	r1, #0
 364 020a 05AA     		add	r2, sp, #20
 365 020c 3868     		ldr	r0, [r7, #0]
 366 020e FFF7FEFF 		bl	gwinGButtonCreate
 367              	.LVL38:
 368 0212 4C49     		ldr	r1, .L28+56
 369              		.loc 1 145 0
 370 0214 D8F80020 		ldr	r2, [r8, #0]
 371              		.loc 1 136 0
 372 0218 0860     		str	r0, [r1, #0]
 373              		.loc 1 140 0
 374 021a 0120     		movs	r0, #1
 375              		.loc 1 143 0
 376 021c 3C23     		movs	r3, #60
 377              		.loc 1 140 0
 378 021e 8DF81C00 		strb	r0, [sp, #28]
 379              		.loc 1 141 0
 380 0222 0A21     		movs	r1, #10
 381              		.loc 1 142 0
 382 0224 F020     		movs	r0, #240
 383              		.loc 1 141 0
 384 0226 ADF81410 		strh	r1, [sp, #20]	@ movhi
 385              		.loc 1 142 0
 386 022a ADF81600 		strh	r0, [sp, #22]	@ movhi
 387              		.loc 1 143 0
 388 022e ADF81830 		strh	r3, [sp, #24]	@ movhi
 389              		.loc 1 144 0
 390 0232 ADF81A30 		strh	r3, [sp, #26]	@ movhi
 391              		.loc 1 145 0
 392 0236 0892     		str	r2, [sp, #32]
 393              		.loc 1 147 0
 394 0238 BAF1000F 		cmp	sl, #0
 395 023c 00F0A580 		beq	.L26
 396              		.loc 1 157 0
 397 0240 414E     		ldr	r6, .L28+60
 398 0242 5146     		mov	r1, sl
 399 0244 3046     		mov	r0, r6
ARM GAS  C:\Users\Elis\AppData\Local\Temp\ccGbXKEy.s 			page 8


 400 0246 FFF7FEFF 		bl	gdispImageOpenGFile
 401              	.LVL39:
 402              		.loc 1 158 0
 403 024a 3C4A     		ldr	r2, .L28+48
 404              		.loc 1 161 0
 405 024c 3C49     		ldr	r1, .L28+52
 406              		.loc 1 158 0
 407 024e 0A92     		str	r2, [sp, #40]
 408              		.loc 1 160 0
 409 0250 0023     		movs	r3, #0
 410              		.loc 1 159 0
 411 0252 0B96     		str	r6, [sp, #44]
 412              		.loc 1 160 0
 413 0254 0C93     		str	r3, [sp, #48]
 414              		.loc 1 161 0
 415 0256 0991     		str	r1, [sp, #36]
 416              	.L7:
 417              		.loc 1 165 0
 418 0258 0021     		movs	r1, #0
 419 025a 05AA     		add	r2, sp, #20
 420 025c 3868     		ldr	r0, [r7, #0]
 421 025e FFF7FEFF 		bl	gwinGButtonCreate
 422              	.LVL40:
 423              		.loc 1 174 0
 424 0262 D8F80020 		ldr	r2, [r8, #0]
 425              		.loc 1 165 0
 426 0266 3949     		ldr	r1, .L28+64
 427              		.loc 1 174 0
 428 0268 0892     		str	r2, [sp, #32]
 429              		.loc 1 169 0
 430 026a 0123     		movs	r3, #1
 431              		.loc 1 176 0
 432 026c 029A     		ldr	r2, [sp, #8]
 433              		.loc 1 165 0
 434 026e 0860     		str	r0, [r1, #0]
 435              		.loc 1 169 0
 436 0270 8DF81C30 		strb	r3, [sp, #28]
 437              		.loc 1 172 0
 438 0274 3C20     		movs	r0, #60
 439              		.loc 1 170 0
 440 0276 AA21     		movs	r1, #170
 441              		.loc 1 171 0
 442 0278 F023     		movs	r3, #240
 443              		.loc 1 170 0
 444 027a ADF81410 		strh	r1, [sp, #20]	@ movhi
 445              		.loc 1 171 0
 446 027e ADF81630 		strh	r3, [sp, #22]	@ movhi
 447              		.loc 1 172 0
 448 0282 ADF81800 		strh	r0, [sp, #24]	@ movhi
 449              		.loc 1 173 0
 450 0286 ADF81A00 		strh	r0, [sp, #26]	@ movhi
 451              		.loc 1 176 0
 452 028a 002A     		cmp	r2, #0
 453 028c 74D0     		beq	.L27
 454              		.loc 1 186 0
 455 028e 304E     		ldr	r6, .L28+68
 456 0290 0299     		ldr	r1, [sp, #8]
ARM GAS  C:\Users\Elis\AppData\Local\Temp\ccGbXKEy.s 			page 9


 457 0292 3046     		mov	r0, r6
 458 0294 FFF7FEFF 		bl	gdispImageOpenGFile
 459              	.LVL41:
 460              		.loc 1 187 0
 461 0298 2848     		ldr	r0, .L28+48
 462              		.loc 1 190 0
 463 029a 294B     		ldr	r3, .L28+52
 464              		.loc 1 187 0
 465 029c 0A90     		str	r0, [sp, #40]
 466              		.loc 1 189 0
 467 029e 0021     		movs	r1, #0
 468              		.loc 1 188 0
 469 02a0 0B96     		str	r6, [sp, #44]
 470              		.loc 1 189 0
 471 02a2 0C91     		str	r1, [sp, #48]
 472              		.loc 1 190 0
 473 02a4 0993     		str	r3, [sp, #36]
 474              	.L9:
 475              		.loc 1 194 0
 476 02a6 0021     		movs	r1, #0
 477 02a8 05AA     		add	r2, sp, #20
 478 02aa 3868     		ldr	r0, [r7, #0]
 479 02ac FFF7FEFF 		bl	gwinGButtonCreate
 480              	.LVL42:
 481 02b0 284A     		ldr	r2, .L28+72
 482              		.loc 1 198 0
 483 02b2 002D     		cmp	r5, #0
 484              		.loc 1 194 0
 485 02b4 1060     		str	r0, [r2, #0]
 486              	.LVL43:
 487              		.loc 1 198 0
 488 02b6 53DD     		ble	.L12
 489 02b8 039F     		ldr	r7, [sp, #12]
 490              		.loc 1 200 0
 491 02ba 2068     		ldr	r0, [r4, #0]
 492 02bc 3968     		ldr	r1, [r7, #0]
 493 02be 0126     		movs	r6, #1
 494 02c0 6B1E     		subs	r3, r5, #1
 495 02c2 3246     		mov	r2, r6
 496 02c4 03EA0608 		and	r8, r3, r6
 497 02c8 FFF7FEFF 		bl	gwinListAddItem
 498              	.LVL44:
 499              		.loc 1 198 0
 500 02cc AE42     		cmp	r6, r5
 501 02ce 47D0     		beq	.L12
 502 02d0 B8F1000F 		cmp	r8, #0
 503 02d4 08D0     		beq	.L11
 504              		.loc 1 200 0
 505 02d6 3246     		mov	r2, r6
 506 02d8 2068     		ldr	r0, [r4, #0]
 507 02da 57F8041F 		ldr	r1, [r7, #4]!
 508              		.loc 1 198 0
 509 02de 0226     		movs	r6, #2
 510              		.loc 1 200 0
 511 02e0 FFF7FEFF 		bl	gwinListAddItem
 512              	.LVL45:
 513              		.loc 1 198 0
ARM GAS  C:\Users\Elis\AppData\Local\Temp\ccGbXKEy.s 			page 10


 514 02e4 AE42     		cmp	r6, r5
 515 02e6 3BD0     		beq	.L12
 516              	.L11:
 517              		.loc 1 200 0 discriminator 2
 518 02e8 0122     		movs	r2, #1
 519 02ea 7968     		ldr	r1, [r7, #4]
 520 02ec 2068     		ldr	r0, [r4, #0]
 521              		.loc 1 198 0 discriminator 2
 522 02ee B618     		adds	r6, r6, r2
 523 02f0 0136     		adds	r6, r6, #1
 524              		.loc 1 200 0 discriminator 2
 525 02f2 FFF7FEFF 		bl	gwinListAddItem
 526              	.LVL46:
 527 02f6 B968     		ldr	r1, [r7, #8]
 528 02f8 2068     		ldr	r0, [r4, #0]
 529 02fa 0122     		movs	r2, #1
 530 02fc 07F10408 		add	r8, r7, #4
 531 0300 FFF7FEFF 		bl	gwinListAddItem
 532              	.LVL47:
 533 0304 0837     		adds	r7, r7, #8
 534              		.loc 1 198 0 discriminator 2
 535 0306 AE42     		cmp	r6, r5
 536 0308 EED1     		bne	.L11
 537 030a 29E0     		b	.L29
 538              	.L30:
 539              		.align	2
 540              	.L28:
 541 030c 00000000 		.word	.LC0
 542 0310 0C000000 		.word	.LC1
 543 0314 28000000 		.word	.LC2
 544 0318 2C000000 		.word	.LC3
 545 031c 44000000 		.word	.LC4
 546 0320 5C000000 		.word	.LC5
 547 0324 74000000 		.word	.LC6
 548 0328 00000000 		.word	.LANCHOR0
 549 032c 00000000 		.word	gwinContainerDraw_Image
 550 0330 00000000 		.word	GDISP
 551 0334 00000000 		.word	.LANCHOR2
 552 0338 00000000 		.word	.LANCHOR3
 553 033c 00000000 		.word	gwinButtonDraw_Image
 554 0340 94000000 		.word	.LC9
 555 0344 00000000 		.word	.LANCHOR4
 556 0348 00000000 		.word	.LANCHOR5
 557 034c 00000000 		.word	.LANCHOR6
 558 0350 00000000 		.word	.LANCHOR7
 559 0354 00000000 		.word	.LANCHOR8
 560 0358 00000000 		.word	.LANCHOR1
 561 035c 80000000 		.word	.LC7
 562              	.L29:
 563              	.L12:
 564              		.loc 1 206 0
 565 0360 4020     		movs	r0, #64
 566 0362 FFF7FEFF 		bl	chThdSetPriority
 567              	.LVL48:
 568              		.loc 1 208 0
 569 0366 27B0     		add	sp, sp, #156
 570 0368 BDE8F08F 		pop	{r4, r5, r6, r7, r8, r9, sl, fp, pc}
ARM GAS  C:\Users\Elis\AppData\Local\Temp\ccGbXKEy.s 			page 11


 571              	.LVL49:
 572              	.L24:
 573              		.loc 1 74 0
 574 036c 104C     		ldr	r4, .L31
 575              		.loc 1 75 0
 576 036e 1149     		ldr	r1, .L31+4
 577              		.loc 1 74 0
 578 0370 0A94     		str	r4, [sp, #40]
 579              		.loc 1 75 0
 580 0372 0C91     		str	r1, [sp, #48]
 581              		.loc 1 76 0
 582 0374 0B90     		str	r0, [sp, #44]
 583 0376 F3E6     		b	.L3
 584              	.LVL50:
 585              	.L27:
 586              		.loc 1 178 0
 587 0378 0F4A     		ldr	r2, .L31+8
 588              		.loc 1 179 0
 589 037a 0E48     		ldr	r0, .L31+4
 590              		.loc 1 180 0
 591 037c 0299     		ldr	r1, [sp, #8]
 592              		.loc 1 181 0
 593 037e 0F4B     		ldr	r3, .L31+12
 594              		.loc 1 178 0
 595 0380 0A92     		str	r2, [sp, #40]
 596              		.loc 1 179 0
 597 0382 0C90     		str	r0, [sp, #48]
 598              		.loc 1 180 0
 599 0384 0B91     		str	r1, [sp, #44]
 600              		.loc 1 181 0
 601 0386 0993     		str	r3, [sp, #36]
 602 0388 8DE7     		b	.L9
 603              	.L26:
 604              		.loc 1 149 0
 605 038a 0B48     		ldr	r0, .L31+8
 606              		.loc 1 150 0
 607 038c 094A     		ldr	r2, .L31+4
 608              		.loc 1 152 0
 609 038e 0C4B     		ldr	r3, .L31+16
 610              		.loc 1 149 0
 611 0390 0A90     		str	r0, [sp, #40]
 612              		.loc 1 150 0
 613 0392 0C92     		str	r2, [sp, #48]
 614              		.loc 1 151 0
 615 0394 CDF82CA0 		str	sl, [sp, #44]
 616              		.loc 1 152 0
 617 0398 0993     		str	r3, [sp, #36]
 618 039a 5DE7     		b	.L7
 619              	.L25:
 620              		.loc 1 120 0
 621 039c 064B     		ldr	r3, .L31+8
 622              		.loc 1 121 0
 623 039e 0548     		ldr	r0, .L31+4
 624              		.loc 1 123 0
 625 03a0 084A     		ldr	r2, .L31+20
 626              		.loc 1 120 0
 627 03a2 0A93     		str	r3, [sp, #40]
ARM GAS  C:\Users\Elis\AppData\Local\Temp\ccGbXKEy.s 			page 12


 628              		.loc 1 121 0
 629 03a4 0C90     		str	r0, [sp, #48]
 630              		.loc 1 122 0
 631 03a6 CDF82CB0 		str	fp, [sp, #44]
 632              		.loc 1 123 0
 633 03aa 0992     		str	r2, [sp, #36]
 634 03ac 2CE7     		b	.L5
 635              	.L32:
 636 03ae 00BF     		.align	2
 637              	.L31:
 638 03b0 00000000 		.word	gwinContainerDraw_Std
 639 03b4 00000000 		.word	WhiteWidgetStyle
 640 03b8 00000000 		.word	gwinButtonDraw_Normal
 641 03bc 9C000000 		.word	.LC11
 642 03c0 98000000 		.word	.LC10
 643 03c4 8C000000 		.word	.LC8
 644              		.cfi_endproc
 645              	.LFE118:
 646              		.size	createContactsScreen, .-createContactsScreen
 647 03c8 AFF30080 		.section	.text.destroyContactsScreen,"ax",%progbits
 647      AFF30080 
 648              		.align	2
 649              		.p2align 4,,15
 650              		.global	destroyContactsScreen
 651              		.thumb
 652              		.thumb_func
 653              		.type	destroyContactsScreen, %function
 654              	destroyContactsScreen:
 655              	.LFB119:
 656              		.loc 1 210 0
 657              		.cfi_startproc
 658              		@ args = 0, pretend = 0, frame = 0
 659              		@ frame_needed = 0, uses_anonymous_args = 0
 660 0000 08B5     		push	{r3, lr}
 661              	.LCFI2:
 662              		.cfi_def_cfa_offset 8
 663              		.cfi_offset 3, -8
 664              		.cfi_offset 14, -4
 665              		.loc 1 214 0
 666 0002 7F20     		movs	r0, #127
 667 0004 FFF7FEFF 		bl	chThdSetPriority
 668              	.LVL51:
 669              		.loc 1 218 0
 670 0008 40F20000 		movw	r0, #:lower16:.LANCHOR0
 671 000c C0F20000 		movt	r0, #:upper16:.LANCHOR0
 672 0010 FFF7FEFF 		bl	gdispImageClose
 673              	.LVL52:
 674              		.loc 1 220 0
 675 0014 40F20000 		movw	r0, #:lower16:.LANCHOR3
 676 0018 C0F20000 		movt	r0, #:upper16:.LANCHOR3
 677 001c FFF7FEFF 		bl	gdispImageClose
 678              	.LVL53:
 679              		.loc 1 222 0
 680 0020 40F20000 		movw	r0, #:lower16:.LANCHOR5
 681 0024 C0F20000 		movt	r0, #:upper16:.LANCHOR5
 682 0028 FFF7FEFF 		bl	gdispImageClose
 683              	.LVL54:
ARM GAS  C:\Users\Elis\AppData\Local\Temp\ccGbXKEy.s 			page 13


 684              		.loc 1 224 0
 685 002c 40F20000 		movw	r0, #:lower16:.LANCHOR7
 686 0030 C0F20000 		movt	r0, #:upper16:.LANCHOR7
 687 0034 FFF7FEFF 		bl	gdispImageClose
 688              	.LVL55:
 689              		.loc 1 228 0
 690 0038 40F20003 		movw	r3, #:lower16:.LANCHOR1
 691 003c C0F20003 		movt	r3, #:upper16:.LANCHOR1
 692 0040 1868     		ldr	r0, [r3, #0]
 693 0042 FFF7FEFF 		bl	gwinDestroy
 694              	.LVL56:
 695              		.loc 1 232 0
 696 0046 4020     		movs	r0, #64
 697              		.loc 1 234 0
 698 0048 BDE80840 		pop	{r3, lr}
 699              		.loc 1 232 0
 700 004c FFF7FEBF 		b	chThdSetPriority
 701              	.LVL57:
 702              		.cfi_endproc
 703              	.LFE119:
 704              		.size	destroyContactsScreen, .-destroyContactsScreen
 705              		.section	.text.createContactAddScreen,"ax",%progbits
 706              		.align	2
 707              		.p2align 4,,15
 708              		.global	createContactAddScreen
 709              		.thumb
 710              		.thumb_func
 711              		.type	createContactAddScreen, %function
 712              	createContactAddScreen:
 713              	.LFB120:
 714              		.loc 1 236 0
 715              		.cfi_startproc
 716              		@ args = 0, pretend = 0, frame = 152
 717              		@ frame_needed = 0, uses_anonymous_args = 0
 718              	.LVL58:
 719 0000 2DE9F04F 		push	{r4, r5, r6, r7, r8, r9, sl, fp, lr}
 720              	.LCFI3:
 721              		.cfi_def_cfa_offset 36
 722              		.cfi_offset 4, -36
 723              		.cfi_offset 5, -32
 724              		.cfi_offset 6, -28
 725              		.cfi_offset 7, -24
 726              		.cfi_offset 8, -20
 727              		.cfi_offset 9, -16
 728              		.cfi_offset 10, -12
 729              		.cfi_offset 11, -8
 730              		.cfi_offset 14, -4
 731 0004 A7B0     		sub	sp, sp, #156
 732              	.LCFI4:
 733              		.cfi_def_cfa_offset 192
 734              		.loc 1 236 0
 735 0006 0746     		mov	r7, r0
 736              		.loc 1 248 0
 737 0008 05A8     		add	r0, sp, #20
 738              	.LVL59:
 739              		.loc 1 256 0
 740 000a 0DAC     		add	r4, sp, #52
ARM GAS  C:\Users\Elis\AppData\Local\Temp\ccGbXKEy.s 			page 14


 741              		.loc 1 248 0
 742 000c FFF7FEFF 		bl	gwinWidgetClearInit
 743              	.LVL60:
 744              		.loc 1 252 0
 745 0010 7F20     		movs	r0, #127
 746 0012 FFF7FEFF 		bl	chThdSetPriority
 747              	.LVL61:
 748              		.loc 1 256 0
 749 0016 0021     		movs	r1, #0
 750 0018 6422     		movs	r2, #100
 751 001a 2046     		mov	r0, r4
 752 001c FFF7FEFF 		bl	memset
 753              	.LVL62:
 754 0020 2046     		mov	r0, r4
 755 0022 FFF7FEFF 		bl	strlen
 756              	.LVL63:
 757 0026 BE4D     		ldr	r5, .L44
 758 0028 0246     		mov	r2, r0
 759 002a 03CD     		ldmia	r5!, {r0, r1}
 760 002c 2E46     		mov	r6, r5
 761 002e A318     		adds	r3, r4, r2
 762 0030 16F80899 		ldrb	r9, [r6], #-8	@ zero_extendqisi2
 763 0034 A050     		str	r0, [r4, r2]	@ unaligned
 764 0036 5960     		str	r1, [r3, #4]	@ unaligned
 765 0038 83F80890 		strb	r9, [r3, #8]
 766 003c 6422     		movs	r2, #100
 767 003e 3946     		mov	r1, r7
 768 0040 2046     		mov	r0, r4
 769 0042 FFF7FEFF 		bl	strlcat
 770              	.LVL64:
 771 0046 6422     		movs	r2, #100
 772 0048 2046     		mov	r0, r4
 773 004a B649     		ldr	r1, .L44+4
 774 004c FFF7FEFF 		bl	strlcat
 775              	.LVL65:
 776              		.loc 1 258 0
 777 0050 2046     		mov	r0, r4
 778 0052 B549     		ldr	r1, .L44+8
 779 0054 FFF7FEFF 		bl	gfileOpen
 780              	.LVL66:
 781              		.loc 1 260 0
 782 0058 0021     		movs	r1, #0
 783 005a 6422     		movs	r2, #100
 784              		.loc 1 258 0
 785 005c 8046     		mov	r8, r0
 786              	.LVL67:
 787              		.loc 1 260 0
 788 005e 2046     		mov	r0, r4
 789              	.LVL68:
 790 0060 FFF7FEFF 		bl	memset
 791              	.LVL69:
 792 0064 2046     		mov	r0, r4
 793 0066 FFF7FEFF 		bl	strlen
 794              	.LVL70:
 795 006a 0246     		mov	r2, r0
 796 006c 03CE     		ldmia	r6!, {r0, r1}
 797 006e A618     		adds	r6, r4, r2
ARM GAS  C:\Users\Elis\AppData\Local\Temp\ccGbXKEy.s 			page 15


 798 0070 A050     		str	r0, [r4, r2]	@ unaligned
 799 0072 6422     		movs	r2, #100
 800 0074 7160     		str	r1, [r6, #4]	@ unaligned
 801 0076 2046     		mov	r0, r4
 802 0078 3946     		mov	r1, r7
 803 007a 86F80890 		strb	r9, [r6, #8]
 804 007e FFF7FEFF 		bl	strlcat
 805              	.LVL71:
 806 0082 6422     		movs	r2, #100
 807 0084 2046     		mov	r0, r4
 808 0086 A949     		ldr	r1, .L44+12
 809 0088 FFF7FEFF 		bl	strlcat
 810              	.LVL72:
 811              		.loc 1 262 0
 812 008c 2046     		mov	r0, r4
 813 008e A649     		ldr	r1, .L44+8
 814 0090 FFF7FEFF 		bl	gfileOpen
 815              	.LVL73:
 816              		.loc 1 264 0
 817 0094 0021     		movs	r1, #0
 818 0096 6422     		movs	r2, #100
 819              		.loc 1 262 0
 820 0098 0290     		str	r0, [sp, #8]
 821              	.LVL74:
 822              		.loc 1 264 0
 823 009a 2046     		mov	r0, r4
 824              	.LVL75:
 825 009c FFF7FEFF 		bl	memset
 826              	.LVL76:
 827 00a0 2046     		mov	r0, r4
 828 00a2 FFF7FEFF 		bl	strlen
 829              	.LVL77:
 830 00a6 083D     		subs	r5, r5, #8
 831 00a8 0246     		mov	r2, r0
 832 00aa 03CD     		ldmia	r5!, {r0, r1}
 833 00ac A518     		adds	r5, r4, r2
 834 00ae A050     		str	r0, [r4, r2]	@ unaligned
 835 00b0 6422     		movs	r2, #100
 836 00b2 6960     		str	r1, [r5, #4]	@ unaligned
 837 00b4 2046     		mov	r0, r4
 838 00b6 3946     		mov	r1, r7
 839 00b8 85F80890 		strb	r9, [r5, #8]
 840 00bc FFF7FEFF 		bl	strlcat
 841              	.LVL78:
 842 00c0 6422     		movs	r2, #100
 843 00c2 2046     		mov	r0, r4
 844 00c4 9A49     		ldr	r1, .L44+16
 845 00c6 FFF7FEFF 		bl	strlcat
 846              	.LVL79:
 847              		.loc 1 266 0
 848 00ca 2046     		mov	r0, r4
 849 00cc 9649     		ldr	r1, .L44+8
 850 00ce FFF7FEFF 		bl	gfileOpen
 851              	.LVL80:
 852              		.loc 1 276 0
 853 00d2 984B     		ldr	r3, .L44+20
 854              		.loc 1 266 0
ARM GAS  C:\Users\Elis\AppData\Local\Temp\ccGbXKEy.s 			page 16


 855 00d4 0390     		str	r0, [sp, #12]
 856              	.LVL81:
 857              		.loc 1 271 0
 858 00d6 0027     		movs	r7, #0
 859              	.LVL82:
 860              		.loc 1 270 0
 861 00d8 0120     		movs	r0, #1
 862              	.LVL83:
 863              		.loc 1 274 0
 864 00da 4FF4A074 		mov	r4, #320
 865              		.loc 1 273 0
 866 00de F021     		movs	r1, #240
 867              		.loc 1 270 0
 868 00e0 8DF81C00 		strb	r0, [sp, #28]
 869              		.loc 1 271 0
 870 00e4 ADF81470 		strh	r7, [sp, #20]	@ movhi
 871              		.loc 1 272 0
 872 00e8 ADF81670 		strh	r7, [sp, #22]	@ movhi
 873              		.loc 1 273 0
 874 00ec ADF81810 		strh	r1, [sp, #24]	@ movhi
 875              		.loc 1 274 0
 876 00f0 ADF81A40 		strh	r4, [sp, #26]	@ movhi
 877              		.loc 1 275 0
 878 00f4 0897     		str	r7, [sp, #32]
 879              		.loc 1 276 0
 880 00f6 0993     		str	r3, [sp, #36]
 881              		.loc 1 278 0
 882 00f8 B8F1000F 		cmp	r8, #0
 883 00fc 00F03F84 		beq	.L41
 884              		.loc 1 287 0
 885 0100 8D4E     		ldr	r6, .L44+24
 886 0102 8E4A     		ldr	r2, .L44+28
 887              		.loc 1 288 0
 888 0104 8E4D     		ldr	r5, .L44+32
 889 0106 0192     		str	r2, [sp, #4]
 890              		.loc 1 287 0
 891 0108 3046     		mov	r0, r6
 892 010a 4146     		mov	r1, r8
 893 010c FFF7FEFF 		bl	gdispImageOpenGFile
 894              	.LVL84:
 895              		.loc 1 289 0
 896 0110 0B96     		str	r6, [sp, #44]
 897              		.loc 1 288 0
 898 0112 0A95     		str	r5, [sp, #40]
 899              		.loc 1 290 0
 900 0114 0C97     		str	r7, [sp, #48]
 901              	.L36:
 902              		.loc 1 294 0
 903 0116 8B4C     		ldr	r4, .L44+36
 904 0118 8B4F     		ldr	r7, .L44+40
 905 011a 2068     		ldr	r0, [r4, #0]
 906              		.loc 1 302 0
 907 011c DFF880A2 		ldr	sl, .L44+128
 908              		.loc 1 294 0
 909 0120 0021     		movs	r1, #0
 910 0122 0B46     		mov	r3, r1
 911 0124 05AA     		add	r2, sp, #20
ARM GAS  C:\Users\Elis\AppData\Local\Temp\ccGbXKEy.s 			page 17


 912 0126 FFF7FEFF 		bl	gwinGContainerCreate
 913              	.LVL85:
 914 012a 0346     		mov	r3, r0
 915 012c 3B60     		str	r3, [r7, #0]
 916              		.loc 1 303 0
 917 012e 0893     		str	r3, [sp, #32]
 918              		.loc 1 304 0
 919 0130 40F20003 		movw	r3, #:lower16:gwinButtonDraw_Normal
 920 0134 C0F20003 		movt	r3, #:upper16:gwinButtonDraw_Normal
 921 0138 0A93     		str	r3, [sp, #40]
 922              		.loc 1 305 0
 923 013a 019B     		ldr	r3, [sp, #4]
 924              		.loc 1 309 0
 925 013c 2068     		ldr	r0, [r4, #0]
 926              		.loc 1 305 0
 927 013e 0C93     		str	r3, [sp, #48]
 928              		.loc 1 301 0
 929 0140 4FF01409 		mov	r9, #20
 930              		.loc 1 306 0
 931 0144 0025     		movs	r5, #0
 932              		.loc 1 298 0
 933 0146 4FF00A0C 		mov	ip, #10
 934              		.loc 1 300 0
 935 014a DC26     		movs	r6, #220
 936              		.loc 1 307 0
 937 014c 0123     		movs	r3, #1
 938              		.loc 1 309 0
 939 014e 2946     		mov	r1, r5
 940 0150 0DEB0902 		add	r2, sp, r9
 941              		.loc 1 298 0
 942 0154 ADF816C0 		strh	ip, [sp, #22]	@ movhi
 943              		.loc 1 299 0
 944 0158 ADF814C0 		strh	ip, [sp, #20]	@ movhi
 945              		.loc 1 309 0
 946 015c CDF800C0 		str	ip, [sp, #0]
 947              		.loc 1 300 0
 948 0160 ADF81860 		strh	r6, [sp, #24]	@ movhi
 949              		.loc 1 302 0
 950 0164 CDF824A0 		str	sl, [sp, #36]
 951              		.loc 1 307 0
 952 0168 8DF81C30 		strb	r3, [sp, #28]
 953              		.loc 1 301 0
 954 016c ADF81A90 		strh	r9, [sp, #26]	@ movhi
 955              		.loc 1 306 0
 956 0170 0B95     		str	r5, [sp, #44]
 957              		.loc 1 309 0
 958 0172 FFF7FEFF 		bl	gwinGButtonCreate
 959              	.LVL86:
 960              		.loc 1 315 0
 961 0176 ADF81860 		strh	r6, [sp, #24]	@ movhi
 962              		.loc 1 317 0
 963 017a 744E     		ldr	r6, .L44+44
 964              		.loc 1 318 0
 965 017c 3B68     		ldr	r3, [r7, #0]
 966              		.loc 1 309 0
 967 017e 7449     		ldr	r1, .L44+48
 968              		.loc 1 317 0
ARM GAS  C:\Users\Elis\AppData\Local\Temp\ccGbXKEy.s 			page 18


 969 0180 0996     		str	r6, [sp, #36]
 970              		.loc 1 319 0
 971 0182 40F20006 		movw	r6, #:lower16:gwinButtonDraw_Normal
 972              		.loc 1 314 0
 973 0186 DDF800B0 		ldr	fp, [sp, #0]
 974              		.loc 1 318 0
 975 018a 0893     		str	r3, [sp, #32]
 976              		.loc 1 319 0
 977 018c C0F20006 		movt	r6, #:upper16:gwinButtonDraw_Normal
 978              		.loc 1 320 0
 979 0190 019B     		ldr	r3, [sp, #4]
 980              		.loc 1 309 0
 981 0192 0860     		str	r0, [r1, #0]
 982              		.loc 1 313 0
 983 0194 4FF0280E 		mov	lr, #40
 984              		.loc 1 324 0
 985 0198 2946     		mov	r1, r5
 986 019a 0DEB0902 		add	r2, sp, r9
 987              		.loc 1 319 0
 988 019e 0A96     		str	r6, [sp, #40]
 989              		.loc 1 324 0
 990 01a0 2068     		ldr	r0, [r4, #0]
 991              		.loc 1 313 0
 992 01a2 ADF816E0 		strh	lr, [sp, #22]	@ movhi
 993              		.loc 1 322 0
 994 01a6 0126     		movs	r6, #1
 995              		.loc 1 314 0
 996 01a8 ADF814B0 		strh	fp, [sp, #20]	@ movhi
 997              		.loc 1 320 0
 998 01ac 0C93     		str	r3, [sp, #48]
 999              		.loc 1 322 0
 1000 01ae 8DF81C60 		strb	r6, [sp, #28]
 1001              		.loc 1 316 0
 1002 01b2 ADF81A90 		strh	r9, [sp, #26]	@ movhi
 1003              		.loc 1 321 0
 1004 01b6 0B95     		str	r5, [sp, #44]
 1005              		.loc 1 324 0
 1006 01b8 FFF7FEFF 		bl	gwinGButtonCreate
 1007              	.LVL87:
 1008 01bc 654A     		ldr	r2, .L44+52
 1009              		.loc 1 332 0
 1010 01be 664B     		ldr	r3, .L44+56
 1011              		.loc 1 324 0
 1012 01c0 1060     		str	r0, [r2, #0]
 1013              		.loc 1 328 0
 1014 01c2 5A26     		movs	r6, #90
 1015              		.loc 1 329 0
 1016 01c4 4FF00B0B 		mov	fp, #11
 1017              		.loc 1 334 0
 1018 01c8 2946     		mov	r1, r5
 1019 01ca 0DEB0902 		add	r2, sp, r9
 1020 01ce 2068     		ldr	r0, [r4, #0]
 1021              		.loc 1 328 0
 1022 01d0 ADF81660 		strh	r6, [sp, #22]	@ movhi
 1023              		.loc 1 332 0
 1024 01d4 0993     		str	r3, [sp, #36]
 1025              		.loc 1 329 0
ARM GAS  C:\Users\Elis\AppData\Local\Temp\ccGbXKEy.s 			page 19


 1026 01d6 ADF814B0 		strh	fp, [sp, #20]	@ movhi
 1027              		.loc 1 330 0
 1028 01da ADF81890 		strh	r9, [sp, #24]	@ movhi
 1029              		.loc 1 331 0
 1030 01de ADF81A90 		strh	r9, [sp, #26]	@ movhi
 1031              		.loc 1 334 0
 1032 01e2 FFF7FEFF 		bl	gwinGButtonCreate
 1033              	.LVL88:
 1034 01e6 5D49     		ldr	r1, .L44+60
 1035              		.loc 1 340 0
 1036 01e8 5D4B     		ldr	r3, .L44+64
 1037              		.loc 1 334 0
 1038 01ea 0860     		str	r0, [r1, #0]
 1039              		.loc 1 337 0
 1040 01ec 4FF0210A 		mov	sl, #33
 1041              		.loc 1 342 0
 1042 01f0 2946     		mov	r1, r5
 1043 01f2 0DEB0902 		add	r2, sp, r9
 1044 01f6 2068     		ldr	r0, [r4, #0]
 1045              		.loc 1 336 0
 1046 01f8 ADF81660 		strh	r6, [sp, #22]	@ movhi
 1047              		.loc 1 340 0
 1048 01fc 0993     		str	r3, [sp, #36]
 1049              		.loc 1 337 0
 1050 01fe ADF814A0 		strh	sl, [sp, #20]	@ movhi
 1051              		.loc 1 338 0
 1052 0202 ADF81890 		strh	r9, [sp, #24]	@ movhi
 1053              		.loc 1 339 0
 1054 0206 ADF81A90 		strh	r9, [sp, #26]	@ movhi
 1055              		.loc 1 342 0
 1056 020a FFF7FEFF 		bl	gwinGButtonCreate
 1057              	.LVL89:
 1058              		.loc 1 345 0
 1059 020e 3723     		movs	r3, #55
 1060              		.loc 1 342 0
 1061 0210 544A     		ldr	r2, .L44+68
 1062              		.loc 1 345 0
 1063 0212 ADF81430 		strh	r3, [sp, #20]	@ movhi
 1064              		.loc 1 348 0
 1065 0216 544B     		ldr	r3, .L44+72
 1066              		.loc 1 342 0
 1067 0218 1060     		str	r0, [r2, #0]
 1068              		.loc 1 350 0
 1069 021a 2946     		mov	r1, r5
 1070 021c 0DEB0902 		add	r2, sp, r9
 1071 0220 2068     		ldr	r0, [r4, #0]
 1072              		.loc 1 344 0
 1073 0222 ADF81660 		strh	r6, [sp, #22]	@ movhi
 1074              		.loc 1 348 0
 1075 0226 0993     		str	r3, [sp, #36]
 1076              		.loc 1 346 0
 1077 0228 ADF81890 		strh	r9, [sp, #24]	@ movhi
 1078              		.loc 1 347 0
 1079 022c ADF81A90 		strh	r9, [sp, #26]	@ movhi
 1080              		.loc 1 350 0
 1081 0230 FFF7FEFF 		bl	gwinGButtonCreate
 1082              	.LVL90:
ARM GAS  C:\Users\Elis\AppData\Local\Temp\ccGbXKEy.s 			page 20


 1083              		.loc 1 353 0
 1084 0234 4D23     		movs	r3, #77
 1085              		.loc 1 350 0
 1086 0236 4D49     		ldr	r1, .L44+76
 1087              		.loc 1 353 0
 1088 0238 ADF81430 		strh	r3, [sp, #20]	@ movhi
 1089              		.loc 1 356 0
 1090 023c 4C4B     		ldr	r3, .L44+80
 1091              		.loc 1 350 0
 1092 023e 0860     		str	r0, [r1, #0]
 1093              		.loc 1 358 0
 1094 0240 0DEB0902 		add	r2, sp, r9
 1095 0244 2946     		mov	r1, r5
 1096 0246 2068     		ldr	r0, [r4, #0]
 1097              		.loc 1 352 0
 1098 0248 ADF81660 		strh	r6, [sp, #22]	@ movhi
 1099              		.loc 1 356 0
 1100 024c 0993     		str	r3, [sp, #36]
 1101              		.loc 1 354 0
 1102 024e ADF81890 		strh	r9, [sp, #24]	@ movhi
 1103              		.loc 1 355 0
 1104 0252 ADF81A90 		strh	r9, [sp, #26]	@ movhi
 1105              		.loc 1 358 0
 1106 0256 FFF7FEFF 		bl	gwinGButtonCreate
 1107              	.LVL91:
 1108              		.loc 1 361 0
 1109 025a 6323     		movs	r3, #99
 1110              		.loc 1 358 0
 1111 025c 454A     		ldr	r2, .L44+84
 1112              		.loc 1 361 0
 1113 025e ADF81430 		strh	r3, [sp, #20]	@ movhi
 1114              		.loc 1 364 0
 1115 0262 454B     		ldr	r3, .L44+88
 1116              		.loc 1 358 0
 1117 0264 1060     		str	r0, [r2, #0]
 1118              		.loc 1 366 0
 1119 0266 2946     		mov	r1, r5
 1120 0268 0DEB0902 		add	r2, sp, r9
 1121 026c 2068     		ldr	r0, [r4, #0]
 1122              		.loc 1 360 0
 1123 026e ADF81660 		strh	r6, [sp, #22]	@ movhi
 1124              		.loc 1 364 0
 1125 0272 0993     		str	r3, [sp, #36]
 1126              		.loc 1 362 0
 1127 0274 ADF81890 		strh	r9, [sp, #24]	@ movhi
 1128              		.loc 1 363 0
 1129 0278 ADF81A90 		strh	r9, [sp, #26]	@ movhi
 1130              		.loc 1 366 0
 1131 027c FFF7FEFF 		bl	gwinGButtonCreate
 1132              	.LVL92:
 1133              		.loc 1 369 0
 1134 0280 7923     		movs	r3, #121
 1135              		.loc 1 366 0
 1136 0282 3E49     		ldr	r1, .L44+92
 1137              		.loc 1 369 0
 1138 0284 ADF81430 		strh	r3, [sp, #20]	@ movhi
 1139              		.loc 1 372 0
ARM GAS  C:\Users\Elis\AppData\Local\Temp\ccGbXKEy.s 			page 21


 1140 0288 3D4B     		ldr	r3, .L44+96
 1141              		.loc 1 366 0
 1142 028a 0860     		str	r0, [r1, #0]
 1143              		.loc 1 374 0
 1144 028c 0DEB0902 		add	r2, sp, r9
 1145 0290 2946     		mov	r1, r5
 1146 0292 2068     		ldr	r0, [r4, #0]
 1147              		.loc 1 368 0
 1148 0294 ADF81660 		strh	r6, [sp, #22]	@ movhi
 1149              		.loc 1 372 0
 1150 0298 0993     		str	r3, [sp, #36]
 1151              		.loc 1 370 0
 1152 029a ADF81890 		strh	r9, [sp, #24]	@ movhi
 1153              		.loc 1 371 0
 1154 029e ADF81A90 		strh	r9, [sp, #26]	@ movhi
 1155              		.loc 1 374 0
 1156 02a2 FFF7FEFF 		bl	gwinGButtonCreate
 1157              	.LVL93:
 1158              		.loc 1 377 0
 1159 02a6 8F23     		movs	r3, #143
 1160              		.loc 1 374 0
 1161 02a8 364A     		ldr	r2, .L44+100
 1162              		.loc 1 377 0
 1163 02aa ADF81430 		strh	r3, [sp, #20]	@ movhi
 1164              		.loc 1 380 0
 1165 02ae 364B     		ldr	r3, .L44+104
 1166              		.loc 1 374 0
 1167 02b0 1060     		str	r0, [r2, #0]
 1168              		.loc 1 382 0
 1169 02b2 2946     		mov	r1, r5
 1170 02b4 0DEB0902 		add	r2, sp, r9
 1171 02b8 2068     		ldr	r0, [r4, #0]
 1172              		.loc 1 376 0
 1173 02ba ADF81660 		strh	r6, [sp, #22]	@ movhi
 1174              		.loc 1 380 0
 1175 02be 0993     		str	r3, [sp, #36]
 1176              		.loc 1 378 0
 1177 02c0 ADF81890 		strh	r9, [sp, #24]	@ movhi
 1178              		.loc 1 379 0
 1179 02c4 ADF81A90 		strh	r9, [sp, #26]	@ movhi
 1180              		.loc 1 382 0
 1181 02c8 FFF7FEFF 		bl	gwinGButtonCreate
 1182              	.LVL94:
 1183              		.loc 1 385 0
 1184 02cc A523     		movs	r3, #165
 1185              		.loc 1 382 0
 1186 02ce 2F49     		ldr	r1, .L44+108
 1187              		.loc 1 385 0
 1188 02d0 ADF81430 		strh	r3, [sp, #20]	@ movhi
 1189              		.loc 1 388 0
 1190 02d4 2E4B     		ldr	r3, .L44+112
 1191              		.loc 1 382 0
 1192 02d6 0860     		str	r0, [r1, #0]
 1193              		.loc 1 390 0
 1194 02d8 0DEB0902 		add	r2, sp, r9
 1195 02dc 2946     		mov	r1, r5
 1196 02de 2068     		ldr	r0, [r4, #0]
ARM GAS  C:\Users\Elis\AppData\Local\Temp\ccGbXKEy.s 			page 22


 1197              		.loc 1 384 0
 1198 02e0 ADF81660 		strh	r6, [sp, #22]	@ movhi
 1199              		.loc 1 388 0
 1200 02e4 0993     		str	r3, [sp, #36]
 1201              		.loc 1 386 0
 1202 02e6 ADF81890 		strh	r9, [sp, #24]	@ movhi
 1203              		.loc 1 387 0
 1204 02ea ADF81A90 		strh	r9, [sp, #26]	@ movhi
 1205              		.loc 1 390 0
 1206 02ee FFF7FEFF 		bl	gwinGButtonCreate
 1207              	.LVL95:
 1208              		.loc 1 393 0
 1209 02f2 BB23     		movs	r3, #187
 1210              		.loc 1 390 0
 1211 02f4 274A     		ldr	r2, .L44+116
 1212              		.loc 1 393 0
 1213 02f6 ADF81430 		strh	r3, [sp, #20]	@ movhi
 1214              		.loc 1 396 0
 1215 02fa 274B     		ldr	r3, .L44+120
 1216              		.loc 1 390 0
 1217 02fc 1060     		str	r0, [r2, #0]
 1218              		.loc 1 398 0
 1219 02fe 2946     		mov	r1, r5
 1220 0300 0DEB0902 		add	r2, sp, r9
 1221 0304 2068     		ldr	r0, [r4, #0]
 1222              		.loc 1 396 0
 1223 0306 0993     		str	r3, [sp, #36]
 1224              		.loc 1 392 0
 1225 0308 ADF81660 		strh	r6, [sp, #22]	@ movhi
 1226              		.loc 1 394 0
 1227 030c ADF81890 		strh	r9, [sp, #24]	@ movhi
 1228              		.loc 1 395 0
 1229 0310 ADF81A90 		strh	r9, [sp, #26]	@ movhi
 1230              		.loc 1 398 0
 1231 0314 FFF7FEFF 		bl	gwinGButtonCreate
 1232              	.LVL96:
 1233 0318 2049     		ldr	r1, .L44+124
 1234              		.loc 1 400 0
 1235 031a ADF81660 		strh	r6, [sp, #22]	@ movhi
 1236 031e 41E0     		b	.L45
 1237              	.L46:
 1238              		.align	2
 1239              	.L44:
 1240 0320 00000000 		.word	.LC0
 1241 0324 0C000000 		.word	.LC1
 1242 0328 28000000 		.word	.LC2
 1243 032c 44000000 		.word	.LC4
 1244 0330 A0000000 		.word	.LC12
 1245 0334 74000000 		.word	.LC6
 1246 0338 00000000 		.word	.LANCHOR0
 1247 033c 00000000 		.word	WhiteWidgetStyle
 1248 0340 00000000 		.word	gwinContainerDraw_Image
 1249 0344 00000000 		.word	GDISP
 1250 0348 00000000 		.word	.LANCHOR1
 1251 034c C0000000 		.word	.LC14
 1252 0350 00000000 		.word	.LANCHOR9
 1253 0354 00000000 		.word	.LANCHOR10
ARM GAS  C:\Users\Elis\AppData\Local\Temp\ccGbXKEy.s 			page 23


 1254 0358 CC000000 		.word	.LC15
 1255 035c 00000000 		.word	_0_b
 1256 0360 D0000000 		.word	.LC16
 1257 0364 00000000 		.word	_1_b
 1258 0368 D4000000 		.word	.LC17
 1259 036c 00000000 		.word	_2_b
 1260 0370 D8000000 		.word	.LC18
 1261 0374 00000000 		.word	_3_b
 1262 0378 DC000000 		.word	.LC19
 1263 037c 00000000 		.word	_4_b
 1264 0380 E0000000 		.word	.LC20
 1265 0384 00000000 		.word	_5_b
 1266 0388 E4000000 		.word	.LC21
 1267 038c 00000000 		.word	_6_b
 1268 0390 E8000000 		.word	.LC22
 1269 0394 00000000 		.word	_7_b
 1270 0398 EC000000 		.word	.LC23
 1271 039c 00000000 		.word	_8_b
 1272 03a0 B0000000 		.word	.LC13
 1273              	.L45:
 1274              		.loc 1 404 0
 1275 03a4 C04E     		ldr	r6, .L47
 1276              		.loc 1 398 0
 1277 03a6 0860     		str	r0, [r1, #0]
 1278              		.loc 1 401 0
 1279 03a8 4FF0D108 		mov	r8, #209
 1280              	.LVL97:
 1281              		.loc 1 406 0
 1282 03ac 2946     		mov	r1, r5
 1283 03ae 0DEB0902 		add	r2, sp, r9
 1284 03b2 2068     		ldr	r0, [r4, #0]
 1285              		.loc 1 404 0
 1286 03b4 0996     		str	r6, [sp, #36]
 1287              		.loc 1 401 0
 1288 03b6 ADF81480 		strh	r8, [sp, #20]	@ movhi
 1289              		.loc 1 402 0
 1290 03ba ADF81890 		strh	r9, [sp, #24]	@ movhi
 1291              		.loc 1 403 0
 1292 03be ADF81A90 		strh	r9, [sp, #26]	@ movhi
 1293              		.loc 1 406 0
 1294 03c2 FFF7FEFF 		bl	gwinGButtonCreate
 1295              	.LVL98:
 1296 03c6 B94A     		ldr	r2, .L47+4
 1297              		.loc 1 412 0
 1298 03c8 B94B     		ldr	r3, .L47+8
 1299              		.loc 1 406 0
 1300 03ca 1060     		str	r0, [r2, #0]
 1301              		.loc 1 408 0
 1302 03cc 7826     		movs	r6, #120
 1303              		.loc 1 414 0
 1304 03ce 2946     		mov	r1, r5
 1305 03d0 0DEB0902 		add	r2, sp, r9
 1306 03d4 2068     		ldr	r0, [r4, #0]
 1307              		.loc 1 408 0
 1308 03d6 ADF81660 		strh	r6, [sp, #22]	@ movhi
 1309              		.loc 1 412 0
 1310 03da 0993     		str	r3, [sp, #36]
ARM GAS  C:\Users\Elis\AppData\Local\Temp\ccGbXKEy.s 			page 24


 1311              		.loc 1 409 0
 1312 03dc ADF814B0 		strh	fp, [sp, #20]	@ movhi
 1313              		.loc 1 410 0
 1314 03e0 ADF81890 		strh	r9, [sp, #24]	@ movhi
 1315              		.loc 1 411 0
 1316 03e4 ADF81A90 		strh	r9, [sp, #26]	@ movhi
 1317              		.loc 1 414 0
 1318 03e8 FFF7FEFF 		bl	gwinGButtonCreate
 1319              	.LVL99:
 1320 03ec B149     		ldr	r1, .L47+12
 1321              		.loc 1 420 0
 1322 03ee B24B     		ldr	r3, .L47+16
 1323              		.loc 1 414 0
 1324 03f0 0860     		str	r0, [r1, #0]
 1325              		.loc 1 422 0
 1326 03f2 0DEB0902 		add	r2, sp, r9
 1327 03f6 2946     		mov	r1, r5
 1328 03f8 2068     		ldr	r0, [r4, #0]
 1329              		.loc 1 416 0
 1330 03fa ADF81660 		strh	r6, [sp, #22]	@ movhi
 1331              		.loc 1 420 0
 1332 03fe 0993     		str	r3, [sp, #36]
 1333              		.loc 1 417 0
 1334 0400 ADF814A0 		strh	sl, [sp, #20]	@ movhi
 1335              		.loc 1 418 0
 1336 0404 ADF81890 		strh	r9, [sp, #24]	@ movhi
 1337              		.loc 1 419 0
 1338 0408 ADF81A90 		strh	r9, [sp, #26]	@ movhi
 1339              		.loc 1 422 0
 1340 040c FFF7FEFF 		bl	gwinGButtonCreate
 1341              	.LVL100:
 1342              		.loc 1 425 0
 1343 0410 3723     		movs	r3, #55
 1344              		.loc 1 422 0
 1345 0412 AA4A     		ldr	r2, .L47+20
 1346              		.loc 1 425 0
 1347 0414 ADF81430 		strh	r3, [sp, #20]	@ movhi
 1348              		.loc 1 428 0
 1349 0418 A94B     		ldr	r3, .L47+24
 1350              		.loc 1 422 0
 1351 041a 1060     		str	r0, [r2, #0]
 1352              		.loc 1 430 0
 1353 041c 2946     		mov	r1, r5
 1354 041e 0DEB0902 		add	r2, sp, r9
 1355 0422 2068     		ldr	r0, [r4, #0]
 1356              		.loc 1 424 0
 1357 0424 ADF81660 		strh	r6, [sp, #22]	@ movhi
 1358              		.loc 1 428 0
 1359 0428 0993     		str	r3, [sp, #36]
 1360              		.loc 1 426 0
 1361 042a ADF81890 		strh	r9, [sp, #24]	@ movhi
 1362              		.loc 1 427 0
 1363 042e ADF81A90 		strh	r9, [sp, #26]	@ movhi
 1364              		.loc 1 430 0
 1365 0432 FFF7FEFF 		bl	gwinGButtonCreate
 1366              	.LVL101:
 1367              		.loc 1 433 0
ARM GAS  C:\Users\Elis\AppData\Local\Temp\ccGbXKEy.s 			page 25


 1368 0436 4D23     		movs	r3, #77
 1369              		.loc 1 430 0
 1370 0438 A249     		ldr	r1, .L47+28
 1371              		.loc 1 433 0
 1372 043a ADF81430 		strh	r3, [sp, #20]	@ movhi
 1373              		.loc 1 436 0
 1374 043e A24B     		ldr	r3, .L47+32
 1375              		.loc 1 430 0
 1376 0440 0860     		str	r0, [r1, #0]
 1377              		.loc 1 438 0
 1378 0442 0DEB0902 		add	r2, sp, r9
 1379 0446 2946     		mov	r1, r5
 1380 0448 2068     		ldr	r0, [r4, #0]
 1381              		.loc 1 432 0
 1382 044a ADF81660 		strh	r6, [sp, #22]	@ movhi
 1383              		.loc 1 436 0
 1384 044e 0993     		str	r3, [sp, #36]
 1385              		.loc 1 434 0
 1386 0450 ADF81890 		strh	r9, [sp, #24]	@ movhi
 1387              		.loc 1 435 0
 1388 0454 ADF81A90 		strh	r9, [sp, #26]	@ movhi
 1389              		.loc 1 438 0
 1390 0458 FFF7FEFF 		bl	gwinGButtonCreate
 1391              	.LVL102:
 1392              		.loc 1 441 0
 1393 045c 6323     		movs	r3, #99
 1394              		.loc 1 438 0
 1395 045e 9B4A     		ldr	r2, .L47+36
 1396              		.loc 1 441 0
 1397 0460 ADF81430 		strh	r3, [sp, #20]	@ movhi
 1398              		.loc 1 444 0
 1399 0464 9A4B     		ldr	r3, .L47+40
 1400              		.loc 1 438 0
 1401 0466 1060     		str	r0, [r2, #0]
 1402              		.loc 1 446 0
 1403 0468 2946     		mov	r1, r5
 1404 046a 0DEB0902 		add	r2, sp, r9
 1405 046e 2068     		ldr	r0, [r4, #0]
 1406              		.loc 1 440 0
 1407 0470 ADF81660 		strh	r6, [sp, #22]	@ movhi
 1408              		.loc 1 444 0
 1409 0474 0993     		str	r3, [sp, #36]
 1410              		.loc 1 442 0
 1411 0476 ADF81890 		strh	r9, [sp, #24]	@ movhi
 1412              		.loc 1 443 0
 1413 047a ADF81A90 		strh	r9, [sp, #26]	@ movhi
 1414              		.loc 1 446 0
 1415 047e FFF7FEFF 		bl	gwinGButtonCreate
 1416              	.LVL103:
 1417              		.loc 1 449 0
 1418 0482 7923     		movs	r3, #121
 1419              		.loc 1 446 0
 1420 0484 9349     		ldr	r1, .L47+44
 1421              		.loc 1 449 0
 1422 0486 ADF81430 		strh	r3, [sp, #20]	@ movhi
 1423              		.loc 1 452 0
 1424 048a 934B     		ldr	r3, .L47+48
ARM GAS  C:\Users\Elis\AppData\Local\Temp\ccGbXKEy.s 			page 26


 1425              		.loc 1 446 0
 1426 048c 0860     		str	r0, [r1, #0]
 1427              		.loc 1 454 0
 1428 048e 0DEB0902 		add	r2, sp, r9
 1429 0492 2946     		mov	r1, r5
 1430 0494 2068     		ldr	r0, [r4, #0]
 1431              		.loc 1 448 0
 1432 0496 ADF81660 		strh	r6, [sp, #22]	@ movhi
 1433              		.loc 1 452 0
 1434 049a 0993     		str	r3, [sp, #36]
 1435              		.loc 1 450 0
 1436 049c ADF81890 		strh	r9, [sp, #24]	@ movhi
 1437              		.loc 1 451 0
 1438 04a0 ADF81A90 		strh	r9, [sp, #26]	@ movhi
 1439              		.loc 1 454 0
 1440 04a4 FFF7FEFF 		bl	gwinGButtonCreate
 1441              	.LVL104:
 1442              		.loc 1 457 0
 1443 04a8 8F23     		movs	r3, #143
 1444              		.loc 1 454 0
 1445 04aa 8C4A     		ldr	r2, .L47+52
 1446              		.loc 1 457 0
 1447 04ac ADF81430 		strh	r3, [sp, #20]	@ movhi
 1448              		.loc 1 460 0
 1449 04b0 8B4B     		ldr	r3, .L47+56
 1450              		.loc 1 454 0
 1451 04b2 1060     		str	r0, [r2, #0]
 1452              		.loc 1 462 0
 1453 04b4 2946     		mov	r1, r5
 1454 04b6 0DEB0902 		add	r2, sp, r9
 1455 04ba 2068     		ldr	r0, [r4, #0]
 1456              		.loc 1 456 0
 1457 04bc ADF81660 		strh	r6, [sp, #22]	@ movhi
 1458              		.loc 1 460 0
 1459 04c0 0993     		str	r3, [sp, #36]
 1460              		.loc 1 458 0
 1461 04c2 ADF81890 		strh	r9, [sp, #24]	@ movhi
 1462              		.loc 1 459 0
 1463 04c6 ADF81A90 		strh	r9, [sp, #26]	@ movhi
 1464              		.loc 1 462 0
 1465 04ca FFF7FEFF 		bl	gwinGButtonCreate
 1466              	.LVL105:
 1467              		.loc 1 465 0
 1468 04ce A523     		movs	r3, #165
 1469              		.loc 1 462 0
 1470 04d0 8449     		ldr	r1, .L47+60
 1471              		.loc 1 465 0
 1472 04d2 ADF81430 		strh	r3, [sp, #20]	@ movhi
 1473              		.loc 1 468 0
 1474 04d6 844B     		ldr	r3, .L47+64
 1475              		.loc 1 462 0
 1476 04d8 0860     		str	r0, [r1, #0]
 1477              		.loc 1 470 0
 1478 04da 0DEB0902 		add	r2, sp, r9
 1479 04de 2946     		mov	r1, r5
 1480 04e0 2068     		ldr	r0, [r4, #0]
 1481              		.loc 1 464 0
ARM GAS  C:\Users\Elis\AppData\Local\Temp\ccGbXKEy.s 			page 27


 1482 04e2 ADF81660 		strh	r6, [sp, #22]	@ movhi
 1483              		.loc 1 468 0
 1484 04e6 0993     		str	r3, [sp, #36]
 1485              		.loc 1 466 0
 1486 04e8 ADF81890 		strh	r9, [sp, #24]	@ movhi
 1487              		.loc 1 467 0
 1488 04ec ADF81A90 		strh	r9, [sp, #26]	@ movhi
 1489              		.loc 1 470 0
 1490 04f0 FFF7FEFF 		bl	gwinGButtonCreate
 1491              	.LVL106:
 1492              		.loc 1 473 0
 1493 04f4 BB23     		movs	r3, #187
 1494              		.loc 1 470 0
 1495 04f6 7D4A     		ldr	r2, .L47+68
 1496              		.loc 1 473 0
 1497 04f8 ADF81430 		strh	r3, [sp, #20]	@ movhi
 1498              		.loc 1 476 0
 1499 04fc 7C4B     		ldr	r3, .L47+72
 1500              		.loc 1 470 0
 1501 04fe 1060     		str	r0, [r2, #0]
 1502              		.loc 1 478 0
 1503 0500 2946     		mov	r1, r5
 1504 0502 0DEB0902 		add	r2, sp, r9
 1505 0506 2068     		ldr	r0, [r4, #0]
 1506              		.loc 1 476 0
 1507 0508 0993     		str	r3, [sp, #36]
 1508              		.loc 1 472 0
 1509 050a ADF81660 		strh	r6, [sp, #22]	@ movhi
 1510              		.loc 1 474 0
 1511 050e ADF81890 		strh	r9, [sp, #24]	@ movhi
 1512              		.loc 1 475 0
 1513 0512 ADF81A90 		strh	r9, [sp, #26]	@ movhi
 1514              		.loc 1 478 0
 1515 0516 FFF7FEFF 		bl	gwinGButtonCreate
 1516              	.LVL107:
 1517 051a 7649     		ldr	r1, .L47+76
 1518              		.loc 1 480 0
 1519 051c ADF81660 		strh	r6, [sp, #22]	@ movhi
 1520              		.loc 1 484 0
 1521 0520 754E     		ldr	r6, .L47+80
 1522              		.loc 1 478 0
 1523 0522 0860     		str	r0, [r1, #0]
 1524              		.loc 1 486 0
 1525 0524 0DEB0902 		add	r2, sp, r9
 1526 0528 2946     		mov	r1, r5
 1527 052a 2068     		ldr	r0, [r4, #0]
 1528              		.loc 1 484 0
 1529 052c 0996     		str	r6, [sp, #36]
 1530              		.loc 1 481 0
 1531 052e ADF81480 		strh	r8, [sp, #20]	@ movhi
 1532              		.loc 1 482 0
 1533 0532 ADF81890 		strh	r9, [sp, #24]	@ movhi
 1534              		.loc 1 483 0
 1535 0536 ADF81A90 		strh	r9, [sp, #26]	@ movhi
 1536              		.loc 1 486 0
 1537 053a FFF7FEFF 		bl	gwinGButtonCreate
 1538              	.LVL108:
ARM GAS  C:\Users\Elis\AppData\Local\Temp\ccGbXKEy.s 			page 28


 1539 053e 6F4A     		ldr	r2, .L47+84
 1540              		.loc 1 492 0
 1541 0540 6F4B     		ldr	r3, .L47+88
 1542              		.loc 1 486 0
 1543 0542 1060     		str	r0, [r2, #0]
 1544              		.loc 1 488 0
 1545 0544 9626     		movs	r6, #150
 1546              		.loc 1 494 0
 1547 0546 2946     		mov	r1, r5
 1548 0548 0DEB0902 		add	r2, sp, r9
 1549 054c 2068     		ldr	r0, [r4, #0]
 1550              		.loc 1 488 0
 1551 054e ADF81660 		strh	r6, [sp, #22]	@ movhi
 1552              		.loc 1 492 0
 1553 0552 0993     		str	r3, [sp, #36]
 1554              		.loc 1 489 0
 1555 0554 ADF814B0 		strh	fp, [sp, #20]	@ movhi
 1556              		.loc 1 490 0
 1557 0558 ADF81890 		strh	r9, [sp, #24]	@ movhi
 1558              		.loc 1 491 0
 1559 055c ADF81A90 		strh	r9, [sp, #26]	@ movhi
 1560              		.loc 1 494 0
 1561 0560 FFF7FEFF 		bl	gwinGButtonCreate
 1562              	.LVL109:
 1563 0564 6749     		ldr	r1, .L47+92
 1564              		.loc 1 500 0
 1565 0566 684B     		ldr	r3, .L47+96
 1566              		.loc 1 494 0
 1567 0568 0860     		str	r0, [r1, #0]
 1568              		.loc 1 502 0
 1569 056a 0DEB0902 		add	r2, sp, r9
 1570 056e 2946     		mov	r1, r5
 1571 0570 2068     		ldr	r0, [r4, #0]
 1572              		.loc 1 496 0
 1573 0572 ADF81660 		strh	r6, [sp, #22]	@ movhi
 1574              		.loc 1 500 0
 1575 0576 0993     		str	r3, [sp, #36]
 1576              		.loc 1 497 0
 1577 0578 ADF814A0 		strh	sl, [sp, #20]	@ movhi
 1578              		.loc 1 498 0
 1579 057c ADF81890 		strh	r9, [sp, #24]	@ movhi
 1580              		.loc 1 499 0
 1581 0580 ADF81A90 		strh	r9, [sp, #26]	@ movhi
 1582              		.loc 1 502 0
 1583 0584 FFF7FEFF 		bl	gwinGButtonCreate
 1584              	.LVL110:
 1585              		.loc 1 505 0
 1586 0588 3723     		movs	r3, #55
 1587              		.loc 1 502 0
 1588 058a 604A     		ldr	r2, .L47+100
 1589              		.loc 1 505 0
 1590 058c ADF81430 		strh	r3, [sp, #20]	@ movhi
 1591              		.loc 1 508 0
 1592 0590 5F4B     		ldr	r3, .L47+104
 1593              		.loc 1 502 0
 1594 0592 1060     		str	r0, [r2, #0]
 1595              		.loc 1 510 0
ARM GAS  C:\Users\Elis\AppData\Local\Temp\ccGbXKEy.s 			page 29


 1596 0594 2946     		mov	r1, r5
 1597 0596 0DEB0902 		add	r2, sp, r9
 1598 059a 2068     		ldr	r0, [r4, #0]
 1599              		.loc 1 504 0
 1600 059c ADF81660 		strh	r6, [sp, #22]	@ movhi
 1601              		.loc 1 508 0
 1602 05a0 0993     		str	r3, [sp, #36]
 1603              		.loc 1 506 0
 1604 05a2 ADF81890 		strh	r9, [sp, #24]	@ movhi
 1605              		.loc 1 507 0
 1606 05a6 ADF81A90 		strh	r9, [sp, #26]	@ movhi
 1607              		.loc 1 510 0
 1608 05aa FFF7FEFF 		bl	gwinGButtonCreate
 1609              	.LVL111:
 1610              		.loc 1 513 0
 1611 05ae 4D23     		movs	r3, #77
 1612              		.loc 1 510 0
 1613 05b0 5849     		ldr	r1, .L47+108
 1614              		.loc 1 513 0
 1615 05b2 ADF81430 		strh	r3, [sp, #20]	@ movhi
 1616              		.loc 1 516 0
 1617 05b6 584B     		ldr	r3, .L47+112
 1618              		.loc 1 510 0
 1619 05b8 0860     		str	r0, [r1, #0]
 1620              		.loc 1 518 0
 1621 05ba 0DEB0902 		add	r2, sp, r9
 1622 05be 2946     		mov	r1, r5
 1623 05c0 2068     		ldr	r0, [r4, #0]
 1624              		.loc 1 512 0
 1625 05c2 ADF81660 		strh	r6, [sp, #22]	@ movhi
 1626              		.loc 1 516 0
 1627 05c6 0993     		str	r3, [sp, #36]
 1628              		.loc 1 514 0
 1629 05c8 ADF81890 		strh	r9, [sp, #24]	@ movhi
 1630              		.loc 1 515 0
 1631 05cc ADF81A90 		strh	r9, [sp, #26]	@ movhi
 1632              		.loc 1 518 0
 1633 05d0 FFF7FEFF 		bl	gwinGButtonCreate
 1634              	.LVL112:
 1635              		.loc 1 521 0
 1636 05d4 6323     		movs	r3, #99
 1637              		.loc 1 518 0
 1638 05d6 514A     		ldr	r2, .L47+116
 1639              		.loc 1 521 0
 1640 05d8 ADF81430 		strh	r3, [sp, #20]	@ movhi
 1641              		.loc 1 524 0
 1642 05dc 504B     		ldr	r3, .L47+120
 1643              		.loc 1 518 0
 1644 05de 1060     		str	r0, [r2, #0]
 1645              		.loc 1 526 0
 1646 05e0 2946     		mov	r1, r5
 1647 05e2 0DEB0902 		add	r2, sp, r9
 1648 05e6 2068     		ldr	r0, [r4, #0]
 1649              		.loc 1 520 0
 1650 05e8 ADF81660 		strh	r6, [sp, #22]	@ movhi
 1651              		.loc 1 524 0
 1652 05ec 0993     		str	r3, [sp, #36]
ARM GAS  C:\Users\Elis\AppData\Local\Temp\ccGbXKEy.s 			page 30


 1653              		.loc 1 522 0
 1654 05ee ADF81890 		strh	r9, [sp, #24]	@ movhi
 1655              		.loc 1 523 0
 1656 05f2 ADF81A90 		strh	r9, [sp, #26]	@ movhi
 1657              		.loc 1 526 0
 1658 05f6 FFF7FEFF 		bl	gwinGButtonCreate
 1659              	.LVL113:
 1660              		.loc 1 529 0
 1661 05fa 7923     		movs	r3, #121
 1662              		.loc 1 526 0
 1663 05fc 4949     		ldr	r1, .L47+124
 1664              		.loc 1 529 0
 1665 05fe ADF81430 		strh	r3, [sp, #20]	@ movhi
 1666              		.loc 1 532 0
 1667 0602 494B     		ldr	r3, .L47+128
 1668              		.loc 1 526 0
 1669 0604 0860     		str	r0, [r1, #0]
 1670              		.loc 1 534 0
 1671 0606 0DEB0902 		add	r2, sp, r9
 1672 060a 2946     		mov	r1, r5
 1673 060c 2068     		ldr	r0, [r4, #0]
 1674              		.loc 1 528 0
 1675 060e ADF81660 		strh	r6, [sp, #22]	@ movhi
 1676              		.loc 1 532 0
 1677 0612 0993     		str	r3, [sp, #36]
 1678              		.loc 1 530 0
 1679 0614 ADF81890 		strh	r9, [sp, #24]	@ movhi
 1680              		.loc 1 531 0
 1681 0618 ADF81A90 		strh	r9, [sp, #26]	@ movhi
 1682              		.loc 1 534 0
 1683 061c FFF7FEFF 		bl	gwinGButtonCreate
 1684              	.LVL114:
 1685              		.loc 1 537 0
 1686 0620 8F23     		movs	r3, #143
 1687              		.loc 1 534 0
 1688 0622 424A     		ldr	r2, .L47+132
 1689              		.loc 1 537 0
 1690 0624 ADF81430 		strh	r3, [sp, #20]	@ movhi
 1691              		.loc 1 540 0
 1692 0628 414B     		ldr	r3, .L47+136
 1693              		.loc 1 534 0
 1694 062a 1060     		str	r0, [r2, #0]
 1695              		.loc 1 542 0
 1696 062c 2946     		mov	r1, r5
 1697 062e 0DEB0902 		add	r2, sp, r9
 1698 0632 2068     		ldr	r0, [r4, #0]
 1699              		.loc 1 536 0
 1700 0634 ADF81660 		strh	r6, [sp, #22]	@ movhi
 1701              		.loc 1 540 0
 1702 0638 0993     		str	r3, [sp, #36]
 1703              		.loc 1 538 0
 1704 063a ADF81890 		strh	r9, [sp, #24]	@ movhi
 1705              		.loc 1 539 0
 1706 063e ADF81A90 		strh	r9, [sp, #26]	@ movhi
 1707              		.loc 1 542 0
 1708 0642 FFF7FEFF 		bl	gwinGButtonCreate
 1709              	.LVL115:
ARM GAS  C:\Users\Elis\AppData\Local\Temp\ccGbXKEy.s 			page 31


 1710              		.loc 1 545 0
 1711 0646 A523     		movs	r3, #165
 1712              		.loc 1 542 0
 1713 0648 3A49     		ldr	r1, .L47+140
 1714              		.loc 1 545 0
 1715 064a ADF81430 		strh	r3, [sp, #20]	@ movhi
 1716              		.loc 1 548 0
 1717 064e 3A4B     		ldr	r3, .L47+144
 1718              		.loc 1 542 0
 1719 0650 0860     		str	r0, [r1, #0]
 1720              		.loc 1 550 0
 1721 0652 0DEB0902 		add	r2, sp, r9
 1722 0656 2946     		mov	r1, r5
 1723 0658 2068     		ldr	r0, [r4, #0]
 1724              		.loc 1 544 0
 1725 065a ADF81660 		strh	r6, [sp, #22]	@ movhi
 1726              		.loc 1 548 0
 1727 065e 0993     		str	r3, [sp, #36]
 1728              		.loc 1 546 0
 1729 0660 ADF81890 		strh	r9, [sp, #24]	@ movhi
 1730              		.loc 1 547 0
 1731 0664 ADF81A90 		strh	r9, [sp, #26]	@ movhi
 1732              		.loc 1 550 0
 1733 0668 FFF7FEFF 		bl	gwinGButtonCreate
 1734              	.LVL116:
 1735              		.loc 1 553 0
 1736 066c BB23     		movs	r3, #187
 1737              		.loc 1 550 0
 1738 066e 334A     		ldr	r2, .L47+148
 1739              		.loc 1 553 0
 1740 0670 ADF81430 		strh	r3, [sp, #20]	@ movhi
 1741              		.loc 1 556 0
 1742 0674 324B     		ldr	r3, .L47+152
 1743              		.loc 1 550 0
 1744 0676 1060     		str	r0, [r2, #0]
 1745              		.loc 1 558 0
 1746 0678 2946     		mov	r1, r5
 1747 067a 0DEB0902 		add	r2, sp, r9
 1748 067e 2068     		ldr	r0, [r4, #0]
 1749              		.loc 1 556 0
 1750 0680 0993     		str	r3, [sp, #36]
 1751              		.loc 1 552 0
 1752 0682 ADF81660 		strh	r6, [sp, #22]	@ movhi
 1753              		.loc 1 554 0
 1754 0686 ADF81890 		strh	r9, [sp, #24]	@ movhi
 1755              		.loc 1 555 0
 1756 068a ADF81A90 		strh	r9, [sp, #26]	@ movhi
 1757              		.loc 1 558 0
 1758 068e FFF7FEFF 		bl	gwinGButtonCreate
 1759              	.LVL117:
 1760 0692 2C49     		ldr	r1, .L47+156
 1761              		.loc 1 560 0
 1762 0694 ADF81660 		strh	r6, [sp, #22]	@ movhi
 1763              		.loc 1 564 0
 1764 0698 2B4E     		ldr	r6, .L47+160
 1765              		.loc 1 558 0
 1766 069a 0860     		str	r0, [r1, #0]
ARM GAS  C:\Users\Elis\AppData\Local\Temp\ccGbXKEy.s 			page 32


 1767              		.loc 1 566 0
 1768 069c 0DEB0902 		add	r2, sp, r9
 1769 06a0 2946     		mov	r1, r5
 1770 06a2 2068     		ldr	r0, [r4, #0]
 1771 06a4 52E0     		b	.L48
 1772              	.L49:
 1773 06a6 00BF     		.align	2
 1774              	.L47:
 1775 06a8 F0000000 		.word	.LC24
 1776 06ac 00000000 		.word	_9_b
 1777 06b0 F4000000 		.word	.LC25
 1778 06b4 00000000 		.word	_a_b
 1779 06b8 F8000000 		.word	.LC26
 1780 06bc 00000000 		.word	_b_b
 1781 06c0 FC000000 		.word	.LC27
 1782 06c4 00000000 		.word	_c_b
 1783 06c8 00010000 		.word	.LC28
 1784 06cc 00000000 		.word	_d_b
 1785 06d0 04010000 		.word	.LC29
 1786 06d4 00000000 		.word	_e_b
 1787 06d8 08010000 		.word	.LC30
 1788 06dc 00000000 		.word	_f_b
 1789 06e0 0C010000 		.word	.LC31
 1790 06e4 00000000 		.word	_g_b
 1791 06e8 10010000 		.word	.LC32
 1792 06ec 00000000 		.word	_h_b
 1793 06f0 14010000 		.word	.LC33
 1794 06f4 00000000 		.word	_i_b
 1795 06f8 18010000 		.word	.LC34
 1796 06fc 00000000 		.word	_j_b
 1797 0700 1C010000 		.word	.LC35
 1798 0704 00000000 		.word	_k_b
 1799 0708 20010000 		.word	.LC36
 1800 070c 00000000 		.word	_l_b
 1801 0710 24010000 		.word	.LC37
 1802 0714 00000000 		.word	_m_b
 1803 0718 28010000 		.word	.LC38
 1804 071c 00000000 		.word	_n_b
 1805 0720 2C010000 		.word	.LC39
 1806 0724 00000000 		.word	_o_b
 1807 0728 30010000 		.word	.LC40
 1808 072c 00000000 		.word	_p_b
 1809 0730 34010000 		.word	.LC41
 1810 0734 00000000 		.word	_r_b
 1811 0738 38010000 		.word	.LC42
 1812 073c 00000000 		.word	_s_b
 1813 0740 3C010000 		.word	.LC43
 1814 0744 00000000 		.word	_t_b
 1815 0748 40010000 		.word	.LC44
 1816              	.L48:
 1817              		.loc 1 564 0
 1818 074c 0996     		str	r6, [sp, #36]
 1819              		.loc 1 561 0
 1820 074e ADF81480 		strh	r8, [sp, #20]	@ movhi
 1821              		.loc 1 562 0
 1822 0752 ADF81890 		strh	r9, [sp, #24]	@ movhi
 1823              		.loc 1 563 0
ARM GAS  C:\Users\Elis\AppData\Local\Temp\ccGbXKEy.s 			page 33


 1824 0756 ADF81A90 		strh	r9, [sp, #26]	@ movhi
 1825              		.loc 1 566 0
 1826 075a FFF7FEFF 		bl	gwinGButtonCreate
 1827              	.LVL118:
 1828 075e 984A     		ldr	r2, .L50
 1829              		.loc 1 572 0
 1830 0760 984B     		ldr	r3, .L50+4
 1831              		.loc 1 566 0
 1832 0762 1060     		str	r0, [r2, #0]
 1833              		.loc 1 568 0
 1834 0764 B426     		movs	r6, #180
 1835              		.loc 1 574 0
 1836 0766 2946     		mov	r1, r5
 1837 0768 0DEB0902 		add	r2, sp, r9
 1838 076c 2068     		ldr	r0, [r4, #0]
 1839              		.loc 1 572 0
 1840 076e 0993     		str	r3, [sp, #36]
 1841              		.loc 1 568 0
 1842 0770 ADF81660 		strh	r6, [sp, #22]	@ movhi
 1843              		.loc 1 569 0
 1844 0774 ADF814B0 		strh	fp, [sp, #20]	@ movhi
 1845              		.loc 1 570 0
 1846 0778 ADF81890 		strh	r9, [sp, #24]	@ movhi
 1847              		.loc 1 571 0
 1848 077c ADF81A90 		strh	r9, [sp, #26]	@ movhi
 1849              		.loc 1 574 0
 1850 0780 FFF7FEFF 		bl	gwinGButtonCreate
 1851              	.LVL119:
 1852 0784 9049     		ldr	r1, .L50+8
 1853              		.loc 1 580 0
 1854 0786 914B     		ldr	r3, .L50+12
 1855              		.loc 1 574 0
 1856 0788 0860     		str	r0, [r1, #0]
 1857              		.loc 1 582 0
 1858 078a 0DEB0902 		add	r2, sp, r9
 1859 078e 2946     		mov	r1, r5
 1860 0790 2068     		ldr	r0, [r4, #0]
 1861              		.loc 1 580 0
 1862 0792 0993     		str	r3, [sp, #36]
 1863              		.loc 1 576 0
 1864 0794 ADF81660 		strh	r6, [sp, #22]	@ movhi
 1865              		.loc 1 577 0
 1866 0798 ADF814A0 		strh	sl, [sp, #20]	@ movhi
 1867              		.loc 1 578 0
 1868 079c ADF81890 		strh	r9, [sp, #24]	@ movhi
 1869              		.loc 1 579 0
 1870 07a0 ADF81A90 		strh	r9, [sp, #26]	@ movhi
 1871              		.loc 1 582 0
 1872 07a4 FFF7FEFF 		bl	gwinGButtonCreate
 1873              	.LVL120:
 1874              		.loc 1 585 0
 1875 07a8 3723     		movs	r3, #55
 1876              		.loc 1 582 0
 1877 07aa 894A     		ldr	r2, .L50+16
 1878              		.loc 1 585 0
 1879 07ac ADF81430 		strh	r3, [sp, #20]	@ movhi
 1880              		.loc 1 588 0
ARM GAS  C:\Users\Elis\AppData\Local\Temp\ccGbXKEy.s 			page 34


 1881 07b0 884B     		ldr	r3, .L50+20
 1882              		.loc 1 582 0
 1883 07b2 1060     		str	r0, [r2, #0]
 1884              		.loc 1 590 0
 1885 07b4 2946     		mov	r1, r5
 1886 07b6 0DEB0902 		add	r2, sp, r9
 1887 07ba 2068     		ldr	r0, [r4, #0]
 1888              		.loc 1 588 0
 1889 07bc 0993     		str	r3, [sp, #36]
 1890              		.loc 1 584 0
 1891 07be ADF81660 		strh	r6, [sp, #22]	@ movhi
 1892              		.loc 1 586 0
 1893 07c2 ADF81890 		strh	r9, [sp, #24]	@ movhi
 1894              		.loc 1 587 0
 1895 07c6 ADF81A90 		strh	r9, [sp, #26]	@ movhi
 1896              		.loc 1 590 0
 1897 07ca FFF7FEFF 		bl	gwinGButtonCreate
 1898              	.LVL121:
 1899 07ce 8249     		ldr	r1, .L50+24
 1900              		.loc 1 592 0
 1901 07d0 ADF81660 		strh	r6, [sp, #22]	@ movhi
 1902              		.loc 1 593 0
 1903 07d4 4D23     		movs	r3, #77
 1904 07d6 ADF81430 		strh	r3, [sp, #20]	@ movhi
 1905              		.loc 1 596 0
 1906 07da 804B     		ldr	r3, .L50+28
 1907              		.loc 1 590 0
 1908 07dc 0860     		str	r0, [r1, #0]
 1909              		.loc 1 598 0
 1910 07de 0DEB0902 		add	r2, sp, r9
 1911 07e2 2946     		mov	r1, r5
 1912 07e4 2068     		ldr	r0, [r4, #0]
 1913              		.loc 1 596 0
 1914 07e6 0993     		str	r3, [sp, #36]
 1915              		.loc 1 594 0
 1916 07e8 ADF81890 		strh	r9, [sp, #24]	@ movhi
 1917              		.loc 1 595 0
 1918 07ec ADF81A90 		strh	r9, [sp, #26]	@ movhi
 1919              		.loc 1 598 0
 1920 07f0 FFF7FEFF 		bl	gwinGButtonCreate
 1921              	.LVL122:
 1922 07f4 7A4A     		ldr	r2, .L50+32
 1923              		.loc 1 600 0
 1924 07f6 ADF81660 		strh	r6, [sp, #22]	@ movhi
 1925              		.loc 1 601 0
 1926 07fa 6323     		movs	r3, #99
 1927 07fc ADF81430 		strh	r3, [sp, #20]	@ movhi
 1928              		.loc 1 604 0
 1929 0800 784B     		ldr	r3, .L50+36
 1930              		.loc 1 598 0
 1931 0802 1060     		str	r0, [r2, #0]
 1932              		.loc 1 606 0
 1933 0804 2946     		mov	r1, r5
 1934 0806 0DEB0902 		add	r2, sp, r9
 1935 080a 2068     		ldr	r0, [r4, #0]
 1936              		.loc 1 604 0
 1937 080c 0993     		str	r3, [sp, #36]
ARM GAS  C:\Users\Elis\AppData\Local\Temp\ccGbXKEy.s 			page 35


 1938              		.loc 1 602 0
 1939 080e ADF81890 		strh	r9, [sp, #24]	@ movhi
 1940              		.loc 1 603 0
 1941 0812 ADF81A90 		strh	r9, [sp, #26]	@ movhi
 1942              		.loc 1 606 0
 1943 0816 FFF7FEFF 		bl	gwinGButtonCreate
 1944              	.LVL123:
 1945 081a 7349     		ldr	r1, .L50+40
 1946              		.loc 1 608 0
 1947 081c ADF81660 		strh	r6, [sp, #22]	@ movhi
 1948              		.loc 1 609 0
 1949 0820 7923     		movs	r3, #121
 1950 0822 ADF81430 		strh	r3, [sp, #20]	@ movhi
 1951              		.loc 1 612 0
 1952 0826 714B     		ldr	r3, .L50+44
 1953              		.loc 1 606 0
 1954 0828 0860     		str	r0, [r1, #0]
 1955              		.loc 1 614 0
 1956 082a 0DEB0902 		add	r2, sp, r9
 1957 082e 2946     		mov	r1, r5
 1958 0830 2068     		ldr	r0, [r4, #0]
 1959              		.loc 1 612 0
 1960 0832 0993     		str	r3, [sp, #36]
 1961              		.loc 1 610 0
 1962 0834 ADF81890 		strh	r9, [sp, #24]	@ movhi
 1963              		.loc 1 611 0
 1964 0838 ADF81A90 		strh	r9, [sp, #26]	@ movhi
 1965              		.loc 1 614 0
 1966 083c FFF7FEFF 		bl	gwinGButtonCreate
 1967              	.LVL124:
 1968 0840 6B4A     		ldr	r2, .L50+48
 1969              		.loc 1 616 0
 1970 0842 ADF81660 		strh	r6, [sp, #22]	@ movhi
 1971              		.loc 1 617 0
 1972 0846 8F23     		movs	r3, #143
 1973 0848 ADF81430 		strh	r3, [sp, #20]	@ movhi
 1974              		.loc 1 620 0
 1975 084c 694B     		ldr	r3, .L50+52
 1976              		.loc 1 614 0
 1977 084e 1060     		str	r0, [r2, #0]
 1978              		.loc 1 622 0
 1979 0850 2946     		mov	r1, r5
 1980 0852 0DEB0902 		add	r2, sp, r9
 1981 0856 2068     		ldr	r0, [r4, #0]
 1982              		.loc 1 620 0
 1983 0858 0993     		str	r3, [sp, #36]
 1984              		.loc 1 618 0
 1985 085a ADF81890 		strh	r9, [sp, #24]	@ movhi
 1986              		.loc 1 619 0
 1987 085e ADF81A90 		strh	r9, [sp, #26]	@ movhi
 1988              		.loc 1 622 0
 1989 0862 FFF7FEFF 		bl	gwinGButtonCreate
 1990              	.LVL125:
 1991 0866 6449     		ldr	r1, .L50+56
 1992              		.loc 1 624 0
 1993 0868 ADF81660 		strh	r6, [sp, #22]	@ movhi
 1994              		.loc 1 625 0
ARM GAS  C:\Users\Elis\AppData\Local\Temp\ccGbXKEy.s 			page 36


 1995 086c A523     		movs	r3, #165
 1996 086e ADF81430 		strh	r3, [sp, #20]	@ movhi
 1997              		.loc 1 628 0
 1998 0872 624B     		ldr	r3, .L50+60
 1999              		.loc 1 622 0
 2000 0874 0860     		str	r0, [r1, #0]
 2001              		.loc 1 630 0
 2002 0876 0DEB0902 		add	r2, sp, r9
 2003 087a 2946     		mov	r1, r5
 2004 087c 2068     		ldr	r0, [r4, #0]
 2005              		.loc 1 628 0
 2006 087e 0993     		str	r3, [sp, #36]
 2007              		.loc 1 626 0
 2008 0880 ADF81890 		strh	r9, [sp, #24]	@ movhi
 2009              		.loc 1 627 0
 2010 0884 ADF81A90 		strh	r9, [sp, #26]	@ movhi
 2011              		.loc 1 630 0
 2012 0888 FFF7FEFF 		bl	gwinGButtonCreate
 2013              	.LVL126:
 2014 088c 5C4A     		ldr	r2, .L50+64
 2015              		.loc 1 632 0
 2016 088e ADF81660 		strh	r6, [sp, #22]	@ movhi
 2017              		.loc 1 633 0
 2018 0892 BB23     		movs	r3, #187
 2019 0894 ADF81430 		strh	r3, [sp, #20]	@ movhi
 2020              		.loc 1 636 0
 2021 0898 5A4B     		ldr	r3, .L50+68
 2022              		.loc 1 630 0
 2023 089a 1060     		str	r0, [r2, #0]
 2024              		.loc 1 638 0
 2025 089c 2946     		mov	r1, r5
 2026 089e 0DEB0902 		add	r2, sp, r9
 2027 08a2 2068     		ldr	r0, [r4, #0]
 2028              		.loc 1 636 0
 2029 08a4 0993     		str	r3, [sp, #36]
 2030              		.loc 1 634 0
 2031 08a6 ADF81890 		strh	r9, [sp, #24]	@ movhi
 2032              		.loc 1 635 0
 2033 08aa ADF81A90 		strh	r9, [sp, #26]	@ movhi
 2034              		.loc 1 638 0
 2035 08ae FFF7FEFF 		bl	gwinGButtonCreate
 2036              	.LVL127:
 2037 08b2 5549     		ldr	r1, .L50+72
 2038              		.loc 1 644 0
 2039 08b4 554B     		ldr	r3, .L50+76
 2040              		.loc 1 638 0
 2041 08b6 0860     		str	r0, [r1, #0]
 2042              		.loc 1 646 0
 2043 08b8 0DEB0902 		add	r2, sp, r9
 2044 08bc 2946     		mov	r1, r5
 2045 08be 2068     		ldr	r0, [r4, #0]
 2046              		.loc 1 644 0
 2047 08c0 0993     		str	r3, [sp, #36]
 2048              		.loc 1 640 0
 2049 08c2 ADF81660 		strh	r6, [sp, #22]	@ movhi
 2050              		.loc 1 641 0
 2051 08c6 ADF81480 		strh	r8, [sp, #20]	@ movhi
ARM GAS  C:\Users\Elis\AppData\Local\Temp\ccGbXKEy.s 			page 37


 2052              		.loc 1 642 0
 2053 08ca ADF81890 		strh	r9, [sp, #24]	@ movhi
 2054              		.loc 1 643 0
 2055 08ce ADF81A90 		strh	r9, [sp, #26]	@ movhi
 2056              		.loc 1 646 0
 2057 08d2 FFF7FEFF 		bl	gwinGButtonCreate
 2058              	.LVL128:
 2059              		.loc 1 655 0
 2060 08d6 3A68     		ldr	r2, [r7, #0]
 2061              		.loc 1 646 0
 2062 08d8 4D49     		ldr	r1, .L50+80
 2063              		.loc 1 651 0
 2064 08da DDF800C0 		ldr	ip, [sp, #0]
 2065              		.loc 1 655 0
 2066 08de 0892     		str	r2, [sp, #32]
 2067              		.loc 1 657 0
 2068 08e0 029A     		ldr	r2, [sp, #8]
 2069              		.loc 1 646 0
 2070 08e2 0860     		str	r0, [r1, #0]
 2071              		.loc 1 650 0
 2072 08e4 0123     		movs	r3, #1
 2073              		.loc 1 653 0
 2074 08e6 3C20     		movs	r0, #60
 2075              		.loc 1 652 0
 2076 08e8 F021     		movs	r1, #240
 2077              		.loc 1 650 0
 2078 08ea 8DF81C30 		strb	r3, [sp, #28]
 2079              		.loc 1 651 0
 2080 08ee ADF814C0 		strh	ip, [sp, #20]	@ movhi
 2081              		.loc 1 652 0
 2082 08f2 ADF81610 		strh	r1, [sp, #22]	@ movhi
 2083              		.loc 1 653 0
 2084 08f6 ADF81800 		strh	r0, [sp, #24]	@ movhi
 2085              		.loc 1 654 0
 2086 08fa ADF81A00 		strh	r0, [sp, #26]	@ movhi
 2087              		.loc 1 657 0
 2088 08fe 002A     		cmp	r2, #0
 2089 0900 46D0     		beq	.L42
 2090              		.loc 1 667 0
 2091 0902 444E     		ldr	r6, .L50+84
 2092 0904 0299     		ldr	r1, [sp, #8]
 2093 0906 3046     		mov	r0, r6
 2094 0908 FFF7FEFF 		bl	gdispImageOpenGFile
 2095              	.LVL129:
 2096              		.loc 1 668 0
 2097 090c 4248     		ldr	r0, .L50+88
 2098              		.loc 1 671 0
 2099 090e 434B     		ldr	r3, .L50+92
 2100              		.loc 1 668 0
 2101 0910 0A90     		str	r0, [sp, #40]
 2102              		.loc 1 669 0
 2103 0912 0B96     		str	r6, [sp, #44]
 2104              		.loc 1 670 0
 2105 0914 0C95     		str	r5, [sp, #48]
 2106              		.loc 1 671 0
 2107 0916 0993     		str	r3, [sp, #36]
 2108              	.L38:
ARM GAS  C:\Users\Elis\AppData\Local\Temp\ccGbXKEy.s 			page 38


 2109              		.loc 1 675 0
 2110 0918 0021     		movs	r1, #0
 2111 091a 05AA     		add	r2, sp, #20
 2112 091c 2068     		ldr	r0, [r4, #0]
 2113 091e FFF7FEFF 		bl	gwinGButtonCreate
 2114              	.LVL130:
 2115              		.loc 1 684 0
 2116 0922 3A68     		ldr	r2, [r7, #0]
 2117              		.loc 1 675 0
 2118 0924 3E49     		ldr	r1, .L50+96
 2119              		.loc 1 684 0
 2120 0926 0892     		str	r2, [sp, #32]
 2121              		.loc 1 679 0
 2122 0928 0123     		movs	r3, #1
 2123              		.loc 1 686 0
 2124 092a 039A     		ldr	r2, [sp, #12]
 2125              		.loc 1 675 0
 2126 092c 0860     		str	r0, [r1, #0]
 2127              		.loc 1 679 0
 2128 092e 8DF81C30 		strb	r3, [sp, #28]
 2129              		.loc 1 682 0
 2130 0932 3C20     		movs	r0, #60
 2131              		.loc 1 680 0
 2132 0934 AA21     		movs	r1, #170
 2133              		.loc 1 681 0
 2134 0936 F023     		movs	r3, #240
 2135              		.loc 1 680 0
 2136 0938 ADF81410 		strh	r1, [sp, #20]	@ movhi
 2137              		.loc 1 681 0
 2138 093c ADF81630 		strh	r3, [sp, #22]	@ movhi
 2139              		.loc 1 682 0
 2140 0940 ADF81800 		strh	r0, [sp, #24]	@ movhi
 2141              		.loc 1 683 0
 2142 0944 ADF81A00 		strh	r0, [sp, #26]	@ movhi
 2143              		.loc 1 686 0
 2144 0948 002A     		cmp	r2, #0
 2145 094a 2DD0     		beq	.L43
 2146              		.loc 1 696 0
 2147 094c 354D     		ldr	r5, .L50+100
 2148 094e 0399     		ldr	r1, [sp, #12]
 2149 0950 2846     		mov	r0, r5
 2150 0952 FFF7FEFF 		bl	gdispImageOpenGFile
 2151              	.LVL131:
 2152              		.loc 1 697 0
 2153 0956 3048     		ldr	r0, .L50+88
 2154              		.loc 1 700 0
 2155 0958 304B     		ldr	r3, .L50+92
 2156              		.loc 1 697 0
 2157 095a 0A90     		str	r0, [sp, #40]
 2158              		.loc 1 699 0
 2159 095c 0021     		movs	r1, #0
 2160              		.loc 1 698 0
 2161 095e 0B95     		str	r5, [sp, #44]
 2162              		.loc 1 699 0
 2163 0960 0C91     		str	r1, [sp, #48]
 2164              		.loc 1 700 0
 2165 0962 0993     		str	r3, [sp, #36]
ARM GAS  C:\Users\Elis\AppData\Local\Temp\ccGbXKEy.s 			page 39


 2166              	.L40:
 2167              		.loc 1 704 0
 2168 0964 05AA     		add	r2, sp, #20
 2169 0966 2068     		ldr	r0, [r4, #0]
 2170 0968 0021     		movs	r1, #0
 2171 096a FFF7FEFF 		bl	gwinGButtonCreate
 2172              	.LVL132:
 2173 096e 2E4A     		ldr	r2, .L50+104
 2174 0970 1060     		str	r0, [r2, #0]
 2175              		.loc 1 708 0
 2176 0972 4020     		movs	r0, #64
 2177 0974 FFF7FEFF 		bl	chThdSetPriority
 2178              	.LVL133:
 2179              		.loc 1 710 0
 2180 0978 27B0     		add	sp, sp, #156
 2181 097a BDE8F08F 		pop	{r4, r5, r6, r7, r8, r9, sl, fp, pc}
 2182              	.LVL134:
 2183              	.L41:
 2184              		.loc 1 281 0
 2185 097e 2B4F     		ldr	r7, .L50+108
 2186              		.loc 1 280 0
 2187 0980 2B48     		ldr	r0, .L50+112
 2188              		.loc 1 281 0
 2189 0982 0197     		str	r7, [sp, #4]
 2190              		.loc 1 280 0
 2191 0984 0A90     		str	r0, [sp, #40]
 2192              		.loc 1 281 0
 2193 0986 0C97     		str	r7, [sp, #48]
 2194              		.loc 1 282 0
 2195 0988 CDF82C80 		str	r8, [sp, #44]
 2196 098c FFF7C3BB 		b	.L36
 2197              	.LVL135:
 2198              	.L42:
 2199              		.loc 1 659 0
 2200 0990 40F20001 		movw	r1, #:lower16:gwinButtonDraw_Normal
 2201              		.loc 1 660 0
 2202 0994 019A     		ldr	r2, [sp, #4]
 2203              		.loc 1 661 0
 2204 0996 0298     		ldr	r0, [sp, #8]
 2205              		.loc 1 662 0
 2206 0998 264B     		ldr	r3, .L50+116
 2207              		.loc 1 660 0
 2208 099a 0C92     		str	r2, [sp, #48]
 2209              		.loc 1 659 0
 2210 099c C0F20001 		movt	r1, #:upper16:gwinButtonDraw_Normal
 2211 09a0 0A91     		str	r1, [sp, #40]
 2212              		.loc 1 661 0
 2213 09a2 0B90     		str	r0, [sp, #44]
 2214              		.loc 1 662 0
 2215 09a4 0993     		str	r3, [sp, #36]
 2216 09a6 B7E7     		b	.L38
 2217              	.L43:
 2218              		.loc 1 688 0
 2219 09a8 40F20002 		movw	r2, #:lower16:gwinButtonDraw_Normal
 2220              		.loc 1 689 0
 2221 09ac 0198     		ldr	r0, [sp, #4]
 2222              		.loc 1 690 0
ARM GAS  C:\Users\Elis\AppData\Local\Temp\ccGbXKEy.s 			page 40


 2223 09ae 0399     		ldr	r1, [sp, #12]
 2224              		.loc 1 691 0
 2225 09b0 214B     		ldr	r3, .L50+120
 2226              		.loc 1 689 0
 2227 09b2 0C90     		str	r0, [sp, #48]
 2228              		.loc 1 688 0
 2229 09b4 C0F20002 		movt	r2, #:upper16:gwinButtonDraw_Normal
 2230 09b8 0A92     		str	r2, [sp, #40]
 2231              		.loc 1 690 0
 2232 09ba 0B91     		str	r1, [sp, #44]
 2233              		.loc 1 691 0
 2234 09bc 0993     		str	r3, [sp, #36]
 2235 09be D1E7     		b	.L40
 2236              	.L51:
 2237              		.align	2
 2238              	.L50:
 2239 09c0 00000000 		.word	_u_b
 2240 09c4 44010000 		.word	.LC45
 2241 09c8 00000000 		.word	_v_b
 2242 09cc 48010000 		.word	.LC46
 2243 09d0 00000000 		.word	_z_b
 2244 09d4 4C010000 		.word	.LC47
 2245 09d8 00000000 		.word	_x_b
 2246 09dc 50010000 		.word	.LC48
 2247 09e0 00000000 		.word	_y_b
 2248 09e4 54010000 		.word	.LC49
 2249 09e8 00000000 		.word	_q_b
 2250 09ec 58010000 		.word	.LC50
 2251 09f0 00000000 		.word	_dot_b
 2252 09f4 5C010000 		.word	.LC51
 2253 09f8 00000000 		.word	_comma_b
 2254 09fc 60010000 		.word	.LC52
 2255 0a00 00000000 		.word	_slash_b
 2256 0a04 64010000 		.word	.LC53
 2257 0a08 00000000 		.word	_exclamation_b
 2258 0a0c 68010000 		.word	.LC54
 2259 0a10 00000000 		.word	_space_b
 2260 0a14 00000000 		.word	.LANCHOR5
 2261 0a18 00000000 		.word	gwinButtonDraw_Image
 2262 0a1c 94000000 		.word	.LC9
 2263 0a20 00000000 		.word	.LANCHOR11
 2264 0a24 00000000 		.word	.LANCHOR12
 2265 0a28 00000000 		.word	.LANCHOR13
 2266 0a2c 00000000 		.word	WhiteWidgetStyle
 2267 0a30 00000000 		.word	gwinContainerDraw_Std
 2268 0a34 98000000 		.word	.LC10
 2269 0a38 6C010000 		.word	.LC55
 2270              		.cfi_endproc
 2271              	.LFE120:
 2272              		.size	createContactAddScreen, .-createContactAddScreen
 2273 0a3c AFF30080 		.section	.text.destroyContactAddScreen,"ax",%progbits
 2274              		.align	2
 2275              		.p2align 4,,15
 2276              		.global	destroyContactAddScreen
 2277              		.thumb
 2278              		.thumb_func
 2279              		.type	destroyContactAddScreen, %function
ARM GAS  C:\Users\Elis\AppData\Local\Temp\ccGbXKEy.s 			page 41


 2280              	destroyContactAddScreen:
 2281              	.LFB121:
 2282              		.loc 1 712 0
 2283              		.cfi_startproc
 2284              		@ args = 0, pretend = 0, frame = 152
 2285              		@ frame_needed = 0, uses_anonymous_args = 0
 2286 0000 2DE9F04F 		push	{r4, r5, r6, r7, r8, r9, sl, fp, lr}
 2287              	.LCFI5:
 2288              		.cfi_def_cfa_offset 36
 2289              		.cfi_offset 4, -36
 2290              		.cfi_offset 5, -32
 2291              		.cfi_offset 6, -28
 2292              		.cfi_offset 7, -24
 2293              		.cfi_offset 8, -20
 2294              		.cfi_offset 9, -16
 2295              		.cfi_offset 10, -12
 2296              		.cfi_offset 11, -8
 2297              		.cfi_offset 14, -4
 2298              		.loc 1 716 0
 2299 0004 7F20     		movs	r0, #127
 2300              		.loc 1 712 0
 2301 0006 A7B0     		sub	sp, sp, #156
 2302              	.LCFI6:
 2303              		.cfi_def_cfa_offset 192
 2304              		.loc 1 716 0
 2305 0008 FFF7FEFF 		bl	chThdSetPriority
 2306              	.LVL136:
 2307              		.loc 1 720 0
 2308 000c 40F20000 		movw	r0, #:lower16:.LANCHOR0
 2309 0010 C0F20000 		movt	r0, #:upper16:.LANCHOR0
 2310 0014 FFF7FEFF 		bl	gdispImageClose
 2311              	.LVL137:
 2312              		.loc 1 722 0
 2313 0018 40F20000 		movw	r0, #:lower16:.LANCHOR5
 2314 001c C0F20000 		movt	r0, #:upper16:.LANCHOR5
 2315 0020 FFF7FEFF 		bl	gdispImageClose
 2316              	.LVL138:
 2317              		.loc 1 724 0
 2318 0024 40F20000 		movw	r0, #:lower16:.LANCHOR12
 2319 0028 C0F20000 		movt	r0, #:upper16:.LANCHOR12
 2320 002c FFF7FEFF 		bl	gdispImageClose
 2321              	.LVL139:
 2322              		.loc 1 728 0
 2323 0030 40F20003 		movw	r3, #:lower16:.LANCHOR1
 2324 0034 C0F20003 		movt	r3, #:upper16:.LANCHOR1
 2325              		.loc 1 732 0
 2326 0038 40F2000B 		movw	fp, #:lower16:.LANCHOR2
 2327              		.loc 1 728 0
 2328 003c 1868     		ldr	r0, [r3, #0]
 2329 003e FFF7FEFF 		bl	gwinDestroy
 2330              	.LVL140:
 2331              		.loc 1 742 0
 2332 0042 40F20000 		movw	r0, #:lower16:.LANCHOR13
 2333              		.loc 1 744 0
 2334 0046 40F20003 		movw	r3, #:lower16:.LANCHOR10
 2335              		.loc 1 742 0
 2336 004a C0F20000 		movt	r0, #:upper16:.LANCHOR13
ARM GAS  C:\Users\Elis\AppData\Local\Temp\ccGbXKEy.s 			page 42


 2337              		.loc 1 744 0
 2338 004e C0F20003 		movt	r3, #:upper16:.LANCHOR10
 2339              		.loc 1 742 0
 2340 0052 0190     		str	r0, [sp, #4]
 2341              		.loc 1 744 0
 2342 0054 0293     		str	r3, [sp, #8]
 2343              		.loc 1 746 0
 2344 0056 40F20000 		movw	r0, #:lower16:.LANCHOR9
 2345              		.loc 1 748 0
 2346 005a 40F20003 		movw	r3, #:lower16:_0_b
 2347              		.loc 1 746 0
 2348 005e C0F20000 		movt	r0, #:upper16:.LANCHOR9
 2349              		.loc 1 748 0
 2350 0062 C0F20003 		movt	r3, #:upper16:_0_b
 2351              		.loc 1 746 0
 2352 0066 0390     		str	r0, [sp, #12]
 2353              		.loc 1 748 0
 2354 0068 0493     		str	r3, [sp, #16]
 2355 006a 40F20000 		movw	r0, #:lower16:_1_b
 2356 006e 40F20003 		movw	r3, #:lower16:_2_b
 2357 0072 C0F20000 		movt	r0, #:upper16:_1_b
 2358 0076 C0F20003 		movt	r3, #:upper16:_2_b
 2359 007a 0590     		str	r0, [sp, #20]
 2360 007c 0693     		str	r3, [sp, #24]
 2361 007e 40F20000 		movw	r0, #:lower16:_3_b
 2362 0082 40F20003 		movw	r3, #:lower16:_4_b
 2363 0086 C0F20000 		movt	r0, #:upper16:_3_b
 2364 008a C0F20003 		movt	r3, #:upper16:_4_b
 2365 008e 0790     		str	r0, [sp, #28]
 2366 0090 0893     		str	r3, [sp, #32]
 2367 0092 40F20000 		movw	r0, #:lower16:_5_b
 2368 0096 40F20003 		movw	r3, #:lower16:_6_b
 2369 009a C0F20000 		movt	r0, #:upper16:_5_b
 2370 009e C0F20003 		movt	r3, #:upper16:_6_b
 2371 00a2 0990     		str	r0, [sp, #36]
 2372 00a4 0A93     		str	r3, [sp, #40]
 2373 00a6 40F20000 		movw	r0, #:lower16:_7_b
 2374 00aa 40F20003 		movw	r3, #:lower16:_8_b
 2375 00ae C0F20000 		movt	r0, #:upper16:_7_b
 2376 00b2 C0F20003 		movt	r3, #:upper16:_8_b
 2377 00b6 0B90     		str	r0, [sp, #44]
 2378 00b8 0C93     		str	r3, [sp, #48]
 2379 00ba 40F20000 		movw	r0, #:lower16:_9_b
 2380              		.loc 1 750 0
 2381 00be 40F20003 		movw	r3, #:lower16:_a_b
 2382              		.loc 1 748 0
 2383 00c2 C0F20000 		movt	r0, #:upper16:_9_b
 2384              		.loc 1 750 0
 2385 00c6 C0F20003 		movt	r3, #:upper16:_a_b
 2386              		.loc 1 748 0
 2387 00ca 0D90     		str	r0, [sp, #52]
 2388              		.loc 1 750 0
 2389 00cc 0E93     		str	r3, [sp, #56]
 2390 00ce 40F20000 		movw	r0, #:lower16:_b_b
 2391 00d2 40F20003 		movw	r3, #:lower16:_c_b
 2392 00d6 C0F20000 		movt	r0, #:upper16:_b_b
 2393 00da C0F20003 		movt	r3, #:upper16:_c_b
ARM GAS  C:\Users\Elis\AppData\Local\Temp\ccGbXKEy.s 			page 43


 2394 00de 0F90     		str	r0, [sp, #60]
 2395 00e0 1093     		str	r3, [sp, #64]
 2396 00e2 40F20000 		movw	r0, #:lower16:_d_b
 2397 00e6 40F20003 		movw	r3, #:lower16:_e_b
 2398 00ea C0F20000 		movt	r0, #:upper16:_d_b
 2399 00ee C0F20003 		movt	r3, #:upper16:_e_b
 2400 00f2 1190     		str	r0, [sp, #68]
 2401 00f4 1293     		str	r3, [sp, #72]
 2402 00f6 40F20000 		movw	r0, #:lower16:_f_b
 2403 00fa 40F20003 		movw	r3, #:lower16:_g_b
 2404 00fe C0F20000 		movt	r0, #:upper16:_f_b
 2405 0102 C0F20003 		movt	r3, #:upper16:_g_b
 2406 0106 1390     		str	r0, [sp, #76]
 2407 0108 1493     		str	r3, [sp, #80]
 2408 010a 40F20000 		movw	r0, #:lower16:_h_b
 2409 010e 40F20003 		movw	r3, #:lower16:_i_b
 2410 0112 C0F20000 		movt	r0, #:upper16:_h_b
 2411 0116 C0F20003 		movt	r3, #:upper16:_i_b
 2412 011a 1590     		str	r0, [sp, #84]
 2413 011c 1693     		str	r3, [sp, #88]
 2414 011e 40F20000 		movw	r0, #:lower16:_j_b
 2415              		.loc 1 752 0
 2416 0122 40F20003 		movw	r3, #:lower16:_k_b
 2417              		.loc 1 750 0
 2418 0126 C0F20000 		movt	r0, #:upper16:_j_b
 2419              		.loc 1 752 0
 2420 012a C0F20003 		movt	r3, #:upper16:_k_b
 2421              		.loc 1 750 0
 2422 012e 1790     		str	r0, [sp, #92]
 2423              		.loc 1 752 0
 2424 0130 1893     		str	r3, [sp, #96]
 2425 0132 40F20000 		movw	r0, #:lower16:_l_b
 2426 0136 40F20003 		movw	r3, #:lower16:_m_b
 2427 013a C0F20000 		movt	r0, #:upper16:_l_b
 2428 013e C0F20003 		movt	r3, #:upper16:_m_b
 2429 0142 1990     		str	r0, [sp, #100]
 2430 0144 1A93     		str	r3, [sp, #104]
 2431 0146 40F20000 		movw	r0, #:lower16:_n_b
 2432 014a 40F20003 		movw	r3, #:lower16:_o_b
 2433 014e C0F20000 		movt	r0, #:upper16:_n_b
 2434 0152 C0F20003 		movt	r3, #:upper16:_o_b
 2435 0156 1B90     		str	r0, [sp, #108]
 2436 0158 1C93     		str	r3, [sp, #112]
 2437 015a 40F20000 		movw	r0, #:lower16:_p_b
 2438 015e 40F20003 		movw	r3, #:lower16:_r_b
 2439 0162 C0F20000 		movt	r0, #:upper16:_p_b
 2440 0166 C0F20003 		movt	r3, #:upper16:_r_b
 2441 016a 1D90     		str	r0, [sp, #116]
 2442 016c 1E93     		str	r3, [sp, #120]
 2443 016e 40F20000 		movw	r0, #:lower16:_s_b
 2444 0172 40F20003 		movw	r3, #:lower16:_t_b
 2445 0176 C0F20000 		movt	r0, #:upper16:_s_b
 2446 017a C0F20003 		movt	r3, #:upper16:_t_b
 2447 017e 1F90     		str	r0, [sp, #124]
 2448 0180 2093     		str	r3, [sp, #128]
 2449 0182 40F20000 		movw	r0, #:lower16:_u_b
 2450              		.loc 1 754 0
ARM GAS  C:\Users\Elis\AppData\Local\Temp\ccGbXKEy.s 			page 44


 2451 0186 40F20003 		movw	r3, #:lower16:_v_b
 2452              		.loc 1 752 0
 2453 018a C0F20000 		movt	r0, #:upper16:_u_b
 2454              		.loc 1 754 0
 2455 018e C0F20003 		movt	r3, #:upper16:_v_b
 2456              		.loc 1 752 0
 2457 0192 2190     		str	r0, [sp, #132]
 2458              		.loc 1 740 0
 2459 0194 40F2000C 		movw	ip, #:lower16:.LANCHOR8
 2460              		.loc 1 754 0
 2461 0198 2293     		str	r3, [sp, #136]
 2462 019a 40F20003 		movw	r3, #:lower16:_x_b
 2463              		.loc 1 740 0
 2464 019e C0F2000C 		movt	ip, #:upper16:.LANCHOR8
 2465              		.loc 1 754 0
 2466 01a2 C0F20003 		movt	r3, #:upper16:_x_b
 2467 01a6 2493     		str	r3, [sp, #144]
 2468              		.loc 1 732 0
 2469 01a8 0023     		movs	r3, #0
 2470              		.loc 1 740 0
 2471 01aa CCF80030 		str	r3, [ip, #0]
 2472              		.loc 1 742 0
 2473 01ae DDF804C0 		ldr	ip, [sp, #4]
 2474 01b2 CCF80030 		str	r3, [ip, #0]
 2475              		.loc 1 744 0
 2476 01b6 DDF808C0 		ldr	ip, [sp, #8]
 2477 01ba CCF80030 		str	r3, [ip, #0]
 2478              		.loc 1 746 0
 2479 01be DDF80CC0 		ldr	ip, [sp, #12]
 2480 01c2 CCF80030 		str	r3, [ip, #0]
 2481              		.loc 1 748 0
 2482 01c6 DDF810C0 		ldr	ip, [sp, #16]
 2483 01ca CCF80030 		str	r3, [ip, #0]
 2484 01ce DDF814C0 		ldr	ip, [sp, #20]
 2485 01d2 CCF80030 		str	r3, [ip, #0]
 2486 01d6 DDF818C0 		ldr	ip, [sp, #24]
 2487 01da CCF80030 		str	r3, [ip, #0]
 2488 01de DDF81CC0 		ldr	ip, [sp, #28]
 2489 01e2 CCF80030 		str	r3, [ip, #0]
 2490 01e6 DDF820C0 		ldr	ip, [sp, #32]
 2491 01ea CCF80030 		str	r3, [ip, #0]
 2492 01ee DDF824C0 		ldr	ip, [sp, #36]
 2493 01f2 CCF80030 		str	r3, [ip, #0]
 2494 01f6 DDF828C0 		ldr	ip, [sp, #40]
 2495 01fa CCF80030 		str	r3, [ip, #0]
 2496 01fe DDF82CC0 		ldr	ip, [sp, #44]
 2497              		.loc 1 754 0
 2498 0202 40F20000 		movw	r0, #:lower16:_z_b
 2499              		.loc 1 748 0
 2500 0206 CCF80030 		str	r3, [ip, #0]
 2501 020a DDF830C0 		ldr	ip, [sp, #48]
 2502              		.loc 1 754 0
 2503 020e C0F20000 		movt	r0, #:upper16:_z_b
 2504              		.loc 1 734 0
 2505 0212 40F2000A 		movw	sl, #:lower16:.LANCHOR4
 2506              		.loc 1 736 0
 2507 0216 40F20009 		movw	r9, #:lower16:.LANCHOR6
ARM GAS  C:\Users\Elis\AppData\Local\Temp\ccGbXKEy.s 			page 45


 2508              		.loc 1 738 0
 2509 021a 40F20008 		movw	r8, #:lower16:.LANCHOR11
 2510              		.loc 1 754 0
 2511 021e 2390     		str	r0, [sp, #140]
 2512              		.loc 1 748 0
 2513 0220 CCF80030 		str	r3, [ip, #0]
 2514              		.loc 1 732 0
 2515 0224 C0F2000B 		movt	fp, #:upper16:.LANCHOR2
 2516              		.loc 1 748 0
 2517 0228 DDF834C0 		ldr	ip, [sp, #52]
 2518              		.loc 1 732 0
 2519 022c CBF80030 		str	r3, [fp, #0]
 2520              		.loc 1 734 0
 2521 0230 C0F2000A 		movt	sl, #:upper16:.LANCHOR4
 2522              		.loc 1 736 0
 2523 0234 C0F20009 		movt	r9, #:upper16:.LANCHOR6
 2524              		.loc 1 738 0
 2525 0238 C0F20008 		movt	r8, #:upper16:.LANCHOR11
 2526              		.loc 1 756 0
 2527 023c 40F20000 		movw	r0, #:lower16:_space_b
 2528 0240 C0F20000 		movt	r0, #:upper16:_space_b
 2529 0244 2590     		str	r0, [sp, #148]
 2530              		.loc 1 734 0
 2531 0246 CAF80030 		str	r3, [sl, #0]
 2532              		.loc 1 736 0
 2533 024a C9F80030 		str	r3, [r9, #0]
 2534              		.loc 1 738 0
 2535 024e C8F80030 		str	r3, [r8, #0]
 2536              		.loc 1 748 0
 2537 0252 CCF80030 		str	r3, [ip, #0]
 2538              		.loc 1 750 0
 2539 0256 DDF838C0 		ldr	ip, [sp, #56]
 2540 025a CCF80030 		str	r3, [ip, #0]
 2541 025e DDF83CC0 		ldr	ip, [sp, #60]
 2542 0262 CCF80030 		str	r3, [ip, #0]
 2543 0266 DDF840C0 		ldr	ip, [sp, #64]
 2544 026a CCF80030 		str	r3, [ip, #0]
 2545 026e DDF844C0 		ldr	ip, [sp, #68]
 2546 0272 CCF80030 		str	r3, [ip, #0]
 2547 0276 DDF848C0 		ldr	ip, [sp, #72]
 2548 027a CCF80030 		str	r3, [ip, #0]
 2549 027e DDF84CC0 		ldr	ip, [sp, #76]
 2550 0282 CCF80030 		str	r3, [ip, #0]
 2551 0286 DDF850C0 		ldr	ip, [sp, #80]
 2552 028a CCF80030 		str	r3, [ip, #0]
 2553 028e DDF854C0 		ldr	ip, [sp, #84]
 2554 0292 CCF80030 		str	r3, [ip, #0]
 2555 0296 DDF858C0 		ldr	ip, [sp, #88]
 2556 029a CCF80030 		str	r3, [ip, #0]
 2557 029e DDF85CC0 		ldr	ip, [sp, #92]
 2558 02a2 CCF80030 		str	r3, [ip, #0]
 2559              		.loc 1 752 0
 2560 02a6 DDF860C0 		ldr	ip, [sp, #96]
 2561 02aa CCF80030 		str	r3, [ip, #0]
 2562 02ae DDF864C0 		ldr	ip, [sp, #100]
 2563 02b2 CCF80030 		str	r3, [ip, #0]
 2564 02b6 DDF868C0 		ldr	ip, [sp, #104]
ARM GAS  C:\Users\Elis\AppData\Local\Temp\ccGbXKEy.s 			page 46


 2565 02ba CCF80030 		str	r3, [ip, #0]
 2566 02be DDF86CC0 		ldr	ip, [sp, #108]
 2567 02c2 CCF80030 		str	r3, [ip, #0]
 2568 02c6 DDF870C0 		ldr	ip, [sp, #112]
 2569 02ca CCF80030 		str	r3, [ip, #0]
 2570 02ce DDF874C0 		ldr	ip, [sp, #116]
 2571 02d2 CCF80030 		str	r3, [ip, #0]
 2572 02d6 DDF878C0 		ldr	ip, [sp, #120]
 2573 02da CCF80030 		str	r3, [ip, #0]
 2574 02de DDF87CC0 		ldr	ip, [sp, #124]
 2575 02e2 CCF80030 		str	r3, [ip, #0]
 2576 02e6 DDF880C0 		ldr	ip, [sp, #128]
 2577 02ea CCF80030 		str	r3, [ip, #0]
 2578 02ee DDF884C0 		ldr	ip, [sp, #132]
 2579 02f2 CCF80030 		str	r3, [ip, #0]
 2580              		.loc 1 754 0
 2581 02f6 DDF888C0 		ldr	ip, [sp, #136]
 2582 02fa 40F20001 		movw	r1, #:lower16:_slash_b
 2583 02fe CCF80030 		str	r3, [ip, #0]
 2584 0302 C0F20001 		movt	r1, #:upper16:_slash_b
 2585 0306 DDF88CC0 		ldr	ip, [sp, #140]
 2586 030a 0B60     		str	r3, [r1, #0]
 2587 030c 40F20007 		movw	r7, #:lower16:_y_b
 2588 0310 40F20006 		movw	r6, #:lower16:_q_b
 2589 0314 40F20005 		movw	r5, #:lower16:_dot_b
 2590 0318 40F20004 		movw	r4, #:lower16:_comma_b
 2591 031c 40F20002 		movw	r2, #:lower16:_exclamation_b
 2592 0320 CCF80030 		str	r3, [ip, #0]
 2593 0324 C0F20007 		movt	r7, #:upper16:_y_b
 2594 0328 C0F20006 		movt	r6, #:upper16:_q_b
 2595 032c C0F20005 		movt	r5, #:upper16:_dot_b
 2596 0330 C0F20004 		movt	r4, #:upper16:_comma_b
 2597 0334 C0F20002 		movt	r2, #:upper16:_exclamation_b
 2598 0338 DDF890C0 		ldr	ip, [sp, #144]
 2599              		.loc 1 756 0
 2600 033c 2599     		ldr	r1, [sp, #148]
 2601              		.loc 1 754 0
 2602 033e CCF80030 		str	r3, [ip, #0]
 2603              		.loc 1 760 0
 2604 0342 4020     		movs	r0, #64
 2605              		.loc 1 754 0
 2606 0344 3B60     		str	r3, [r7, #0]
 2607 0346 3360     		str	r3, [r6, #0]
 2608 0348 2B60     		str	r3, [r5, #0]
 2609 034a 2360     		str	r3, [r4, #0]
 2610 034c 1360     		str	r3, [r2, #0]
 2611              		.loc 1 756 0
 2612 034e 0B60     		str	r3, [r1, #0]
 2613              		.loc 1 762 0
 2614 0350 27B0     		add	sp, sp, #156
 2615 0352 BDE8F04F 		pop	{r4, r5, r6, r7, r8, r9, sl, fp, lr}
 2616              		.loc 1 760 0
 2617 0356 FFF7FEBF 		b	chThdSetPriority
 2618              	.LVL141:
 2619              		.cfi_endproc
 2620              	.LFE121:
 2621              		.size	destroyContactAddScreen, .-destroyContactAddScreen
ARM GAS  C:\Users\Elis\AppData\Local\Temp\ccGbXKEy.s 			page 47


 2622              		.global	name_contacts_lb
 2623              		.global	telNum_contacts_lb
 2624              		.global	back_contacts_b
 2625              		.global	delete_contacts_b
 2626              		.global	save_contacts_b
 2627              		.global	add_contacts_b
 2628              		.global	home_contacts_b
 2629              		.global	contacts_contacts_l
 2630 035a 00BFAFF3 		.section	.bss.back_p,"aw",%nobits
 2630      0080
 2631              		.align	2
 2632              		.set	.LANCHOR12,. + 0
 2633              		.type	back_p, %object
 2634              		.size	back_p, 24
 2635              	back_p:
 2636 0000 00000000 		.space	24
 2636      00000000 
 2636      00000000 
 2636      00000000 
 2636      00000000 
 2637              		.section	.bss.back_contacts_b,"aw",%nobits
 2638              		.align	2
 2639              		.set	.LANCHOR13,. + 0
 2640              		.type	back_contacts_b, %object
 2641              		.size	back_contacts_b, 4
 2642              	back_contacts_b:
 2643 0000 00000000 		.space	4
 2644              		.section	.bss.mainContainer_c,"aw",%nobits
 2645              		.align	2
 2646              		.set	.LANCHOR1,. + 0
 2647              		.type	mainContainer_c, %object
 2648              		.size	mainContainer_c, 4
 2649              	mainContainer_c:
 2650 0000 00000000 		.space	4
 2651              		.section	.bss.name_contacts_lb,"aw",%nobits
 2652              		.align	2
 2653              		.set	.LANCHOR9,. + 0
 2654              		.type	name_contacts_lb, %object
 2655              		.size	name_contacts_lb, 4
 2656              	name_contacts_lb:
 2657 0000 00000000 		.space	4
 2658              		.section	.bss.del_p,"aw",%nobits
 2659              		.align	2
 2660              		.set	.LANCHOR7,. + 0
 2661              		.type	del_p, %object
 2662              		.size	del_p, 24
 2663              	del_p:
 2664 0000 00000000 		.space	24
 2664      00000000 
 2664      00000000 
 2664      00000000 
 2664      00000000 
 2665              		.section	.bss.add_p,"aw",%nobits
 2666              		.align	2
 2667              		.set	.LANCHOR5,. + 0
 2668              		.type	add_p, %object
 2669              		.size	add_p, 24
ARM GAS  C:\Users\Elis\AppData\Local\Temp\ccGbXKEy.s 			page 48


 2670              	add_p:
 2671 0000 00000000 		.space	24
 2671      00000000 
 2671      00000000 
 2671      00000000 
 2671      00000000 
 2672              		.section	.bss.contacts_contacts_l,"aw",%nobits
 2673              		.align	2
 2674              		.set	.LANCHOR2,. + 0
 2675              		.type	contacts_contacts_l, %object
 2676              		.size	contacts_contacts_l, 4
 2677              	contacts_contacts_l:
 2678 0000 00000000 		.space	4
 2679              		.section	.bss.telNum_contacts_lb,"aw",%nobits
 2680              		.align	2
 2681              		.set	.LANCHOR10,. + 0
 2682              		.type	telNum_contacts_lb, %object
 2683              		.size	telNum_contacts_lb, 4
 2684              	telNum_contacts_lb:
 2685 0000 00000000 		.space	4
 2686              		.section	.rodata.str1.4,"aMS",%progbits,1
 2687              		.align	2
 2688              	.LC0:
 2689 0000 2F746865 		.ascii	"/themes/\000"
 2689      6D65732F 
 2689      00
 2690 0009 000000   		.space	3
 2691              	.LC1:
 2692 000c 2F626163 		.ascii	"/background/background.gif\000"
 2692      6B67726F 
 2692      756E642F 
 2692      6261636B 
 2692      67726F75 
 2693 0027 00       		.space	1
 2694              	.LC2:
 2695 0028 726200   		.ascii	"rb\000"
 2696 002b 00       		.space	1
 2697              	.LC3:
 2698 002c 2F69636F 		.ascii	"/icons/homeButton.gif\000"
 2698      6E732F68 
 2698      6F6D6542 
 2698      7574746F 
 2698      6E2E6769 
 2699 0042 0000     		.space	2
 2700              	.LC4:
 2701 0044 2F69636F 		.ascii	"/icons/addButton.gif\000"
 2701      6E732F61 
 2701      64644275 
 2701      74746F6E 
 2701      2E676966 
 2702 0059 000000   		.space	3
 2703              	.LC5:
 2704 005c 2F69636F 		.ascii	"/icons/delButton.gif\000"
 2704      6E732F64 
 2704      656C4275 
 2704      74746F6E 
 2704      2E676966 
ARM GAS  C:\Users\Elis\AppData\Local\Temp\ccGbXKEy.s 			page 49


 2705 0071 000000   		.space	3
 2706              	.LC6:
 2707 0074 436F6E74 		.ascii	"Container\000"
 2707      61696E65 
 2707      7200
 2708 007e 0000     		.space	2
 2709              	.LC7:
 2710 0080 436F6E74 		.ascii	"Contacts\000"
 2710      61637473 
 2710      00
 2711 0089 000000   		.space	3
 2712              	.LC8:
 2713 008c 486F6D65 		.ascii	"Home\000"
 2713      00
 2714 0091 000000   		.space	3
 2715              	.LC9:
 2716 0094 00       		.ascii	"\000"
 2717 0095 000000   		.space	3
 2718              	.LC10:
 2719 0098 61646400 		.ascii	"add\000"
 2720              	.LC11:
 2721 009c 64656C00 		.ascii	"del\000"
 2722              	.LC12:
 2723 00a0 2F69636F 		.ascii	"/icons/back.gif\000"
 2723      6E732F62 
 2723      61636B2E 
 2723      67696600 
 2724              	.LC13:
 2725 00b0 456E7465 		.ascii	"Enter a name\000"
 2725      72206120 
 2725      6E616D65 
 2725      00
 2726 00bd 000000   		.space	3
 2727              	.LC14:
 2728 00c0 30303030 		.ascii	"000000000\000"
 2728      30303030 
 2728      3000
 2729 00ca 0000     		.space	2
 2730              	.LC15:
 2731 00cc 3000     		.ascii	"0\000"
 2732 00ce 0000     		.space	2
 2733              	.LC16:
 2734 00d0 3100     		.ascii	"1\000"
 2735 00d2 0000     		.space	2
 2736              	.LC17:
 2737 00d4 3200     		.ascii	"2\000"
 2738 00d6 0000     		.space	2
 2739              	.LC18:
 2740 00d8 3300     		.ascii	"3\000"
 2741 00da 0000     		.space	2
 2742              	.LC19:
 2743 00dc 3400     		.ascii	"4\000"
 2744 00de 0000     		.space	2
 2745              	.LC20:
 2746 00e0 3500     		.ascii	"5\000"
 2747 00e2 0000     		.space	2
 2748              	.LC21:
ARM GAS  C:\Users\Elis\AppData\Local\Temp\ccGbXKEy.s 			page 50


 2749 00e4 3600     		.ascii	"6\000"
 2750 00e6 0000     		.space	2
 2751              	.LC22:
 2752 00e8 3700     		.ascii	"7\000"
 2753 00ea 0000     		.space	2
 2754              	.LC23:
 2755 00ec 3800     		.ascii	"8\000"
 2756 00ee 0000     		.space	2
 2757              	.LC24:
 2758 00f0 3900     		.ascii	"9\000"
 2759 00f2 0000     		.space	2
 2760              	.LC25:
 2761 00f4 6100     		.ascii	"a\000"
 2762 00f6 0000     		.space	2
 2763              	.LC26:
 2764 00f8 6200     		.ascii	"b\000"
 2765 00fa 0000     		.space	2
 2766              	.LC27:
 2767 00fc 6300     		.ascii	"c\000"
 2768 00fe 0000     		.space	2
 2769              	.LC28:
 2770 0100 6400     		.ascii	"d\000"
 2771 0102 0000     		.space	2
 2772              	.LC29:
 2773 0104 6500     		.ascii	"e\000"
 2774 0106 0000     		.space	2
 2775              	.LC30:
 2776 0108 6600     		.ascii	"f\000"
 2777 010a 0000     		.space	2
 2778              	.LC31:
 2779 010c 6700     		.ascii	"g\000"
 2780 010e 0000     		.space	2
 2781              	.LC32:
 2782 0110 6800     		.ascii	"h\000"
 2783 0112 0000     		.space	2
 2784              	.LC33:
 2785 0114 6900     		.ascii	"i\000"
 2786 0116 0000     		.space	2
 2787              	.LC34:
 2788 0118 6A00     		.ascii	"j\000"
 2789 011a 0000     		.space	2
 2790              	.LC35:
 2791 011c 6B00     		.ascii	"k\000"
 2792 011e 0000     		.space	2
 2793              	.LC36:
 2794 0120 6C00     		.ascii	"l\000"
 2795 0122 0000     		.space	2
 2796              	.LC37:
 2797 0124 6D00     		.ascii	"m\000"
 2798 0126 0000     		.space	2
 2799              	.LC38:
 2800 0128 6E00     		.ascii	"n\000"
 2801 012a 0000     		.space	2
 2802              	.LC39:
 2803 012c 6F00     		.ascii	"o\000"
 2804 012e 0000     		.space	2
 2805              	.LC40:
ARM GAS  C:\Users\Elis\AppData\Local\Temp\ccGbXKEy.s 			page 51


 2806 0130 7000     		.ascii	"p\000"
 2807 0132 0000     		.space	2
 2808              	.LC41:
 2809 0134 7200     		.ascii	"r\000"
 2810 0136 0000     		.space	2
 2811              	.LC42:
 2812 0138 7300     		.ascii	"s\000"
 2813 013a 0000     		.space	2
 2814              	.LC43:
 2815 013c 7400     		.ascii	"t\000"
 2816 013e 0000     		.space	2
 2817              	.LC44:
 2818 0140 7500     		.ascii	"u\000"
 2819 0142 0000     		.space	2
 2820              	.LC45:
 2821 0144 7600     		.ascii	"v\000"
 2822 0146 0000     		.space	2
 2823              	.LC46:
 2824 0148 7A00     		.ascii	"z\000"
 2825 014a 0000     		.space	2
 2826              	.LC47:
 2827 014c 7800     		.ascii	"x\000"
 2828 014e 0000     		.space	2
 2829              	.LC48:
 2830 0150 7900     		.ascii	"y\000"
 2831 0152 0000     		.space	2
 2832              	.LC49:
 2833 0154 7100     		.ascii	"q\000"
 2834 0156 0000     		.space	2
 2835              	.LC50:
 2836 0158 2E00     		.ascii	".\000"
 2837 015a 0000     		.space	2
 2838              	.LC51:
 2839 015c 2C00     		.ascii	",\000"
 2840 015e 0000     		.space	2
 2841              	.LC52:
 2842 0160 2F00     		.ascii	"/\000"
 2843 0162 0000     		.space	2
 2844              	.LC53:
 2845 0164 2D00     		.ascii	"-\000"
 2846 0166 0000     		.space	2
 2847              	.LC54:
 2848 0168 2000     		.ascii	" \000"
 2849 016a 0000     		.space	2
 2850              	.LC55:
 2851 016c 4261636B 		.ascii	"Back\000"
 2851      00
 2852 0171 000000   		.section	.bss.home_p,"aw",%nobits
 2853              		.align	2
 2854              		.set	.LANCHOR3,. + 0
 2855              		.type	home_p, %object
 2856              		.size	home_p, 24
 2857              	home_p:
 2858 0000 00000000 		.space	24
 2858      00000000 
 2858      00000000 
 2858      00000000 
ARM GAS  C:\Users\Elis\AppData\Local\Temp\ccGbXKEy.s 			page 52


 2858      00000000 
 2859              		.section	.bss.add_contacts_b,"aw",%nobits
 2860              		.align	2
 2861              		.set	.LANCHOR6,. + 0
 2862              		.type	add_contacts_b, %object
 2863              		.size	add_contacts_b, 4
 2864              	add_contacts_b:
 2865 0000 00000000 		.space	4
 2866              		.section	.bss.background_p,"aw",%nobits
 2867              		.align	2
 2868              		.set	.LANCHOR0,. + 0
 2869              		.type	background_p, %object
 2870              		.size	background_p, 24
 2871              	background_p:
 2872 0000 00000000 		.space	24
 2872      00000000 
 2872      00000000 
 2872      00000000 
 2872      00000000 
 2873              		.section	.bss.save_contacts_b,"aw",%nobits
 2874              		.align	2
 2875              		.set	.LANCHOR11,. + 0
 2876              		.type	save_contacts_b, %object
 2877              		.size	save_contacts_b, 4
 2878              	save_contacts_b:
 2879 0000 00000000 		.space	4
 2880              		.section	.bss.delete_contacts_b,"aw",%nobits
 2881              		.align	2
 2882              		.set	.LANCHOR8,. + 0
 2883              		.type	delete_contacts_b, %object
 2884              		.size	delete_contacts_b, 4
 2885              	delete_contacts_b:
 2886 0000 00000000 		.space	4
 2887              		.section	.bss.home_contacts_b,"aw",%nobits
 2888              		.align	2
 2889              		.set	.LANCHOR4,. + 0
 2890              		.type	home_contacts_b, %object
 2891              		.size	home_contacts_b, 4
 2892              	home_contacts_b:
 2893 0000 00000000 		.space	4
 2894              		.text
 2895              	.Letext0:
 2896              		.file 2 "c:\\chibistudio\\tools\\gnu tools arm embedded\\4.7 2014q2\\bin\\../lib/gcc/arm-none-eabi
 2897              		.file 3 "c:\\chibistudio\\tools\\gnu tools arm embedded\\4.7 2014q2\\bin\\../lib/gcc/arm-none-eabi
 2898              		.file 4 "../../chibios/os/ports/GCC/ARMCMx/chtypes.h"
 2899              		.file 5 "../../ugfx/src/gfile/gfile.h"
 2900              		.file 6 "../../ugfx/src/gqueue/gqueue.h"
 2901              		.file 7 "../../ugfx/src/gdisp/gdisp.h"
 2902              		.file 8 "../../ugfx/src/gdisp/gdisp_colors.h"
 2903              		.file 9 "../../ugfx/src/gdisp/gdisp_image.h"
 2904              		.file 10 "../../ugfx/src/gwin/gwin.h"
 2905              		.file 11 "../../ugfx/src/gwin/gwin_widget.h"
 2906              		.file 12 "../../ugfx/src/gwin/gwin_button.h"
 2907              		.file 13 "../../ugfx/src/gwin/gwin_list.h"
 2908              		.file 14 "../../ugfx/src/gwin/gwin_container.h"
 2909              		.file 15 "../../workspace26/Mobile_phone/structures/structures.h"
 2910              		.file 16 "../../chibios/os/ports/common/ARMCMx/CMSIS/include/core_cm4.h"
ARM GAS  C:\Users\Elis\AppData\Local\Temp\ccGbXKEy.s 			page 53


 2911              		.file 17 "../../workspace26/Mobile_phone/gui/contactsScreen.h"
 2912              		.file 18 "../../chibios/os/kernel/include/chthreads.h"
 2913              		.file 19 "c:\\chibistudio\\tools\\gnu tools arm embedded\\4.7 2014q2\\bin\\../lib/gcc/arm-none-eab
 2914              		.file 20 "<built-in>"
 2915              		.section	.debug_info,"",%progbits
 2916              	.Ldebug_info0:
 2917 0000 75190000 		.4byte	0x1975
 2918 0004 0200     		.2byte	0x2
 2919 0006 00000000 		.4byte	.Ldebug_abbrev0
 2920 000a 04       		.byte	0x4
 2921 000b 01       		.uleb128 0x1
 2922 000c A2030000 		.4byte	.LASF166
 2923 0010 01       		.byte	0x1
 2924 0011 E1010000 		.4byte	.LASF167
 2925 0015 C9000000 		.4byte	.LASF168
 2926 0019 00000000 		.4byte	.Ldebug_ranges0+0
 2927 001d 00000000 		.4byte	0
 2928 0021 00000000 		.4byte	0
 2929 0025 00000000 		.4byte	.Ldebug_line0
 2930 0029 02       		.uleb128 0x2
 2931 002a 04       		.byte	0x4
 2932 002b 05       		.byte	0x5
 2933 002c 696E7400 		.ascii	"int\000"
 2934 0030 03       		.uleb128 0x3
 2935 0031 36000000 		.4byte	.LASF3
 2936 0035 02       		.byte	0x2
 2937 0036 D5       		.byte	0xd5
 2938 0037 3B000000 		.4byte	0x3b
 2939 003b 04       		.uleb128 0x4
 2940 003c 04       		.byte	0x4
 2941 003d 07       		.byte	0x7
 2942 003e 54020000 		.4byte	.LASF0
 2943 0042 04       		.uleb128 0x4
 2944 0043 01       		.byte	0x1
 2945 0044 06       		.byte	0x6
 2946 0045 15010000 		.4byte	.LASF1
 2947 0049 04       		.uleb128 0x4
 2948 004a 01       		.byte	0x1
 2949 004b 08       		.byte	0x8
 2950 004c A1040000 		.4byte	.LASF2
 2951 0050 03       		.uleb128 0x3
 2952 0051 FF000000 		.4byte	.LASF4
 2953 0055 03       		.byte	0x3
 2954 0056 35       		.byte	0x35
 2955 0057 5B000000 		.4byte	0x5b
 2956 005b 04       		.uleb128 0x4
 2957 005c 02       		.byte	0x2
 2958 005d 05       		.byte	0x5
 2959 005e 18030000 		.4byte	.LASF5
 2960 0062 03       		.uleb128 0x3
 2961 0063 D8010000 		.4byte	.LASF6
 2962 0067 03       		.byte	0x3
 2963 0068 36       		.byte	0x36
 2964 0069 6D000000 		.4byte	0x6d
 2965 006d 04       		.uleb128 0x4
 2966 006e 02       		.byte	0x2
 2967 006f 07       		.byte	0x7
ARM GAS  C:\Users\Elis\AppData\Local\Temp\ccGbXKEy.s 			page 54


 2968 0070 19060000 		.4byte	.LASF7
 2969 0074 03       		.uleb128 0x3
 2970 0075 99040000 		.4byte	.LASF8
 2971 0079 03       		.byte	0x3
 2972 007a 4F       		.byte	0x4f
 2973 007b 7F000000 		.4byte	0x7f
 2974 007f 04       		.uleb128 0x4
 2975 0080 04       		.byte	0x4
 2976 0081 05       		.byte	0x5
 2977 0082 71010000 		.4byte	.LASF9
 2978 0086 03       		.uleb128 0x3
 2979 0087 53050000 		.4byte	.LASF10
 2980 008b 03       		.byte	0x3
 2981 008c 50       		.byte	0x50
 2982 008d 91000000 		.4byte	0x91
 2983 0091 04       		.uleb128 0x4
 2984 0092 04       		.byte	0x4
 2985 0093 07       		.byte	0x7
 2986 0094 84020000 		.4byte	.LASF11
 2987 0098 04       		.uleb128 0x4
 2988 0099 08       		.byte	0x8
 2989 009a 05       		.byte	0x5
 2990 009b 07010000 		.4byte	.LASF12
 2991 009f 04       		.uleb128 0x4
 2992 00a0 08       		.byte	0x8
 2993 00a1 07       		.byte	0x7
 2994 00a2 7D000000 		.4byte	.LASF13
 2995 00a6 03       		.uleb128 0x3
 2996 00a7 3E010000 		.4byte	.LASF14
 2997 00ab 04       		.byte	0x4
 2998 00ac 2B       		.byte	0x2b
 2999 00ad B1000000 		.4byte	0xb1
 3000 00b1 04       		.uleb128 0x4
 3001 00b2 01       		.byte	0x1
 3002 00b3 02       		.byte	0x2
 3003 00b4 93040000 		.4byte	.LASF15
 3004 00b8 03       		.uleb128 0x3
 3005 00b9 74040000 		.4byte	.LASF16
 3006 00bd 04       		.byte	0x4
 3007 00be 30       		.byte	0x30
 3008 00bf 86000000 		.4byte	0x86
 3009 00c3 05       		.uleb128 0x5
 3010 00c4 04       		.byte	0x4
 3011 00c5 04       		.uleb128 0x4
 3012 00c6 04       		.byte	0x4
 3013 00c7 07       		.byte	0x7
 3014 00c8 60030000 		.4byte	.LASF17
 3015 00cc 06       		.uleb128 0x6
 3016 00cd 04       		.byte	0x4
 3017 00ce D2000000 		.4byte	0xd2
 3018 00d2 07       		.uleb128 0x7
 3019 00d3 D7000000 		.4byte	0xd7
 3020 00d7 04       		.uleb128 0x4
 3021 00d8 01       		.byte	0x1
 3022 00d9 08       		.byte	0x8
 3023 00da A2050000 		.4byte	.LASF18
 3024 00de 08       		.uleb128 0x8
ARM GAS  C:\Users\Elis\AppData\Local\Temp\ccGbXKEy.s 			page 55


 3025 00df 74000000 		.4byte	0x74
 3026 00e3 03       		.uleb128 0x3
 3027 00e4 27020000 		.4byte	.LASF19
 3028 00e8 05       		.byte	0x5
 3029 00e9 22       		.byte	0x22
 3030 00ea EE000000 		.4byte	0xee
 3031 00ee 09       		.uleb128 0x9
 3032 00ef 27020000 		.4byte	.LASF19
 3033 00f3 01       		.byte	0x1
 3034 00f4 0A       		.uleb128 0xa
 3035 00f5 37070000 		.4byte	.LASF20
 3036 00f9 04       		.byte	0x4
 3037 00fa 06       		.byte	0x6
 3038 00fb 28       		.byte	0x28
 3039 00fc 0F010000 		.4byte	0x10f
 3040 0100 0B       		.uleb128 0xb
 3041 0101 C4000000 		.4byte	.LASF22
 3042 0105 06       		.byte	0x6
 3043 0106 29       		.byte	0x29
 3044 0107 0F010000 		.4byte	0x10f
 3045 010b 02       		.byte	0x2
 3046 010c 23       		.byte	0x23
 3047 010d 00       		.uleb128 0
 3048 010e 00       		.byte	0
 3049 010f 06       		.uleb128 0x6
 3050 0110 04       		.byte	0x4
 3051 0111 F4000000 		.4byte	0xf4
 3052 0115 03       		.uleb128 0x3
 3053 0116 37070000 		.4byte	.LASF20
 3054 011a 06       		.byte	0x6
 3055 011b 2A       		.byte	0x2a
 3056 011c F4000000 		.4byte	0xf4
 3057 0120 0A       		.uleb128 0xa
 3058 0121 29070000 		.4byte	.LASF21
 3059 0125 08       		.byte	0x8
 3060 0126 06       		.byte	0x6
 3061 0127 36       		.byte	0x36
 3062 0128 49010000 		.4byte	0x149
 3063 012c 0B       		.uleb128 0xb
 3064 012d 48050000 		.4byte	.LASF23
 3065 0131 06       		.byte	0x6
 3066 0132 37       		.byte	0x37
 3067 0133 49010000 		.4byte	0x149
 3068 0137 02       		.byte	0x2
 3069 0138 23       		.byte	0x23
 3070 0139 00       		.uleb128 0
 3071 013a 0B       		.uleb128 0xb
 3072 013b 5B030000 		.4byte	.LASF24
 3073 013f 06       		.byte	0x6
 3074 0140 38       		.byte	0x38
 3075 0141 49010000 		.4byte	0x149
 3076 0145 02       		.byte	0x2
 3077 0146 23       		.byte	0x23
 3078 0147 04       		.uleb128 0x4
 3079 0148 00       		.byte	0
 3080 0149 06       		.uleb128 0x6
 3081 014a 04       		.byte	0x4
ARM GAS  C:\Users\Elis\AppData\Local\Temp\ccGbXKEy.s 			page 56


 3082 014b 15010000 		.4byte	0x115
 3083 014f 03       		.uleb128 0x3
 3084 0150 29070000 		.4byte	.LASF21
 3085 0154 06       		.byte	0x6
 3086 0155 39       		.byte	0x39
 3087 0156 20010000 		.4byte	0x120
 3088 015a 03       		.uleb128 0x3
 3089 015b 15040000 		.4byte	.LASF25
 3090 015f 07       		.byte	0x7
 3091 0160 27       		.byte	0x27
 3092 0161 50000000 		.4byte	0x50
 3093 0165 03       		.uleb128 0x3
 3094 0166 6D040000 		.4byte	.LASF26
 3095 016a 07       		.byte	0x7
 3096 016b 3E       		.byte	0x3e
 3097 016c 70010000 		.4byte	0x170
 3098 0170 06       		.uleb128 0x6
 3099 0171 04       		.byte	0x4
 3100 0172 76010000 		.4byte	0x176
 3101 0176 07       		.uleb128 0x7
 3102 0177 7B010000 		.4byte	0x17b
 3103 017b 09       		.uleb128 0x9
 3104 017c 32030000 		.4byte	.LASF27
 3105 0180 01       		.byte	0x1
 3106 0181 03       		.uleb128 0x3
 3107 0182 E6020000 		.4byte	.LASF28
 3108 0186 07       		.byte	0x7
 3109 0187 4D       		.byte	0x4d
 3110 0188 8C010000 		.4byte	0x18c
 3111 018c 09       		.uleb128 0x9
 3112 018d E6020000 		.4byte	.LASF28
 3113 0191 01       		.byte	0x1
 3114 0192 0C       		.uleb128 0xc
 3115 0193 3C030000 		.4byte	.LASF29
 3116 0197 08       		.byte	0x8
 3117 0198 8C01     		.2byte	0x18c
 3118 019a 62000000 		.4byte	0x62
 3119 019e 03       		.uleb128 0x3
 3120 019f 40040000 		.4byte	.LASF30
 3121 01a3 09       		.byte	0x9
 3122 01a4 18       		.byte	0x18
 3123 01a5 62000000 		.4byte	0x62
 3124 01a9 03       		.uleb128 0x3
 3125 01aa 8C060000 		.4byte	.LASF31
 3126 01ae 09       		.byte	0x9
 3127 01af 23       		.byte	0x23
 3128 01b0 62000000 		.4byte	0x62
 3129 01b4 03       		.uleb128 0x3
 3130 01b5 4A010000 		.4byte	.LASF32
 3131 01b9 09       		.byte	0x9
 3132 01ba 30       		.byte	0x30
 3133 01bb 62000000 		.4byte	0x62
 3134 01bf 0A       		.uleb128 0xa
 3135 01c0 C0060000 		.4byte	.LASF33
 3136 01c4 18       		.byte	0x18
 3137 01c5 09       		.byte	0x9
 3138 01c6 66       		.byte	0x66
ARM GAS  C:\Users\Elis\AppData\Local\Temp\ccGbXKEy.s 			page 57


 3139 01c7 3A020000 		.4byte	0x23a
 3140 01cb 0B       		.uleb128 0xb
 3141 01cc 5A000000 		.4byte	.LASF34
 3142 01d0 09       		.byte	0x9
 3143 01d1 67       		.byte	0x67
 3144 01d2 9E010000 		.4byte	0x19e
 3145 01d6 02       		.byte	0x2
 3146 01d7 23       		.byte	0x23
 3147 01d8 00       		.uleb128 0
 3148 01d9 0B       		.uleb128 0xb
 3149 01da D8060000 		.4byte	.LASF35
 3150 01de 09       		.byte	0x9
 3151 01df 68       		.byte	0x68
 3152 01e0 B4010000 		.4byte	0x1b4
 3153 01e4 02       		.byte	0x2
 3154 01e5 23       		.byte	0x23
 3155 01e6 02       		.uleb128 0x2
 3156 01e7 0B       		.uleb128 0xb
 3157 01e8 58040000 		.4byte	.LASF36
 3158 01ec 09       		.byte	0x9
 3159 01ed 69       		.byte	0x69
 3160 01ee 92010000 		.4byte	0x192
 3161 01f2 02       		.byte	0x2
 3162 01f3 23       		.byte	0x23
 3163 01f4 04       		.uleb128 0x4
 3164 01f5 0B       		.uleb128 0xb
 3165 01f6 E1040000 		.4byte	.LASF37
 3166 01fa 09       		.byte	0x9
 3167 01fb 6A       		.byte	0x6a
 3168 01fc 5A010000 		.4byte	0x15a
 3169 0200 02       		.byte	0x2
 3170 0201 23       		.byte	0x23
 3171 0202 06       		.uleb128 0x6
 3172 0203 0B       		.uleb128 0xb
 3173 0204 0B070000 		.4byte	.LASF38
 3174 0208 09       		.byte	0x9
 3175 0209 6A       		.byte	0x6a
 3176 020a 5A010000 		.4byte	0x15a
 3177 020e 02       		.byte	0x2
 3178 020f 23       		.byte	0x23
 3179 0210 08       		.uleb128 0x8
 3180 0211 0D       		.uleb128 0xd
 3181 0212 6600     		.ascii	"f\000"
 3182 0214 09       		.byte	0x9
 3183 0215 6B       		.byte	0x6b
 3184 0216 3A020000 		.4byte	0x23a
 3185 021a 02       		.byte	0x2
 3186 021b 23       		.byte	0x23
 3187 021c 0C       		.uleb128 0xc
 3188 021d 0D       		.uleb128 0xd
 3189 021e 666E7300 		.ascii	"fns\000"
 3190 0222 09       		.byte	0x9
 3191 0223 70       		.byte	0x70
 3192 0224 46020000 		.4byte	0x246
 3193 0228 02       		.byte	0x2
 3194 0229 23       		.byte	0x23
 3195 022a 10       		.uleb128 0x10
ARM GAS  C:\Users\Elis\AppData\Local\Temp\ccGbXKEy.s 			page 58


 3196 022b 0B       		.uleb128 0xb
 3197 022c 22040000 		.4byte	.LASF39
 3198 0230 09       		.byte	0x9
 3199 0231 71       		.byte	0x71
 3200 0232 57020000 		.4byte	0x257
 3201 0236 02       		.byte	0x2
 3202 0237 23       		.byte	0x23
 3203 0238 14       		.uleb128 0x14
 3204 0239 00       		.byte	0
 3205 023a 06       		.uleb128 0x6
 3206 023b 04       		.byte	0x4
 3207 023c E3000000 		.4byte	0xe3
 3208 0240 09       		.uleb128 0x9
 3209 0241 F9050000 		.4byte	.LASF40
 3210 0245 01       		.byte	0x1
 3211 0246 06       		.uleb128 0x6
 3212 0247 04       		.byte	0x4
 3213 0248 4C020000 		.4byte	0x24c
 3214 024c 07       		.uleb128 0x7
 3215 024d 40020000 		.4byte	0x240
 3216 0251 09       		.uleb128 0x9
 3217 0252 84030000 		.4byte	.LASF41
 3218 0256 01       		.byte	0x1
 3219 0257 06       		.uleb128 0x6
 3220 0258 04       		.byte	0x4
 3221 0259 51020000 		.4byte	0x251
 3222 025d 03       		.uleb128 0x3
 3223 025e C0060000 		.4byte	.LASF33
 3224 0262 09       		.byte	0x9
 3225 0263 72       		.byte	0x72
 3226 0264 BF010000 		.4byte	0x1bf
 3227 0268 03       		.uleb128 0x3
 3228 0269 BC000000 		.4byte	.LASF42
 3229 026d 0A       		.byte	0xa
 3230 026e 1F       		.byte	0x1f
 3231 026f 73020000 		.4byte	0x273
 3232 0273 06       		.uleb128 0x6
 3233 0274 04       		.byte	0x4
 3234 0275 79020000 		.4byte	0x279
 3235 0279 0A       		.uleb128 0xa
 3236 027a 2C060000 		.4byte	.LASF43
 3237 027e 24       		.byte	0x24
 3238 027f 0A       		.byte	0xa
 3239 0280 26       		.byte	0x26
 3240 0281 2A030000 		.4byte	0x32a
 3241 0285 0D       		.uleb128 0xd
 3242 0286 776D7100 		.ascii	"wmq\000"
 3243 028a 0A       		.byte	0xa
 3244 028b 29       		.byte	0x29
 3245 028c 15010000 		.4byte	0x115
 3246 0290 02       		.byte	0x2
 3247 0291 23       		.byte	0x23
 3248 0292 00       		.uleb128 0
 3249 0293 0D       		.uleb128 0xd
 3250 0294 766D7400 		.ascii	"vmt\000"
 3251 0298 0A       		.byte	0xa
 3252 0299 2B       		.byte	0x2b
ARM GAS  C:\Users\Elis\AppData\Local\Temp\ccGbXKEy.s 			page 59


 3253 029a 30030000 		.4byte	0x330
 3254 029e 02       		.byte	0x2
 3255 029f 23       		.byte	0x23
 3256 02a0 04       		.uleb128 0x4
 3257 02a1 0B       		.uleb128 0xb
 3258 02a2 77060000 		.4byte	.LASF44
 3259 02a6 0A       		.byte	0xa
 3260 02a7 2C       		.byte	0x2c
 3261 02a8 3B030000 		.4byte	0x33b
 3262 02ac 02       		.byte	0x2
 3263 02ad 23       		.byte	0x23
 3264 02ae 08       		.uleb128 0x8
 3265 02af 0D       		.uleb128 0xd
 3266 02b0 7800     		.ascii	"x\000"
 3267 02b2 0A       		.byte	0xa
 3268 02b3 2D       		.byte	0x2d
 3269 02b4 5A010000 		.4byte	0x15a
 3270 02b8 02       		.byte	0x2
 3271 02b9 23       		.byte	0x23
 3272 02ba 0C       		.uleb128 0xc
 3273 02bb 0D       		.uleb128 0xd
 3274 02bc 7900     		.ascii	"y\000"
 3275 02be 0A       		.byte	0xa
 3276 02bf 2D       		.byte	0x2d
 3277 02c0 5A010000 		.4byte	0x15a
 3278 02c4 02       		.byte	0x2
 3279 02c5 23       		.byte	0x23
 3280 02c6 0E       		.uleb128 0xe
 3281 02c7 0B       		.uleb128 0xb
 3282 02c8 E1040000 		.4byte	.LASF37
 3283 02cc 0A       		.byte	0xa
 3284 02cd 2E       		.byte	0x2e
 3285 02ce 5A010000 		.4byte	0x15a
 3286 02d2 02       		.byte	0x2
 3287 02d3 23       		.byte	0x23
 3288 02d4 10       		.uleb128 0x10
 3289 02d5 0B       		.uleb128 0xb
 3290 02d6 0B070000 		.4byte	.LASF38
 3291 02da 0A       		.byte	0xa
 3292 02db 2E       		.byte	0x2e
 3293 02dc 5A010000 		.4byte	0x15a
 3294 02e0 02       		.byte	0x2
 3295 02e1 23       		.byte	0x23
 3296 02e2 12       		.uleb128 0x12
 3297 02e3 0B       		.uleb128 0xb
 3298 02e4 A7050000 		.4byte	.LASF45
 3299 02e8 0A       		.byte	0xa
 3300 02e9 2F       		.byte	0x2f
 3301 02ea 92010000 		.4byte	0x192
 3302 02ee 02       		.byte	0x2
 3303 02ef 23       		.byte	0x23
 3304 02f0 14       		.uleb128 0x14
 3305 02f1 0B       		.uleb128 0xb
 3306 02f2 58040000 		.4byte	.LASF36
 3307 02f6 0A       		.byte	0xa
 3308 02f7 2F       		.byte	0x2f
 3309 02f8 92010000 		.4byte	0x192
ARM GAS  C:\Users\Elis\AppData\Local\Temp\ccGbXKEy.s 			page 60


 3310 02fc 02       		.byte	0x2
 3311 02fd 23       		.byte	0x23
 3312 02fe 16       		.uleb128 0x16
 3313 02ff 0B       		.uleb128 0xb
 3314 0300 D8060000 		.4byte	.LASF35
 3315 0304 0A       		.byte	0xa
 3316 0305 30       		.byte	0x30
 3317 0306 86000000 		.4byte	0x86
 3318 030a 02       		.byte	0x2
 3319 030b 23       		.byte	0x23
 3320 030c 18       		.uleb128 0x18
 3321 030d 0B       		.uleb128 0xb
 3322 030e AB060000 		.4byte	.LASF46
 3323 0312 0A       		.byte	0xa
 3324 0313 32       		.byte	0x32
 3325 0314 65010000 		.4byte	0x165
 3326 0318 02       		.byte	0x2
 3327 0319 23       		.byte	0x23
 3328 031a 1C       		.uleb128 0x1c
 3329 031b 0B       		.uleb128 0xb
 3330 031c 6A010000 		.4byte	.LASF47
 3331 0320 0A       		.byte	0xa
 3332 0321 35       		.byte	0x35
 3333 0322 68020000 		.4byte	0x268
 3334 0326 02       		.byte	0x2
 3335 0327 23       		.byte	0x23
 3336 0328 20       		.uleb128 0x20
 3337 0329 00       		.byte	0
 3338 032a 09       		.uleb128 0x9
 3339 032b 1A020000 		.4byte	.LASF48
 3340 032f 01       		.byte	0x1
 3341 0330 06       		.uleb128 0x6
 3342 0331 04       		.byte	0x4
 3343 0332 36030000 		.4byte	0x336
 3344 0336 07       		.uleb128 0x7
 3345 0337 2A030000 		.4byte	0x32a
 3346 033b 06       		.uleb128 0x6
 3347 033c 04       		.byte	0x4
 3348 033d 81010000 		.4byte	0x181
 3349 0341 03       		.uleb128 0x3
 3350 0342 2C060000 		.4byte	.LASF43
 3351 0346 0A       		.byte	0xa
 3352 0347 37       		.byte	0x37
 3353 0348 79020000 		.4byte	0x279
 3354 034c 0A       		.uleb128 0xa
 3355 034d 34040000 		.4byte	.LASF49
 3356 0351 10       		.byte	0x10
 3357 0352 0A       		.byte	0xa
 3358 0353 46       		.byte	0x46
 3359 0354 A9030000 		.4byte	0x3a9
 3360 0358 0D       		.uleb128 0xd
 3361 0359 7800     		.ascii	"x\000"
 3362 035b 0A       		.byte	0xa
 3363 035c 47       		.byte	0x47
 3364 035d 5A010000 		.4byte	0x15a
 3365 0361 02       		.byte	0x2
 3366 0362 23       		.byte	0x23
ARM GAS  C:\Users\Elis\AppData\Local\Temp\ccGbXKEy.s 			page 61


 3367 0363 00       		.uleb128 0
 3368 0364 0D       		.uleb128 0xd
 3369 0365 7900     		.ascii	"y\000"
 3370 0367 0A       		.byte	0xa
 3371 0368 47       		.byte	0x47
 3372 0369 5A010000 		.4byte	0x15a
 3373 036d 02       		.byte	0x2
 3374 036e 23       		.byte	0x23
 3375 036f 02       		.uleb128 0x2
 3376 0370 0B       		.uleb128 0xb
 3377 0371 E1040000 		.4byte	.LASF37
 3378 0375 0A       		.byte	0xa
 3379 0376 48       		.byte	0x48
 3380 0377 5A010000 		.4byte	0x15a
 3381 037b 02       		.byte	0x2
 3382 037c 23       		.byte	0x23
 3383 037d 04       		.uleb128 0x4
 3384 037e 0B       		.uleb128 0xb
 3385 037f 0B070000 		.4byte	.LASF38
 3386 0383 0A       		.byte	0xa
 3387 0384 48       		.byte	0x48
 3388 0385 5A010000 		.4byte	0x15a
 3389 0389 02       		.byte	0x2
 3390 038a 23       		.byte	0x23
 3391 038b 06       		.uleb128 0x6
 3392 038c 0B       		.uleb128 0xb
 3393 038d 39010000 		.4byte	.LASF50
 3394 0391 0A       		.byte	0xa
 3395 0392 49       		.byte	0x49
 3396 0393 A6000000 		.4byte	0xa6
 3397 0397 02       		.byte	0x2
 3398 0398 23       		.byte	0x23
 3399 0399 08       		.uleb128 0x8
 3400 039a 0B       		.uleb128 0xb
 3401 039b 6A010000 		.4byte	.LASF47
 3402 039f 0A       		.byte	0xa
 3403 03a0 4B       		.byte	0x4b
 3404 03a1 73020000 		.4byte	0x273
 3405 03a5 02       		.byte	0x2
 3406 03a6 23       		.byte	0x23
 3407 03a7 0C       		.uleb128 0xc
 3408 03a8 00       		.byte	0
 3409 03a9 03       		.uleb128 0x3
 3410 03aa 34040000 		.4byte	.LASF49
 3411 03ae 0A       		.byte	0xa
 3412 03af 4D       		.byte	0x4d
 3413 03b0 4C030000 		.4byte	0x34c
 3414 03b4 0A       		.uleb128 0xa
 3415 03b5 9B000000 		.4byte	.LASF51
 3416 03b9 08       		.byte	0x8
 3417 03ba 0B       		.byte	0xb
 3418 03bb 23       		.byte	0x23
 3419 03bc F9030000 		.4byte	0x3f9
 3420 03c0 0B       		.uleb128 0xb
 3421 03c1 C2050000 		.4byte	.LASF52
 3422 03c5 0B       		.byte	0xb
 3423 03c6 24       		.byte	0x24
ARM GAS  C:\Users\Elis\AppData\Local\Temp\ccGbXKEy.s 			page 62


 3424 03c7 92010000 		.4byte	0x192
 3425 03cb 02       		.byte	0x2
 3426 03cc 23       		.byte	0x23
 3427 03cd 00       		.uleb128 0
 3428 03ce 0B       		.uleb128 0xb
 3429 03cf 31000000 		.4byte	.LASF53
 3430 03d3 0B       		.byte	0xb
 3431 03d4 25       		.byte	0x25
 3432 03d5 92010000 		.4byte	0x192
 3433 03d9 02       		.byte	0x2
 3434 03da 23       		.byte	0x23
 3435 03db 02       		.uleb128 0x2
 3436 03dc 0B       		.uleb128 0xb
 3437 03dd D2040000 		.4byte	.LASF54
 3438 03e1 0B       		.byte	0xb
 3439 03e2 26       		.byte	0x26
 3440 03e3 92010000 		.4byte	0x192
 3441 03e7 02       		.byte	0x2
 3442 03e8 23       		.byte	0x23
 3443 03e9 04       		.uleb128 0x4
 3444 03ea 0B       		.uleb128 0xb
 3445 03eb 3A020000 		.4byte	.LASF55
 3446 03ef 0B       		.byte	0xb
 3447 03f0 27       		.byte	0x27
 3448 03f1 92010000 		.4byte	0x192
 3449 03f5 02       		.byte	0x2
 3450 03f6 23       		.byte	0x23
 3451 03f7 06       		.uleb128 0x6
 3452 03f8 00       		.byte	0
 3453 03f9 03       		.uleb128 0x3
 3454 03fa 9B000000 		.4byte	.LASF51
 3455 03fe 0B       		.byte	0xb
 3456 03ff 28       		.byte	0x28
 3457 0400 B4030000 		.4byte	0x3b4
 3458 0404 0A       		.uleb128 0xa
 3459 0405 E3060000 		.4byte	.LASF56
 3460 0409 1A       		.byte	0x1a
 3461 040a 0B       		.byte	0xb
 3462 040b 32       		.byte	0x32
 3463 040c 49040000 		.4byte	0x449
 3464 0410 0B       		.uleb128 0xb
 3465 0411 1E070000 		.4byte	.LASF57
 3466 0415 0B       		.byte	0xb
 3467 0416 33       		.byte	0x33
 3468 0417 92010000 		.4byte	0x192
 3469 041b 02       		.byte	0x2
 3470 041c 23       		.byte	0x23
 3471 041d 00       		.uleb128 0
 3472 041e 0B       		.uleb128 0xb
 3473 041f 11060000 		.4byte	.LASF58
 3474 0423 0B       		.byte	0xb
 3475 0424 34       		.byte	0x34
 3476 0425 F9030000 		.4byte	0x3f9
 3477 0429 02       		.byte	0x2
 3478 042a 23       		.byte	0x23
 3479 042b 02       		.uleb128 0x2
 3480 042c 0B       		.uleb128 0xb
ARM GAS  C:\Users\Elis\AppData\Local\Temp\ccGbXKEy.s 			page 63


 3481 042d 68020000 		.4byte	.LASF59
 3482 0431 0B       		.byte	0xb
 3483 0432 35       		.byte	0x35
 3484 0433 F9030000 		.4byte	0x3f9
 3485 0437 02       		.byte	0x2
 3486 0438 23       		.byte	0x23
 3487 0439 0A       		.uleb128 0xa
 3488 043a 0B       		.uleb128 0xb
 3489 043b A3060000 		.4byte	.LASF60
 3490 043f 0B       		.byte	0xb
 3491 0440 36       		.byte	0x36
 3492 0441 F9030000 		.4byte	0x3f9
 3493 0445 02       		.byte	0x2
 3494 0446 23       		.byte	0x23
 3495 0447 12       		.uleb128 0x12
 3496 0448 00       		.byte	0
 3497 0449 03       		.uleb128 0x3
 3498 044a E3060000 		.4byte	.LASF56
 3499 044e 0B       		.byte	0xb
 3500 044f 37       		.byte	0x37
 3501 0450 04040000 		.4byte	0x404
 3502 0454 03       		.uleb128 0x3
 3503 0455 F0040000 		.4byte	.LASF61
 3504 0459 0B       		.byte	0xb
 3505 045a 49       		.byte	0x49
 3506 045b 5F040000 		.4byte	0x45f
 3507 045f 06       		.uleb128 0x6
 3508 0460 04       		.byte	0x4
 3509 0461 65040000 		.4byte	0x465
 3510 0465 0E       		.uleb128 0xe
 3511 0466 01       		.byte	0x1
 3512 0467 76040000 		.4byte	0x476
 3513 046b 0F       		.uleb128 0xf
 3514 046c 76040000 		.4byte	0x476
 3515 0470 0F       		.uleb128 0xf
 3516 0471 C3000000 		.4byte	0xc3
 3517 0475 00       		.byte	0
 3518 0476 06       		.uleb128 0x6
 3519 0477 04       		.byte	0x4
 3520 0478 7C040000 		.4byte	0x47c
 3521 047c 0A       		.uleb128 0xa
 3522 047d 3A050000 		.4byte	.LASF62
 3523 0481 34       		.byte	0x34
 3524 0482 0B       		.byte	0xb
 3525 0483 73       		.byte	0x73
 3526 0484 CD040000 		.4byte	0x4cd
 3527 0488 0D       		.uleb128 0xd
 3528 0489 6700     		.ascii	"g\000"
 3529 048b 0B       		.byte	0xb
 3530 048c 74       		.byte	0x74
 3531 048d 41030000 		.4byte	0x341
 3532 0491 02       		.byte	0x2
 3533 0492 23       		.byte	0x23
 3534 0493 00       		.uleb128 0
 3535 0494 0B       		.uleb128 0xb
 3536 0495 C2050000 		.4byte	.LASF52
 3537 0499 0B       		.byte	0xb
ARM GAS  C:\Users\Elis\AppData\Local\Temp\ccGbXKEy.s 			page 64


 3538 049a 75       		.byte	0x75
 3539 049b CC000000 		.4byte	0xcc
 3540 049f 02       		.byte	0x2
 3541 04a0 23       		.byte	0x23
 3542 04a1 24       		.uleb128 0x24
 3543 04a2 0B       		.uleb128 0xb
 3544 04a3 ED050000 		.4byte	.LASF63
 3545 04a7 0B       		.byte	0xb
 3546 04a8 76       		.byte	0x76
 3547 04a9 54040000 		.4byte	0x454
 3548 04ad 02       		.byte	0x2
 3549 04ae 23       		.byte	0x23
 3550 04af 28       		.uleb128 0x28
 3551 04b0 0B       		.uleb128 0xb
 3552 04b1 75000000 		.4byte	.LASF64
 3553 04b5 0B       		.byte	0xb
 3554 04b6 77       		.byte	0x77
 3555 04b7 C3000000 		.4byte	0xc3
 3556 04bb 02       		.byte	0x2
 3557 04bc 23       		.byte	0x23
 3558 04bd 2C       		.uleb128 0x2c
 3559 04be 0B       		.uleb128 0xb
 3560 04bf 2A000000 		.4byte	.LASF65
 3561 04c3 0B       		.byte	0xb
 3562 04c4 78       		.byte	0x78
 3563 04c5 1E050000 		.4byte	0x51e
 3564 04c9 02       		.byte	0x2
 3565 04ca 23       		.byte	0x23
 3566 04cb 30       		.uleb128 0x30
 3567 04cc 00       		.byte	0
 3568 04cd 0A       		.uleb128 0xa
 3569 04ce 64060000 		.4byte	.LASF66
 3570 04d2 20       		.byte	0x20
 3571 04d3 0B       		.byte	0xb
 3572 04d4 5E       		.byte	0x5e
 3573 04d5 1E050000 		.4byte	0x51e
 3574 04d9 0D       		.uleb128 0xd
 3575 04da 6700     		.ascii	"g\000"
 3576 04dc 0B       		.byte	0xb
 3577 04dd 5F       		.byte	0x5f
 3578 04de A9030000 		.4byte	0x3a9
 3579 04e2 02       		.byte	0x2
 3580 04e3 23       		.byte	0x23
 3581 04e4 00       		.uleb128 0
 3582 04e5 0B       		.uleb128 0xb
 3583 04e6 C2050000 		.4byte	.LASF52
 3584 04ea 0B       		.byte	0xb
 3585 04eb 60       		.byte	0x60
 3586 04ec CC000000 		.4byte	0xcc
 3587 04f0 02       		.byte	0x2
 3588 04f1 23       		.byte	0x23
 3589 04f2 10       		.uleb128 0x10
 3590 04f3 0B       		.uleb128 0xb
 3591 04f4 D6020000 		.4byte	.LASF67
 3592 04f8 0B       		.byte	0xb
 3593 04f9 61       		.byte	0x61
 3594 04fa 54040000 		.4byte	0x454
ARM GAS  C:\Users\Elis\AppData\Local\Temp\ccGbXKEy.s 			page 65


 3595 04fe 02       		.byte	0x2
 3596 04ff 23       		.byte	0x23
 3597 0500 14       		.uleb128 0x14
 3598 0501 0B       		.uleb128 0xb
 3599 0502 96030000 		.4byte	.LASF68
 3600 0506 0B       		.byte	0xb
 3601 0507 62       		.byte	0x62
 3602 0508 C3000000 		.4byte	0xc3
 3603 050c 02       		.byte	0x2
 3604 050d 23       		.byte	0x23
 3605 050e 18       		.uleb128 0x18
 3606 050f 0B       		.uleb128 0xb
 3607 0510 44030000 		.4byte	.LASF69
 3608 0514 0B       		.byte	0xb
 3609 0515 63       		.byte	0x63
 3610 0516 1E050000 		.4byte	0x51e
 3611 051a 02       		.byte	0x2
 3612 051b 23       		.byte	0x23
 3613 051c 1C       		.uleb128 0x1c
 3614 051d 00       		.byte	0
 3615 051e 06       		.uleb128 0x6
 3616 051f 04       		.byte	0x4
 3617 0520 24050000 		.4byte	0x524
 3618 0524 07       		.uleb128 0x7
 3619 0525 49040000 		.4byte	0x449
 3620 0529 03       		.uleb128 0x3
 3621 052a 64060000 		.4byte	.LASF66
 3622 052e 0B       		.byte	0xb
 3623 052f 67       		.byte	0x67
 3624 0530 CD040000 		.4byte	0x4cd
 3625 0534 03       		.uleb128 0x3
 3626 0535 3A050000 		.4byte	.LASF62
 3627 0539 0B       		.byte	0xb
 3628 053a 7C       		.byte	0x7c
 3629 053b 7C040000 		.4byte	0x47c
 3630 053f 0A       		.uleb128 0xa
 3631 0540 EF020000 		.4byte	.LASF70
 3632 0544 34       		.byte	0x34
 3633 0545 0C       		.byte	0xc
 3634 0546 2C       		.byte	0x2c
 3635 0547 58050000 		.4byte	0x558
 3636 054b 0D       		.uleb128 0xd
 3637 054c 7700     		.ascii	"w\000"
 3638 054e 0C       		.byte	0xc
 3639 054f 2D       		.byte	0x2d
 3640 0550 34050000 		.4byte	0x534
 3641 0554 02       		.byte	0x2
 3642 0555 23       		.byte	0x23
 3643 0556 00       		.uleb128 0
 3644 0557 00       		.byte	0
 3645 0558 03       		.uleb128 0x3
 3646 0559 EF020000 		.4byte	.LASF70
 3647 055d 0C       		.byte	0xc
 3648 055e 31       		.byte	0x31
 3649 055f 3F050000 		.4byte	0x53f
 3650 0563 0A       		.uleb128 0xa
 3651 0564 12070000 		.4byte	.LASF71
ARM GAS  C:\Users\Elis\AppData\Local\Temp\ccGbXKEy.s 			page 66


 3652 0568 4C       		.byte	0x4c
 3653 0569 0D       		.byte	0xd
 3654 056a 31       		.byte	0x31
 3655 056b D0050000 		.4byte	0x5d0
 3656 056f 0D       		.uleb128 0xd
 3657 0570 7700     		.ascii	"w\000"
 3658 0572 0D       		.byte	0xd
 3659 0573 32       		.byte	0x32
 3660 0574 34050000 		.4byte	0x534
 3661 0578 02       		.byte	0x2
 3662 0579 23       		.byte	0x23
 3663 057a 00       		.uleb128 0
 3664 057b 0B       		.uleb128 0xb
 3665 057c 1E050000 		.4byte	.LASF72
 3666 0580 0D       		.byte	0xd
 3667 0581 35       		.byte	0x35
 3668 0582 5A010000 		.4byte	0x15a
 3669 0586 02       		.byte	0x2
 3670 0587 23       		.byte	0x23
 3671 0588 34       		.uleb128 0x34
 3672 0589 0B       		.uleb128 0xb
 3673 058a 2C050000 		.4byte	.LASF73
 3674 058e 0D       		.byte	0xd
 3675 058f 36       		.byte	0x36
 3676 0590 5A010000 		.4byte	0x15a
 3677 0594 02       		.byte	0x2
 3678 0595 23       		.byte	0x23
 3679 0596 36       		.uleb128 0x36
 3680 0597 0B       		.uleb128 0xb
 3681 0598 7A010000 		.4byte	.LASF74
 3682 059c 0D       		.byte	0xd
 3683 059d 37       		.byte	0x37
 3684 059e 5A010000 		.4byte	0x15a
 3685 05a2 02       		.byte	0x2
 3686 05a3 23       		.byte	0x23
 3687 05a4 38       		.uleb128 0x38
 3688 05a5 0D       		.uleb128 0xd
 3689 05a6 636E7400 		.ascii	"cnt\000"
 3690 05aa 0D       		.byte	0xd
 3691 05ab 3E       		.byte	0x3e
 3692 05ac 29000000 		.4byte	0x29
 3693 05b0 02       		.byte	0x2
 3694 05b1 23       		.byte	0x23
 3695 05b2 3C       		.uleb128 0x3c
 3696 05b3 0D       		.uleb128 0xd
 3697 05b4 746F7000 		.ascii	"top\000"
 3698 05b8 0D       		.byte	0xd
 3699 05b9 3F       		.byte	0x3f
 3700 05ba 29000000 		.4byte	0x29
 3701 05be 02       		.byte	0x2
 3702 05bf 23       		.byte	0x23
 3703 05c0 40       		.uleb128 0x40
 3704 05c1 0B       		.uleb128 0xb
 3705 05c2 C7050000 		.4byte	.LASF75
 3706 05c6 0D       		.byte	0xd
 3707 05c7 40       		.byte	0x40
 3708 05c8 4F010000 		.4byte	0x14f
ARM GAS  C:\Users\Elis\AppData\Local\Temp\ccGbXKEy.s 			page 67


 3709 05cc 02       		.byte	0x2
 3710 05cd 23       		.byte	0x23
 3711 05ce 44       		.uleb128 0x44
 3712 05cf 00       		.byte	0
 3713 05d0 03       		.uleb128 0x3
 3714 05d1 12070000 		.4byte	.LASF71
 3715 05d5 0D       		.byte	0xd
 3716 05d6 41       		.byte	0x41
 3717 05d7 63050000 		.4byte	0x563
 3718 05db 10       		.uleb128 0x10
 3719 05dc 46060000 		.4byte	.LASF79
 3720 05e0 01       		.byte	0x1
 3721 05e1 0D       		.byte	0xd
 3722 05e2 4B       		.byte	0x4b
 3723 05e3 FA050000 		.4byte	0x5fa
 3724 05e7 11       		.uleb128 0x11
 3725 05e8 7F060000 		.4byte	.LASF76
 3726 05ec 00       		.sleb128 0
 3727 05ed 11       		.uleb128 0x11
 3728 05ee 5A010000 		.4byte	.LASF77
 3729 05f2 01       		.sleb128 1
 3730 05f3 11       		.uleb128 0x11
 3731 05f4 4D000000 		.4byte	.LASF78
 3732 05f8 02       		.sleb128 2
 3733 05f9 00       		.byte	0
 3734 05fa 03       		.uleb128 0x3
 3735 05fb 46060000 		.4byte	.LASF79
 3736 05ff 0D       		.byte	0xd
 3737 0600 4B       		.byte	0x4b
 3738 0601 DB050000 		.4byte	0x5db
 3739 0605 03       		.uleb128 0x3
 3740 0606 64000000 		.4byte	.LASF80
 3741 060a 0E       		.byte	0xe
 3742 060b 24       		.byte	0x24
 3743 060c 34050000 		.4byte	0x534
 3744 0610 06       		.uleb128 0x6
 3745 0611 04       		.byte	0x4
 3746 0612 D7000000 		.4byte	0xd7
 3747 0616 12       		.uleb128 0x12
 3748 0617 D7000000 		.4byte	0xd7
 3749 061b 26060000 		.4byte	0x626
 3750 061f 13       		.uleb128 0x13
 3751 0620 C5000000 		.4byte	0xc5
 3752 0624 31       		.byte	0x31
 3753 0625 00       		.byte	0
 3754 0626 0A       		.uleb128 0xa
 3755 0627 CB060000 		.4byte	.LASF81
 3756 062b 44       		.byte	0x44
 3757 062c 0F       		.byte	0xf
 3758 062d 40       		.byte	0x40
 3759 062e 5C060000 		.4byte	0x65c
 3760 0632 0B       		.uleb128 0xb
 3761 0633 A1020000 		.4byte	.LASF82
 3762 0637 0F       		.byte	0xf
 3763 0638 42       		.byte	0x42
 3764 0639 16060000 		.4byte	0x616
 3765 063d 02       		.byte	0x2
ARM GAS  C:\Users\Elis\AppData\Local\Temp\ccGbXKEy.s 			page 68


 3766 063e 23       		.byte	0x23
 3767 063f 00       		.uleb128 0
 3768 0640 0B       		.uleb128 0xb
 3769 0641 CC020000 		.4byte	.LASF83
 3770 0645 0F       		.byte	0xf
 3771 0646 44       		.byte	0x44
 3772 0647 5C060000 		.4byte	0x65c
 3773 064b 02       		.byte	0x2
 3774 064c 23       		.byte	0x23
 3775 064d 32       		.uleb128 0x32
 3776 064e 0D       		.uleb128 0xd
 3777 064f 696400   		.ascii	"id\000"
 3778 0652 0F       		.byte	0xf
 3779 0653 46       		.byte	0x46
 3780 0654 29000000 		.4byte	0x29
 3781 0658 02       		.byte	0x2
 3782 0659 23       		.byte	0x23
 3783 065a 40       		.uleb128 0x40
 3784 065b 00       		.byte	0
 3785 065c 12       		.uleb128 0x12
 3786 065d D7000000 		.4byte	0xd7
 3787 0661 6C060000 		.4byte	0x66c
 3788 0665 13       		.uleb128 0x13
 3789 0666 C5000000 		.4byte	0xc5
 3790 066a 0A       		.byte	0xa
 3791 066b 00       		.byte	0
 3792 066c 06       		.uleb128 0x6
 3793 066d 04       		.byte	0x4
 3794 066e 72060000 		.4byte	0x672
 3795 0672 06       		.uleb128 0x6
 3796 0673 04       		.byte	0x4
 3797 0674 26060000 		.4byte	0x626
 3798 0678 14       		.uleb128 0x14
 3799 0679 01       		.byte	0x1
 3800 067a 66050000 		.4byte	.LASF92
 3801 067e 01       		.byte	0x1
 3802 067f 17       		.byte	0x17
 3803 0680 01       		.byte	0x1
 3804 0681 00000000 		.4byte	.LFB118
 3805 0685 C8030000 		.4byte	.LFE118
 3806 0689 00000000 		.4byte	.LLST0
 3807 068d 01       		.byte	0x1
 3808 068e 040B0000 		.4byte	0xb04
 3809 0692 15       		.uleb128 0x15
 3810 0693 50030000 		.4byte	.LASF84
 3811 0697 01       		.byte	0x1
 3812 0698 17       		.byte	0x17
 3813 0699 10060000 		.4byte	0x610
 3814 069d 2D000000 		.4byte	.LLST1
 3815 06a1 15       		.uleb128 0x15
 3816 06a2 69030000 		.4byte	.LASF85
 3817 06a6 01       		.byte	0x1
 3818 06a7 17       		.byte	0x17
 3819 06a8 6C060000 		.4byte	0x66c
 3820 06ac 72000000 		.4byte	.LLST2
 3821 06b0 15       		.uleb128 0x15
 3822 06b1 F1000000 		.4byte	.LASF86
ARM GAS  C:\Users\Elis\AppData\Local\Temp\ccGbXKEy.s 			page 69


 3823 06b5 01       		.byte	0x1
 3824 06b6 17       		.byte	0x17
 3825 06b7 29000000 		.4byte	0x29
 3826 06bb 92000000 		.4byte	.LLST3
 3827 06bf 16       		.uleb128 0x16
 3828 06c0 27040000 		.4byte	.LASF87
 3829 06c4 01       		.byte	0x1
 3830 06c5 1B       		.byte	0x1b
 3831 06c6 3A020000 		.4byte	0x23a
 3832 06ca B0000000 		.4byte	.LLST4
 3833 06ce 16       		.uleb128 0x16
 3834 06cf 04070000 		.4byte	.LASF88
 3835 06d3 01       		.byte	0x1
 3836 06d4 1C       		.byte	0x1c
 3837 06d5 3A020000 		.4byte	0x23a
 3838 06d9 CE000000 		.4byte	.LLST5
 3839 06dd 16       		.uleb128 0x16
 3840 06de 4D050000 		.4byte	.LASF89
 3841 06e2 01       		.byte	0x1
 3842 06e3 1D       		.byte	0x1d
 3843 06e4 3A020000 		.4byte	0x23a
 3844 06e8 EC000000 		.4byte	.LLST6
 3845 06ec 16       		.uleb128 0x16
 3846 06ed 96020000 		.4byte	.LASF90
 3847 06f1 01       		.byte	0x1
 3848 06f2 1E       		.byte	0x1e
 3849 06f3 3A020000 		.4byte	0x23a
 3850 06f7 0A010000 		.4byte	.LLST7
 3851 06fb 17       		.uleb128 0x17
 3852 06fc 776900   		.ascii	"wi\000"
 3853 06ff 01       		.byte	0x1
 3854 0700 20       		.byte	0x20
 3855 0701 29050000 		.4byte	0x529
 3856 0705 03       		.byte	0x3
 3857 0706 91       		.byte	0x91
 3858 0707 D47E     		.sleb128 -172
 3859 0709 18       		.uleb128 0x18
 3860 070a 6900     		.ascii	"i\000"
 3861 070c 01       		.byte	0x1
 3862 070d 22       		.byte	0x22
 3863 070e 29000000 		.4byte	0x29
 3864 0712 2A010000 		.4byte	.LLST8
 3865 0716 19       		.uleb128 0x19
 3866 0717 5F000000 		.4byte	.LASF91
 3867 071b 01       		.byte	0x1
 3868 071c 24       		.byte	0x24
 3869 071d 040B0000 		.4byte	0xb04
 3870 0721 03       		.byte	0x3
 3871 0722 91       		.byte	0x91
 3872 0723 F47E     		.sleb128 -140
 3873 0725 1A       		.uleb128 0x1a
 3874 0726 14000000 		.4byte	.LVL2
 3875 072a BA170000 		.4byte	0x17ba
 3876 072e 3A070000 		.4byte	0x73a
 3877 0732 1B       		.uleb128 0x1b
 3878 0733 01       		.byte	0x1
 3879 0734 50       		.byte	0x50
ARM GAS  C:\Users\Elis\AppData\Local\Temp\ccGbXKEy.s 			page 70


 3880 0735 03       		.byte	0x3
 3881 0736 91       		.byte	0x91
 3882 0737 D47E     		.sleb128 -172
 3883 0739 00       		.byte	0
 3884 073a 1A       		.uleb128 0x1a
 3885 073b 1A000000 		.4byte	.LVL3
 3886 073f D4170000 		.4byte	0x17d4
 3887 0743 4E070000 		.4byte	0x74e
 3888 0747 1B       		.uleb128 0x1b
 3889 0748 01       		.byte	0x1
 3890 0749 50       		.byte	0x50
 3891 074a 02       		.byte	0x2
 3892 074b 08       		.byte	0x8
 3893 074c 7F       		.byte	0x7f
 3894 074d 00       		.byte	0
 3895 074e 1A       		.uleb128 0x1a
 3896 074f 24000000 		.4byte	.LVL4
 3897 0753 ED170000 		.4byte	0x17ed
 3898 0757 6D070000 		.4byte	0x76d
 3899 075b 1B       		.uleb128 0x1b
 3900 075c 01       		.byte	0x1
 3901 075d 52       		.byte	0x52
 3902 075e 02       		.byte	0x2
 3903 075f 08       		.byte	0x8
 3904 0760 64       		.byte	0x64
 3905 0761 1B       		.uleb128 0x1b
 3906 0762 01       		.byte	0x1
 3907 0763 51       		.byte	0x51
 3908 0764 01       		.byte	0x1
 3909 0765 30       		.byte	0x30
 3910 0766 1B       		.uleb128 0x1b
 3911 0767 01       		.byte	0x1
 3912 0768 50       		.byte	0x50
 3913 0769 02       		.byte	0x2
 3914 076a 74       		.byte	0x74
 3915 076b 00       		.sleb128 0
 3916 076c 00       		.byte	0
 3917 076d 1A       		.uleb128 0x1a
 3918 076e 2A000000 		.4byte	.LVL5
 3919 0772 0E180000 		.4byte	0x180e
 3920 0776 81070000 		.4byte	0x781
 3921 077a 1B       		.uleb128 0x1b
 3922 077b 01       		.byte	0x1
 3923 077c 50       		.byte	0x50
 3924 077d 02       		.byte	0x2
 3925 077e 74       		.byte	0x74
 3926 077f 00       		.sleb128 0
 3927 0780 00       		.byte	0
 3928 0781 1A       		.uleb128 0x1a
 3929 0782 48000000 		.4byte	.LVL6
 3930 0786 2A180000 		.4byte	0x182a
 3931 078a A1070000 		.4byte	0x7a1
 3932 078e 1B       		.uleb128 0x1b
 3933 078f 01       		.byte	0x1
 3934 0790 52       		.byte	0x52
 3935 0791 02       		.byte	0x2
 3936 0792 08       		.byte	0x8
ARM GAS  C:\Users\Elis\AppData\Local\Temp\ccGbXKEy.s 			page 71


 3937 0793 64       		.byte	0x64
 3938 0794 1B       		.uleb128 0x1b
 3939 0795 01       		.byte	0x1
 3940 0796 51       		.byte	0x51
 3941 0797 02       		.byte	0x2
 3942 0798 78       		.byte	0x78
 3943 0799 00       		.sleb128 0
 3944 079a 1B       		.uleb128 0x1b
 3945 079b 01       		.byte	0x1
 3946 079c 50       		.byte	0x50
 3947 079d 02       		.byte	0x2
 3948 079e 74       		.byte	0x74
 3949 079f 00       		.sleb128 0
 3950 07a0 00       		.byte	0
 3951 07a1 1A       		.uleb128 0x1a
 3952 07a2 52000000 		.4byte	.LVL7
 3953 07a6 2A180000 		.4byte	0x182a
 3954 07aa C4070000 		.4byte	0x7c4
 3955 07ae 1B       		.uleb128 0x1b
 3956 07af 01       		.byte	0x1
 3957 07b0 52       		.byte	0x52
 3958 07b1 02       		.byte	0x2
 3959 07b2 08       		.byte	0x8
 3960 07b3 64       		.byte	0x64
 3961 07b4 1B       		.uleb128 0x1b
 3962 07b5 01       		.byte	0x1
 3963 07b6 51       		.byte	0x51
 3964 07b7 05       		.byte	0x5
 3965 07b8 03       		.byte	0x3
 3966 07b9 0C000000 		.4byte	.LC1
 3967 07bd 1B       		.uleb128 0x1b
 3968 07be 01       		.byte	0x1
 3969 07bf 50       		.byte	0x50
 3970 07c0 02       		.byte	0x2
 3971 07c1 74       		.byte	0x74
 3972 07c2 00       		.sleb128 0
 3973 07c3 00       		.byte	0
 3974 07c4 1A       		.uleb128 0x1a
 3975 07c5 5A000000 		.4byte	.LVL8
 3976 07c9 4C180000 		.4byte	0x184c
 3977 07cd E1070000 		.4byte	0x7e1
 3978 07d1 1B       		.uleb128 0x1b
 3979 07d2 01       		.byte	0x1
 3980 07d3 51       		.byte	0x51
 3981 07d4 05       		.byte	0x5
 3982 07d5 03       		.byte	0x3
 3983 07d6 28000000 		.4byte	.LC2
 3984 07da 1B       		.uleb128 0x1b
 3985 07db 01       		.byte	0x1
 3986 07dc 50       		.byte	0x50
 3987 07dd 02       		.byte	0x2
 3988 07de 74       		.byte	0x74
 3989 07df 00       		.sleb128 0
 3990 07e0 00       		.byte	0
 3991 07e1 1A       		.uleb128 0x1a
 3992 07e2 68000000 		.4byte	.LVL11
 3993 07e6 ED170000 		.4byte	0x17ed
ARM GAS  C:\Users\Elis\AppData\Local\Temp\ccGbXKEy.s 			page 72


 3994 07ea 00080000 		.4byte	0x800
 3995 07ee 1B       		.uleb128 0x1b
 3996 07ef 01       		.byte	0x1
 3997 07f0 52       		.byte	0x52
 3998 07f1 02       		.byte	0x2
 3999 07f2 08       		.byte	0x8
 4000 07f3 64       		.byte	0x64
 4001 07f4 1B       		.uleb128 0x1b
 4002 07f5 01       		.byte	0x1
 4003 07f6 51       		.byte	0x51
 4004 07f7 01       		.byte	0x1
 4005 07f8 30       		.byte	0x30
 4006 07f9 1B       		.uleb128 0x1b
 4007 07fa 01       		.byte	0x1
 4008 07fb 50       		.byte	0x50
 4009 07fc 02       		.byte	0x2
 4010 07fd 74       		.byte	0x74
 4011 07fe 00       		.sleb128 0
 4012 07ff 00       		.byte	0
 4013 0800 1A       		.uleb128 0x1a
 4014 0801 6E000000 		.4byte	.LVL12
 4015 0805 0E180000 		.4byte	0x180e
 4016 0809 14080000 		.4byte	0x814
 4017 080d 1B       		.uleb128 0x1b
 4018 080e 01       		.byte	0x1
 4019 080f 50       		.byte	0x50
 4020 0810 02       		.byte	0x2
 4021 0811 74       		.byte	0x74
 4022 0812 00       		.sleb128 0
 4023 0813 00       		.byte	0
 4024 0814 1A       		.uleb128 0x1a
 4025 0815 8C000000 		.4byte	.LVL13
 4026 0819 2A180000 		.4byte	0x182a
 4027 081d 34080000 		.4byte	0x834
 4028 0821 1B       		.uleb128 0x1b
 4029 0822 01       		.byte	0x1
 4030 0823 52       		.byte	0x52
 4031 0824 02       		.byte	0x2
 4032 0825 08       		.byte	0x8
 4033 0826 64       		.byte	0x64
 4034 0827 1B       		.uleb128 0x1b
 4035 0828 01       		.byte	0x1
 4036 0829 51       		.byte	0x51
 4037 082a 02       		.byte	0x2
 4038 082b 78       		.byte	0x78
 4039 082c 00       		.sleb128 0
 4040 082d 1B       		.uleb128 0x1b
 4041 082e 01       		.byte	0x1
 4042 082f 50       		.byte	0x50
 4043 0830 02       		.byte	0x2
 4044 0831 74       		.byte	0x74
 4045 0832 00       		.sleb128 0
 4046 0833 00       		.byte	0
 4047 0834 1A       		.uleb128 0x1a
 4048 0835 96000000 		.4byte	.LVL14
 4049 0839 2A180000 		.4byte	0x182a
 4050 083d 57080000 		.4byte	0x857
ARM GAS  C:\Users\Elis\AppData\Local\Temp\ccGbXKEy.s 			page 73


 4051 0841 1B       		.uleb128 0x1b
 4052 0842 01       		.byte	0x1
 4053 0843 52       		.byte	0x52
 4054 0844 02       		.byte	0x2
 4055 0845 08       		.byte	0x8
 4056 0846 64       		.byte	0x64
 4057 0847 1B       		.uleb128 0x1b
 4058 0848 01       		.byte	0x1
 4059 0849 51       		.byte	0x51
 4060 084a 05       		.byte	0x5
 4061 084b 03       		.byte	0x3
 4062 084c 2C000000 		.4byte	.LC3
 4063 0850 1B       		.uleb128 0x1b
 4064 0851 01       		.byte	0x1
 4065 0852 50       		.byte	0x50
 4066 0853 02       		.byte	0x2
 4067 0854 74       		.byte	0x74
 4068 0855 00       		.sleb128 0
 4069 0856 00       		.byte	0
 4070 0857 1A       		.uleb128 0x1a
 4071 0858 9E000000 		.4byte	.LVL15
 4072 085c 4C180000 		.4byte	0x184c
 4073 0860 74080000 		.4byte	0x874
 4074 0864 1B       		.uleb128 0x1b
 4075 0865 01       		.byte	0x1
 4076 0866 51       		.byte	0x51
 4077 0867 05       		.byte	0x5
 4078 0868 03       		.byte	0x3
 4079 0869 28000000 		.4byte	.LC2
 4080 086d 1B       		.uleb128 0x1b
 4081 086e 01       		.byte	0x1
 4082 086f 50       		.byte	0x50
 4083 0870 02       		.byte	0x2
 4084 0871 74       		.byte	0x74
 4085 0872 00       		.sleb128 0
 4086 0873 00       		.byte	0
 4087 0874 1A       		.uleb128 0x1a
 4088 0875 AA000000 		.4byte	.LVL18
 4089 0879 ED170000 		.4byte	0x17ed
 4090 087d 93080000 		.4byte	0x893
 4091 0881 1B       		.uleb128 0x1b
 4092 0882 01       		.byte	0x1
 4093 0883 52       		.byte	0x52
 4094 0884 02       		.byte	0x2
 4095 0885 08       		.byte	0x8
 4096 0886 64       		.byte	0x64
 4097 0887 1B       		.uleb128 0x1b
 4098 0888 01       		.byte	0x1
 4099 0889 51       		.byte	0x51
 4100 088a 01       		.byte	0x1
 4101 088b 30       		.byte	0x30
 4102 088c 1B       		.uleb128 0x1b
 4103 088d 01       		.byte	0x1
 4104 088e 50       		.byte	0x50
 4105 088f 02       		.byte	0x2
 4106 0890 74       		.byte	0x74
 4107 0891 00       		.sleb128 0
ARM GAS  C:\Users\Elis\AppData\Local\Temp\ccGbXKEy.s 			page 74


 4108 0892 00       		.byte	0
 4109 0893 1A       		.uleb128 0x1a
 4110 0894 B0000000 		.4byte	.LVL19
 4111 0898 0E180000 		.4byte	0x180e
 4112 089c A7080000 		.4byte	0x8a7
 4113 08a0 1B       		.uleb128 0x1b
 4114 08a1 01       		.byte	0x1
 4115 08a2 50       		.byte	0x50
 4116 08a3 02       		.byte	0x2
 4117 08a4 74       		.byte	0x74
 4118 08a5 00       		.sleb128 0
 4119 08a6 00       		.byte	0
 4120 08a7 1A       		.uleb128 0x1a
 4121 08a8 D2000000 		.4byte	.LVL20
 4122 08ac 2A180000 		.4byte	0x182a
 4123 08b0 C7080000 		.4byte	0x8c7
 4124 08b4 1B       		.uleb128 0x1b
 4125 08b5 01       		.byte	0x1
 4126 08b6 52       		.byte	0x52
 4127 08b7 02       		.byte	0x2
 4128 08b8 08       		.byte	0x8
 4129 08b9 64       		.byte	0x64
 4130 08ba 1B       		.uleb128 0x1b
 4131 08bb 01       		.byte	0x1
 4132 08bc 51       		.byte	0x51
 4133 08bd 02       		.byte	0x2
 4134 08be 78       		.byte	0x78
 4135 08bf 00       		.sleb128 0
 4136 08c0 1B       		.uleb128 0x1b
 4137 08c1 01       		.byte	0x1
 4138 08c2 50       		.byte	0x50
 4139 08c3 02       		.byte	0x2
 4140 08c4 74       		.byte	0x74
 4141 08c5 00       		.sleb128 0
 4142 08c6 00       		.byte	0
 4143 08c7 1A       		.uleb128 0x1a
 4144 08c8 DC000000 		.4byte	.LVL21
 4145 08cc 2A180000 		.4byte	0x182a
 4146 08d0 EA080000 		.4byte	0x8ea
 4147 08d4 1B       		.uleb128 0x1b
 4148 08d5 01       		.byte	0x1
 4149 08d6 52       		.byte	0x52
 4150 08d7 02       		.byte	0x2
 4151 08d8 08       		.byte	0x8
 4152 08d9 64       		.byte	0x64
 4153 08da 1B       		.uleb128 0x1b
 4154 08db 01       		.byte	0x1
 4155 08dc 51       		.byte	0x51
 4156 08dd 05       		.byte	0x5
 4157 08de 03       		.byte	0x3
 4158 08df 44000000 		.4byte	.LC4
 4159 08e3 1B       		.uleb128 0x1b
 4160 08e4 01       		.byte	0x1
 4161 08e5 50       		.byte	0x50
 4162 08e6 02       		.byte	0x2
 4163 08e7 74       		.byte	0x74
 4164 08e8 00       		.sleb128 0
ARM GAS  C:\Users\Elis\AppData\Local\Temp\ccGbXKEy.s 			page 75


 4165 08e9 00       		.byte	0
 4166 08ea 1A       		.uleb128 0x1a
 4167 08eb E4000000 		.4byte	.LVL22
 4168 08ef 4C180000 		.4byte	0x184c
 4169 08f3 07090000 		.4byte	0x907
 4170 08f7 1B       		.uleb128 0x1b
 4171 08f8 01       		.byte	0x1
 4172 08f9 51       		.byte	0x51
 4173 08fa 05       		.byte	0x5
 4174 08fb 03       		.byte	0x3
 4175 08fc 28000000 		.4byte	.LC2
 4176 0900 1B       		.uleb128 0x1b
 4177 0901 01       		.byte	0x1
 4178 0902 50       		.byte	0x50
 4179 0903 02       		.byte	0x2
 4180 0904 74       		.byte	0x74
 4181 0905 00       		.sleb128 0
 4182 0906 00       		.byte	0
 4183 0907 1A       		.uleb128 0x1a
 4184 0908 F0000000 		.4byte	.LVL25
 4185 090c ED170000 		.4byte	0x17ed
 4186 0910 26090000 		.4byte	0x926
 4187 0914 1B       		.uleb128 0x1b
 4188 0915 01       		.byte	0x1
 4189 0916 52       		.byte	0x52
 4190 0917 02       		.byte	0x2
 4191 0918 08       		.byte	0x8
 4192 0919 64       		.byte	0x64
 4193 091a 1B       		.uleb128 0x1b
 4194 091b 01       		.byte	0x1
 4195 091c 51       		.byte	0x51
 4196 091d 01       		.byte	0x1
 4197 091e 30       		.byte	0x30
 4198 091f 1B       		.uleb128 0x1b
 4199 0920 01       		.byte	0x1
 4200 0921 50       		.byte	0x50
 4201 0922 02       		.byte	0x2
 4202 0923 74       		.byte	0x74
 4203 0924 00       		.sleb128 0
 4204 0925 00       		.byte	0
 4205 0926 1A       		.uleb128 0x1a
 4206 0927 F6000000 		.4byte	.LVL26
 4207 092b 0E180000 		.4byte	0x180e
 4208 092f 3A090000 		.4byte	0x93a
 4209 0933 1B       		.uleb128 0x1b
 4210 0934 01       		.byte	0x1
 4211 0935 50       		.byte	0x50
 4212 0936 02       		.byte	0x2
 4213 0937 74       		.byte	0x74
 4214 0938 00       		.sleb128 0
 4215 0939 00       		.byte	0
 4216 093a 1A       		.uleb128 0x1a
 4217 093b 0E010000 		.4byte	.LVL27
 4218 093f 2A180000 		.4byte	0x182a
 4219 0943 5A090000 		.4byte	0x95a
 4220 0947 1B       		.uleb128 0x1b
 4221 0948 01       		.byte	0x1
ARM GAS  C:\Users\Elis\AppData\Local\Temp\ccGbXKEy.s 			page 76


 4222 0949 52       		.byte	0x52
 4223 094a 02       		.byte	0x2
 4224 094b 08       		.byte	0x8
 4225 094c 64       		.byte	0x64
 4226 094d 1B       		.uleb128 0x1b
 4227 094e 01       		.byte	0x1
 4228 094f 51       		.byte	0x51
 4229 0950 02       		.byte	0x2
 4230 0951 78       		.byte	0x78
 4231 0952 00       		.sleb128 0
 4232 0953 1B       		.uleb128 0x1b
 4233 0954 01       		.byte	0x1
 4234 0955 50       		.byte	0x50
 4235 0956 02       		.byte	0x2
 4236 0957 74       		.byte	0x74
 4237 0958 00       		.sleb128 0
 4238 0959 00       		.byte	0
 4239 095a 1A       		.uleb128 0x1a
 4240 095b 18010000 		.4byte	.LVL28
 4241 095f 2A180000 		.4byte	0x182a
 4242 0963 7D090000 		.4byte	0x97d
 4243 0967 1B       		.uleb128 0x1b
 4244 0968 01       		.byte	0x1
 4245 0969 52       		.byte	0x52
 4246 096a 02       		.byte	0x2
 4247 096b 08       		.byte	0x8
 4248 096c 64       		.byte	0x64
 4249 096d 1B       		.uleb128 0x1b
 4250 096e 01       		.byte	0x1
 4251 096f 51       		.byte	0x51
 4252 0970 05       		.byte	0x5
 4253 0971 03       		.byte	0x3
 4254 0972 5C000000 		.4byte	.LC5
 4255 0976 1B       		.uleb128 0x1b
 4256 0977 01       		.byte	0x1
 4257 0978 50       		.byte	0x50
 4258 0979 02       		.byte	0x2
 4259 097a 74       		.byte	0x74
 4260 097b 00       		.sleb128 0
 4261 097c 00       		.byte	0
 4262 097d 1A       		.uleb128 0x1a
 4263 097e 20010000 		.4byte	.LVL29
 4264 0982 4C180000 		.4byte	0x184c
 4265 0986 9A090000 		.4byte	0x99a
 4266 098a 1B       		.uleb128 0x1b
 4267 098b 01       		.byte	0x1
 4268 098c 51       		.byte	0x51
 4269 098d 05       		.byte	0x5
 4270 098e 03       		.byte	0x3
 4271 098f 28000000 		.4byte	.LC2
 4272 0993 1B       		.uleb128 0x1b
 4273 0994 01       		.byte	0x1
 4274 0995 50       		.byte	0x50
 4275 0996 02       		.byte	0x2
 4276 0997 74       		.byte	0x74
 4277 0998 00       		.sleb128 0
 4278 0999 00       		.byte	0
ARM GAS  C:\Users\Elis\AppData\Local\Temp\ccGbXKEy.s 			page 77


 4279 099a 1A       		.uleb128 0x1a
 4280 099b 58010000 		.4byte	.LVL32
 4281 099f 69180000 		.4byte	0x1869
 4282 09a3 AE090000 		.4byte	0x9ae
 4283 09a7 1B       		.uleb128 0x1b
 4284 09a8 01       		.byte	0x1
 4285 09a9 50       		.byte	0x50
 4286 09aa 02       		.byte	0x2
 4287 09ab 76       		.byte	0x76
 4288 09ac 00       		.sleb128 0
 4289 09ad 00       		.byte	0
 4290 09ae 1A       		.uleb128 0x1a
 4291 09af 74010000 		.4byte	.LVL34
 4292 09b3 8C180000 		.4byte	0x188c
 4293 09b7 CD090000 		.4byte	0x9cd
 4294 09bb 1B       		.uleb128 0x1b
 4295 09bc 01       		.byte	0x1
 4296 09bd 53       		.byte	0x53
 4297 09be 01       		.byte	0x1
 4298 09bf 30       		.byte	0x30
 4299 09c0 1B       		.uleb128 0x1b
 4300 09c1 01       		.byte	0x1
 4301 09c2 52       		.byte	0x52
 4302 09c3 03       		.byte	0x3
 4303 09c4 91       		.byte	0x91
 4304 09c5 D47E     		.sleb128 -172
 4305 09c7 1B       		.uleb128 0x1b
 4306 09c8 01       		.byte	0x1
 4307 09c9 51       		.byte	0x51
 4308 09ca 01       		.byte	0x1
 4309 09cb 30       		.byte	0x30
 4310 09cc 00       		.byte	0
 4311 09cd 1A       		.uleb128 0x1a
 4312 09ce BE010000 		.4byte	.LVL35
 4313 09d2 C4180000 		.4byte	0x18c4
 4314 09d6 EE090000 		.4byte	0x9ee
 4315 09da 1B       		.uleb128 0x1b
 4316 09db 01       		.byte	0x1
 4317 09dc 53       		.byte	0x53
 4318 09dd 02       		.byte	0x2
 4319 09de 76       		.byte	0x76
 4320 09df 00       		.sleb128 0
 4321 09e0 1B       		.uleb128 0x1b
 4322 09e1 01       		.byte	0x1
 4323 09e2 52       		.byte	0x52
 4324 09e3 03       		.byte	0x3
 4325 09e4 91       		.byte	0x91
 4326 09e5 D47E     		.sleb128 -172
 4327 09e7 1B       		.uleb128 0x1b
 4328 09e8 01       		.byte	0x1
 4329 09e9 51       		.byte	0x51
 4330 09ea 02       		.byte	0x2
 4331 09eb 76       		.byte	0x76
 4332 09ec 00       		.sleb128 0
 4333 09ed 00       		.byte	0
 4334 09ee 1A       		.uleb128 0x1a
 4335 09ef C6010000 		.4byte	.LVL36
ARM GAS  C:\Users\Elis\AppData\Local\Temp\ccGbXKEy.s 			page 78


 4336 09f3 F1180000 		.4byte	0x18f1
 4337 09f7 010A0000 		.4byte	0xa01
 4338 09fb 1B       		.uleb128 0x1b
 4339 09fc 01       		.byte	0x1
 4340 09fd 51       		.byte	0x51
 4341 09fe 01       		.byte	0x1
 4342 09ff 32       		.byte	0x32
 4343 0a00 00       		.byte	0
 4344 0a01 1A       		.uleb128 0x1a
 4345 0a02 FA010000 		.4byte	.LVL37
 4346 0a06 69180000 		.4byte	0x1869
 4347 0a0a 1E0A0000 		.4byte	0xa1e
 4348 0a0e 1B       		.uleb128 0x1b
 4349 0a0f 01       		.byte	0x1
 4350 0a10 51       		.byte	0x51
 4351 0a11 02       		.byte	0x2
 4352 0a12 7B       		.byte	0x7b
 4353 0a13 00       		.sleb128 0
 4354 0a14 1B       		.uleb128 0x1b
 4355 0a15 01       		.byte	0x1
 4356 0a16 50       		.byte	0x50
 4357 0a17 05       		.byte	0x5
 4358 0a18 03       		.byte	0x3
 4359 0a19 00000000 		.4byte	.LANCHOR3
 4360 0a1d 00       		.byte	0
 4361 0a1e 1A       		.uleb128 0x1a
 4362 0a1f 12020000 		.4byte	.LVL38
 4363 0a23 0A190000 		.4byte	0x190a
 4364 0a27 390A0000 		.4byte	0xa39
 4365 0a2b 1B       		.uleb128 0x1b
 4366 0a2c 01       		.byte	0x1
 4367 0a2d 52       		.byte	0x52
 4368 0a2e 03       		.byte	0x3
 4369 0a2f 91       		.byte	0x91
 4370 0a30 D47E     		.sleb128 -172
 4371 0a32 1B       		.uleb128 0x1b
 4372 0a33 01       		.byte	0x1
 4373 0a34 51       		.byte	0x51
 4374 0a35 02       		.byte	0x2
 4375 0a36 76       		.byte	0x76
 4376 0a37 00       		.sleb128 0
 4377 0a38 00       		.byte	0
 4378 0a39 1A       		.uleb128 0x1a
 4379 0a3a 4A020000 		.4byte	.LVL39
 4380 0a3e 69180000 		.4byte	0x1869
 4381 0a42 530A0000 		.4byte	0xa53
 4382 0a46 1B       		.uleb128 0x1b
 4383 0a47 01       		.byte	0x1
 4384 0a48 51       		.byte	0x51
 4385 0a49 02       		.byte	0x2
 4386 0a4a 7A       		.byte	0x7a
 4387 0a4b 00       		.sleb128 0
 4388 0a4c 1B       		.uleb128 0x1b
 4389 0a4d 01       		.byte	0x1
 4390 0a4e 50       		.byte	0x50
 4391 0a4f 02       		.byte	0x2
 4392 0a50 76       		.byte	0x76
ARM GAS  C:\Users\Elis\AppData\Local\Temp\ccGbXKEy.s 			page 79


 4393 0a51 00       		.sleb128 0
 4394 0a52 00       		.byte	0
 4395 0a53 1A       		.uleb128 0x1a
 4396 0a54 62020000 		.4byte	.LVL40
 4397 0a58 0A190000 		.4byte	0x190a
 4398 0a5c 6D0A0000 		.4byte	0xa6d
 4399 0a60 1B       		.uleb128 0x1b
 4400 0a61 01       		.byte	0x1
 4401 0a62 52       		.byte	0x52
 4402 0a63 03       		.byte	0x3
 4403 0a64 91       		.byte	0x91
 4404 0a65 D47E     		.sleb128 -172
 4405 0a67 1B       		.uleb128 0x1b
 4406 0a68 01       		.byte	0x1
 4407 0a69 51       		.byte	0x51
 4408 0a6a 01       		.byte	0x1
 4409 0a6b 30       		.byte	0x30
 4410 0a6c 00       		.byte	0
 4411 0a6d 1A       		.uleb128 0x1a
 4412 0a6e 98020000 		.4byte	.LVL41
 4413 0a72 69180000 		.4byte	0x1869
 4414 0a76 890A0000 		.4byte	0xa89
 4415 0a7a 1B       		.uleb128 0x1b
 4416 0a7b 01       		.byte	0x1
 4417 0a7c 51       		.byte	0x51
 4418 0a7d 04       		.byte	0x4
 4419 0a7e 91       		.byte	0x91
 4420 0a7f C87E     		.sleb128 -184
 4421 0a81 06       		.byte	0x6
 4422 0a82 1B       		.uleb128 0x1b
 4423 0a83 01       		.byte	0x1
 4424 0a84 50       		.byte	0x50
 4425 0a85 02       		.byte	0x2
 4426 0a86 76       		.byte	0x76
 4427 0a87 00       		.sleb128 0
 4428 0a88 00       		.byte	0
 4429 0a89 1A       		.uleb128 0x1a
 4430 0a8a B0020000 		.4byte	.LVL42
 4431 0a8e 0A190000 		.4byte	0x190a
 4432 0a92 A30A0000 		.4byte	0xaa3
 4433 0a96 1B       		.uleb128 0x1b
 4434 0a97 01       		.byte	0x1
 4435 0a98 52       		.byte	0x52
 4436 0a99 03       		.byte	0x3
 4437 0a9a 91       		.byte	0x91
 4438 0a9b D47E     		.sleb128 -172
 4439 0a9d 1B       		.uleb128 0x1b
 4440 0a9e 01       		.byte	0x1
 4441 0a9f 51       		.byte	0x51
 4442 0aa0 01       		.byte	0x1
 4443 0aa1 30       		.byte	0x30
 4444 0aa2 00       		.byte	0
 4445 0aa3 1A       		.uleb128 0x1a
 4446 0aa4 CC020000 		.4byte	.LVL44
 4447 0aa8 32190000 		.4byte	0x1932
 4448 0aac B70A0000 		.4byte	0xab7
 4449 0ab0 1B       		.uleb128 0x1b
ARM GAS  C:\Users\Elis\AppData\Local\Temp\ccGbXKEy.s 			page 80


 4450 0ab1 01       		.byte	0x1
 4451 0ab2 52       		.byte	0x52
 4452 0ab3 02       		.byte	0x2
 4453 0ab4 76       		.byte	0x76
 4454 0ab5 00       		.sleb128 0
 4455 0ab6 00       		.byte	0
 4456 0ab7 1A       		.uleb128 0x1a
 4457 0ab8 E4020000 		.4byte	.LVL45
 4458 0abc 32190000 		.4byte	0x1932
 4459 0ac0 CB0A0000 		.4byte	0xacb
 4460 0ac4 1B       		.uleb128 0x1b
 4461 0ac5 01       		.byte	0x1
 4462 0ac6 52       		.byte	0x52
 4463 0ac7 02       		.byte	0x2
 4464 0ac8 79       		.byte	0x79
 4465 0ac9 00       		.sleb128 0
 4466 0aca 00       		.byte	0
 4467 0acb 1A       		.uleb128 0x1a
 4468 0acc F6020000 		.4byte	.LVL46
 4469 0ad0 32190000 		.4byte	0x1932
 4470 0ad4 DF0A0000 		.4byte	0xadf
 4471 0ad8 1B       		.uleb128 0x1b
 4472 0ad9 01       		.byte	0x1
 4473 0ada 52       		.byte	0x52
 4474 0adb 02       		.byte	0x2
 4475 0adc 79       		.byte	0x79
 4476 0add 00       		.sleb128 0
 4477 0ade 00       		.byte	0
 4478 0adf 1A       		.uleb128 0x1a
 4479 0ae0 04030000 		.4byte	.LVL47
 4480 0ae4 32190000 		.4byte	0x1932
 4481 0ae8 F30A0000 		.4byte	0xaf3
 4482 0aec 1B       		.uleb128 0x1b
 4483 0aed 01       		.byte	0x1
 4484 0aee 52       		.byte	0x52
 4485 0aef 02       		.byte	0x2
 4486 0af0 79       		.byte	0x79
 4487 0af1 00       		.sleb128 0
 4488 0af2 00       		.byte	0
 4489 0af3 1C       		.uleb128 0x1c
 4490 0af4 66030000 		.4byte	.LVL48
 4491 0af8 D4170000 		.4byte	0x17d4
 4492 0afc 1B       		.uleb128 0x1b
 4493 0afd 01       		.byte	0x1
 4494 0afe 50       		.byte	0x50
 4495 0aff 02       		.byte	0x2
 4496 0b00 08       		.byte	0x8
 4497 0b01 40       		.byte	0x40
 4498 0b02 00       		.byte	0
 4499 0b03 00       		.byte	0
 4500 0b04 12       		.uleb128 0x12
 4501 0b05 D7000000 		.4byte	0xd7
 4502 0b09 140B0000 		.4byte	0xb14
 4503 0b0d 13       		.uleb128 0x13
 4504 0b0e C5000000 		.4byte	0xc5
 4505 0b12 63       		.byte	0x63
 4506 0b13 00       		.byte	0
ARM GAS  C:\Users\Elis\AppData\Local\Temp\ccGbXKEy.s 			page 81


 4507 0b14 14       		.uleb128 0x14
 4508 0b15 01       		.byte	0x1
 4509 0b16 02030000 		.4byte	.LASF93
 4510 0b1a 01       		.byte	0x1
 4511 0b1b D2       		.byte	0xd2
 4512 0b1c 01       		.byte	0x1
 4513 0b1d 00000000 		.4byte	.LFB119
 4514 0b21 50000000 		.4byte	.LFE119
 4515 0b25 3E010000 		.4byte	.LLST9
 4516 0b29 01       		.byte	0x1
 4517 0b2a B90B0000 		.4byte	0xbb9
 4518 0b2e 1A       		.uleb128 0x1a
 4519 0b2f 08000000 		.4byte	.LVL51
 4520 0b33 D4170000 		.4byte	0x17d4
 4521 0b37 420B0000 		.4byte	0xb42
 4522 0b3b 1B       		.uleb128 0x1b
 4523 0b3c 01       		.byte	0x1
 4524 0b3d 50       		.byte	0x50
 4525 0b3e 02       		.byte	0x2
 4526 0b3f 08       		.byte	0x8
 4527 0b40 7F       		.byte	0x7f
 4528 0b41 00       		.byte	0
 4529 0b42 1A       		.uleb128 0x1a
 4530 0b43 14000000 		.4byte	.LVL52
 4531 0b47 54190000 		.4byte	0x1954
 4532 0b4b 590B0000 		.4byte	0xb59
 4533 0b4f 1B       		.uleb128 0x1b
 4534 0b50 01       		.byte	0x1
 4535 0b51 50       		.byte	0x50
 4536 0b52 05       		.byte	0x5
 4537 0b53 03       		.byte	0x3
 4538 0b54 00000000 		.4byte	.LANCHOR0
 4539 0b58 00       		.byte	0
 4540 0b59 1A       		.uleb128 0x1a
 4541 0b5a 20000000 		.4byte	.LVL53
 4542 0b5e 54190000 		.4byte	0x1954
 4543 0b62 700B0000 		.4byte	0xb70
 4544 0b66 1B       		.uleb128 0x1b
 4545 0b67 01       		.byte	0x1
 4546 0b68 50       		.byte	0x50
 4547 0b69 05       		.byte	0x5
 4548 0b6a 03       		.byte	0x3
 4549 0b6b 00000000 		.4byte	.LANCHOR3
 4550 0b6f 00       		.byte	0
 4551 0b70 1A       		.uleb128 0x1a
 4552 0b71 2C000000 		.4byte	.LVL54
 4553 0b75 54190000 		.4byte	0x1954
 4554 0b79 870B0000 		.4byte	0xb87
 4555 0b7d 1B       		.uleb128 0x1b
 4556 0b7e 01       		.byte	0x1
 4557 0b7f 50       		.byte	0x50
 4558 0b80 05       		.byte	0x5
 4559 0b81 03       		.byte	0x3
 4560 0b82 00000000 		.4byte	.LANCHOR5
 4561 0b86 00       		.byte	0
 4562 0b87 1A       		.uleb128 0x1a
 4563 0b88 38000000 		.4byte	.LVL55
ARM GAS  C:\Users\Elis\AppData\Local\Temp\ccGbXKEy.s 			page 82


 4564 0b8c 54190000 		.4byte	0x1954
 4565 0b90 9E0B0000 		.4byte	0xb9e
 4566 0b94 1B       		.uleb128 0x1b
 4567 0b95 01       		.byte	0x1
 4568 0b96 50       		.byte	0x50
 4569 0b97 05       		.byte	0x5
 4570 0b98 03       		.byte	0x3
 4571 0b99 00000000 		.4byte	.LANCHOR7
 4572 0b9d 00       		.byte	0
 4573 0b9e 1D       		.uleb128 0x1d
 4574 0b9f 46000000 		.4byte	.LVL56
 4575 0ba3 68190000 		.4byte	0x1968
 4576 0ba7 1E       		.uleb128 0x1e
 4577 0ba8 50000000 		.4byte	.LVL57
 4578 0bac 01       		.byte	0x1
 4579 0bad D4170000 		.4byte	0x17d4
 4580 0bb1 1B       		.uleb128 0x1b
 4581 0bb2 01       		.byte	0x1
 4582 0bb3 50       		.byte	0x50
 4583 0bb4 02       		.byte	0x2
 4584 0bb5 08       		.byte	0x8
 4585 0bb6 40       		.byte	0x40
 4586 0bb7 00       		.byte	0
 4587 0bb8 00       		.byte	0
 4588 0bb9 14       		.uleb128 0x14
 4589 0bba 01       		.byte	0x1
 4590 0bbb 8B050000 		.4byte	.LASF94
 4591 0bbf 01       		.byte	0x1
 4592 0bc0 EC       		.byte	0xec
 4593 0bc1 01       		.byte	0x1
 4594 0bc2 00000000 		.4byte	.LFB120
 4595 0bc6 3C0A0000 		.4byte	.LFE120
 4596 0bca 5E010000 		.4byte	.LLST10
 4597 0bce 01       		.byte	0x1
 4598 0bcf 05140000 		.4byte	0x1405
 4599 0bd3 15       		.uleb128 0x15
 4600 0bd4 50030000 		.4byte	.LASF84
 4601 0bd8 01       		.byte	0x1
 4602 0bd9 EC       		.byte	0xec
 4603 0bda 10060000 		.4byte	0x610
 4604 0bde 8B010000 		.4byte	.LLST11
 4605 0be2 16       		.uleb128 0x16
 4606 0be3 27040000 		.4byte	.LASF87
 4607 0be7 01       		.byte	0x1
 4608 0be8 F0       		.byte	0xf0
 4609 0be9 3A020000 		.4byte	0x23a
 4610 0bed B7010000 		.4byte	.LLST12
 4611 0bf1 16       		.uleb128 0x16
 4612 0bf2 4D050000 		.4byte	.LASF89
 4613 0bf6 01       		.byte	0x1
 4614 0bf7 F1       		.byte	0xf1
 4615 0bf8 3A020000 		.4byte	0x23a
 4616 0bfc E0010000 		.4byte	.LLST13
 4617 0c00 16       		.uleb128 0x16
 4618 0c01 3F060000 		.4byte	.LASF95
 4619 0c05 01       		.byte	0x1
 4620 0c06 F2       		.byte	0xf2
ARM GAS  C:\Users\Elis\AppData\Local\Temp\ccGbXKEy.s 			page 83


 4621 0c07 3A020000 		.4byte	0x23a
 4622 0c0b 00020000 		.4byte	.LLST14
 4623 0c0f 17       		.uleb128 0x17
 4624 0c10 776900   		.ascii	"wi\000"
 4625 0c13 01       		.byte	0x1
 4626 0c14 F4       		.byte	0xf4
 4627 0c15 29050000 		.4byte	0x529
 4628 0c19 03       		.byte	0x3
 4629 0c1a 91       		.byte	0x91
 4630 0c1b D47E     		.sleb128 -172
 4631 0c1d 19       		.uleb128 0x19
 4632 0c1e 5F000000 		.4byte	.LASF91
 4633 0c22 01       		.byte	0x1
 4634 0c23 F6       		.byte	0xf6
 4635 0c24 040B0000 		.4byte	0xb04
 4636 0c28 03       		.byte	0x3
 4637 0c29 91       		.byte	0x91
 4638 0c2a F47E     		.sleb128 -140
 4639 0c2c 1A       		.uleb128 0x1a
 4640 0c2d 10000000 		.4byte	.LVL60
 4641 0c31 BA170000 		.4byte	0x17ba
 4642 0c35 410C0000 		.4byte	0xc41
 4643 0c39 1B       		.uleb128 0x1b
 4644 0c3a 01       		.byte	0x1
 4645 0c3b 50       		.byte	0x50
 4646 0c3c 03       		.byte	0x3
 4647 0c3d 91       		.byte	0x91
 4648 0c3e D47E     		.sleb128 -172
 4649 0c40 00       		.byte	0
 4650 0c41 1A       		.uleb128 0x1a
 4651 0c42 16000000 		.4byte	.LVL61
 4652 0c46 D4170000 		.4byte	0x17d4
 4653 0c4a 550C0000 		.4byte	0xc55
 4654 0c4e 1B       		.uleb128 0x1b
 4655 0c4f 01       		.byte	0x1
 4656 0c50 50       		.byte	0x50
 4657 0c51 02       		.byte	0x2
 4658 0c52 08       		.byte	0x8
 4659 0c53 7F       		.byte	0x7f
 4660 0c54 00       		.byte	0
 4661 0c55 1A       		.uleb128 0x1a
 4662 0c56 20000000 		.4byte	.LVL62
 4663 0c5a ED170000 		.4byte	0x17ed
 4664 0c5e 740C0000 		.4byte	0xc74
 4665 0c62 1B       		.uleb128 0x1b
 4666 0c63 01       		.byte	0x1
 4667 0c64 52       		.byte	0x52
 4668 0c65 02       		.byte	0x2
 4669 0c66 08       		.byte	0x8
 4670 0c67 64       		.byte	0x64
 4671 0c68 1B       		.uleb128 0x1b
 4672 0c69 01       		.byte	0x1
 4673 0c6a 51       		.byte	0x51
 4674 0c6b 01       		.byte	0x1
 4675 0c6c 30       		.byte	0x30
 4676 0c6d 1B       		.uleb128 0x1b
 4677 0c6e 01       		.byte	0x1
ARM GAS  C:\Users\Elis\AppData\Local\Temp\ccGbXKEy.s 			page 84


 4678 0c6f 50       		.byte	0x50
 4679 0c70 02       		.byte	0x2
 4680 0c71 74       		.byte	0x74
 4681 0c72 00       		.sleb128 0
 4682 0c73 00       		.byte	0
 4683 0c74 1A       		.uleb128 0x1a
 4684 0c75 26000000 		.4byte	.LVL63
 4685 0c79 0E180000 		.4byte	0x180e
 4686 0c7d 880C0000 		.4byte	0xc88
 4687 0c81 1B       		.uleb128 0x1b
 4688 0c82 01       		.byte	0x1
 4689 0c83 50       		.byte	0x50
 4690 0c84 02       		.byte	0x2
 4691 0c85 74       		.byte	0x74
 4692 0c86 00       		.sleb128 0
 4693 0c87 00       		.byte	0
 4694 0c88 1A       		.uleb128 0x1a
 4695 0c89 46000000 		.4byte	.LVL64
 4696 0c8d 2A180000 		.4byte	0x182a
 4697 0c91 A80C0000 		.4byte	0xca8
 4698 0c95 1B       		.uleb128 0x1b
 4699 0c96 01       		.byte	0x1
 4700 0c97 52       		.byte	0x52
 4701 0c98 02       		.byte	0x2
 4702 0c99 08       		.byte	0x8
 4703 0c9a 64       		.byte	0x64
 4704 0c9b 1B       		.uleb128 0x1b
 4705 0c9c 01       		.byte	0x1
 4706 0c9d 51       		.byte	0x51
 4707 0c9e 02       		.byte	0x2
 4708 0c9f 77       		.byte	0x77
 4709 0ca0 00       		.sleb128 0
 4710 0ca1 1B       		.uleb128 0x1b
 4711 0ca2 01       		.byte	0x1
 4712 0ca3 50       		.byte	0x50
 4713 0ca4 02       		.byte	0x2
 4714 0ca5 74       		.byte	0x74
 4715 0ca6 00       		.sleb128 0
 4716 0ca7 00       		.byte	0
 4717 0ca8 1A       		.uleb128 0x1a
 4718 0ca9 50000000 		.4byte	.LVL65
 4719 0cad 2A180000 		.4byte	0x182a
 4720 0cb1 CB0C0000 		.4byte	0xccb
 4721 0cb5 1B       		.uleb128 0x1b
 4722 0cb6 01       		.byte	0x1
 4723 0cb7 52       		.byte	0x52
 4724 0cb8 02       		.byte	0x2
 4725 0cb9 08       		.byte	0x8
 4726 0cba 64       		.byte	0x64
 4727 0cbb 1B       		.uleb128 0x1b
 4728 0cbc 01       		.byte	0x1
 4729 0cbd 51       		.byte	0x51
 4730 0cbe 05       		.byte	0x5
 4731 0cbf 03       		.byte	0x3
 4732 0cc0 0C000000 		.4byte	.LC1
 4733 0cc4 1B       		.uleb128 0x1b
 4734 0cc5 01       		.byte	0x1
ARM GAS  C:\Users\Elis\AppData\Local\Temp\ccGbXKEy.s 			page 85


 4735 0cc6 50       		.byte	0x50
 4736 0cc7 02       		.byte	0x2
 4737 0cc8 74       		.byte	0x74
 4738 0cc9 00       		.sleb128 0
 4739 0cca 00       		.byte	0
 4740 0ccb 1A       		.uleb128 0x1a
 4741 0ccc 58000000 		.4byte	.LVL66
 4742 0cd0 4C180000 		.4byte	0x184c
 4743 0cd4 E80C0000 		.4byte	0xce8
 4744 0cd8 1B       		.uleb128 0x1b
 4745 0cd9 01       		.byte	0x1
 4746 0cda 51       		.byte	0x51
 4747 0cdb 05       		.byte	0x5
 4748 0cdc 03       		.byte	0x3
 4749 0cdd 28000000 		.4byte	.LC2
 4750 0ce1 1B       		.uleb128 0x1b
 4751 0ce2 01       		.byte	0x1
 4752 0ce3 50       		.byte	0x50
 4753 0ce4 02       		.byte	0x2
 4754 0ce5 74       		.byte	0x74
 4755 0ce6 00       		.sleb128 0
 4756 0ce7 00       		.byte	0
 4757 0ce8 1A       		.uleb128 0x1a
 4758 0ce9 64000000 		.4byte	.LVL69
 4759 0ced ED170000 		.4byte	0x17ed
 4760 0cf1 070D0000 		.4byte	0xd07
 4761 0cf5 1B       		.uleb128 0x1b
 4762 0cf6 01       		.byte	0x1
 4763 0cf7 52       		.byte	0x52
 4764 0cf8 02       		.byte	0x2
 4765 0cf9 08       		.byte	0x8
 4766 0cfa 64       		.byte	0x64
 4767 0cfb 1B       		.uleb128 0x1b
 4768 0cfc 01       		.byte	0x1
 4769 0cfd 51       		.byte	0x51
 4770 0cfe 01       		.byte	0x1
 4771 0cff 30       		.byte	0x30
 4772 0d00 1B       		.uleb128 0x1b
 4773 0d01 01       		.byte	0x1
 4774 0d02 50       		.byte	0x50
 4775 0d03 02       		.byte	0x2
 4776 0d04 74       		.byte	0x74
 4777 0d05 00       		.sleb128 0
 4778 0d06 00       		.byte	0
 4779 0d07 1A       		.uleb128 0x1a
 4780 0d08 6A000000 		.4byte	.LVL70
 4781 0d0c 0E180000 		.4byte	0x180e
 4782 0d10 1B0D0000 		.4byte	0xd1b
 4783 0d14 1B       		.uleb128 0x1b
 4784 0d15 01       		.byte	0x1
 4785 0d16 50       		.byte	0x50
 4786 0d17 02       		.byte	0x2
 4787 0d18 74       		.byte	0x74
 4788 0d19 00       		.sleb128 0
 4789 0d1a 00       		.byte	0
 4790 0d1b 1A       		.uleb128 0x1a
 4791 0d1c 82000000 		.4byte	.LVL71
ARM GAS  C:\Users\Elis\AppData\Local\Temp\ccGbXKEy.s 			page 86


 4792 0d20 2A180000 		.4byte	0x182a
 4793 0d24 3B0D0000 		.4byte	0xd3b
 4794 0d28 1B       		.uleb128 0x1b
 4795 0d29 01       		.byte	0x1
 4796 0d2a 52       		.byte	0x52
 4797 0d2b 02       		.byte	0x2
 4798 0d2c 08       		.byte	0x8
 4799 0d2d 64       		.byte	0x64
 4800 0d2e 1B       		.uleb128 0x1b
 4801 0d2f 01       		.byte	0x1
 4802 0d30 51       		.byte	0x51
 4803 0d31 02       		.byte	0x2
 4804 0d32 77       		.byte	0x77
 4805 0d33 00       		.sleb128 0
 4806 0d34 1B       		.uleb128 0x1b
 4807 0d35 01       		.byte	0x1
 4808 0d36 50       		.byte	0x50
 4809 0d37 02       		.byte	0x2
 4810 0d38 74       		.byte	0x74
 4811 0d39 00       		.sleb128 0
 4812 0d3a 00       		.byte	0
 4813 0d3b 1A       		.uleb128 0x1a
 4814 0d3c 8C000000 		.4byte	.LVL72
 4815 0d40 2A180000 		.4byte	0x182a
 4816 0d44 5E0D0000 		.4byte	0xd5e
 4817 0d48 1B       		.uleb128 0x1b
 4818 0d49 01       		.byte	0x1
 4819 0d4a 52       		.byte	0x52
 4820 0d4b 02       		.byte	0x2
 4821 0d4c 08       		.byte	0x8
 4822 0d4d 64       		.byte	0x64
 4823 0d4e 1B       		.uleb128 0x1b
 4824 0d4f 01       		.byte	0x1
 4825 0d50 51       		.byte	0x51
 4826 0d51 05       		.byte	0x5
 4827 0d52 03       		.byte	0x3
 4828 0d53 44000000 		.4byte	.LC4
 4829 0d57 1B       		.uleb128 0x1b
 4830 0d58 01       		.byte	0x1
 4831 0d59 50       		.byte	0x50
 4832 0d5a 02       		.byte	0x2
 4833 0d5b 74       		.byte	0x74
 4834 0d5c 00       		.sleb128 0
 4835 0d5d 00       		.byte	0
 4836 0d5e 1A       		.uleb128 0x1a
 4837 0d5f 94000000 		.4byte	.LVL73
 4838 0d63 4C180000 		.4byte	0x184c
 4839 0d67 7B0D0000 		.4byte	0xd7b
 4840 0d6b 1B       		.uleb128 0x1b
 4841 0d6c 01       		.byte	0x1
 4842 0d6d 51       		.byte	0x51
 4843 0d6e 05       		.byte	0x5
 4844 0d6f 03       		.byte	0x3
 4845 0d70 28000000 		.4byte	.LC2
 4846 0d74 1B       		.uleb128 0x1b
 4847 0d75 01       		.byte	0x1
 4848 0d76 50       		.byte	0x50
ARM GAS  C:\Users\Elis\AppData\Local\Temp\ccGbXKEy.s 			page 87


 4849 0d77 02       		.byte	0x2
 4850 0d78 74       		.byte	0x74
 4851 0d79 00       		.sleb128 0
 4852 0d7a 00       		.byte	0
 4853 0d7b 1A       		.uleb128 0x1a
 4854 0d7c A0000000 		.4byte	.LVL76
 4855 0d80 ED170000 		.4byte	0x17ed
 4856 0d84 9A0D0000 		.4byte	0xd9a
 4857 0d88 1B       		.uleb128 0x1b
 4858 0d89 01       		.byte	0x1
 4859 0d8a 52       		.byte	0x52
 4860 0d8b 02       		.byte	0x2
 4861 0d8c 08       		.byte	0x8
 4862 0d8d 64       		.byte	0x64
 4863 0d8e 1B       		.uleb128 0x1b
 4864 0d8f 01       		.byte	0x1
 4865 0d90 51       		.byte	0x51
 4866 0d91 01       		.byte	0x1
 4867 0d92 30       		.byte	0x30
 4868 0d93 1B       		.uleb128 0x1b
 4869 0d94 01       		.byte	0x1
 4870 0d95 50       		.byte	0x50
 4871 0d96 02       		.byte	0x2
 4872 0d97 74       		.byte	0x74
 4873 0d98 00       		.sleb128 0
 4874 0d99 00       		.byte	0
 4875 0d9a 1A       		.uleb128 0x1a
 4876 0d9b A6000000 		.4byte	.LVL77
 4877 0d9f 0E180000 		.4byte	0x180e
 4878 0da3 AE0D0000 		.4byte	0xdae
 4879 0da7 1B       		.uleb128 0x1b
 4880 0da8 01       		.byte	0x1
 4881 0da9 50       		.byte	0x50
 4882 0daa 02       		.byte	0x2
 4883 0dab 74       		.byte	0x74
 4884 0dac 00       		.sleb128 0
 4885 0dad 00       		.byte	0
 4886 0dae 1A       		.uleb128 0x1a
 4887 0daf C0000000 		.4byte	.LVL78
 4888 0db3 2A180000 		.4byte	0x182a
 4889 0db7 CE0D0000 		.4byte	0xdce
 4890 0dbb 1B       		.uleb128 0x1b
 4891 0dbc 01       		.byte	0x1
 4892 0dbd 52       		.byte	0x52
 4893 0dbe 02       		.byte	0x2
 4894 0dbf 08       		.byte	0x8
 4895 0dc0 64       		.byte	0x64
 4896 0dc1 1B       		.uleb128 0x1b
 4897 0dc2 01       		.byte	0x1
 4898 0dc3 51       		.byte	0x51
 4899 0dc4 02       		.byte	0x2
 4900 0dc5 77       		.byte	0x77
 4901 0dc6 00       		.sleb128 0
 4902 0dc7 1B       		.uleb128 0x1b
 4903 0dc8 01       		.byte	0x1
 4904 0dc9 50       		.byte	0x50
 4905 0dca 02       		.byte	0x2
ARM GAS  C:\Users\Elis\AppData\Local\Temp\ccGbXKEy.s 			page 88


 4906 0dcb 74       		.byte	0x74
 4907 0dcc 00       		.sleb128 0
 4908 0dcd 00       		.byte	0
 4909 0dce 1A       		.uleb128 0x1a
 4910 0dcf CA000000 		.4byte	.LVL79
 4911 0dd3 2A180000 		.4byte	0x182a
 4912 0dd7 F10D0000 		.4byte	0xdf1
 4913 0ddb 1B       		.uleb128 0x1b
 4914 0ddc 01       		.byte	0x1
 4915 0ddd 52       		.byte	0x52
 4916 0dde 02       		.byte	0x2
 4917 0ddf 08       		.byte	0x8
 4918 0de0 64       		.byte	0x64
 4919 0de1 1B       		.uleb128 0x1b
 4920 0de2 01       		.byte	0x1
 4921 0de3 51       		.byte	0x51
 4922 0de4 05       		.byte	0x5
 4923 0de5 03       		.byte	0x3
 4924 0de6 A0000000 		.4byte	.LC12
 4925 0dea 1B       		.uleb128 0x1b
 4926 0deb 01       		.byte	0x1
 4927 0dec 50       		.byte	0x50
 4928 0ded 02       		.byte	0x2
 4929 0dee 74       		.byte	0x74
 4930 0def 00       		.sleb128 0
 4931 0df0 00       		.byte	0
 4932 0df1 1A       		.uleb128 0x1a
 4933 0df2 D2000000 		.4byte	.LVL80
 4934 0df6 4C180000 		.4byte	0x184c
 4935 0dfa 0E0E0000 		.4byte	0xe0e
 4936 0dfe 1B       		.uleb128 0x1b
 4937 0dff 01       		.byte	0x1
 4938 0e00 51       		.byte	0x51
 4939 0e01 05       		.byte	0x5
 4940 0e02 03       		.byte	0x3
 4941 0e03 28000000 		.4byte	.LC2
 4942 0e07 1B       		.uleb128 0x1b
 4943 0e08 01       		.byte	0x1
 4944 0e09 50       		.byte	0x50
 4945 0e0a 02       		.byte	0x2
 4946 0e0b 74       		.byte	0x74
 4947 0e0c 00       		.sleb128 0
 4948 0e0d 00       		.byte	0
 4949 0e0e 1A       		.uleb128 0x1a
 4950 0e0f 10010000 		.4byte	.LVL84
 4951 0e13 69180000 		.4byte	0x1869
 4952 0e17 280E0000 		.4byte	0xe28
 4953 0e1b 1B       		.uleb128 0x1b
 4954 0e1c 01       		.byte	0x1
 4955 0e1d 51       		.byte	0x51
 4956 0e1e 02       		.byte	0x2
 4957 0e1f 78       		.byte	0x78
 4958 0e20 00       		.sleb128 0
 4959 0e21 1B       		.uleb128 0x1b
 4960 0e22 01       		.byte	0x1
 4961 0e23 50       		.byte	0x50
 4962 0e24 02       		.byte	0x2
ARM GAS  C:\Users\Elis\AppData\Local\Temp\ccGbXKEy.s 			page 89


 4963 0e25 76       		.byte	0x76
 4964 0e26 00       		.sleb128 0
 4965 0e27 00       		.byte	0
 4966 0e28 1A       		.uleb128 0x1a
 4967 0e29 2A010000 		.4byte	.LVL85
 4968 0e2d 8C180000 		.4byte	0x188c
 4969 0e31 470E0000 		.4byte	0xe47
 4970 0e35 1B       		.uleb128 0x1b
 4971 0e36 01       		.byte	0x1
 4972 0e37 53       		.byte	0x53
 4973 0e38 01       		.byte	0x1
 4974 0e39 30       		.byte	0x30
 4975 0e3a 1B       		.uleb128 0x1b
 4976 0e3b 01       		.byte	0x1
 4977 0e3c 52       		.byte	0x52
 4978 0e3d 03       		.byte	0x3
 4979 0e3e 91       		.byte	0x91
 4980 0e3f D47E     		.sleb128 -172
 4981 0e41 1B       		.uleb128 0x1b
 4982 0e42 01       		.byte	0x1
 4983 0e43 51       		.byte	0x51
 4984 0e44 01       		.byte	0x1
 4985 0e45 30       		.byte	0x30
 4986 0e46 00       		.byte	0
 4987 0e47 1A       		.uleb128 0x1a
 4988 0e48 76010000 		.4byte	.LVL86
 4989 0e4c 0A190000 		.4byte	0x190a
 4990 0e50 670E0000 		.4byte	0xe67
 4991 0e54 1B       		.uleb128 0x1b
 4992 0e55 01       		.byte	0x1
 4993 0e56 52       		.byte	0x52
 4994 0e57 08       		.byte	0x8
 4995 0e58 91       		.byte	0x91
 4996 0e59 00       		.sleb128 0
 4997 0e5a 79       		.byte	0x79
 4998 0e5b 00       		.sleb128 0
 4999 0e5c 22       		.byte	0x22
 5000 0e5d 08       		.byte	0x8
 5001 0e5e C0       		.byte	0xc0
 5002 0e5f 1C       		.byte	0x1c
 5003 0e60 1B       		.uleb128 0x1b
 5004 0e61 01       		.byte	0x1
 5005 0e62 51       		.byte	0x51
 5006 0e63 02       		.byte	0x2
 5007 0e64 75       		.byte	0x75
 5008 0e65 00       		.sleb128 0
 5009 0e66 00       		.byte	0
 5010 0e67 1A       		.uleb128 0x1a
 5011 0e68 BC010000 		.4byte	.LVL87
 5012 0e6c 0A190000 		.4byte	0x190a
 5013 0e70 870E0000 		.4byte	0xe87
 5014 0e74 1B       		.uleb128 0x1b
 5015 0e75 01       		.byte	0x1
 5016 0e76 52       		.byte	0x52
 5017 0e77 08       		.byte	0x8
 5018 0e78 91       		.byte	0x91
 5019 0e79 00       		.sleb128 0
ARM GAS  C:\Users\Elis\AppData\Local\Temp\ccGbXKEy.s 			page 90


 5020 0e7a 79       		.byte	0x79
 5021 0e7b 00       		.sleb128 0
 5022 0e7c 22       		.byte	0x22
 5023 0e7d 08       		.byte	0x8
 5024 0e7e C0       		.byte	0xc0
 5025 0e7f 1C       		.byte	0x1c
 5026 0e80 1B       		.uleb128 0x1b
 5027 0e81 01       		.byte	0x1
 5028 0e82 51       		.byte	0x51
 5029 0e83 02       		.byte	0x2
 5030 0e84 75       		.byte	0x75
 5031 0e85 00       		.sleb128 0
 5032 0e86 00       		.byte	0
 5033 0e87 1A       		.uleb128 0x1a
 5034 0e88 E6010000 		.4byte	.LVL88
 5035 0e8c 0A190000 		.4byte	0x190a
 5036 0e90 A70E0000 		.4byte	0xea7
 5037 0e94 1B       		.uleb128 0x1b
 5038 0e95 01       		.byte	0x1
 5039 0e96 52       		.byte	0x52
 5040 0e97 08       		.byte	0x8
 5041 0e98 91       		.byte	0x91
 5042 0e99 00       		.sleb128 0
 5043 0e9a 79       		.byte	0x79
 5044 0e9b 00       		.sleb128 0
 5045 0e9c 22       		.byte	0x22
 5046 0e9d 08       		.byte	0x8
 5047 0e9e C0       		.byte	0xc0
 5048 0e9f 1C       		.byte	0x1c
 5049 0ea0 1B       		.uleb128 0x1b
 5050 0ea1 01       		.byte	0x1
 5051 0ea2 51       		.byte	0x51
 5052 0ea3 02       		.byte	0x2
 5053 0ea4 75       		.byte	0x75
 5054 0ea5 00       		.sleb128 0
 5055 0ea6 00       		.byte	0
 5056 0ea7 1A       		.uleb128 0x1a
 5057 0ea8 0E020000 		.4byte	.LVL89
 5058 0eac 0A190000 		.4byte	0x190a
 5059 0eb0 C70E0000 		.4byte	0xec7
 5060 0eb4 1B       		.uleb128 0x1b
 5061 0eb5 01       		.byte	0x1
 5062 0eb6 52       		.byte	0x52
 5063 0eb7 08       		.byte	0x8
 5064 0eb8 91       		.byte	0x91
 5065 0eb9 00       		.sleb128 0
 5066 0eba 79       		.byte	0x79
 5067 0ebb 00       		.sleb128 0
 5068 0ebc 22       		.byte	0x22
 5069 0ebd 08       		.byte	0x8
 5070 0ebe C0       		.byte	0xc0
 5071 0ebf 1C       		.byte	0x1c
 5072 0ec0 1B       		.uleb128 0x1b
 5073 0ec1 01       		.byte	0x1
 5074 0ec2 51       		.byte	0x51
 5075 0ec3 02       		.byte	0x2
 5076 0ec4 75       		.byte	0x75
ARM GAS  C:\Users\Elis\AppData\Local\Temp\ccGbXKEy.s 			page 91


 5077 0ec5 00       		.sleb128 0
 5078 0ec6 00       		.byte	0
 5079 0ec7 1A       		.uleb128 0x1a
 5080 0ec8 34020000 		.4byte	.LVL90
 5081 0ecc 0A190000 		.4byte	0x190a
 5082 0ed0 E70E0000 		.4byte	0xee7
 5083 0ed4 1B       		.uleb128 0x1b
 5084 0ed5 01       		.byte	0x1
 5085 0ed6 52       		.byte	0x52
 5086 0ed7 08       		.byte	0x8
 5087 0ed8 91       		.byte	0x91
 5088 0ed9 00       		.sleb128 0
 5089 0eda 79       		.byte	0x79
 5090 0edb 00       		.sleb128 0
 5091 0edc 22       		.byte	0x22
 5092 0edd 08       		.byte	0x8
 5093 0ede C0       		.byte	0xc0
 5094 0edf 1C       		.byte	0x1c
 5095 0ee0 1B       		.uleb128 0x1b
 5096 0ee1 01       		.byte	0x1
 5097 0ee2 51       		.byte	0x51
 5098 0ee3 02       		.byte	0x2
 5099 0ee4 75       		.byte	0x75
 5100 0ee5 00       		.sleb128 0
 5101 0ee6 00       		.byte	0
 5102 0ee7 1A       		.uleb128 0x1a
 5103 0ee8 5A020000 		.4byte	.LVL91
 5104 0eec 0A190000 		.4byte	0x190a
 5105 0ef0 070F0000 		.4byte	0xf07
 5106 0ef4 1B       		.uleb128 0x1b
 5107 0ef5 01       		.byte	0x1
 5108 0ef6 52       		.byte	0x52
 5109 0ef7 08       		.byte	0x8
 5110 0ef8 91       		.byte	0x91
 5111 0ef9 00       		.sleb128 0
 5112 0efa 79       		.byte	0x79
 5113 0efb 00       		.sleb128 0
 5114 0efc 22       		.byte	0x22
 5115 0efd 08       		.byte	0x8
 5116 0efe C0       		.byte	0xc0
 5117 0eff 1C       		.byte	0x1c
 5118 0f00 1B       		.uleb128 0x1b
 5119 0f01 01       		.byte	0x1
 5120 0f02 51       		.byte	0x51
 5121 0f03 02       		.byte	0x2
 5122 0f04 75       		.byte	0x75
 5123 0f05 00       		.sleb128 0
 5124 0f06 00       		.byte	0
 5125 0f07 1A       		.uleb128 0x1a
 5126 0f08 80020000 		.4byte	.LVL92
 5127 0f0c 0A190000 		.4byte	0x190a
 5128 0f10 270F0000 		.4byte	0xf27
 5129 0f14 1B       		.uleb128 0x1b
 5130 0f15 01       		.byte	0x1
 5131 0f16 52       		.byte	0x52
 5132 0f17 08       		.byte	0x8
 5133 0f18 91       		.byte	0x91
ARM GAS  C:\Users\Elis\AppData\Local\Temp\ccGbXKEy.s 			page 92


 5134 0f19 00       		.sleb128 0
 5135 0f1a 79       		.byte	0x79
 5136 0f1b 00       		.sleb128 0
 5137 0f1c 22       		.byte	0x22
 5138 0f1d 08       		.byte	0x8
 5139 0f1e C0       		.byte	0xc0
 5140 0f1f 1C       		.byte	0x1c
 5141 0f20 1B       		.uleb128 0x1b
 5142 0f21 01       		.byte	0x1
 5143 0f22 51       		.byte	0x51
 5144 0f23 02       		.byte	0x2
 5145 0f24 75       		.byte	0x75
 5146 0f25 00       		.sleb128 0
 5147 0f26 00       		.byte	0
 5148 0f27 1A       		.uleb128 0x1a
 5149 0f28 A6020000 		.4byte	.LVL93
 5150 0f2c 0A190000 		.4byte	0x190a
 5151 0f30 470F0000 		.4byte	0xf47
 5152 0f34 1B       		.uleb128 0x1b
 5153 0f35 01       		.byte	0x1
 5154 0f36 52       		.byte	0x52
 5155 0f37 08       		.byte	0x8
 5156 0f38 91       		.byte	0x91
 5157 0f39 00       		.sleb128 0
 5158 0f3a 79       		.byte	0x79
 5159 0f3b 00       		.sleb128 0
 5160 0f3c 22       		.byte	0x22
 5161 0f3d 08       		.byte	0x8
 5162 0f3e C0       		.byte	0xc0
 5163 0f3f 1C       		.byte	0x1c
 5164 0f40 1B       		.uleb128 0x1b
 5165 0f41 01       		.byte	0x1
 5166 0f42 51       		.byte	0x51
 5167 0f43 02       		.byte	0x2
 5168 0f44 75       		.byte	0x75
 5169 0f45 00       		.sleb128 0
 5170 0f46 00       		.byte	0
 5171 0f47 1A       		.uleb128 0x1a
 5172 0f48 CC020000 		.4byte	.LVL94
 5173 0f4c 0A190000 		.4byte	0x190a
 5174 0f50 670F0000 		.4byte	0xf67
 5175 0f54 1B       		.uleb128 0x1b
 5176 0f55 01       		.byte	0x1
 5177 0f56 52       		.byte	0x52
 5178 0f57 08       		.byte	0x8
 5179 0f58 91       		.byte	0x91
 5180 0f59 00       		.sleb128 0
 5181 0f5a 79       		.byte	0x79
 5182 0f5b 00       		.sleb128 0
 5183 0f5c 22       		.byte	0x22
 5184 0f5d 08       		.byte	0x8
 5185 0f5e C0       		.byte	0xc0
 5186 0f5f 1C       		.byte	0x1c
 5187 0f60 1B       		.uleb128 0x1b
 5188 0f61 01       		.byte	0x1
 5189 0f62 51       		.byte	0x51
 5190 0f63 02       		.byte	0x2
ARM GAS  C:\Users\Elis\AppData\Local\Temp\ccGbXKEy.s 			page 93


 5191 0f64 75       		.byte	0x75
 5192 0f65 00       		.sleb128 0
 5193 0f66 00       		.byte	0
 5194 0f67 1A       		.uleb128 0x1a
 5195 0f68 F2020000 		.4byte	.LVL95
 5196 0f6c 0A190000 		.4byte	0x190a
 5197 0f70 870F0000 		.4byte	0xf87
 5198 0f74 1B       		.uleb128 0x1b
 5199 0f75 01       		.byte	0x1
 5200 0f76 52       		.byte	0x52
 5201 0f77 08       		.byte	0x8
 5202 0f78 91       		.byte	0x91
 5203 0f79 00       		.sleb128 0
 5204 0f7a 79       		.byte	0x79
 5205 0f7b 00       		.sleb128 0
 5206 0f7c 22       		.byte	0x22
 5207 0f7d 08       		.byte	0x8
 5208 0f7e C0       		.byte	0xc0
 5209 0f7f 1C       		.byte	0x1c
 5210 0f80 1B       		.uleb128 0x1b
 5211 0f81 01       		.byte	0x1
 5212 0f82 51       		.byte	0x51
 5213 0f83 02       		.byte	0x2
 5214 0f84 75       		.byte	0x75
 5215 0f85 00       		.sleb128 0
 5216 0f86 00       		.byte	0
 5217 0f87 1A       		.uleb128 0x1a
 5218 0f88 18030000 		.4byte	.LVL96
 5219 0f8c 0A190000 		.4byte	0x190a
 5220 0f90 A70F0000 		.4byte	0xfa7
 5221 0f94 1B       		.uleb128 0x1b
 5222 0f95 01       		.byte	0x1
 5223 0f96 52       		.byte	0x52
 5224 0f97 08       		.byte	0x8
 5225 0f98 91       		.byte	0x91
 5226 0f99 00       		.sleb128 0
 5227 0f9a 79       		.byte	0x79
 5228 0f9b 00       		.sleb128 0
 5229 0f9c 22       		.byte	0x22
 5230 0f9d 08       		.byte	0x8
 5231 0f9e C0       		.byte	0xc0
 5232 0f9f 1C       		.byte	0x1c
 5233 0fa0 1B       		.uleb128 0x1b
 5234 0fa1 01       		.byte	0x1
 5235 0fa2 51       		.byte	0x51
 5236 0fa3 02       		.byte	0x2
 5237 0fa4 75       		.byte	0x75
 5238 0fa5 00       		.sleb128 0
 5239 0fa6 00       		.byte	0
 5240 0fa7 1A       		.uleb128 0x1a
 5241 0fa8 C6030000 		.4byte	.LVL98
 5242 0fac 0A190000 		.4byte	0x190a
 5243 0fb0 C70F0000 		.4byte	0xfc7
 5244 0fb4 1B       		.uleb128 0x1b
 5245 0fb5 01       		.byte	0x1
 5246 0fb6 52       		.byte	0x52
 5247 0fb7 08       		.byte	0x8
ARM GAS  C:\Users\Elis\AppData\Local\Temp\ccGbXKEy.s 			page 94


 5248 0fb8 91       		.byte	0x91
 5249 0fb9 00       		.sleb128 0
 5250 0fba 79       		.byte	0x79
 5251 0fbb 00       		.sleb128 0
 5252 0fbc 22       		.byte	0x22
 5253 0fbd 08       		.byte	0x8
 5254 0fbe C0       		.byte	0xc0
 5255 0fbf 1C       		.byte	0x1c
 5256 0fc0 1B       		.uleb128 0x1b
 5257 0fc1 01       		.byte	0x1
 5258 0fc2 51       		.byte	0x51
 5259 0fc3 02       		.byte	0x2
 5260 0fc4 75       		.byte	0x75
 5261 0fc5 00       		.sleb128 0
 5262 0fc6 00       		.byte	0
 5263 0fc7 1A       		.uleb128 0x1a
 5264 0fc8 EC030000 		.4byte	.LVL99
 5265 0fcc 0A190000 		.4byte	0x190a
 5266 0fd0 E70F0000 		.4byte	0xfe7
 5267 0fd4 1B       		.uleb128 0x1b
 5268 0fd5 01       		.byte	0x1
 5269 0fd6 52       		.byte	0x52
 5270 0fd7 08       		.byte	0x8
 5271 0fd8 91       		.byte	0x91
 5272 0fd9 00       		.sleb128 0
 5273 0fda 79       		.byte	0x79
 5274 0fdb 00       		.sleb128 0
 5275 0fdc 22       		.byte	0x22
 5276 0fdd 08       		.byte	0x8
 5277 0fde C0       		.byte	0xc0
 5278 0fdf 1C       		.byte	0x1c
 5279 0fe0 1B       		.uleb128 0x1b
 5280 0fe1 01       		.byte	0x1
 5281 0fe2 51       		.byte	0x51
 5282 0fe3 02       		.byte	0x2
 5283 0fe4 75       		.byte	0x75
 5284 0fe5 00       		.sleb128 0
 5285 0fe6 00       		.byte	0
 5286 0fe7 1A       		.uleb128 0x1a
 5287 0fe8 10040000 		.4byte	.LVL100
 5288 0fec 0A190000 		.4byte	0x190a
 5289 0ff0 07100000 		.4byte	0x1007
 5290 0ff4 1B       		.uleb128 0x1b
 5291 0ff5 01       		.byte	0x1
 5292 0ff6 52       		.byte	0x52
 5293 0ff7 08       		.byte	0x8
 5294 0ff8 91       		.byte	0x91
 5295 0ff9 00       		.sleb128 0
 5296 0ffa 79       		.byte	0x79
 5297 0ffb 00       		.sleb128 0
 5298 0ffc 22       		.byte	0x22
 5299 0ffd 08       		.byte	0x8
 5300 0ffe C0       		.byte	0xc0
 5301 0fff 1C       		.byte	0x1c
 5302 1000 1B       		.uleb128 0x1b
 5303 1001 01       		.byte	0x1
 5304 1002 51       		.byte	0x51
ARM GAS  C:\Users\Elis\AppData\Local\Temp\ccGbXKEy.s 			page 95


 5305 1003 02       		.byte	0x2
 5306 1004 75       		.byte	0x75
 5307 1005 00       		.sleb128 0
 5308 1006 00       		.byte	0
 5309 1007 1A       		.uleb128 0x1a
 5310 1008 36040000 		.4byte	.LVL101
 5311 100c 0A190000 		.4byte	0x190a
 5312 1010 27100000 		.4byte	0x1027
 5313 1014 1B       		.uleb128 0x1b
 5314 1015 01       		.byte	0x1
 5315 1016 52       		.byte	0x52
 5316 1017 08       		.byte	0x8
 5317 1018 91       		.byte	0x91
 5318 1019 00       		.sleb128 0
 5319 101a 79       		.byte	0x79
 5320 101b 00       		.sleb128 0
 5321 101c 22       		.byte	0x22
 5322 101d 08       		.byte	0x8
 5323 101e C0       		.byte	0xc0
 5324 101f 1C       		.byte	0x1c
 5325 1020 1B       		.uleb128 0x1b
 5326 1021 01       		.byte	0x1
 5327 1022 51       		.byte	0x51
 5328 1023 02       		.byte	0x2
 5329 1024 75       		.byte	0x75
 5330 1025 00       		.sleb128 0
 5331 1026 00       		.byte	0
 5332 1027 1A       		.uleb128 0x1a
 5333 1028 5C040000 		.4byte	.LVL102
 5334 102c 0A190000 		.4byte	0x190a
 5335 1030 47100000 		.4byte	0x1047
 5336 1034 1B       		.uleb128 0x1b
 5337 1035 01       		.byte	0x1
 5338 1036 52       		.byte	0x52
 5339 1037 08       		.byte	0x8
 5340 1038 91       		.byte	0x91
 5341 1039 00       		.sleb128 0
 5342 103a 79       		.byte	0x79
 5343 103b 00       		.sleb128 0
 5344 103c 22       		.byte	0x22
 5345 103d 08       		.byte	0x8
 5346 103e C0       		.byte	0xc0
 5347 103f 1C       		.byte	0x1c
 5348 1040 1B       		.uleb128 0x1b
 5349 1041 01       		.byte	0x1
 5350 1042 51       		.byte	0x51
 5351 1043 02       		.byte	0x2
 5352 1044 75       		.byte	0x75
 5353 1045 00       		.sleb128 0
 5354 1046 00       		.byte	0
 5355 1047 1A       		.uleb128 0x1a
 5356 1048 82040000 		.4byte	.LVL103
 5357 104c 0A190000 		.4byte	0x190a
 5358 1050 67100000 		.4byte	0x1067
 5359 1054 1B       		.uleb128 0x1b
 5360 1055 01       		.byte	0x1
 5361 1056 52       		.byte	0x52
ARM GAS  C:\Users\Elis\AppData\Local\Temp\ccGbXKEy.s 			page 96


 5362 1057 08       		.byte	0x8
 5363 1058 91       		.byte	0x91
 5364 1059 00       		.sleb128 0
 5365 105a 79       		.byte	0x79
 5366 105b 00       		.sleb128 0
 5367 105c 22       		.byte	0x22
 5368 105d 08       		.byte	0x8
 5369 105e C0       		.byte	0xc0
 5370 105f 1C       		.byte	0x1c
 5371 1060 1B       		.uleb128 0x1b
 5372 1061 01       		.byte	0x1
 5373 1062 51       		.byte	0x51
 5374 1063 02       		.byte	0x2
 5375 1064 75       		.byte	0x75
 5376 1065 00       		.sleb128 0
 5377 1066 00       		.byte	0
 5378 1067 1A       		.uleb128 0x1a
 5379 1068 A8040000 		.4byte	.LVL104
 5380 106c 0A190000 		.4byte	0x190a
 5381 1070 87100000 		.4byte	0x1087
 5382 1074 1B       		.uleb128 0x1b
 5383 1075 01       		.byte	0x1
 5384 1076 52       		.byte	0x52
 5385 1077 08       		.byte	0x8
 5386 1078 91       		.byte	0x91
 5387 1079 00       		.sleb128 0
 5388 107a 79       		.byte	0x79
 5389 107b 00       		.sleb128 0
 5390 107c 22       		.byte	0x22
 5391 107d 08       		.byte	0x8
 5392 107e C0       		.byte	0xc0
 5393 107f 1C       		.byte	0x1c
 5394 1080 1B       		.uleb128 0x1b
 5395 1081 01       		.byte	0x1
 5396 1082 51       		.byte	0x51
 5397 1083 02       		.byte	0x2
 5398 1084 75       		.byte	0x75
 5399 1085 00       		.sleb128 0
 5400 1086 00       		.byte	0
 5401 1087 1A       		.uleb128 0x1a
 5402 1088 CE040000 		.4byte	.LVL105
 5403 108c 0A190000 		.4byte	0x190a
 5404 1090 A7100000 		.4byte	0x10a7
 5405 1094 1B       		.uleb128 0x1b
 5406 1095 01       		.byte	0x1
 5407 1096 52       		.byte	0x52
 5408 1097 08       		.byte	0x8
 5409 1098 91       		.byte	0x91
 5410 1099 00       		.sleb128 0
 5411 109a 79       		.byte	0x79
 5412 109b 00       		.sleb128 0
 5413 109c 22       		.byte	0x22
 5414 109d 08       		.byte	0x8
 5415 109e C0       		.byte	0xc0
 5416 109f 1C       		.byte	0x1c
 5417 10a0 1B       		.uleb128 0x1b
 5418 10a1 01       		.byte	0x1
ARM GAS  C:\Users\Elis\AppData\Local\Temp\ccGbXKEy.s 			page 97


 5419 10a2 51       		.byte	0x51
 5420 10a3 02       		.byte	0x2
 5421 10a4 75       		.byte	0x75
 5422 10a5 00       		.sleb128 0
 5423 10a6 00       		.byte	0
 5424 10a7 1A       		.uleb128 0x1a
 5425 10a8 F4040000 		.4byte	.LVL106
 5426 10ac 0A190000 		.4byte	0x190a
 5427 10b0 C7100000 		.4byte	0x10c7
 5428 10b4 1B       		.uleb128 0x1b
 5429 10b5 01       		.byte	0x1
 5430 10b6 52       		.byte	0x52
 5431 10b7 08       		.byte	0x8
 5432 10b8 91       		.byte	0x91
 5433 10b9 00       		.sleb128 0
 5434 10ba 79       		.byte	0x79
 5435 10bb 00       		.sleb128 0
 5436 10bc 22       		.byte	0x22
 5437 10bd 08       		.byte	0x8
 5438 10be C0       		.byte	0xc0
 5439 10bf 1C       		.byte	0x1c
 5440 10c0 1B       		.uleb128 0x1b
 5441 10c1 01       		.byte	0x1
 5442 10c2 51       		.byte	0x51
 5443 10c3 02       		.byte	0x2
 5444 10c4 75       		.byte	0x75
 5445 10c5 00       		.sleb128 0
 5446 10c6 00       		.byte	0
 5447 10c7 1A       		.uleb128 0x1a
 5448 10c8 1A050000 		.4byte	.LVL107
 5449 10cc 0A190000 		.4byte	0x190a
 5450 10d0 E7100000 		.4byte	0x10e7
 5451 10d4 1B       		.uleb128 0x1b
 5452 10d5 01       		.byte	0x1
 5453 10d6 52       		.byte	0x52
 5454 10d7 08       		.byte	0x8
 5455 10d8 91       		.byte	0x91
 5456 10d9 00       		.sleb128 0
 5457 10da 79       		.byte	0x79
 5458 10db 00       		.sleb128 0
 5459 10dc 22       		.byte	0x22
 5460 10dd 08       		.byte	0x8
 5461 10de C0       		.byte	0xc0
 5462 10df 1C       		.byte	0x1c
 5463 10e0 1B       		.uleb128 0x1b
 5464 10e1 01       		.byte	0x1
 5465 10e2 51       		.byte	0x51
 5466 10e3 02       		.byte	0x2
 5467 10e4 75       		.byte	0x75
 5468 10e5 00       		.sleb128 0
 5469 10e6 00       		.byte	0
 5470 10e7 1A       		.uleb128 0x1a
 5471 10e8 3E050000 		.4byte	.LVL108
 5472 10ec 0A190000 		.4byte	0x190a
 5473 10f0 07110000 		.4byte	0x1107
 5474 10f4 1B       		.uleb128 0x1b
 5475 10f5 01       		.byte	0x1
ARM GAS  C:\Users\Elis\AppData\Local\Temp\ccGbXKEy.s 			page 98


 5476 10f6 52       		.byte	0x52
 5477 10f7 08       		.byte	0x8
 5478 10f8 91       		.byte	0x91
 5479 10f9 00       		.sleb128 0
 5480 10fa 79       		.byte	0x79
 5481 10fb 00       		.sleb128 0
 5482 10fc 22       		.byte	0x22
 5483 10fd 08       		.byte	0x8
 5484 10fe C0       		.byte	0xc0
 5485 10ff 1C       		.byte	0x1c
 5486 1100 1B       		.uleb128 0x1b
 5487 1101 01       		.byte	0x1
 5488 1102 51       		.byte	0x51
 5489 1103 02       		.byte	0x2
 5490 1104 75       		.byte	0x75
 5491 1105 00       		.sleb128 0
 5492 1106 00       		.byte	0
 5493 1107 1A       		.uleb128 0x1a
 5494 1108 64050000 		.4byte	.LVL109
 5495 110c 0A190000 		.4byte	0x190a
 5496 1110 27110000 		.4byte	0x1127
 5497 1114 1B       		.uleb128 0x1b
 5498 1115 01       		.byte	0x1
 5499 1116 52       		.byte	0x52
 5500 1117 08       		.byte	0x8
 5501 1118 91       		.byte	0x91
 5502 1119 00       		.sleb128 0
 5503 111a 79       		.byte	0x79
 5504 111b 00       		.sleb128 0
 5505 111c 22       		.byte	0x22
 5506 111d 08       		.byte	0x8
 5507 111e C0       		.byte	0xc0
 5508 111f 1C       		.byte	0x1c
 5509 1120 1B       		.uleb128 0x1b
 5510 1121 01       		.byte	0x1
 5511 1122 51       		.byte	0x51
 5512 1123 02       		.byte	0x2
 5513 1124 75       		.byte	0x75
 5514 1125 00       		.sleb128 0
 5515 1126 00       		.byte	0
 5516 1127 1A       		.uleb128 0x1a
 5517 1128 88050000 		.4byte	.LVL110
 5518 112c 0A190000 		.4byte	0x190a
 5519 1130 47110000 		.4byte	0x1147
 5520 1134 1B       		.uleb128 0x1b
 5521 1135 01       		.byte	0x1
 5522 1136 52       		.byte	0x52
 5523 1137 08       		.byte	0x8
 5524 1138 91       		.byte	0x91
 5525 1139 00       		.sleb128 0
 5526 113a 79       		.byte	0x79
 5527 113b 00       		.sleb128 0
 5528 113c 22       		.byte	0x22
 5529 113d 08       		.byte	0x8
 5530 113e C0       		.byte	0xc0
 5531 113f 1C       		.byte	0x1c
 5532 1140 1B       		.uleb128 0x1b
ARM GAS  C:\Users\Elis\AppData\Local\Temp\ccGbXKEy.s 			page 99


 5533 1141 01       		.byte	0x1
 5534 1142 51       		.byte	0x51
 5535 1143 02       		.byte	0x2
 5536 1144 75       		.byte	0x75
 5537 1145 00       		.sleb128 0
 5538 1146 00       		.byte	0
 5539 1147 1A       		.uleb128 0x1a
 5540 1148 AE050000 		.4byte	.LVL111
 5541 114c 0A190000 		.4byte	0x190a
 5542 1150 67110000 		.4byte	0x1167
 5543 1154 1B       		.uleb128 0x1b
 5544 1155 01       		.byte	0x1
 5545 1156 52       		.byte	0x52
 5546 1157 08       		.byte	0x8
 5547 1158 91       		.byte	0x91
 5548 1159 00       		.sleb128 0
 5549 115a 79       		.byte	0x79
 5550 115b 00       		.sleb128 0
 5551 115c 22       		.byte	0x22
 5552 115d 08       		.byte	0x8
 5553 115e C0       		.byte	0xc0
 5554 115f 1C       		.byte	0x1c
 5555 1160 1B       		.uleb128 0x1b
 5556 1161 01       		.byte	0x1
 5557 1162 51       		.byte	0x51
 5558 1163 02       		.byte	0x2
 5559 1164 75       		.byte	0x75
 5560 1165 00       		.sleb128 0
 5561 1166 00       		.byte	0
 5562 1167 1A       		.uleb128 0x1a
 5563 1168 D4050000 		.4byte	.LVL112
 5564 116c 0A190000 		.4byte	0x190a
 5565 1170 87110000 		.4byte	0x1187
 5566 1174 1B       		.uleb128 0x1b
 5567 1175 01       		.byte	0x1
 5568 1176 52       		.byte	0x52
 5569 1177 08       		.byte	0x8
 5570 1178 91       		.byte	0x91
 5571 1179 00       		.sleb128 0
 5572 117a 79       		.byte	0x79
 5573 117b 00       		.sleb128 0
 5574 117c 22       		.byte	0x22
 5575 117d 08       		.byte	0x8
 5576 117e C0       		.byte	0xc0
 5577 117f 1C       		.byte	0x1c
 5578 1180 1B       		.uleb128 0x1b
 5579 1181 01       		.byte	0x1
 5580 1182 51       		.byte	0x51
 5581 1183 02       		.byte	0x2
 5582 1184 75       		.byte	0x75
 5583 1185 00       		.sleb128 0
 5584 1186 00       		.byte	0
 5585 1187 1A       		.uleb128 0x1a
 5586 1188 FA050000 		.4byte	.LVL113
 5587 118c 0A190000 		.4byte	0x190a
 5588 1190 A7110000 		.4byte	0x11a7
 5589 1194 1B       		.uleb128 0x1b
ARM GAS  C:\Users\Elis\AppData\Local\Temp\ccGbXKEy.s 			page 100


 5590 1195 01       		.byte	0x1
 5591 1196 52       		.byte	0x52
 5592 1197 08       		.byte	0x8
 5593 1198 91       		.byte	0x91
 5594 1199 00       		.sleb128 0
 5595 119a 79       		.byte	0x79
 5596 119b 00       		.sleb128 0
 5597 119c 22       		.byte	0x22
 5598 119d 08       		.byte	0x8
 5599 119e C0       		.byte	0xc0
 5600 119f 1C       		.byte	0x1c
 5601 11a0 1B       		.uleb128 0x1b
 5602 11a1 01       		.byte	0x1
 5603 11a2 51       		.byte	0x51
 5604 11a3 02       		.byte	0x2
 5605 11a4 75       		.byte	0x75
 5606 11a5 00       		.sleb128 0
 5607 11a6 00       		.byte	0
 5608 11a7 1A       		.uleb128 0x1a
 5609 11a8 20060000 		.4byte	.LVL114
 5610 11ac 0A190000 		.4byte	0x190a
 5611 11b0 C7110000 		.4byte	0x11c7
 5612 11b4 1B       		.uleb128 0x1b
 5613 11b5 01       		.byte	0x1
 5614 11b6 52       		.byte	0x52
 5615 11b7 08       		.byte	0x8
 5616 11b8 91       		.byte	0x91
 5617 11b9 00       		.sleb128 0
 5618 11ba 79       		.byte	0x79
 5619 11bb 00       		.sleb128 0
 5620 11bc 22       		.byte	0x22
 5621 11bd 08       		.byte	0x8
 5622 11be C0       		.byte	0xc0
 5623 11bf 1C       		.byte	0x1c
 5624 11c0 1B       		.uleb128 0x1b
 5625 11c1 01       		.byte	0x1
 5626 11c2 51       		.byte	0x51
 5627 11c3 02       		.byte	0x2
 5628 11c4 75       		.byte	0x75
 5629 11c5 00       		.sleb128 0
 5630 11c6 00       		.byte	0
 5631 11c7 1A       		.uleb128 0x1a
 5632 11c8 46060000 		.4byte	.LVL115
 5633 11cc 0A190000 		.4byte	0x190a
 5634 11d0 E7110000 		.4byte	0x11e7
 5635 11d4 1B       		.uleb128 0x1b
 5636 11d5 01       		.byte	0x1
 5637 11d6 52       		.byte	0x52
 5638 11d7 08       		.byte	0x8
 5639 11d8 91       		.byte	0x91
 5640 11d9 00       		.sleb128 0
 5641 11da 79       		.byte	0x79
 5642 11db 00       		.sleb128 0
 5643 11dc 22       		.byte	0x22
 5644 11dd 08       		.byte	0x8
 5645 11de C0       		.byte	0xc0
 5646 11df 1C       		.byte	0x1c
ARM GAS  C:\Users\Elis\AppData\Local\Temp\ccGbXKEy.s 			page 101


 5647 11e0 1B       		.uleb128 0x1b
 5648 11e1 01       		.byte	0x1
 5649 11e2 51       		.byte	0x51
 5650 11e3 02       		.byte	0x2
 5651 11e4 75       		.byte	0x75
 5652 11e5 00       		.sleb128 0
 5653 11e6 00       		.byte	0
 5654 11e7 1A       		.uleb128 0x1a
 5655 11e8 6C060000 		.4byte	.LVL116
 5656 11ec 0A190000 		.4byte	0x190a
 5657 11f0 07120000 		.4byte	0x1207
 5658 11f4 1B       		.uleb128 0x1b
 5659 11f5 01       		.byte	0x1
 5660 11f6 52       		.byte	0x52
 5661 11f7 08       		.byte	0x8
 5662 11f8 91       		.byte	0x91
 5663 11f9 00       		.sleb128 0
 5664 11fa 79       		.byte	0x79
 5665 11fb 00       		.sleb128 0
 5666 11fc 22       		.byte	0x22
 5667 11fd 08       		.byte	0x8
 5668 11fe C0       		.byte	0xc0
 5669 11ff 1C       		.byte	0x1c
 5670 1200 1B       		.uleb128 0x1b
 5671 1201 01       		.byte	0x1
 5672 1202 51       		.byte	0x51
 5673 1203 02       		.byte	0x2
 5674 1204 75       		.byte	0x75
 5675 1205 00       		.sleb128 0
 5676 1206 00       		.byte	0
 5677 1207 1A       		.uleb128 0x1a
 5678 1208 92060000 		.4byte	.LVL117
 5679 120c 0A190000 		.4byte	0x190a
 5680 1210 27120000 		.4byte	0x1227
 5681 1214 1B       		.uleb128 0x1b
 5682 1215 01       		.byte	0x1
 5683 1216 52       		.byte	0x52
 5684 1217 08       		.byte	0x8
 5685 1218 91       		.byte	0x91
 5686 1219 00       		.sleb128 0
 5687 121a 79       		.byte	0x79
 5688 121b 00       		.sleb128 0
 5689 121c 22       		.byte	0x22
 5690 121d 08       		.byte	0x8
 5691 121e C0       		.byte	0xc0
 5692 121f 1C       		.byte	0x1c
 5693 1220 1B       		.uleb128 0x1b
 5694 1221 01       		.byte	0x1
 5695 1222 51       		.byte	0x51
 5696 1223 02       		.byte	0x2
 5697 1224 75       		.byte	0x75
 5698 1225 00       		.sleb128 0
 5699 1226 00       		.byte	0
 5700 1227 1A       		.uleb128 0x1a
 5701 1228 5E070000 		.4byte	.LVL118
 5702 122c 0A190000 		.4byte	0x190a
 5703 1230 47120000 		.4byte	0x1247
ARM GAS  C:\Users\Elis\AppData\Local\Temp\ccGbXKEy.s 			page 102


 5704 1234 1B       		.uleb128 0x1b
 5705 1235 01       		.byte	0x1
 5706 1236 52       		.byte	0x52
 5707 1237 08       		.byte	0x8
 5708 1238 91       		.byte	0x91
 5709 1239 00       		.sleb128 0
 5710 123a 79       		.byte	0x79
 5711 123b 00       		.sleb128 0
 5712 123c 22       		.byte	0x22
 5713 123d 08       		.byte	0x8
 5714 123e C0       		.byte	0xc0
 5715 123f 1C       		.byte	0x1c
 5716 1240 1B       		.uleb128 0x1b
 5717 1241 01       		.byte	0x1
 5718 1242 51       		.byte	0x51
 5719 1243 02       		.byte	0x2
 5720 1244 75       		.byte	0x75
 5721 1245 00       		.sleb128 0
 5722 1246 00       		.byte	0
 5723 1247 1A       		.uleb128 0x1a
 5724 1248 84070000 		.4byte	.LVL119
 5725 124c 0A190000 		.4byte	0x190a
 5726 1250 67120000 		.4byte	0x1267
 5727 1254 1B       		.uleb128 0x1b
 5728 1255 01       		.byte	0x1
 5729 1256 52       		.byte	0x52
 5730 1257 08       		.byte	0x8
 5731 1258 91       		.byte	0x91
 5732 1259 00       		.sleb128 0
 5733 125a 79       		.byte	0x79
 5734 125b 00       		.sleb128 0
 5735 125c 22       		.byte	0x22
 5736 125d 08       		.byte	0x8
 5737 125e C0       		.byte	0xc0
 5738 125f 1C       		.byte	0x1c
 5739 1260 1B       		.uleb128 0x1b
 5740 1261 01       		.byte	0x1
 5741 1262 51       		.byte	0x51
 5742 1263 02       		.byte	0x2
 5743 1264 75       		.byte	0x75
 5744 1265 00       		.sleb128 0
 5745 1266 00       		.byte	0
 5746 1267 1A       		.uleb128 0x1a
 5747 1268 A8070000 		.4byte	.LVL120
 5748 126c 0A190000 		.4byte	0x190a
 5749 1270 87120000 		.4byte	0x1287
 5750 1274 1B       		.uleb128 0x1b
 5751 1275 01       		.byte	0x1
 5752 1276 52       		.byte	0x52
 5753 1277 08       		.byte	0x8
 5754 1278 91       		.byte	0x91
 5755 1279 00       		.sleb128 0
 5756 127a 79       		.byte	0x79
 5757 127b 00       		.sleb128 0
 5758 127c 22       		.byte	0x22
 5759 127d 08       		.byte	0x8
 5760 127e C0       		.byte	0xc0
ARM GAS  C:\Users\Elis\AppData\Local\Temp\ccGbXKEy.s 			page 103


 5761 127f 1C       		.byte	0x1c
 5762 1280 1B       		.uleb128 0x1b
 5763 1281 01       		.byte	0x1
 5764 1282 51       		.byte	0x51
 5765 1283 02       		.byte	0x2
 5766 1284 75       		.byte	0x75
 5767 1285 00       		.sleb128 0
 5768 1286 00       		.byte	0
 5769 1287 1A       		.uleb128 0x1a
 5770 1288 CE070000 		.4byte	.LVL121
 5771 128c 0A190000 		.4byte	0x190a
 5772 1290 A7120000 		.4byte	0x12a7
 5773 1294 1B       		.uleb128 0x1b
 5774 1295 01       		.byte	0x1
 5775 1296 52       		.byte	0x52
 5776 1297 08       		.byte	0x8
 5777 1298 91       		.byte	0x91
 5778 1299 00       		.sleb128 0
 5779 129a 79       		.byte	0x79
 5780 129b 00       		.sleb128 0
 5781 129c 22       		.byte	0x22
 5782 129d 08       		.byte	0x8
 5783 129e C0       		.byte	0xc0
 5784 129f 1C       		.byte	0x1c
 5785 12a0 1B       		.uleb128 0x1b
 5786 12a1 01       		.byte	0x1
 5787 12a2 51       		.byte	0x51
 5788 12a3 02       		.byte	0x2
 5789 12a4 75       		.byte	0x75
 5790 12a5 00       		.sleb128 0
 5791 12a6 00       		.byte	0
 5792 12a7 1A       		.uleb128 0x1a
 5793 12a8 F4070000 		.4byte	.LVL122
 5794 12ac 0A190000 		.4byte	0x190a
 5795 12b0 C7120000 		.4byte	0x12c7
 5796 12b4 1B       		.uleb128 0x1b
 5797 12b5 01       		.byte	0x1
 5798 12b6 52       		.byte	0x52
 5799 12b7 08       		.byte	0x8
 5800 12b8 91       		.byte	0x91
 5801 12b9 00       		.sleb128 0
 5802 12ba 79       		.byte	0x79
 5803 12bb 00       		.sleb128 0
 5804 12bc 22       		.byte	0x22
 5805 12bd 08       		.byte	0x8
 5806 12be C0       		.byte	0xc0
 5807 12bf 1C       		.byte	0x1c
 5808 12c0 1B       		.uleb128 0x1b
 5809 12c1 01       		.byte	0x1
 5810 12c2 51       		.byte	0x51
 5811 12c3 02       		.byte	0x2
 5812 12c4 75       		.byte	0x75
 5813 12c5 00       		.sleb128 0
 5814 12c6 00       		.byte	0
 5815 12c7 1A       		.uleb128 0x1a
 5816 12c8 1A080000 		.4byte	.LVL123
 5817 12cc 0A190000 		.4byte	0x190a
ARM GAS  C:\Users\Elis\AppData\Local\Temp\ccGbXKEy.s 			page 104


 5818 12d0 E7120000 		.4byte	0x12e7
 5819 12d4 1B       		.uleb128 0x1b
 5820 12d5 01       		.byte	0x1
 5821 12d6 52       		.byte	0x52
 5822 12d7 08       		.byte	0x8
 5823 12d8 91       		.byte	0x91
 5824 12d9 00       		.sleb128 0
 5825 12da 79       		.byte	0x79
 5826 12db 00       		.sleb128 0
 5827 12dc 22       		.byte	0x22
 5828 12dd 08       		.byte	0x8
 5829 12de C0       		.byte	0xc0
 5830 12df 1C       		.byte	0x1c
 5831 12e0 1B       		.uleb128 0x1b
 5832 12e1 01       		.byte	0x1
 5833 12e2 51       		.byte	0x51
 5834 12e3 02       		.byte	0x2
 5835 12e4 75       		.byte	0x75
 5836 12e5 00       		.sleb128 0
 5837 12e6 00       		.byte	0
 5838 12e7 1A       		.uleb128 0x1a
 5839 12e8 40080000 		.4byte	.LVL124
 5840 12ec 0A190000 		.4byte	0x190a
 5841 12f0 07130000 		.4byte	0x1307
 5842 12f4 1B       		.uleb128 0x1b
 5843 12f5 01       		.byte	0x1
 5844 12f6 52       		.byte	0x52
 5845 12f7 08       		.byte	0x8
 5846 12f8 91       		.byte	0x91
 5847 12f9 00       		.sleb128 0
 5848 12fa 79       		.byte	0x79
 5849 12fb 00       		.sleb128 0
 5850 12fc 22       		.byte	0x22
 5851 12fd 08       		.byte	0x8
 5852 12fe C0       		.byte	0xc0
 5853 12ff 1C       		.byte	0x1c
 5854 1300 1B       		.uleb128 0x1b
 5855 1301 01       		.byte	0x1
 5856 1302 51       		.byte	0x51
 5857 1303 02       		.byte	0x2
 5858 1304 75       		.byte	0x75
 5859 1305 00       		.sleb128 0
 5860 1306 00       		.byte	0
 5861 1307 1A       		.uleb128 0x1a
 5862 1308 66080000 		.4byte	.LVL125
 5863 130c 0A190000 		.4byte	0x190a
 5864 1310 27130000 		.4byte	0x1327
 5865 1314 1B       		.uleb128 0x1b
 5866 1315 01       		.byte	0x1
 5867 1316 52       		.byte	0x52
 5868 1317 08       		.byte	0x8
 5869 1318 91       		.byte	0x91
 5870 1319 00       		.sleb128 0
 5871 131a 79       		.byte	0x79
 5872 131b 00       		.sleb128 0
 5873 131c 22       		.byte	0x22
 5874 131d 08       		.byte	0x8
ARM GAS  C:\Users\Elis\AppData\Local\Temp\ccGbXKEy.s 			page 105


 5875 131e C0       		.byte	0xc0
 5876 131f 1C       		.byte	0x1c
 5877 1320 1B       		.uleb128 0x1b
 5878 1321 01       		.byte	0x1
 5879 1322 51       		.byte	0x51
 5880 1323 02       		.byte	0x2
 5881 1324 75       		.byte	0x75
 5882 1325 00       		.sleb128 0
 5883 1326 00       		.byte	0
 5884 1327 1A       		.uleb128 0x1a
 5885 1328 8C080000 		.4byte	.LVL126
 5886 132c 0A190000 		.4byte	0x190a
 5887 1330 47130000 		.4byte	0x1347
 5888 1334 1B       		.uleb128 0x1b
 5889 1335 01       		.byte	0x1
 5890 1336 52       		.byte	0x52
 5891 1337 08       		.byte	0x8
 5892 1338 91       		.byte	0x91
 5893 1339 00       		.sleb128 0
 5894 133a 79       		.byte	0x79
 5895 133b 00       		.sleb128 0
 5896 133c 22       		.byte	0x22
 5897 133d 08       		.byte	0x8
 5898 133e C0       		.byte	0xc0
 5899 133f 1C       		.byte	0x1c
 5900 1340 1B       		.uleb128 0x1b
 5901 1341 01       		.byte	0x1
 5902 1342 51       		.byte	0x51
 5903 1343 02       		.byte	0x2
 5904 1344 75       		.byte	0x75
 5905 1345 00       		.sleb128 0
 5906 1346 00       		.byte	0
 5907 1347 1A       		.uleb128 0x1a
 5908 1348 B2080000 		.4byte	.LVL127
 5909 134c 0A190000 		.4byte	0x190a
 5910 1350 67130000 		.4byte	0x1367
 5911 1354 1B       		.uleb128 0x1b
 5912 1355 01       		.byte	0x1
 5913 1356 52       		.byte	0x52
 5914 1357 08       		.byte	0x8
 5915 1358 91       		.byte	0x91
 5916 1359 00       		.sleb128 0
 5917 135a 79       		.byte	0x79
 5918 135b 00       		.sleb128 0
 5919 135c 22       		.byte	0x22
 5920 135d 08       		.byte	0x8
 5921 135e C0       		.byte	0xc0
 5922 135f 1C       		.byte	0x1c
 5923 1360 1B       		.uleb128 0x1b
 5924 1361 01       		.byte	0x1
 5925 1362 51       		.byte	0x51
 5926 1363 02       		.byte	0x2
 5927 1364 75       		.byte	0x75
 5928 1365 00       		.sleb128 0
 5929 1366 00       		.byte	0
 5930 1367 1A       		.uleb128 0x1a
 5931 1368 D6080000 		.4byte	.LVL128
ARM GAS  C:\Users\Elis\AppData\Local\Temp\ccGbXKEy.s 			page 106


 5932 136c 0A190000 		.4byte	0x190a
 5933 1370 87130000 		.4byte	0x1387
 5934 1374 1B       		.uleb128 0x1b
 5935 1375 01       		.byte	0x1
 5936 1376 52       		.byte	0x52
 5937 1377 08       		.byte	0x8
 5938 1378 91       		.byte	0x91
 5939 1379 00       		.sleb128 0
 5940 137a 79       		.byte	0x79
 5941 137b 00       		.sleb128 0
 5942 137c 22       		.byte	0x22
 5943 137d 08       		.byte	0x8
 5944 137e C0       		.byte	0xc0
 5945 137f 1C       		.byte	0x1c
 5946 1380 1B       		.uleb128 0x1b
 5947 1381 01       		.byte	0x1
 5948 1382 51       		.byte	0x51
 5949 1383 02       		.byte	0x2
 5950 1384 75       		.byte	0x75
 5951 1385 00       		.sleb128 0
 5952 1386 00       		.byte	0
 5953 1387 1A       		.uleb128 0x1a
 5954 1388 0C090000 		.4byte	.LVL129
 5955 138c 69180000 		.4byte	0x1869
 5956 1390 A3130000 		.4byte	0x13a3
 5957 1394 1B       		.uleb128 0x1b
 5958 1395 01       		.byte	0x1
 5959 1396 51       		.byte	0x51
 5960 1397 04       		.byte	0x4
 5961 1398 91       		.byte	0x91
 5962 1399 C87E     		.sleb128 -184
 5963 139b 06       		.byte	0x6
 5964 139c 1B       		.uleb128 0x1b
 5965 139d 01       		.byte	0x1
 5966 139e 50       		.byte	0x50
 5967 139f 02       		.byte	0x2
 5968 13a0 76       		.byte	0x76
 5969 13a1 00       		.sleb128 0
 5970 13a2 00       		.byte	0
 5971 13a3 1A       		.uleb128 0x1a
 5972 13a4 22090000 		.4byte	.LVL130
 5973 13a8 0A190000 		.4byte	0x190a
 5974 13ac BE130000 		.4byte	0x13be
 5975 13b0 1B       		.uleb128 0x1b
 5976 13b1 01       		.byte	0x1
 5977 13b2 52       		.byte	0x52
 5978 13b3 03       		.byte	0x3
 5979 13b4 91       		.byte	0x91
 5980 13b5 D47E     		.sleb128 -172
 5981 13b7 1B       		.uleb128 0x1b
 5982 13b8 01       		.byte	0x1
 5983 13b9 51       		.byte	0x51
 5984 13ba 02       		.byte	0x2
 5985 13bb 75       		.byte	0x75
 5986 13bc 00       		.sleb128 0
 5987 13bd 00       		.byte	0
 5988 13be 1A       		.uleb128 0x1a
ARM GAS  C:\Users\Elis\AppData\Local\Temp\ccGbXKEy.s 			page 107


 5989 13bf 56090000 		.4byte	.LVL131
 5990 13c3 69180000 		.4byte	0x1869
 5991 13c7 DA130000 		.4byte	0x13da
 5992 13cb 1B       		.uleb128 0x1b
 5993 13cc 01       		.byte	0x1
 5994 13cd 51       		.byte	0x51
 5995 13ce 04       		.byte	0x4
 5996 13cf 91       		.byte	0x91
 5997 13d0 CC7E     		.sleb128 -180
 5998 13d2 06       		.byte	0x6
 5999 13d3 1B       		.uleb128 0x1b
 6000 13d4 01       		.byte	0x1
 6001 13d5 50       		.byte	0x50
 6002 13d6 02       		.byte	0x2
 6003 13d7 75       		.byte	0x75
 6004 13d8 00       		.sleb128 0
 6005 13d9 00       		.byte	0
 6006 13da 1A       		.uleb128 0x1a
 6007 13db 6E090000 		.4byte	.LVL132
 6008 13df 0A190000 		.4byte	0x190a
 6009 13e3 F4130000 		.4byte	0x13f4
 6010 13e7 1B       		.uleb128 0x1b
 6011 13e8 01       		.byte	0x1
 6012 13e9 52       		.byte	0x52
 6013 13ea 03       		.byte	0x3
 6014 13eb 91       		.byte	0x91
 6015 13ec D47E     		.sleb128 -172
 6016 13ee 1B       		.uleb128 0x1b
 6017 13ef 01       		.byte	0x1
 6018 13f0 51       		.byte	0x51
 6019 13f1 01       		.byte	0x1
 6020 13f2 30       		.byte	0x30
 6021 13f3 00       		.byte	0
 6022 13f4 1C       		.uleb128 0x1c
 6023 13f5 78090000 		.4byte	.LVL133
 6024 13f9 D4170000 		.4byte	0x17d4
 6025 13fd 1B       		.uleb128 0x1b
 6026 13fe 01       		.byte	0x1
 6027 13ff 50       		.byte	0x50
 6028 1400 02       		.byte	0x2
 6029 1401 08       		.byte	0x8
 6030 1402 40       		.byte	0x40
 6031 1403 00       		.byte	0
 6032 1404 00       		.byte	0
 6033 1405 1F       		.uleb128 0x1f
 6034 1406 01       		.byte	0x1
 6035 1407 21010000 		.4byte	.LASF96
 6036 140b 01       		.byte	0x1
 6037 140c C802     		.2byte	0x2c8
 6038 140e 01       		.byte	0x1
 6039 140f 00000000 		.4byte	.LFB121
 6040 1413 5A030000 		.4byte	.LFE121
 6041 1417 20020000 		.4byte	.LLST15
 6042 141b 01       		.byte	0x1
 6043 141c 94140000 		.4byte	0x1494
 6044 1420 1A       		.uleb128 0x1a
 6045 1421 0C000000 		.4byte	.LVL136
ARM GAS  C:\Users\Elis\AppData\Local\Temp\ccGbXKEy.s 			page 108


 6046 1425 D4170000 		.4byte	0x17d4
 6047 1429 34140000 		.4byte	0x1434
 6048 142d 1B       		.uleb128 0x1b
 6049 142e 01       		.byte	0x1
 6050 142f 50       		.byte	0x50
 6051 1430 02       		.byte	0x2
 6052 1431 08       		.byte	0x8
 6053 1432 7F       		.byte	0x7f
 6054 1433 00       		.byte	0
 6055 1434 1A       		.uleb128 0x1a
 6056 1435 18000000 		.4byte	.LVL137
 6057 1439 54190000 		.4byte	0x1954
 6058 143d 4B140000 		.4byte	0x144b
 6059 1441 1B       		.uleb128 0x1b
 6060 1442 01       		.byte	0x1
 6061 1443 50       		.byte	0x50
 6062 1444 05       		.byte	0x5
 6063 1445 03       		.byte	0x3
 6064 1446 00000000 		.4byte	.LANCHOR0
 6065 144a 00       		.byte	0
 6066 144b 1A       		.uleb128 0x1a
 6067 144c 24000000 		.4byte	.LVL138
 6068 1450 54190000 		.4byte	0x1954
 6069 1454 62140000 		.4byte	0x1462
 6070 1458 1B       		.uleb128 0x1b
 6071 1459 01       		.byte	0x1
 6072 145a 50       		.byte	0x50
 6073 145b 05       		.byte	0x5
 6074 145c 03       		.byte	0x3
 6075 145d 00000000 		.4byte	.LANCHOR5
 6076 1461 00       		.byte	0
 6077 1462 1A       		.uleb128 0x1a
 6078 1463 30000000 		.4byte	.LVL139
 6079 1467 54190000 		.4byte	0x1954
 6080 146b 79140000 		.4byte	0x1479
 6081 146f 1B       		.uleb128 0x1b
 6082 1470 01       		.byte	0x1
 6083 1471 50       		.byte	0x50
 6084 1472 05       		.byte	0x5
 6085 1473 03       		.byte	0x3
 6086 1474 00000000 		.4byte	.LANCHOR12
 6087 1478 00       		.byte	0
 6088 1479 1D       		.uleb128 0x1d
 6089 147a 42000000 		.4byte	.LVL140
 6090 147e 68190000 		.4byte	0x1968
 6091 1482 1E       		.uleb128 0x1e
 6092 1483 5A030000 		.4byte	.LVL141
 6093 1487 01       		.byte	0x1
 6094 1488 D4170000 		.4byte	0x17d4
 6095 148c 1B       		.uleb128 0x1b
 6096 148d 01       		.byte	0x1
 6097 148e 50       		.byte	0x50
 6098 148f 02       		.byte	0x2
 6099 1490 08       		.byte	0x8
 6100 1491 40       		.byte	0x40
 6101 1492 00       		.byte	0
 6102 1493 00       		.byte	0
ARM GAS  C:\Users\Elis\AppData\Local\Temp\ccGbXKEy.s 			page 109


 6103 1494 19       		.uleb128 0x19
 6104 1495 60040000 		.4byte	.LASF97
 6105 1499 01       		.byte	0x1
 6106 149a 05       		.byte	0x5
 6107 149b 5D020000 		.4byte	0x25d
 6108 149f 05       		.byte	0x5
 6109 14a0 03       		.byte	0x3
 6110 14a1 00000000 		.4byte	background_p
 6111 14a5 19       		.uleb128 0x19
 6112 14a6 B4040000 		.4byte	.LASF98
 6113 14aa 01       		.byte	0x1
 6114 14ab 06       		.byte	0x6
 6115 14ac 5D020000 		.4byte	0x25d
 6116 14b0 05       		.byte	0x5
 6117 14b1 03       		.byte	0x3
 6118 14b2 00000000 		.4byte	home_p
 6119 14b6 19       		.uleb128 0x19
 6120 14b7 42000000 		.4byte	.LASF99
 6121 14bb 01       		.byte	0x1
 6122 14bc 07       		.byte	0x7
 6123 14bd 5D020000 		.4byte	0x25d
 6124 14c1 05       		.byte	0x5
 6125 14c2 03       		.byte	0x3
 6126 14c3 00000000 		.4byte	add_p
 6127 14c7 19       		.uleb128 0x19
 6128 14c8 AB020000 		.4byte	.LASF100
 6129 14cc 01       		.byte	0x1
 6130 14cd 08       		.byte	0x8
 6131 14ce 5D020000 		.4byte	0x25d
 6132 14d2 05       		.byte	0x5
 6133 14d3 03       		.byte	0x3
 6134 14d4 00000000 		.4byte	del_p
 6135 14d8 19       		.uleb128 0x19
 6136 14d9 70060000 		.4byte	.LASF101
 6137 14dd 01       		.byte	0x1
 6138 14de 09       		.byte	0x9
 6139 14df 5D020000 		.4byte	0x25d
 6140 14e3 05       		.byte	0x5
 6141 14e4 03       		.byte	0x3
 6142 14e5 00000000 		.4byte	back_p
 6143 14e9 19       		.uleb128 0x19
 6144 14ea 4F060000 		.4byte	.LASF102
 6145 14ee 01       		.byte	0x1
 6146 14ef 0D       		.byte	0xd
 6147 14f0 73020000 		.4byte	0x273
 6148 14f4 05       		.byte	0x5
 6149 14f5 03       		.byte	0x3
 6150 14f6 00000000 		.4byte	mainContainer_c
 6151 14fa 20       		.uleb128 0x20
 6152 14fb BB040000 		.4byte	.LASF103
 6153 14ff 10       		.byte	0x10
 6154 1500 9806     		.2byte	0x698
 6155 1502 DE000000 		.4byte	0xde
 6156 1506 01       		.byte	0x1
 6157 1507 01       		.byte	0x1
 6158 1508 21       		.uleb128 0x21
 6159 1509 2C030000 		.4byte	.LASF104
ARM GAS  C:\Users\Elis\AppData\Local\Temp\ccGbXKEy.s 			page 110


 6160 150d 07       		.byte	0x7
 6161 150e 54       		.byte	0x54
 6162 150f 3B030000 		.4byte	0x33b
 6163 1513 01       		.byte	0x1
 6164 1514 01       		.byte	0x1
 6165 1515 21       		.uleb128 0x21
 6166 1516 B1020000 		.4byte	.LASF105
 6167 151a 0B       		.byte	0xb
 6168 151b 43       		.byte	0x43
 6169 151c 24050000 		.4byte	0x524
 6170 1520 01       		.byte	0x1
 6171 1521 01       		.byte	0x1
 6172 1522 21       		.uleb128 0x21
 6173 1523 15000000 		.4byte	.LASF106
 6174 1527 11       		.byte	0x11
 6175 1528 0D       		.byte	0xd
 6176 1529 73020000 		.4byte	0x273
 6177 152d 01       		.byte	0x1
 6178 152e 01       		.byte	0x1
 6179 152f 21       		.uleb128 0x21
 6180 1530 5F060000 		.4byte	.LASF107
 6181 1534 11       		.byte	0x11
 6182 1535 0E       		.byte	0xe
 6183 1536 73020000 		.4byte	0x273
 6184 153a 01       		.byte	0x1
 6185 153b 01       		.byte	0x1
 6186 153c 21       		.uleb128 0x21
 6187 153d C8040000 		.4byte	.LASF108
 6188 1541 11       		.byte	0x11
 6189 1542 0F       		.byte	0xf
 6190 1543 73020000 		.4byte	0x273
 6191 1547 01       		.byte	0x1
 6192 1548 01       		.byte	0x1
 6193 1549 21       		.uleb128 0x21
 6194 154a 3D000000 		.4byte	.LASF109
 6195 154e 11       		.byte	0x11
 6196 154f 10       		.byte	0x10
 6197 1550 73020000 		.4byte	0x273
 6198 1554 01       		.byte	0x1
 6199 1555 01       		.byte	0x1
 6200 1556 21       		.uleb128 0x21
 6201 1557 2D020000 		.4byte	.LASF110
 6202 155b 11       		.byte	0x11
 6203 155c 11       		.byte	0x11
 6204 155d 73020000 		.4byte	0x273
 6205 1561 01       		.byte	0x1
 6206 1562 01       		.byte	0x1
 6207 1563 21       		.uleb128 0x21
 6208 1564 C2020000 		.4byte	.LASF111
 6209 1568 11       		.byte	0x11
 6210 1569 12       		.byte	0x12
 6211 156a 73020000 		.4byte	0x273
 6212 156e 01       		.byte	0x1
 6213 156f 01       		.byte	0x1
 6214 1570 21       		.uleb128 0x21
 6215 1571 F0060000 		.4byte	.LASF112
 6216 1575 11       		.byte	0x11
ARM GAS  C:\Users\Elis\AppData\Local\Temp\ccGbXKEy.s 			page 111


 6217 1576 13       		.byte	0x13
 6218 1577 73020000 		.4byte	0x273
 6219 157b 01       		.byte	0x1
 6220 157c 01       		.byte	0x1
 6221 157d 21       		.uleb128 0x21
 6222 157e BD050000 		.4byte	.LASF113
 6223 1582 11       		.byte	0x11
 6224 1583 14       		.byte	0x14
 6225 1584 73020000 		.4byte	0x273
 6226 1588 01       		.byte	0x1
 6227 1589 01       		.byte	0x1
 6228 158a 21       		.uleb128 0x21
 6229 158b 1D040000 		.4byte	.LASF114
 6230 158f 11       		.byte	0x11
 6231 1590 15       		.byte	0x15
 6232 1591 73020000 		.4byte	0x273
 6233 1595 01       		.byte	0x1
 6234 1596 01       		.byte	0x1
 6235 1597 21       		.uleb128 0x21
 6236 1598 E1020000 		.4byte	.LASF115
 6237 159c 11       		.byte	0x11
 6238 159d 16       		.byte	0x16
 6239 159e 73020000 		.4byte	0x273
 6240 15a2 01       		.byte	0x1
 6241 15a3 01       		.byte	0x1
 6242 15a4 21       		.uleb128 0x21
 6243 15a5 45010000 		.4byte	.LASF116
 6244 15a9 11       		.byte	0x11
 6245 15aa 18       		.byte	0x18
 6246 15ab 73020000 		.4byte	0x273
 6247 15af 01       		.byte	0x1
 6248 15b0 01       		.byte	0x1
 6249 15b1 21       		.uleb128 0x21
 6250 15b2 CD040000 		.4byte	.LASF117
 6251 15b6 11       		.byte	0x11
 6252 15b7 19       		.byte	0x19
 6253 15b8 73020000 		.4byte	0x273
 6254 15bc 01       		.byte	0x1
 6255 15bd 01       		.byte	0x1
 6256 15be 21       		.uleb128 0x21
 6257 15bf F4050000 		.4byte	.LASF118
 6258 15c3 11       		.byte	0x11
 6259 15c4 1A       		.byte	0x1a
 6260 15c5 73020000 		.4byte	0x273
 6261 15c9 01       		.byte	0x1
 6262 15ca 01       		.byte	0x1
 6263 15cb 21       		.uleb128 0x21
 6264 15cc 7C040000 		.4byte	.LASF119
 6265 15d0 11       		.byte	0x11
 6266 15d1 1B       		.byte	0x1b
 6267 15d2 73020000 		.4byte	0x273
 6268 15d6 01       		.byte	0x1
 6269 15d7 01       		.byte	0x1
 6270 15d8 21       		.uleb128 0x21
 6271 15d9 22030000 		.4byte	.LASF120
 6272 15dd 11       		.byte	0x11
 6273 15de 1C       		.byte	0x1c
ARM GAS  C:\Users\Elis\AppData\Local\Temp\ccGbXKEy.s 			page 112


 6274 15df 73020000 		.4byte	0x273
 6275 15e3 01       		.byte	0x1
 6276 15e4 01       		.byte	0x1
 6277 15e5 21       		.uleb128 0x21
 6278 15e6 15020000 		.4byte	.LASF121
 6279 15ea 11       		.byte	0x11
 6280 15eb 1D       		.byte	0x1d
 6281 15ec 73020000 		.4byte	0x273
 6282 15f0 01       		.byte	0x1
 6283 15f1 01       		.byte	0x1
 6284 15f2 21       		.uleb128 0x21
 6285 15f3 48000000 		.4byte	.LASF122
 6286 15f7 11       		.byte	0x11
 6287 15f8 1E       		.byte	0x1e
 6288 15f9 73020000 		.4byte	0x273
 6289 15fd 01       		.byte	0x1
 6290 15fe 01       		.byte	0x1
 6291 15ff 21       		.uleb128 0x21
 6292 1600 D3060000 		.4byte	.LASF123
 6293 1604 11       		.byte	0x11
 6294 1605 1F       		.byte	0x1f
 6295 1606 73020000 		.4byte	0x273
 6296 160a 01       		.byte	0x1
 6297 160b 01       		.byte	0x1
 6298 160c 21       		.uleb128 0x21
 6299 160d 61050000 		.4byte	.LASF124
 6300 1611 11       		.byte	0x11
 6301 1612 20       		.byte	0x20
 6302 1613 73020000 		.4byte	0x273
 6303 1617 01       		.byte	0x1
 6304 1618 01       		.byte	0x1
 6305 1619 21       		.uleb128 0x21
 6306 161a EB030000 		.4byte	.LASF125
 6307 161e 11       		.byte	0x11
 6308 161f 21       		.byte	0x21
 6309 1620 73020000 		.4byte	0x273
 6310 1624 01       		.byte	0x1
 6311 1625 01       		.byte	0x1
 6312 1626 21       		.uleb128 0x21
 6313 1627 9C020000 		.4byte	.LASF126
 6314 162b 11       		.byte	0x11
 6315 162c 22       		.byte	0x22
 6316 162d 73020000 		.4byte	0x273
 6317 1631 01       		.byte	0x1
 6318 1632 01       		.byte	0x1
 6319 1633 21       		.uleb128 0x21
 6320 1634 65010000 		.4byte	.LASF127
 6321 1638 11       		.byte	0x11
 6322 1639 23       		.byte	0x23
 6323 163a 73020000 		.4byte	0x273
 6324 163e 01       		.byte	0x1
 6325 163f 01       		.byte	0x1
 6326 1640 21       		.uleb128 0x21
 6327 1641 10000000 		.4byte	.LASF128
 6328 1645 11       		.byte	0x11
 6329 1646 24       		.byte	0x24
 6330 1647 73020000 		.4byte	0x273
ARM GAS  C:\Users\Elis\AppData\Local\Temp\ccGbXKEy.s 			page 113


 6331 164b 01       		.byte	0x1
 6332 164c 01       		.byte	0x1
 6333 164d 21       		.uleb128 0x21
 6334 164e 0C060000 		.4byte	.LASF129
 6335 1652 11       		.byte	0x11
 6336 1653 25       		.byte	0x25
 6337 1654 73020000 		.4byte	0x273
 6338 1658 01       		.byte	0x1
 6339 1659 01       		.byte	0x1
 6340 165a 21       		.uleb128 0x21
 6341 165b FD020000 		.4byte	.LASF130
 6342 165f 11       		.byte	0x11
 6343 1660 26       		.byte	0x26
 6344 1661 73020000 		.4byte	0x273
 6345 1665 01       		.byte	0x1
 6346 1666 01       		.byte	0x1
 6347 1667 21       		.uleb128 0x21
 6348 1668 A5000000 		.4byte	.LASF131
 6349 166c 11       		.byte	0x11
 6350 166d 27       		.byte	0x27
 6351 166e 73020000 		.4byte	0x273
 6352 1672 01       		.byte	0x1
 6353 1673 01       		.byte	0x1
 6354 1674 21       		.uleb128 0x21
 6355 1675 27030000 		.4byte	.LASF132
 6356 1679 11       		.byte	0x11
 6357 167a 28       		.byte	0x28
 6358 167b 73020000 		.4byte	0x273
 6359 167f 01       		.byte	0x1
 6360 1680 01       		.byte	0x1
 6361 1681 21       		.uleb128 0x21
 6362 1682 DE060000 		.4byte	.LASF133
 6363 1686 11       		.byte	0x11
 6364 1687 29       		.byte	0x29
 6365 1688 73020000 		.4byte	0x273
 6366 168c 01       		.byte	0x1
 6367 168d 01       		.byte	0x1
 6368 168e 21       		.uleb128 0x21
 6369 168f 5C050000 		.4byte	.LASF134
 6370 1693 11       		.byte	0x11
 6371 1694 2A       		.byte	0x2a
 6372 1695 73020000 		.4byte	0x273
 6373 1699 01       		.byte	0x1
 6374 169a 01       		.byte	0x1
 6375 169b 21       		.uleb128 0x21
 6376 169c C7020000 		.4byte	.LASF135
 6377 16a0 11       		.byte	0x11
 6378 16a1 2B       		.byte	0x2b
 6379 16a2 73020000 		.4byte	0x273
 6380 16a6 01       		.byte	0x1
 6381 16a7 01       		.byte	0x1
 6382 16a8 21       		.uleb128 0x21
 6383 16a9 A6020000 		.4byte	.LASF136
 6384 16ad 11       		.byte	0x11
 6385 16ae 2C       		.byte	0x2c
 6386 16af 73020000 		.4byte	0x273
 6387 16b3 01       		.byte	0x1
ARM GAS  C:\Users\Elis\AppData\Local\Temp\ccGbXKEy.s 			page 114


 6388 16b4 01       		.byte	0x1
 6389 16b5 21       		.uleb128 0x21
 6390 16b6 AF040000 		.4byte	.LASF137
 6391 16ba 11       		.byte	0x11
 6392 16bb 2D       		.byte	0x2d
 6393 16bc 73020000 		.4byte	0x273
 6394 16c0 01       		.byte	0x1
 6395 16c1 01       		.byte	0x1
 6396 16c2 21       		.uleb128 0x21
 6397 16c3 56030000 		.4byte	.LASF138
 6398 16c7 11       		.byte	0x11
 6399 16c8 2E       		.byte	0x2e
 6400 16c9 73020000 		.4byte	0x273
 6401 16cd 01       		.byte	0x1
 6402 16ce 01       		.byte	0x1
 6403 16cf 21       		.uleb128 0x21
 6404 16d0 3A060000 		.4byte	.LASF139
 6405 16d4 11       		.byte	0x11
 6406 16d5 2F       		.byte	0x2f
 6407 16d6 73020000 		.4byte	0x273
 6408 16da 01       		.byte	0x1
 6409 16db 01       		.byte	0x1
 6410 16dc 21       		.uleb128 0x21
 6411 16dd 22020000 		.4byte	.LASF140
 6412 16e1 11       		.byte	0x11
 6413 16e2 30       		.byte	0x30
 6414 16e3 73020000 		.4byte	0x273
 6415 16e7 01       		.byte	0x1
 6416 16e8 01       		.byte	0x1
 6417 16e9 21       		.uleb128 0x21
 6418 16ea 94000000 		.4byte	.LASF141
 6419 16ee 11       		.byte	0x11
 6420 16ef 31       		.byte	0x31
 6421 16f0 73020000 		.4byte	0x273
 6422 16f4 01       		.byte	0x1
 6423 16f5 01       		.byte	0x1
 6424 16f6 21       		.uleb128 0x21
 6425 16f7 87010000 		.4byte	.LASF142
 6426 16fb 11       		.byte	0x11
 6427 16fc 32       		.byte	0x32
 6428 16fd 73020000 		.4byte	0x273
 6429 1701 01       		.byte	0x1
 6430 1702 01       		.byte	0x1
 6431 1703 21       		.uleb128 0x21
 6432 1704 4F040000 		.4byte	.LASF143
 6433 1708 11       		.byte	0x11
 6434 1709 33       		.byte	0x33
 6435 170a 73020000 		.4byte	0x273
 6436 170e 01       		.byte	0x1
 6437 170f 01       		.byte	0x1
 6438 1710 21       		.uleb128 0x21
 6439 1711 B5010000 		.4byte	.LASF144
 6440 1715 11       		.byte	0x11
 6441 1716 34       		.byte	0x34
 6442 1717 73020000 		.4byte	0x273
 6443 171b 01       		.byte	0x1
 6444 171c 01       		.byte	0x1
ARM GAS  C:\Users\Elis\AppData\Local\Temp\ccGbXKEy.s 			page 115


 6445 171d 21       		.uleb128 0x21
 6446 171e E7040000 		.4byte	.LASF145
 6447 1722 11       		.byte	0x11
 6448 1723 35       		.byte	0x35
 6449 1724 73020000 		.4byte	0x273
 6450 1728 01       		.byte	0x1
 6451 1729 01       		.byte	0x1
 6452 172a 22       		.uleb128 0x22
 6453 172b A1010000 		.4byte	.LASF146
 6454 172f 01       		.byte	0x1
 6455 1730 0E       		.byte	0xe
 6456 1731 73020000 		.4byte	0x273
 6457 1735 01       		.byte	0x1
 6458 1736 05       		.byte	0x5
 6459 1737 03       		.byte	0x3
 6460 1738 00000000 		.4byte	contacts_contacts_l
 6461 173c 22       		.uleb128 0x22
 6462 173d 1A000000 		.4byte	.LASF147
 6463 1741 01       		.byte	0x1
 6464 1742 0F       		.byte	0xf
 6465 1743 73020000 		.4byte	0x273
 6466 1747 01       		.byte	0x1
 6467 1748 05       		.byte	0x5
 6468 1749 03       		.byte	0x3
 6469 174a 00000000 		.4byte	home_contacts_b
 6470 174e 22       		.uleb128 0x22
 6471 174f F5060000 		.4byte	.LASF148
 6472 1753 01       		.byte	0x1
 6473 1754 10       		.byte	0x10
 6474 1755 73020000 		.4byte	0x273
 6475 1759 01       		.byte	0x1
 6476 175a 05       		.byte	0x5
 6477 175b 03       		.byte	0x3
 6478 175c 00000000 		.4byte	add_contacts_b
 6479 1760 22       		.uleb128 0x22
 6480 1761 B0060000 		.4byte	.LASF149
 6481 1765 01       		.byte	0x1
 6482 1766 11       		.byte	0x11
 6483 1767 73020000 		.4byte	0x273
 6484 176b 01       		.byte	0x1
 6485 176c 05       		.byte	0x5
 6486 176d 03       		.byte	0x3
 6487 176e 00000000 		.4byte	save_contacts_b
 6488 1772 22       		.uleb128 0x22
 6489 1773 72030000 		.4byte	.LASF150
 6490 1777 01       		.byte	0x1
 6491 1778 12       		.byte	0x12
 6492 1779 73020000 		.4byte	0x273
 6493 177d 01       		.byte	0x1
 6494 177e 05       		.byte	0x5
 6495 177f 03       		.byte	0x3
 6496 1780 00000000 		.4byte	delete_contacts_b
 6497 1784 22       		.uleb128 0x22
 6498 1785 D1050000 		.4byte	.LASF151
 6499 1789 01       		.byte	0x1
 6500 178a 13       		.byte	0x13
 6501 178b 73020000 		.4byte	0x273
ARM GAS  C:\Users\Elis\AppData\Local\Temp\ccGbXKEy.s 			page 116


 6502 178f 01       		.byte	0x1
 6503 1790 05       		.byte	0x5
 6504 1791 03       		.byte	0x3
 6505 1792 00000000 		.4byte	back_contacts_b
 6506 1796 22       		.uleb128 0x22
 6507 1797 71020000 		.4byte	.LASF152
 6508 179b 01       		.byte	0x1
 6509 179c 14       		.byte	0x14
 6510 179d 73020000 		.4byte	0x273
 6511 17a1 01       		.byte	0x1
 6512 17a2 05       		.byte	0x5
 6513 17a3 03       		.byte	0x3
 6514 17a4 00000000 		.4byte	telNum_contacts_lb
 6515 17a8 22       		.uleb128 0x22
 6516 17a9 90010000 		.4byte	.LASF153
 6517 17ad 01       		.byte	0x1
 6518 17ae 15       		.byte	0x15
 6519 17af 73020000 		.4byte	0x273
 6520 17b3 01       		.byte	0x1
 6521 17b4 05       		.byte	0x5
 6522 17b5 03       		.byte	0x3
 6523 17b6 00000000 		.4byte	name_contacts_lb
 6524 17ba 23       		.uleb128 0x23
 6525 17bb 01       		.byte	0x1
 6526 17bc C4010000 		.4byte	.LASF154
 6527 17c0 0B       		.byte	0xb
 6528 17c1 B6       		.byte	0xb6
 6529 17c2 01       		.byte	0x1
 6530 17c3 01       		.byte	0x1
 6531 17c4 CE170000 		.4byte	0x17ce
 6532 17c8 0F       		.uleb128 0xf
 6533 17c9 CE170000 		.4byte	0x17ce
 6534 17cd 00       		.byte	0
 6535 17ce 06       		.uleb128 0x6
 6536 17cf 04       		.byte	0x4
 6537 17d0 29050000 		.4byte	0x529
 6538 17d4 24       		.uleb128 0x24
 6539 17d5 01       		.byte	0x1
 6540 17d6 43020000 		.4byte	.LASF156
 6541 17da 12       		.byte	0x12
 6542 17db 7201     		.2byte	0x172
 6543 17dd 01       		.byte	0x1
 6544 17de B8000000 		.4byte	0xb8
 6545 17e2 01       		.byte	0x1
 6546 17e3 ED170000 		.4byte	0x17ed
 6547 17e7 0F       		.uleb128 0xf
 6548 17e8 B8000000 		.4byte	0xb8
 6549 17ec 00       		.byte	0
 6550 17ed 25       		.uleb128 0x25
 6551 17ee 01       		.byte	0x1
 6552 17ef 9C060000 		.4byte	.LASF155
 6553 17f3 01       		.byte	0x1
 6554 17f4 C3000000 		.4byte	0xc3
 6555 17f8 01       		.byte	0x1
 6556 17f9 01       		.byte	0x1
 6557 17fa 0E180000 		.4byte	0x180e
 6558 17fe 0F       		.uleb128 0xf
ARM GAS  C:\Users\Elis\AppData\Local\Temp\ccGbXKEy.s 			page 117


 6559 17ff C3000000 		.4byte	0xc3
 6560 1803 0F       		.uleb128 0xf
 6561 1804 29000000 		.4byte	0x29
 6562 1808 0F       		.uleb128 0xf
 6563 1809 C5000000 		.4byte	0xc5
 6564 180d 00       		.byte	0
 6565 180e 26       		.uleb128 0x26
 6566 180f 01       		.byte	0x1
 6567 1810 04040000 		.4byte	.LASF169
 6568 1814 14       		.byte	0x14
 6569 1815 00       		.byte	0
 6570 1816 61020000 		.4byte	.LASF170
 6571 181a 01       		.byte	0x1
 6572 181b 3B000000 		.4byte	0x3b
 6573 181f 01       		.byte	0x1
 6574 1820 2A180000 		.4byte	0x182a
 6575 1824 0F       		.uleb128 0xf
 6576 1825 CC000000 		.4byte	0xcc
 6577 1829 00       		.byte	0
 6578 182a 27       		.uleb128 0x27
 6579 182b 01       		.byte	0x1
 6580 182c 32020000 		.4byte	.LASF157
 6581 1830 13       		.byte	0x13
 6582 1831 46       		.byte	0x46
 6583 1832 01       		.byte	0x1
 6584 1833 30000000 		.4byte	0x30
 6585 1837 01       		.byte	0x1
 6586 1838 4C180000 		.4byte	0x184c
 6587 183c 0F       		.uleb128 0xf
 6588 183d 10060000 		.4byte	0x610
 6589 1841 0F       		.uleb128 0xf
 6590 1842 CC000000 		.4byte	0xcc
 6591 1846 0F       		.uleb128 0xf
 6592 1847 30000000 		.4byte	0x30
 6593 184b 00       		.byte	0
 6594 184c 27       		.uleb128 0x27
 6595 184d 01       		.byte	0x1
 6596 184e D7040000 		.4byte	.LASF158
 6597 1852 05       		.byte	0x5
 6598 1853 7F       		.byte	0x7f
 6599 1854 01       		.byte	0x1
 6600 1855 3A020000 		.4byte	0x23a
 6601 1859 01       		.byte	0x1
 6602 185a 69180000 		.4byte	0x1869
 6603 185e 0F       		.uleb128 0xf
 6604 185f CC000000 		.4byte	0xcc
 6605 1863 0F       		.uleb128 0xf
 6606 1864 CC000000 		.4byte	0xcc
 6607 1868 00       		.byte	0
 6608 1869 27       		.uleb128 0x27
 6609 186a 01       		.byte	0x1
 6610 186b F0030000 		.4byte	.LASF159
 6611 186f 09       		.byte	0x9
 6612 1870 A5       		.byte	0xa5
 6613 1871 01       		.byte	0x1
 6614 1872 A9010000 		.4byte	0x1a9
 6615 1876 01       		.byte	0x1
ARM GAS  C:\Users\Elis\AppData\Local\Temp\ccGbXKEy.s 			page 118


 6616 1877 86180000 		.4byte	0x1886
 6617 187b 0F       		.uleb128 0xf
 6618 187c 86180000 		.4byte	0x1886
 6619 1880 0F       		.uleb128 0xf
 6620 1881 3A020000 		.4byte	0x23a
 6621 1885 00       		.byte	0
 6622 1886 06       		.uleb128 0x6
 6623 1887 04       		.byte	0x4
 6624 1888 5D020000 		.4byte	0x25d
 6625 188c 27       		.uleb128 0x27
 6626 188d 01       		.byte	0x1
 6627 188e 09050000 		.4byte	.LASF160
 6628 1892 0E       		.byte	0xe
 6629 1893 79       		.byte	0x79
 6630 1894 01       		.byte	0x1
 6631 1895 73020000 		.4byte	0x273
 6632 1899 01       		.byte	0x1
 6633 189a B3180000 		.4byte	0x18b3
 6634 189e 0F       		.uleb128 0xf
 6635 189f 3B030000 		.4byte	0x33b
 6636 18a3 0F       		.uleb128 0xf
 6637 18a4 B3180000 		.4byte	0x18b3
 6638 18a8 0F       		.uleb128 0xf
 6639 18a9 B9180000 		.4byte	0x18b9
 6640 18ad 0F       		.uleb128 0xf
 6641 18ae 86000000 		.4byte	0x86
 6642 18b2 00       		.byte	0
 6643 18b3 06       		.uleb128 0x6
 6644 18b4 04       		.byte	0x4
 6645 18b5 05060000 		.4byte	0x605
 6646 18b9 06       		.uleb128 0x6
 6647 18ba 04       		.byte	0x4
 6648 18bb BF180000 		.4byte	0x18bf
 6649 18bf 07       		.uleb128 0x7
 6650 18c0 29050000 		.4byte	0x529
 6651 18c4 27       		.uleb128 0x27
 6652 18c5 01       		.byte	0x1
 6653 18c6 7B050000 		.4byte	.LASF161
 6654 18ca 0D       		.byte	0xd
 6655 18cb 69       		.byte	0x69
 6656 18cc 01       		.byte	0x1
 6657 18cd 73020000 		.4byte	0x273
 6658 18d1 01       		.byte	0x1
 6659 18d2 EB180000 		.4byte	0x18eb
 6660 18d6 0F       		.uleb128 0xf
 6661 18d7 3B030000 		.4byte	0x33b
 6662 18db 0F       		.uleb128 0xf
 6663 18dc EB180000 		.4byte	0x18eb
 6664 18e0 0F       		.uleb128 0xf
 6665 18e1 CE170000 		.4byte	0x17ce
 6666 18e5 0F       		.uleb128 0xf
 6667 18e6 A6000000 		.4byte	0xa6
 6668 18ea 00       		.byte	0
 6669 18eb 06       		.uleb128 0x6
 6670 18ec 04       		.byte	0x4
 6671 18ed D0050000 		.4byte	0x5d0
 6672 18f1 23       		.uleb128 0x23
ARM GAS  C:\Users\Elis\AppData\Local\Temp\ccGbXKEy.s 			page 119


 6673 18f2 01       		.byte	0x1
 6674 18f3 81040000 		.4byte	.LASF162
 6675 18f7 0D       		.byte	0xd
 6676 18f8 84       		.byte	0x84
 6677 18f9 01       		.byte	0x1
 6678 18fa 01       		.byte	0x1
 6679 18fb 0A190000 		.4byte	0x190a
 6680 18ff 0F       		.uleb128 0xf
 6681 1900 73020000 		.4byte	0x273
 6682 1904 0F       		.uleb128 0xf
 6683 1905 FA050000 		.4byte	0x5fa
 6684 1909 00       		.byte	0
 6685 190a 27       		.uleb128 0x27
 6686 190b 01       		.byte	0x1
 6687 190c AA000000 		.4byte	.LASF163
 6688 1910 0C       		.byte	0xc
 6689 1911 4B       		.byte	0x4b
 6690 1912 01       		.byte	0x1
 6691 1913 73020000 		.4byte	0x273
 6692 1917 01       		.byte	0x1
 6693 1918 2C190000 		.4byte	0x192c
 6694 191c 0F       		.uleb128 0xf
 6695 191d 3B030000 		.4byte	0x33b
 6696 1921 0F       		.uleb128 0xf
 6697 1922 2C190000 		.4byte	0x192c
 6698 1926 0F       		.uleb128 0xf
 6699 1927 B9180000 		.4byte	0x18b9
 6700 192b 00       		.byte	0
 6701 192c 06       		.uleb128 0x6
 6702 192d 04       		.byte	0x4
 6703 192e 58050000 		.4byte	0x558
 6704 1932 27       		.uleb128 0x27
 6705 1933 01       		.byte	0x1
 6706 1934 AD050000 		.4byte	.LASF164
 6707 1938 0D       		.byte	0xd
 6708 1939 94       		.byte	0x94
 6709 193a 01       		.byte	0x1
 6710 193b 29000000 		.4byte	0x29
 6711 193f 01       		.byte	0x1
 6712 1940 54190000 		.4byte	0x1954
 6713 1944 0F       		.uleb128 0xf
 6714 1945 73020000 		.4byte	0x273
 6715 1949 0F       		.uleb128 0xf
 6716 194a CC000000 		.4byte	0xcc
 6717 194e 0F       		.uleb128 0xf
 6718 194f A6000000 		.4byte	0xa6
 6719 1953 00       		.byte	0
 6720 1954 23       		.uleb128 0x23
 6721 1955 01       		.byte	0x1
 6722 1956 00000000 		.4byte	.LASF165
 6723 195a 09       		.byte	0x9
 6724 195b DB       		.byte	0xdb
 6725 195c 01       		.byte	0x1
 6726 195d 01       		.byte	0x1
 6727 195e 68190000 		.4byte	0x1968
 6728 1962 0F       		.uleb128 0xf
 6729 1963 86180000 		.4byte	0x1886
ARM GAS  C:\Users\Elis\AppData\Local\Temp\ccGbXKEy.s 			page 120


 6730 1967 00       		.byte	0
 6731 1968 28       		.uleb128 0x28
 6732 1969 01       		.byte	0x1
 6733 196a E1050000 		.4byte	.LASF171
 6734 196e 0A       		.byte	0xa
 6735 196f D9       		.byte	0xd9
 6736 1970 01       		.byte	0x1
 6737 1971 01       		.byte	0x1
 6738 1972 0F       		.uleb128 0xf
 6739 1973 73020000 		.4byte	0x273
 6740 1977 00       		.byte	0
 6741 1978 00       		.byte	0
 6742              		.section	.debug_abbrev,"",%progbits
 6743              	.Ldebug_abbrev0:
 6744 0000 01       		.uleb128 0x1
 6745 0001 11       		.uleb128 0x11
 6746 0002 01       		.byte	0x1
 6747 0003 25       		.uleb128 0x25
 6748 0004 0E       		.uleb128 0xe
 6749 0005 13       		.uleb128 0x13
 6750 0006 0B       		.uleb128 0xb
 6751 0007 03       		.uleb128 0x3
 6752 0008 0E       		.uleb128 0xe
 6753 0009 1B       		.uleb128 0x1b
 6754 000a 0E       		.uleb128 0xe
 6755 000b 55       		.uleb128 0x55
 6756 000c 06       		.uleb128 0x6
 6757 000d 11       		.uleb128 0x11
 6758 000e 01       		.uleb128 0x1
 6759 000f 52       		.uleb128 0x52
 6760 0010 01       		.uleb128 0x1
 6761 0011 10       		.uleb128 0x10
 6762 0012 06       		.uleb128 0x6
 6763 0013 00       		.byte	0
 6764 0014 00       		.byte	0
 6765 0015 02       		.uleb128 0x2
 6766 0016 24       		.uleb128 0x24
 6767 0017 00       		.byte	0
 6768 0018 0B       		.uleb128 0xb
 6769 0019 0B       		.uleb128 0xb
 6770 001a 3E       		.uleb128 0x3e
 6771 001b 0B       		.uleb128 0xb
 6772 001c 03       		.uleb128 0x3
 6773 001d 08       		.uleb128 0x8
 6774 001e 00       		.byte	0
 6775 001f 00       		.byte	0
 6776 0020 03       		.uleb128 0x3
 6777 0021 16       		.uleb128 0x16
 6778 0022 00       		.byte	0
 6779 0023 03       		.uleb128 0x3
 6780 0024 0E       		.uleb128 0xe
 6781 0025 3A       		.uleb128 0x3a
 6782 0026 0B       		.uleb128 0xb
 6783 0027 3B       		.uleb128 0x3b
 6784 0028 0B       		.uleb128 0xb
 6785 0029 49       		.uleb128 0x49
 6786 002a 13       		.uleb128 0x13
ARM GAS  C:\Users\Elis\AppData\Local\Temp\ccGbXKEy.s 			page 121


 6787 002b 00       		.byte	0
 6788 002c 00       		.byte	0
 6789 002d 04       		.uleb128 0x4
 6790 002e 24       		.uleb128 0x24
 6791 002f 00       		.byte	0
 6792 0030 0B       		.uleb128 0xb
 6793 0031 0B       		.uleb128 0xb
 6794 0032 3E       		.uleb128 0x3e
 6795 0033 0B       		.uleb128 0xb
 6796 0034 03       		.uleb128 0x3
 6797 0035 0E       		.uleb128 0xe
 6798 0036 00       		.byte	0
 6799 0037 00       		.byte	0
 6800 0038 05       		.uleb128 0x5
 6801 0039 0F       		.uleb128 0xf
 6802 003a 00       		.byte	0
 6803 003b 0B       		.uleb128 0xb
 6804 003c 0B       		.uleb128 0xb
 6805 003d 00       		.byte	0
 6806 003e 00       		.byte	0
 6807 003f 06       		.uleb128 0x6
 6808 0040 0F       		.uleb128 0xf
 6809 0041 00       		.byte	0
 6810 0042 0B       		.uleb128 0xb
 6811 0043 0B       		.uleb128 0xb
 6812 0044 49       		.uleb128 0x49
 6813 0045 13       		.uleb128 0x13
 6814 0046 00       		.byte	0
 6815 0047 00       		.byte	0
 6816 0048 07       		.uleb128 0x7
 6817 0049 26       		.uleb128 0x26
 6818 004a 00       		.byte	0
 6819 004b 49       		.uleb128 0x49
 6820 004c 13       		.uleb128 0x13
 6821 004d 00       		.byte	0
 6822 004e 00       		.byte	0
 6823 004f 08       		.uleb128 0x8
 6824 0050 35       		.uleb128 0x35
 6825 0051 00       		.byte	0
 6826 0052 49       		.uleb128 0x49
 6827 0053 13       		.uleb128 0x13
 6828 0054 00       		.byte	0
 6829 0055 00       		.byte	0
 6830 0056 09       		.uleb128 0x9
 6831 0057 13       		.uleb128 0x13
 6832 0058 00       		.byte	0
 6833 0059 03       		.uleb128 0x3
 6834 005a 0E       		.uleb128 0xe
 6835 005b 3C       		.uleb128 0x3c
 6836 005c 0C       		.uleb128 0xc
 6837 005d 00       		.byte	0
 6838 005e 00       		.byte	0
 6839 005f 0A       		.uleb128 0xa
 6840 0060 13       		.uleb128 0x13
 6841 0061 01       		.byte	0x1
 6842 0062 03       		.uleb128 0x3
 6843 0063 0E       		.uleb128 0xe
ARM GAS  C:\Users\Elis\AppData\Local\Temp\ccGbXKEy.s 			page 122


 6844 0064 0B       		.uleb128 0xb
 6845 0065 0B       		.uleb128 0xb
 6846 0066 3A       		.uleb128 0x3a
 6847 0067 0B       		.uleb128 0xb
 6848 0068 3B       		.uleb128 0x3b
 6849 0069 0B       		.uleb128 0xb
 6850 006a 01       		.uleb128 0x1
 6851 006b 13       		.uleb128 0x13
 6852 006c 00       		.byte	0
 6853 006d 00       		.byte	0
 6854 006e 0B       		.uleb128 0xb
 6855 006f 0D       		.uleb128 0xd
 6856 0070 00       		.byte	0
 6857 0071 03       		.uleb128 0x3
 6858 0072 0E       		.uleb128 0xe
 6859 0073 3A       		.uleb128 0x3a
 6860 0074 0B       		.uleb128 0xb
 6861 0075 3B       		.uleb128 0x3b
 6862 0076 0B       		.uleb128 0xb
 6863 0077 49       		.uleb128 0x49
 6864 0078 13       		.uleb128 0x13
 6865 0079 38       		.uleb128 0x38
 6866 007a 0A       		.uleb128 0xa
 6867 007b 00       		.byte	0
 6868 007c 00       		.byte	0
 6869 007d 0C       		.uleb128 0xc
 6870 007e 16       		.uleb128 0x16
 6871 007f 00       		.byte	0
 6872 0080 03       		.uleb128 0x3
 6873 0081 0E       		.uleb128 0xe
 6874 0082 3A       		.uleb128 0x3a
 6875 0083 0B       		.uleb128 0xb
 6876 0084 3B       		.uleb128 0x3b
 6877 0085 05       		.uleb128 0x5
 6878 0086 49       		.uleb128 0x49
 6879 0087 13       		.uleb128 0x13
 6880 0088 00       		.byte	0
 6881 0089 00       		.byte	0
 6882 008a 0D       		.uleb128 0xd
 6883 008b 0D       		.uleb128 0xd
 6884 008c 00       		.byte	0
 6885 008d 03       		.uleb128 0x3
 6886 008e 08       		.uleb128 0x8
 6887 008f 3A       		.uleb128 0x3a
 6888 0090 0B       		.uleb128 0xb
 6889 0091 3B       		.uleb128 0x3b
 6890 0092 0B       		.uleb128 0xb
 6891 0093 49       		.uleb128 0x49
 6892 0094 13       		.uleb128 0x13
 6893 0095 38       		.uleb128 0x38
 6894 0096 0A       		.uleb128 0xa
 6895 0097 00       		.byte	0
 6896 0098 00       		.byte	0
 6897 0099 0E       		.uleb128 0xe
 6898 009a 15       		.uleb128 0x15
 6899 009b 01       		.byte	0x1
 6900 009c 27       		.uleb128 0x27
ARM GAS  C:\Users\Elis\AppData\Local\Temp\ccGbXKEy.s 			page 123


 6901 009d 0C       		.uleb128 0xc
 6902 009e 01       		.uleb128 0x1
 6903 009f 13       		.uleb128 0x13
 6904 00a0 00       		.byte	0
 6905 00a1 00       		.byte	0
 6906 00a2 0F       		.uleb128 0xf
 6907 00a3 05       		.uleb128 0x5
 6908 00a4 00       		.byte	0
 6909 00a5 49       		.uleb128 0x49
 6910 00a6 13       		.uleb128 0x13
 6911 00a7 00       		.byte	0
 6912 00a8 00       		.byte	0
 6913 00a9 10       		.uleb128 0x10
 6914 00aa 04       		.uleb128 0x4
 6915 00ab 01       		.byte	0x1
 6916 00ac 03       		.uleb128 0x3
 6917 00ad 0E       		.uleb128 0xe
 6918 00ae 0B       		.uleb128 0xb
 6919 00af 0B       		.uleb128 0xb
 6920 00b0 3A       		.uleb128 0x3a
 6921 00b1 0B       		.uleb128 0xb
 6922 00b2 3B       		.uleb128 0x3b
 6923 00b3 0B       		.uleb128 0xb
 6924 00b4 01       		.uleb128 0x1
 6925 00b5 13       		.uleb128 0x13
 6926 00b6 00       		.byte	0
 6927 00b7 00       		.byte	0
 6928 00b8 11       		.uleb128 0x11
 6929 00b9 28       		.uleb128 0x28
 6930 00ba 00       		.byte	0
 6931 00bb 03       		.uleb128 0x3
 6932 00bc 0E       		.uleb128 0xe
 6933 00bd 1C       		.uleb128 0x1c
 6934 00be 0D       		.uleb128 0xd
 6935 00bf 00       		.byte	0
 6936 00c0 00       		.byte	0
 6937 00c1 12       		.uleb128 0x12
 6938 00c2 01       		.uleb128 0x1
 6939 00c3 01       		.byte	0x1
 6940 00c4 49       		.uleb128 0x49
 6941 00c5 13       		.uleb128 0x13
 6942 00c6 01       		.uleb128 0x1
 6943 00c7 13       		.uleb128 0x13
 6944 00c8 00       		.byte	0
 6945 00c9 00       		.byte	0
 6946 00ca 13       		.uleb128 0x13
 6947 00cb 21       		.uleb128 0x21
 6948 00cc 00       		.byte	0
 6949 00cd 49       		.uleb128 0x49
 6950 00ce 13       		.uleb128 0x13
 6951 00cf 2F       		.uleb128 0x2f
 6952 00d0 0B       		.uleb128 0xb
 6953 00d1 00       		.byte	0
 6954 00d2 00       		.byte	0
 6955 00d3 14       		.uleb128 0x14
 6956 00d4 2E       		.uleb128 0x2e
 6957 00d5 01       		.byte	0x1
ARM GAS  C:\Users\Elis\AppData\Local\Temp\ccGbXKEy.s 			page 124


 6958 00d6 3F       		.uleb128 0x3f
 6959 00d7 0C       		.uleb128 0xc
 6960 00d8 03       		.uleb128 0x3
 6961 00d9 0E       		.uleb128 0xe
 6962 00da 3A       		.uleb128 0x3a
 6963 00db 0B       		.uleb128 0xb
 6964 00dc 3B       		.uleb128 0x3b
 6965 00dd 0B       		.uleb128 0xb
 6966 00de 27       		.uleb128 0x27
 6967 00df 0C       		.uleb128 0xc
 6968 00e0 11       		.uleb128 0x11
 6969 00e1 01       		.uleb128 0x1
 6970 00e2 12       		.uleb128 0x12
 6971 00e3 01       		.uleb128 0x1
 6972 00e4 40       		.uleb128 0x40
 6973 00e5 06       		.uleb128 0x6
 6974 00e6 9742     		.uleb128 0x2117
 6975 00e8 0C       		.uleb128 0xc
 6976 00e9 01       		.uleb128 0x1
 6977 00ea 13       		.uleb128 0x13
 6978 00eb 00       		.byte	0
 6979 00ec 00       		.byte	0
 6980 00ed 15       		.uleb128 0x15
 6981 00ee 05       		.uleb128 0x5
 6982 00ef 00       		.byte	0
 6983 00f0 03       		.uleb128 0x3
 6984 00f1 0E       		.uleb128 0xe
 6985 00f2 3A       		.uleb128 0x3a
 6986 00f3 0B       		.uleb128 0xb
 6987 00f4 3B       		.uleb128 0x3b
 6988 00f5 0B       		.uleb128 0xb
 6989 00f6 49       		.uleb128 0x49
 6990 00f7 13       		.uleb128 0x13
 6991 00f8 02       		.uleb128 0x2
 6992 00f9 06       		.uleb128 0x6
 6993 00fa 00       		.byte	0
 6994 00fb 00       		.byte	0
 6995 00fc 16       		.uleb128 0x16
 6996 00fd 34       		.uleb128 0x34
 6997 00fe 00       		.byte	0
 6998 00ff 03       		.uleb128 0x3
 6999 0100 0E       		.uleb128 0xe
 7000 0101 3A       		.uleb128 0x3a
 7001 0102 0B       		.uleb128 0xb
 7002 0103 3B       		.uleb128 0x3b
 7003 0104 0B       		.uleb128 0xb
 7004 0105 49       		.uleb128 0x49
 7005 0106 13       		.uleb128 0x13
 7006 0107 02       		.uleb128 0x2
 7007 0108 06       		.uleb128 0x6
 7008 0109 00       		.byte	0
 7009 010a 00       		.byte	0
 7010 010b 17       		.uleb128 0x17
 7011 010c 34       		.uleb128 0x34
 7012 010d 00       		.byte	0
 7013 010e 03       		.uleb128 0x3
 7014 010f 08       		.uleb128 0x8
ARM GAS  C:\Users\Elis\AppData\Local\Temp\ccGbXKEy.s 			page 125


 7015 0110 3A       		.uleb128 0x3a
 7016 0111 0B       		.uleb128 0xb
 7017 0112 3B       		.uleb128 0x3b
 7018 0113 0B       		.uleb128 0xb
 7019 0114 49       		.uleb128 0x49
 7020 0115 13       		.uleb128 0x13
 7021 0116 02       		.uleb128 0x2
 7022 0117 0A       		.uleb128 0xa
 7023 0118 00       		.byte	0
 7024 0119 00       		.byte	0
 7025 011a 18       		.uleb128 0x18
 7026 011b 34       		.uleb128 0x34
 7027 011c 00       		.byte	0
 7028 011d 03       		.uleb128 0x3
 7029 011e 08       		.uleb128 0x8
 7030 011f 3A       		.uleb128 0x3a
 7031 0120 0B       		.uleb128 0xb
 7032 0121 3B       		.uleb128 0x3b
 7033 0122 0B       		.uleb128 0xb
 7034 0123 49       		.uleb128 0x49
 7035 0124 13       		.uleb128 0x13
 7036 0125 02       		.uleb128 0x2
 7037 0126 06       		.uleb128 0x6
 7038 0127 00       		.byte	0
 7039 0128 00       		.byte	0
 7040 0129 19       		.uleb128 0x19
 7041 012a 34       		.uleb128 0x34
 7042 012b 00       		.byte	0
 7043 012c 03       		.uleb128 0x3
 7044 012d 0E       		.uleb128 0xe
 7045 012e 3A       		.uleb128 0x3a
 7046 012f 0B       		.uleb128 0xb
 7047 0130 3B       		.uleb128 0x3b
 7048 0131 0B       		.uleb128 0xb
 7049 0132 49       		.uleb128 0x49
 7050 0133 13       		.uleb128 0x13
 7051 0134 02       		.uleb128 0x2
 7052 0135 0A       		.uleb128 0xa
 7053 0136 00       		.byte	0
 7054 0137 00       		.byte	0
 7055 0138 1A       		.uleb128 0x1a
 7056 0139 898201   		.uleb128 0x4109
 7057 013c 01       		.byte	0x1
 7058 013d 11       		.uleb128 0x11
 7059 013e 01       		.uleb128 0x1
 7060 013f 31       		.uleb128 0x31
 7061 0140 13       		.uleb128 0x13
 7062 0141 01       		.uleb128 0x1
 7063 0142 13       		.uleb128 0x13
 7064 0143 00       		.byte	0
 7065 0144 00       		.byte	0
 7066 0145 1B       		.uleb128 0x1b
 7067 0146 8A8201   		.uleb128 0x410a
 7068 0149 00       		.byte	0
 7069 014a 02       		.uleb128 0x2
 7070 014b 0A       		.uleb128 0xa
 7071 014c 9142     		.uleb128 0x2111
ARM GAS  C:\Users\Elis\AppData\Local\Temp\ccGbXKEy.s 			page 126


 7072 014e 0A       		.uleb128 0xa
 7073 014f 00       		.byte	0
 7074 0150 00       		.byte	0
 7075 0151 1C       		.uleb128 0x1c
 7076 0152 898201   		.uleb128 0x4109
 7077 0155 01       		.byte	0x1
 7078 0156 11       		.uleb128 0x11
 7079 0157 01       		.uleb128 0x1
 7080 0158 31       		.uleb128 0x31
 7081 0159 13       		.uleb128 0x13
 7082 015a 00       		.byte	0
 7083 015b 00       		.byte	0
 7084 015c 1D       		.uleb128 0x1d
 7085 015d 898201   		.uleb128 0x4109
 7086 0160 00       		.byte	0
 7087 0161 11       		.uleb128 0x11
 7088 0162 01       		.uleb128 0x1
 7089 0163 31       		.uleb128 0x31
 7090 0164 13       		.uleb128 0x13
 7091 0165 00       		.byte	0
 7092 0166 00       		.byte	0
 7093 0167 1E       		.uleb128 0x1e
 7094 0168 898201   		.uleb128 0x4109
 7095 016b 01       		.byte	0x1
 7096 016c 11       		.uleb128 0x11
 7097 016d 01       		.uleb128 0x1
 7098 016e 9542     		.uleb128 0x2115
 7099 0170 0C       		.uleb128 0xc
 7100 0171 31       		.uleb128 0x31
 7101 0172 13       		.uleb128 0x13
 7102 0173 00       		.byte	0
 7103 0174 00       		.byte	0
 7104 0175 1F       		.uleb128 0x1f
 7105 0176 2E       		.uleb128 0x2e
 7106 0177 01       		.byte	0x1
 7107 0178 3F       		.uleb128 0x3f
 7108 0179 0C       		.uleb128 0xc
 7109 017a 03       		.uleb128 0x3
 7110 017b 0E       		.uleb128 0xe
 7111 017c 3A       		.uleb128 0x3a
 7112 017d 0B       		.uleb128 0xb
 7113 017e 3B       		.uleb128 0x3b
 7114 017f 05       		.uleb128 0x5
 7115 0180 27       		.uleb128 0x27
 7116 0181 0C       		.uleb128 0xc
 7117 0182 11       		.uleb128 0x11
 7118 0183 01       		.uleb128 0x1
 7119 0184 12       		.uleb128 0x12
 7120 0185 01       		.uleb128 0x1
 7121 0186 40       		.uleb128 0x40
 7122 0187 06       		.uleb128 0x6
 7123 0188 9742     		.uleb128 0x2117
 7124 018a 0C       		.uleb128 0xc
 7125 018b 01       		.uleb128 0x1
 7126 018c 13       		.uleb128 0x13
 7127 018d 00       		.byte	0
 7128 018e 00       		.byte	0
ARM GAS  C:\Users\Elis\AppData\Local\Temp\ccGbXKEy.s 			page 127


 7129 018f 20       		.uleb128 0x20
 7130 0190 34       		.uleb128 0x34
 7131 0191 00       		.byte	0
 7132 0192 03       		.uleb128 0x3
 7133 0193 0E       		.uleb128 0xe
 7134 0194 3A       		.uleb128 0x3a
 7135 0195 0B       		.uleb128 0xb
 7136 0196 3B       		.uleb128 0x3b
 7137 0197 05       		.uleb128 0x5
 7138 0198 49       		.uleb128 0x49
 7139 0199 13       		.uleb128 0x13
 7140 019a 3F       		.uleb128 0x3f
 7141 019b 0C       		.uleb128 0xc
 7142 019c 3C       		.uleb128 0x3c
 7143 019d 0C       		.uleb128 0xc
 7144 019e 00       		.byte	0
 7145 019f 00       		.byte	0
 7146 01a0 21       		.uleb128 0x21
 7147 01a1 34       		.uleb128 0x34
 7148 01a2 00       		.byte	0
 7149 01a3 03       		.uleb128 0x3
 7150 01a4 0E       		.uleb128 0xe
 7151 01a5 3A       		.uleb128 0x3a
 7152 01a6 0B       		.uleb128 0xb
 7153 01a7 3B       		.uleb128 0x3b
 7154 01a8 0B       		.uleb128 0xb
 7155 01a9 49       		.uleb128 0x49
 7156 01aa 13       		.uleb128 0x13
 7157 01ab 3F       		.uleb128 0x3f
 7158 01ac 0C       		.uleb128 0xc
 7159 01ad 3C       		.uleb128 0x3c
 7160 01ae 0C       		.uleb128 0xc
 7161 01af 00       		.byte	0
 7162 01b0 00       		.byte	0
 7163 01b1 22       		.uleb128 0x22
 7164 01b2 34       		.uleb128 0x34
 7165 01b3 00       		.byte	0
 7166 01b4 03       		.uleb128 0x3
 7167 01b5 0E       		.uleb128 0xe
 7168 01b6 3A       		.uleb128 0x3a
 7169 01b7 0B       		.uleb128 0xb
 7170 01b8 3B       		.uleb128 0x3b
 7171 01b9 0B       		.uleb128 0xb
 7172 01ba 49       		.uleb128 0x49
 7173 01bb 13       		.uleb128 0x13
 7174 01bc 3F       		.uleb128 0x3f
 7175 01bd 0C       		.uleb128 0xc
 7176 01be 02       		.uleb128 0x2
 7177 01bf 0A       		.uleb128 0xa
 7178 01c0 00       		.byte	0
 7179 01c1 00       		.byte	0
 7180 01c2 23       		.uleb128 0x23
 7181 01c3 2E       		.uleb128 0x2e
 7182 01c4 01       		.byte	0x1
 7183 01c5 3F       		.uleb128 0x3f
 7184 01c6 0C       		.uleb128 0xc
 7185 01c7 03       		.uleb128 0x3
ARM GAS  C:\Users\Elis\AppData\Local\Temp\ccGbXKEy.s 			page 128


 7186 01c8 0E       		.uleb128 0xe
 7187 01c9 3A       		.uleb128 0x3a
 7188 01ca 0B       		.uleb128 0xb
 7189 01cb 3B       		.uleb128 0x3b
 7190 01cc 0B       		.uleb128 0xb
 7191 01cd 27       		.uleb128 0x27
 7192 01ce 0C       		.uleb128 0xc
 7193 01cf 3C       		.uleb128 0x3c
 7194 01d0 0C       		.uleb128 0xc
 7195 01d1 01       		.uleb128 0x1
 7196 01d2 13       		.uleb128 0x13
 7197 01d3 00       		.byte	0
 7198 01d4 00       		.byte	0
 7199 01d5 24       		.uleb128 0x24
 7200 01d6 2E       		.uleb128 0x2e
 7201 01d7 01       		.byte	0x1
 7202 01d8 3F       		.uleb128 0x3f
 7203 01d9 0C       		.uleb128 0xc
 7204 01da 03       		.uleb128 0x3
 7205 01db 0E       		.uleb128 0xe
 7206 01dc 3A       		.uleb128 0x3a
 7207 01dd 0B       		.uleb128 0xb
 7208 01de 3B       		.uleb128 0x3b
 7209 01df 05       		.uleb128 0x5
 7210 01e0 27       		.uleb128 0x27
 7211 01e1 0C       		.uleb128 0xc
 7212 01e2 49       		.uleb128 0x49
 7213 01e3 13       		.uleb128 0x13
 7214 01e4 3C       		.uleb128 0x3c
 7215 01e5 0C       		.uleb128 0xc
 7216 01e6 01       		.uleb128 0x1
 7217 01e7 13       		.uleb128 0x13
 7218 01e8 00       		.byte	0
 7219 01e9 00       		.byte	0
 7220 01ea 25       		.uleb128 0x25
 7221 01eb 2E       		.uleb128 0x2e
 7222 01ec 01       		.byte	0x1
 7223 01ed 3F       		.uleb128 0x3f
 7224 01ee 0C       		.uleb128 0xc
 7225 01ef 03       		.uleb128 0x3
 7226 01f0 0E       		.uleb128 0xe
 7227 01f1 27       		.uleb128 0x27
 7228 01f2 0C       		.uleb128 0xc
 7229 01f3 49       		.uleb128 0x49
 7230 01f4 13       		.uleb128 0x13
 7231 01f5 34       		.uleb128 0x34
 7232 01f6 0C       		.uleb128 0xc
 7233 01f7 3C       		.uleb128 0x3c
 7234 01f8 0C       		.uleb128 0xc
 7235 01f9 01       		.uleb128 0x1
 7236 01fa 13       		.uleb128 0x13
 7237 01fb 00       		.byte	0
 7238 01fc 00       		.byte	0
 7239 01fd 26       		.uleb128 0x26
 7240 01fe 2E       		.uleb128 0x2e
 7241 01ff 01       		.byte	0x1
 7242 0200 3F       		.uleb128 0x3f
ARM GAS  C:\Users\Elis\AppData\Local\Temp\ccGbXKEy.s 			page 129


 7243 0201 0C       		.uleb128 0xc
 7244 0202 03       		.uleb128 0x3
 7245 0203 0E       		.uleb128 0xe
 7246 0204 3A       		.uleb128 0x3a
 7247 0205 0B       		.uleb128 0xb
 7248 0206 3B       		.uleb128 0x3b
 7249 0207 0B       		.uleb128 0xb
 7250 0208 8740     		.uleb128 0x2007
 7251 020a 0E       		.uleb128 0xe
 7252 020b 27       		.uleb128 0x27
 7253 020c 0C       		.uleb128 0xc
 7254 020d 49       		.uleb128 0x49
 7255 020e 13       		.uleb128 0x13
 7256 020f 3C       		.uleb128 0x3c
 7257 0210 0C       		.uleb128 0xc
 7258 0211 01       		.uleb128 0x1
 7259 0212 13       		.uleb128 0x13
 7260 0213 00       		.byte	0
 7261 0214 00       		.byte	0
 7262 0215 27       		.uleb128 0x27
 7263 0216 2E       		.uleb128 0x2e
 7264 0217 01       		.byte	0x1
 7265 0218 3F       		.uleb128 0x3f
 7266 0219 0C       		.uleb128 0xc
 7267 021a 03       		.uleb128 0x3
 7268 021b 0E       		.uleb128 0xe
 7269 021c 3A       		.uleb128 0x3a
 7270 021d 0B       		.uleb128 0xb
 7271 021e 3B       		.uleb128 0x3b
 7272 021f 0B       		.uleb128 0xb
 7273 0220 27       		.uleb128 0x27
 7274 0221 0C       		.uleb128 0xc
 7275 0222 49       		.uleb128 0x49
 7276 0223 13       		.uleb128 0x13
 7277 0224 3C       		.uleb128 0x3c
 7278 0225 0C       		.uleb128 0xc
 7279 0226 01       		.uleb128 0x1
 7280 0227 13       		.uleb128 0x13
 7281 0228 00       		.byte	0
 7282 0229 00       		.byte	0
 7283 022a 28       		.uleb128 0x28
 7284 022b 2E       		.uleb128 0x2e
 7285 022c 01       		.byte	0x1
 7286 022d 3F       		.uleb128 0x3f
 7287 022e 0C       		.uleb128 0xc
 7288 022f 03       		.uleb128 0x3
 7289 0230 0E       		.uleb128 0xe
 7290 0231 3A       		.uleb128 0x3a
 7291 0232 0B       		.uleb128 0xb
 7292 0233 3B       		.uleb128 0x3b
 7293 0234 0B       		.uleb128 0xb
 7294 0235 27       		.uleb128 0x27
 7295 0236 0C       		.uleb128 0xc
 7296 0237 3C       		.uleb128 0x3c
 7297 0238 0C       		.uleb128 0xc
 7298 0239 00       		.byte	0
 7299 023a 00       		.byte	0
ARM GAS  C:\Users\Elis\AppData\Local\Temp\ccGbXKEy.s 			page 130


 7300 023b 00       		.byte	0
 7301              		.section	.debug_loc,"",%progbits
 7302              	.Ldebug_loc0:
 7303              	.LLST0:
 7304 0000 00000000 		.4byte	.LFB118
 7305 0004 04000000 		.4byte	.LCFI0
 7306 0008 0200     		.2byte	0x2
 7307 000a 7D       		.byte	0x7d
 7308 000b 00       		.sleb128 0
 7309 000c 04000000 		.4byte	.LCFI0
 7310 0010 06000000 		.4byte	.LCFI1
 7311 0014 0200     		.2byte	0x2
 7312 0016 7D       		.byte	0x7d
 7313 0017 24       		.sleb128 36
 7314 0018 06000000 		.4byte	.LCFI1
 7315 001c C8030000 		.4byte	.LFE118
 7316 0020 0300     		.2byte	0x3
 7317 0022 7D       		.byte	0x7d
 7318 0023 C001     		.sleb128 192
 7319 0025 00000000 		.4byte	0
 7320 0029 00000000 		.4byte	0
 7321              	.LLST1:
 7322 002d 00000000 		.4byte	.LVL0
 7323 0031 0A000000 		.4byte	.LVL1
 7324 0035 0100     		.2byte	0x1
 7325 0037 50       		.byte	0x50
 7326 0038 0A000000 		.4byte	.LVL1
 7327 003c 66010000 		.4byte	.LVL33
 7328 0040 0100     		.2byte	0x1
 7329 0042 58       		.byte	0x58
 7330 0043 66010000 		.4byte	.LVL33
 7331 0047 6C030000 		.4byte	.LVL49
 7332 004b 0400     		.2byte	0x4
 7333 004d F3       		.byte	0xf3
 7334 004e 01       		.uleb128 0x1
 7335 004f 50       		.byte	0x50
 7336 0050 9F       		.byte	0x9f
 7337 0051 6C030000 		.4byte	.LVL49
 7338 0055 78030000 		.4byte	.LVL50
 7339 0059 0100     		.2byte	0x1
 7340 005b 58       		.byte	0x58
 7341 005c 78030000 		.4byte	.LVL50
 7342 0060 C8030000 		.4byte	.LFE118
 7343 0064 0400     		.2byte	0x4
 7344 0066 F3       		.byte	0xf3
 7345 0067 01       		.uleb128 0x1
 7346 0068 50       		.byte	0x50
 7347 0069 9F       		.byte	0x9f
 7348 006a 00000000 		.4byte	0
 7349 006e 00000000 		.4byte	0
 7350              	.LLST2:
 7351 0072 00000000 		.4byte	.LVL0
 7352 0076 13000000 		.4byte	.LVL2-1
 7353 007a 0100     		.2byte	0x1
 7354 007c 51       		.byte	0x51
 7355 007d 13000000 		.4byte	.LVL2-1
 7356 0081 C8030000 		.4byte	.LFE118
ARM GAS  C:\Users\Elis\AppData\Local\Temp\ccGbXKEy.s 			page 131


 7357 0085 0300     		.2byte	0x3
 7358 0087 91       		.byte	0x91
 7359 0088 CC7E     		.sleb128 -180
 7360 008a 00000000 		.4byte	0
 7361 008e 00000000 		.4byte	0
 7362              	.LLST3:
 7363 0092 00000000 		.4byte	.LVL0
 7364 0096 13000000 		.4byte	.LVL2-1
 7365 009a 0100     		.2byte	0x1
 7366 009c 52       		.byte	0x52
 7367 009d 13000000 		.4byte	.LVL2-1
 7368 00a1 C8030000 		.4byte	.LFE118
 7369 00a5 0100     		.2byte	0x1
 7370 00a7 55       		.byte	0x55
 7371 00a8 00000000 		.4byte	0
 7372 00ac 00000000 		.4byte	0
 7373              	.LLST4:
 7374 00b0 5E000000 		.4byte	.LVL9
 7375 00b4 62000000 		.4byte	.LVL10
 7376 00b8 0100     		.2byte	0x1
 7377 00ba 50       		.byte	0x50
 7378 00bb 62000000 		.4byte	.LVL10
 7379 00bf 67000000 		.4byte	.LVL11-1
 7380 00c3 0100     		.2byte	0x1
 7381 00c5 53       		.byte	0x53
 7382 00c6 00000000 		.4byte	0
 7383 00ca 00000000 		.4byte	0
 7384              	.LLST5:
 7385 00ce A4000000 		.4byte	.LVL16
 7386 00d2 A6000000 		.4byte	.LVL17
 7387 00d6 0100     		.2byte	0x1
 7388 00d8 50       		.byte	0x50
 7389 00d9 A6000000 		.4byte	.LVL17
 7390 00dd C8030000 		.4byte	.LFE118
 7391 00e1 0100     		.2byte	0x1
 7392 00e3 5B       		.byte	0x5b
 7393 00e4 00000000 		.4byte	0
 7394 00e8 00000000 		.4byte	0
 7395              	.LLST6:
 7396 00ec EA000000 		.4byte	.LVL23
 7397 00f0 EC000000 		.4byte	.LVL24
 7398 00f4 0100     		.2byte	0x1
 7399 00f6 50       		.byte	0x50
 7400 00f7 EC000000 		.4byte	.LVL24
 7401 00fb C8030000 		.4byte	.LFE118
 7402 00ff 0100     		.2byte	0x1
 7403 0101 5A       		.byte	0x5a
 7404 0102 00000000 		.4byte	0
 7405 0106 00000000 		.4byte	0
 7406              	.LLST7:
 7407 010a 22010000 		.4byte	.LVL30
 7408 010e 24010000 		.4byte	.LVL31
 7409 0112 0100     		.2byte	0x1
 7410 0114 50       		.byte	0x50
 7411 0115 24010000 		.4byte	.LVL31
 7412 0119 C8030000 		.4byte	.LFE118
 7413 011d 0300     		.2byte	0x3
ARM GAS  C:\Users\Elis\AppData\Local\Temp\ccGbXKEy.s 			page 132


 7414 011f 91       		.byte	0x91
 7415 0120 C87E     		.sleb128 -184
 7416 0122 00000000 		.4byte	0
 7417 0126 00000000 		.4byte	0
 7418              	.LLST8:
 7419 012a B6020000 		.4byte	.LVL43
 7420 012e CC020000 		.4byte	.LVL44
 7421 0132 0200     		.2byte	0x2
 7422 0134 30       		.byte	0x30
 7423 0135 9F       		.byte	0x9f
 7424 0136 00000000 		.4byte	0
 7425 013a 00000000 		.4byte	0
 7426              	.LLST9:
 7427 013e 00000000 		.4byte	.LFB119
 7428 0142 02000000 		.4byte	.LCFI2
 7429 0146 0200     		.2byte	0x2
 7430 0148 7D       		.byte	0x7d
 7431 0149 00       		.sleb128 0
 7432 014a 02000000 		.4byte	.LCFI2
 7433 014e 50000000 		.4byte	.LFE119
 7434 0152 0200     		.2byte	0x2
 7435 0154 7D       		.byte	0x7d
 7436 0155 08       		.sleb128 8
 7437 0156 00000000 		.4byte	0
 7438 015a 00000000 		.4byte	0
 7439              	.LLST10:
 7440 015e 00000000 		.4byte	.LFB120
 7441 0162 04000000 		.4byte	.LCFI3
 7442 0166 0200     		.2byte	0x2
 7443 0168 7D       		.byte	0x7d
 7444 0169 00       		.sleb128 0
 7445 016a 04000000 		.4byte	.LCFI3
 7446 016e 06000000 		.4byte	.LCFI4
 7447 0172 0200     		.2byte	0x2
 7448 0174 7D       		.byte	0x7d
 7449 0175 24       		.sleb128 36
 7450 0176 06000000 		.4byte	.LCFI4
 7451 017a 3C0A0000 		.4byte	.LFE120
 7452 017e 0300     		.2byte	0x3
 7453 0180 7D       		.byte	0x7d
 7454 0181 C001     		.sleb128 192
 7455 0183 00000000 		.4byte	0
 7456 0187 00000000 		.4byte	0
 7457              	.LLST11:
 7458 018b 00000000 		.4byte	.LVL58
 7459 018f 0A000000 		.4byte	.LVL59
 7460 0193 0100     		.2byte	0x1
 7461 0195 50       		.byte	0x50
 7462 0196 0A000000 		.4byte	.LVL59
 7463 019a D8000000 		.4byte	.LVL82
 7464 019e 0100     		.2byte	0x1
 7465 01a0 57       		.byte	0x57
 7466 01a1 D8000000 		.4byte	.LVL82
 7467 01a5 3C0A0000 		.4byte	.LFE120
 7468 01a9 0400     		.2byte	0x4
 7469 01ab F3       		.byte	0xf3
 7470 01ac 01       		.uleb128 0x1
ARM GAS  C:\Users\Elis\AppData\Local\Temp\ccGbXKEy.s 			page 133


 7471 01ad 50       		.byte	0x50
 7472 01ae 9F       		.byte	0x9f
 7473 01af 00000000 		.4byte	0
 7474 01b3 00000000 		.4byte	0
 7475              	.LLST12:
 7476 01b7 5E000000 		.4byte	.LVL67
 7477 01bb 60000000 		.4byte	.LVL68
 7478 01bf 0100     		.2byte	0x1
 7479 01c1 50       		.byte	0x50
 7480 01c2 60000000 		.4byte	.LVL68
 7481 01c6 AC030000 		.4byte	.LVL97
 7482 01ca 0100     		.2byte	0x1
 7483 01cc 58       		.byte	0x58
 7484 01cd 7E090000 		.4byte	.LVL134
 7485 01d1 90090000 		.4byte	.LVL135
 7486 01d5 0100     		.2byte	0x1
 7487 01d7 58       		.byte	0x58
 7488 01d8 00000000 		.4byte	0
 7489 01dc 00000000 		.4byte	0
 7490              	.LLST13:
 7491 01e0 9A000000 		.4byte	.LVL74
 7492 01e4 9C000000 		.4byte	.LVL75
 7493 01e8 0100     		.2byte	0x1
 7494 01ea 50       		.byte	0x50
 7495 01eb 9C000000 		.4byte	.LVL75
 7496 01ef 3C0A0000 		.4byte	.LFE120
 7497 01f3 0300     		.2byte	0x3
 7498 01f5 91       		.byte	0x91
 7499 01f6 C87E     		.sleb128 -184
 7500 01f8 00000000 		.4byte	0
 7501 01fc 00000000 		.4byte	0
 7502              	.LLST14:
 7503 0200 D6000000 		.4byte	.LVL81
 7504 0204 DA000000 		.4byte	.LVL83
 7505 0208 0100     		.2byte	0x1
 7506 020a 50       		.byte	0x50
 7507 020b DA000000 		.4byte	.LVL83
 7508 020f 3C0A0000 		.4byte	.LFE120
 7509 0213 0300     		.2byte	0x3
 7510 0215 91       		.byte	0x91
 7511 0216 CC7E     		.sleb128 -180
 7512 0218 00000000 		.4byte	0
 7513 021c 00000000 		.4byte	0
 7514              	.LLST15:
 7515 0220 00000000 		.4byte	.LFB121
 7516 0224 04000000 		.4byte	.LCFI5
 7517 0228 0200     		.2byte	0x2
 7518 022a 7D       		.byte	0x7d
 7519 022b 00       		.sleb128 0
 7520 022c 04000000 		.4byte	.LCFI5
 7521 0230 08000000 		.4byte	.LCFI6
 7522 0234 0200     		.2byte	0x2
 7523 0236 7D       		.byte	0x7d
 7524 0237 24       		.sleb128 36
 7525 0238 08000000 		.4byte	.LCFI6
 7526 023c 5A030000 		.4byte	.LFE121
 7527 0240 0300     		.2byte	0x3
ARM GAS  C:\Users\Elis\AppData\Local\Temp\ccGbXKEy.s 			page 134


 7528 0242 7D       		.byte	0x7d
 7529 0243 C001     		.sleb128 192
 7530 0245 00000000 		.4byte	0
 7531 0249 00000000 		.4byte	0
 7532              		.section	.debug_aranges,"",%progbits
 7533 0000 34000000 		.4byte	0x34
 7534 0004 0200     		.2byte	0x2
 7535 0006 00000000 		.4byte	.Ldebug_info0
 7536 000a 04       		.byte	0x4
 7537 000b 00       		.byte	0
 7538 000c 0000     		.2byte	0
 7539 000e 0000     		.2byte	0
 7540 0010 00000000 		.4byte	.LFB118
 7541 0014 C8030000 		.4byte	.LFE118-.LFB118
 7542 0018 00000000 		.4byte	.LFB119
 7543 001c 50000000 		.4byte	.LFE119-.LFB119
 7544 0020 00000000 		.4byte	.LFB120
 7545 0024 3C0A0000 		.4byte	.LFE120-.LFB120
 7546 0028 00000000 		.4byte	.LFB121
 7547 002c 5A030000 		.4byte	.LFE121-.LFB121
 7548 0030 00000000 		.4byte	0
 7549 0034 00000000 		.4byte	0
 7550              		.section	.debug_ranges,"",%progbits
 7551              	.Ldebug_ranges0:
 7552 0000 00000000 		.4byte	.LFB118
 7553 0004 C8030000 		.4byte	.LFE118
 7554 0008 00000000 		.4byte	.LFB119
 7555 000c 50000000 		.4byte	.LFE119
 7556 0010 00000000 		.4byte	.LFB120
 7557 0014 3C0A0000 		.4byte	.LFE120
 7558 0018 00000000 		.4byte	.LFB121
 7559 001c 5A030000 		.4byte	.LFE121
 7560 0020 00000000 		.4byte	0
 7561 0024 00000000 		.4byte	0
 7562              		.section	.debug_line,"",%progbits
 7563              	.Ldebug_line0:
 7564 0000 E9070000 		.section	.debug_str,"MS",%progbits,1
 7564      02002F03 
 7564      00000201 
 7564      FB0E0D00 
 7564      01010101 
 7565              	.LASF165:
 7566 0000 67646973 		.ascii	"gdispImageClose\000"
 7566      70496D61 
 7566      6765436C 
 7566      6F736500 
 7567              	.LASF128:
 7568 0010 5F6D5F62 		.ascii	"_m_b\000"
 7568      00
 7569              	.LASF106:
 7570 0015 5F305F62 		.ascii	"_0_b\000"
 7570      00
 7571              	.LASF147:
 7572 001a 686F6D65 		.ascii	"home_contacts_b\000"
 7572      5F636F6E 
 7572      74616374 
 7572      735F6200 
ARM GAS  C:\Users\Elis\AppData\Local\Temp\ccGbXKEy.s 			page 135


 7573              	.LASF65:
 7574 002a 70737479 		.ascii	"pstyle\000"
 7574      6C6500
 7575              	.LASF53:
 7576 0031 65646765 		.ascii	"edge\000"
 7576      00
 7577              	.LASF3:
 7578 0036 73697A65 		.ascii	"size_t\000"
 7578      5F7400
 7579              	.LASF109:
 7580 003d 5F335F62 		.ascii	"_3_b\000"
 7580      00
 7581              	.LASF99:
 7582 0042 6164645F 		.ascii	"add_p\000"
 7582      7000
 7583              	.LASF122:
 7584 0048 5F675F62 		.ascii	"_g_b\000"
 7584      00
 7585              	.LASF78:
 7586 004d 7363726F 		.ascii	"scrollSmooth\000"
 7586      6C6C536D 
 7586      6F6F7468 
 7586      00
 7587              	.LASF34:
 7588 005a 74797065 		.ascii	"type\000"
 7588      00
 7589              	.LASF91:
 7590 005f 70617468 		.ascii	"path\000"
 7590      00
 7591              	.LASF80:
 7592 0064 47436F6E 		.ascii	"GContainerObject\000"
 7592      7461696E 
 7592      65724F62 
 7592      6A656374 
 7592      00
 7593              	.LASF64:
 7594 0075 666E5061 		.ascii	"fnParam\000"
 7594      72616D00 
 7595              	.LASF13:
 7596 007d 6C6F6E67 		.ascii	"long long unsigned int\000"
 7596      206C6F6E 
 7596      6720756E 
 7596      7369676E 
 7596      65642069 
 7597              	.LASF141:
 7598 0094 5F646F74 		.ascii	"_dot_b\000"
 7598      5F6200
 7599              	.LASF51:
 7600 009b 47436F6C 		.ascii	"GColorSet\000"
 7600      6F725365 
 7600      7400
 7601              	.LASF131:
 7602 00a5 5F705F62 		.ascii	"_p_b\000"
 7602      00
 7603              	.LASF163:
 7604 00aa 6777696E 		.ascii	"gwinGButtonCreate\000"
 7604      47427574 
ARM GAS  C:\Users\Elis\AppData\Local\Temp\ccGbXKEy.s 			page 136


 7604      746F6E43 
 7604      72656174 
 7604      6500
 7605              	.LASF42:
 7606 00bc 4748616E 		.ascii	"GHandle\000"
 7606      646C6500 
 7607              	.LASF22:
 7608 00c4 6E657874 		.ascii	"next\000"
 7608      00
 7609              	.LASF168:
 7610 00c9 433A5C43 		.ascii	"C:\\ChibiStudio\\workspace26\\Mobile_phone\000"
 7610      68696269 
 7610      53747564 
 7610      696F5C77 
 7610      6F726B73 
 7611              	.LASF86:
 7612 00f1 6E756D4F 		.ascii	"numOfContacts\000"
 7612      66436F6E 
 7612      74616374 
 7612      7300
 7613              	.LASF4:
 7614 00ff 696E7431 		.ascii	"int16_t\000"
 7614      365F7400 
 7615              	.LASF12:
 7616 0107 6C6F6E67 		.ascii	"long long int\000"
 7616      206C6F6E 
 7616      6720696E 
 7616      7400
 7617              	.LASF1:
 7618 0115 7369676E 		.ascii	"signed char\000"
 7618      65642063 
 7618      68617200 
 7619              	.LASF96:
 7620 0121 64657374 		.ascii	"destroyContactAddScreen\000"
 7620      726F7943 
 7620      6F6E7461 
 7620      63744164 
 7620      64536372 
 7621              	.LASF50:
 7622 0139 73686F77 		.ascii	"show\000"
 7622      00
 7623              	.LASF14:
 7624 013e 626F6F6C 		.ascii	"bool_t\000"
 7624      5F7400
 7625              	.LASF116:
 7626 0145 5F615F62 		.ascii	"_a_b\000"
 7626      00
 7627              	.LASF32:
 7628 014a 67646973 		.ascii	"gdispImageFlags\000"
 7628      70496D61 
 7628      6765466C 
 7628      61677300 
 7629              	.LASF77:
 7630 015a 7363726F 		.ascii	"scrollAuto\000"
 7630      6C6C4175 
 7630      746F00
 7631              	.LASF127:
ARM GAS  C:\Users\Elis\AppData\Local\Temp\ccGbXKEy.s 			page 137


 7632 0165 5F6C5F62 		.ascii	"_l_b\000"
 7632      00
 7633              	.LASF47:
 7634 016a 70617265 		.ascii	"parent\000"
 7634      6E7400
 7635              	.LASF9:
 7636 0171 6C6F6E67 		.ascii	"long int\000"
 7636      20696E74 
 7636      00
 7637              	.LASF74:
 7638 017a 6C617374 		.ascii	"last_mouse_y\000"
 7638      5F6D6F75 
 7638      73655F79 
 7638      00
 7639              	.LASF142:
 7640 0187 5F636F6D 		.ascii	"_comma_b\000"
 7640      6D615F62 
 7640      00
 7641              	.LASF153:
 7642 0190 6E616D65 		.ascii	"name_contacts_lb\000"
 7642      5F636F6E 
 7642      74616374 
 7642      735F6C62 
 7642      00
 7643              	.LASF146:
 7644 01a1 636F6E74 		.ascii	"contacts_contacts_l\000"
 7644      61637473 
 7644      5F636F6E 
 7644      74616374 
 7644      735F6C00 
 7645              	.LASF144:
 7646 01b5 5F657863 		.ascii	"_exclamation_b\000"
 7646      6C616D61 
 7646      74696F6E 
 7646      5F6200
 7647              	.LASF154:
 7648 01c4 6777696E 		.ascii	"gwinWidgetClearInit\000"
 7648      57696467 
 7648      6574436C 
 7648      65617249 
 7648      6E697400 
 7649              	.LASF6:
 7650 01d8 75696E74 		.ascii	"uint16_t\000"
 7650      31365F74 
 7650      00
 7651              	.LASF167:
 7652 01e1 2E2E2F2E 		.ascii	"../../workspace26/Mobile_phone/gui/contactsScreen.c"
 7652      2E2F776F 
 7652      726B7370 
 7652      61636532 
 7652      362F4D6F 
 7653 0214 00       		.ascii	"\000"
 7654              	.LASF121:
 7655 0215 5F665F62 		.ascii	"_f_b\000"
 7655      00
 7656              	.LASF48:
 7657 021a 6777696E 		.ascii	"gwinVMT\000"
ARM GAS  C:\Users\Elis\AppData\Local\Temp\ccGbXKEy.s 			page 138


 7657      564D5400 
 7658              	.LASF140:
 7659 0222 5F715F62 		.ascii	"_q_b\000"
 7659      00
 7660              	.LASF19:
 7661 0227 4746494C 		.ascii	"GFILE\000"
 7661      4500
 7662              	.LASF110:
 7663 022d 5F345F62 		.ascii	"_4_b\000"
 7663      00
 7664              	.LASF157:
 7665 0232 7374726C 		.ascii	"strlcat\000"
 7665      63617400 
 7666              	.LASF55:
 7667 023a 70726F67 		.ascii	"progress\000"
 7667      72657373 
 7667      00
 7668              	.LASF156:
 7669 0243 63685468 		.ascii	"chThdSetPriority\000"
 7669      64536574 
 7669      5072696F 
 7669      72697479 
 7669      00
 7670              	.LASF0:
 7671 0254 756E7369 		.ascii	"unsigned int\000"
 7671      676E6564 
 7671      20696E74 
 7671      00
 7672              	.LASF170:
 7673 0261 7374726C 		.ascii	"strlen\000"
 7673      656E00
 7674              	.LASF59:
 7675 0268 64697361 		.ascii	"disabled\000"
 7675      626C6564 
 7675      00
 7676              	.LASF152:
 7677 0271 74656C4E 		.ascii	"telNum_contacts_lb\000"
 7677      756D5F63 
 7677      6F6E7461 
 7677      6374735F 
 7677      6C6200
 7678              	.LASF11:
 7679 0284 6C6F6E67 		.ascii	"long unsigned int\000"
 7679      20756E73 
 7679      69676E65 
 7679      6420696E 
 7679      7400
 7680              	.LASF90:
 7681 0296 64656C5F 		.ascii	"del_f\000"
 7681      6600
 7682              	.LASF126:
 7683 029c 5F6B5F62 		.ascii	"_k_b\000"
 7683      00
 7684              	.LASF82:
 7685 02a1 6E616D65 		.ascii	"name\000"
 7685      00
 7686              	.LASF136:
ARM GAS  C:\Users\Elis\AppData\Local\Temp\ccGbXKEy.s 			page 139


 7687 02a6 5F765F62 		.ascii	"_v_b\000"
 7687      00
 7688              	.LASF100:
 7689 02ab 64656C5F 		.ascii	"del_p\000"
 7689      7000
 7690              	.LASF105:
 7691 02b1 57686974 		.ascii	"WhiteWidgetStyle\000"
 7691      65576964 
 7691      67657453 
 7691      74796C65 
 7691      00
 7692              	.LASF111:
 7693 02c2 5F355F62 		.ascii	"_5_b\000"
 7693      00
 7694              	.LASF135:
 7695 02c7 5F755F62 		.ascii	"_u_b\000"
 7695      00
 7696              	.LASF83:
 7697 02cc 74656C4E 		.ascii	"telNumber\000"
 7697      756D6265 
 7697      7200
 7698              	.LASF67:
 7699 02d6 63757374 		.ascii	"customDraw\000"
 7699      6F6D4472 
 7699      617700
 7700              	.LASF115:
 7701 02e1 5F395F62 		.ascii	"_9_b\000"
 7701      00
 7702              	.LASF28:
 7703 02e6 47446973 		.ascii	"GDisplay\000"
 7703      706C6179 
 7703      00
 7704              	.LASF70:
 7705 02ef 47427574 		.ascii	"GButtonObject\000"
 7705      746F6E4F 
 7705      626A6563 
 7705      7400
 7706              	.LASF130:
 7707 02fd 5F6F5F62 		.ascii	"_o_b\000"
 7707      00
 7708              	.LASF93:
 7709 0302 64657374 		.ascii	"destroyContactsScreen\000"
 7709      726F7943 
 7709      6F6E7461 
 7709      63747353 
 7709      63726565 
 7710              	.LASF5:
 7711 0318 73686F72 		.ascii	"short int\000"
 7711      7420696E 
 7711      7400
 7712              	.LASF120:
 7713 0322 5F655F62 		.ascii	"_e_b\000"
 7713      00
 7714              	.LASF132:
 7715 0327 5F725F62 		.ascii	"_r_b\000"
 7715      00
 7716              	.LASF104:
ARM GAS  C:\Users\Elis\AppData\Local\Temp\ccGbXKEy.s 			page 140


 7717 032c 47444953 		.ascii	"GDISP\000"
 7717      5000
 7718              	.LASF27:
 7719 0332 6D665F66 		.ascii	"mf_font_s\000"
 7719      6F6E745F 
 7719      7300
 7720              	.LASF29:
 7721 033c 636F6C6F 		.ascii	"color_t\000"
 7721      725F7400 
 7722              	.LASF69:
 7723 0344 63757374 		.ascii	"customStyle\000"
 7723      6F6D5374 
 7723      796C6500 
 7724              	.LASF84:
 7725 0350 7468656D 		.ascii	"theme\000"
 7725      6500
 7726              	.LASF138:
 7727 0356 5F785F62 		.ascii	"_x_b\000"
 7727      00
 7728              	.LASF24:
 7729 035b 7461696C 		.ascii	"tail\000"
 7729      00
 7730              	.LASF17:
 7731 0360 73697A65 		.ascii	"sizetype\000"
 7731      74797065 
 7731      00
 7732              	.LASF85:
 7733 0369 636F6E74 		.ascii	"contacts\000"
 7733      61637473 
 7733      00
 7734              	.LASF150:
 7735 0372 64656C65 		.ascii	"delete_contacts_b\000"
 7735      74655F63 
 7735      6F6E7461 
 7735      6374735F 
 7735      6200
 7736              	.LASF41:
 7737 0384 67646973 		.ascii	"gdispImagePrivate\000"
 7737      70496D61 
 7737      67655072 
 7737      69766174 
 7737      6500
 7738              	.LASF68:
 7739 0396 63757374 		.ascii	"customParam\000"
 7739      6F6D5061 
 7739      72616D00 
 7740              	.LASF166:
 7741 03a2 474E5520 		.ascii	"GNU C 4.7.4 20140401 (release) [ARM/embedded-4_7-br"
 7741      4320342E 
 7741      372E3420 
 7741      32303134 
 7741      30343031 
 7742 03d5 616E6368 		.ascii	"anch revision 209195]\000"
 7742      20726576 
 7742      6973696F 
 7742      6E203230 
 7742      39313935 
ARM GAS  C:\Users\Elis\AppData\Local\Temp\ccGbXKEy.s 			page 141


 7743              	.LASF125:
 7744 03eb 5F6A5F62 		.ascii	"_j_b\000"
 7744      00
 7745              	.LASF159:
 7746 03f0 67646973 		.ascii	"gdispImageOpenGFile\000"
 7746      70496D61 
 7746      67654F70 
 7746      656E4746 
 7746      696C6500 
 7747              	.LASF169:
 7748 0404 5F5F6275 		.ascii	"__builtin_strlen\000"
 7748      696C7469 
 7748      6E5F7374 
 7748      726C656E 
 7748      00
 7749              	.LASF25:
 7750 0415 636F6F72 		.ascii	"coord_t\000"
 7750      645F7400 
 7751              	.LASF114:
 7752 041d 5F385F62 		.ascii	"_8_b\000"
 7752      00
 7753              	.LASF39:
 7754 0422 70726976 		.ascii	"priv\000"
 7754      00
 7755              	.LASF87:
 7756 0427 6261636B 		.ascii	"background_f\000"
 7756      67726F75 
 7756      6E645F66 
 7756      00
 7757              	.LASF49:
 7758 0434 4757696E 		.ascii	"GWindowInit\000"
 7758      646F7749 
 7758      6E697400 
 7759              	.LASF30:
 7760 0440 67646973 		.ascii	"gdispImageType\000"
 7760      70496D61 
 7760      67655479 
 7760      706500
 7761              	.LASF143:
 7762 044f 5F736C61 		.ascii	"_slash_b\000"
 7762      73685F62 
 7762      00
 7763              	.LASF36:
 7764 0458 6267636F 		.ascii	"bgcolor\000"
 7764      6C6F7200 
 7765              	.LASF97:
 7766 0460 6261636B 		.ascii	"background_p\000"
 7766      67726F75 
 7766      6E645F70 
 7766      00
 7767              	.LASF26:
 7768 046d 666F6E74 		.ascii	"font_t\000"
 7768      5F7400
 7769              	.LASF16:
 7770 0474 74707269 		.ascii	"tprio_t\000"
 7770      6F5F7400 
 7771              	.LASF119:
ARM GAS  C:\Users\Elis\AppData\Local\Temp\ccGbXKEy.s 			page 142


 7772 047c 5F645F62 		.ascii	"_d_b\000"
 7772      00
 7773              	.LASF162:
 7774 0481 6777696E 		.ascii	"gwinListSetScroll\000"
 7774      4C697374 
 7774      53657453 
 7774      63726F6C 
 7774      6C00
 7775              	.LASF15:
 7776 0493 5F426F6F 		.ascii	"_Bool\000"
 7776      6C00
 7777              	.LASF8:
 7778 0499 696E7433 		.ascii	"int32_t\000"
 7778      325F7400 
 7779              	.LASF2:
 7780 04a1 756E7369 		.ascii	"unsigned char\000"
 7780      676E6564 
 7780      20636861 
 7780      7200
 7781              	.LASF137:
 7782 04af 5F7A5F62 		.ascii	"_z_b\000"
 7782      00
 7783              	.LASF98:
 7784 04b4 686F6D65 		.ascii	"home_p\000"
 7784      5F7000
 7785              	.LASF103:
 7786 04bb 49544D5F 		.ascii	"ITM_RxBuffer\000"
 7786      52784275 
 7786      66666572 
 7786      00
 7787              	.LASF108:
 7788 04c8 5F325F62 		.ascii	"_2_b\000"
 7788      00
 7789              	.LASF117:
 7790 04cd 5F625F62 		.ascii	"_b_b\000"
 7790      00
 7791              	.LASF54:
 7792 04d2 66696C6C 		.ascii	"fill\000"
 7792      00
 7793              	.LASF158:
 7794 04d7 6766696C 		.ascii	"gfileOpen\000"
 7794      654F7065 
 7794      6E00
 7795              	.LASF37:
 7796 04e1 77696474 		.ascii	"width\000"
 7796      6800
 7797              	.LASF145:
 7798 04e7 5F737061 		.ascii	"_space_b\000"
 7798      63655F62 
 7798      00
 7799              	.LASF61:
 7800 04f0 43757374 		.ascii	"CustomWidgetDrawFunction\000"
 7800      6F6D5769 
 7800      64676574 
 7800      44726177 
 7800      46756E63 
 7801              	.LASF160:
ARM GAS  C:\Users\Elis\AppData\Local\Temp\ccGbXKEy.s 			page 143


 7802 0509 6777696E 		.ascii	"gwinGContainerCreate\000"
 7802      47436F6E 
 7802      7461696E 
 7802      65724372 
 7802      65617465 
 7803              	.LASF72:
 7804 051e 73746172 		.ascii	"start_mouse_x\000"
 7804      745F6D6F 
 7804      7573655F 
 7804      7800
 7805              	.LASF73:
 7806 052c 73746172 		.ascii	"start_mouse_y\000"
 7806      745F6D6F 
 7806      7573655F 
 7806      7900
 7807              	.LASF62:
 7808 053a 47576964 		.ascii	"GWidgetObject\000"
 7808      6765744F 
 7808      626A6563 
 7808      7400
 7809              	.LASF23:
 7810 0548 68656164 		.ascii	"head\000"
 7810      00
 7811              	.LASF89:
 7812 054d 6164645F 		.ascii	"add_f\000"
 7812      6600
 7813              	.LASF10:
 7814 0553 75696E74 		.ascii	"uint32_t\000"
 7814      33325F74 
 7814      00
 7815              	.LASF134:
 7816 055c 5F745F62 		.ascii	"_t_b\000"
 7816      00
 7817              	.LASF124:
 7818 0561 5F695F62 		.ascii	"_i_b\000"
 7818      00
 7819              	.LASF92:
 7820 0566 63726561 		.ascii	"createContactsScreen\000"
 7820      7465436F 
 7820      6E746163 
 7820      74735363 
 7820      7265656E 
 7821              	.LASF161:
 7822 057b 6777696E 		.ascii	"gwinGListCreate\000"
 7822      474C6973 
 7822      74437265 
 7822      61746500 
 7823              	.LASF94:
 7824 058b 63726561 		.ascii	"createContactAddScreen\000"
 7824      7465436F 
 7824      6E746163 
 7824      74416464 
 7824      53637265 
 7825              	.LASF18:
 7826 05a2 63686172 		.ascii	"char\000"
 7826      00
 7827              	.LASF45:
ARM GAS  C:\Users\Elis\AppData\Local\Temp\ccGbXKEy.s 			page 144


 7828 05a7 636F6C6F 		.ascii	"color\000"
 7828      7200
 7829              	.LASF164:
 7830 05ad 6777696E 		.ascii	"gwinListAddItem\000"
 7830      4C697374 
 7830      41646449 
 7830      74656D00 
 7831              	.LASF113:
 7832 05bd 5F375F62 		.ascii	"_7_b\000"
 7832      00
 7833              	.LASF52:
 7834 05c2 74657874 		.ascii	"text\000"
 7834      00
 7835              	.LASF75:
 7836 05c7 6C697374 		.ascii	"list_head\000"
 7836      5F686561 
 7836      6400
 7837              	.LASF151:
 7838 05d1 6261636B 		.ascii	"back_contacts_b\000"
 7838      5F636F6E 
 7838      74616374 
 7838      735F6200 
 7839              	.LASF171:
 7840 05e1 6777696E 		.ascii	"gwinDestroy\000"
 7840      44657374 
 7840      726F7900 
 7841              	.LASF63:
 7842 05ed 666E4472 		.ascii	"fnDraw\000"
 7842      617700
 7843              	.LASF118:
 7844 05f4 5F635F62 		.ascii	"_c_b\000"
 7844      00
 7845              	.LASF40:
 7846 05f9 67646973 		.ascii	"gdispImageHandlers\000"
 7846      70496D61 
 7846      67654861 
 7846      6E646C65 
 7846      727300
 7847              	.LASF129:
 7848 060c 5F6E5F62 		.ascii	"_n_b\000"
 7848      00
 7849              	.LASF58:
 7850 0611 656E6162 		.ascii	"enabled\000"
 7850      6C656400 
 7851              	.LASF7:
 7852 0619 73686F72 		.ascii	"short unsigned int\000"
 7852      7420756E 
 7852      7369676E 
 7852      65642069 
 7852      6E7400
 7853              	.LASF43:
 7854 062c 4757696E 		.ascii	"GWindowObject\000"
 7854      646F774F 
 7854      626A6563 
 7854      7400
 7855              	.LASF139:
 7856 063a 5F795F62 		.ascii	"_y_b\000"
ARM GAS  C:\Users\Elis\AppData\Local\Temp\ccGbXKEy.s 			page 145


 7856      00
 7857              	.LASF95:
 7858 063f 6261636B 		.ascii	"back_f\000"
 7858      5F6600
 7859              	.LASF79:
 7860 0646 7363726F 		.ascii	"scroll_t\000"
 7860      6C6C5F74 
 7860      00
 7861              	.LASF102:
 7862 064f 6D61696E 		.ascii	"mainContainer_c\000"
 7862      436F6E74 
 7862      61696E65 
 7862      725F6300 
 7863              	.LASF107:
 7864 065f 5F315F62 		.ascii	"_1_b\000"
 7864      00
 7865              	.LASF66:
 7866 0664 47576964 		.ascii	"GWidgetInit\000"
 7866      67657449 
 7866      6E697400 
 7867              	.LASF101:
 7868 0670 6261636B 		.ascii	"back_p\000"
 7868      5F7000
 7869              	.LASF44:
 7870 0677 64697370 		.ascii	"display\000"
 7870      6C617900 
 7871              	.LASF76:
 7872 067f 7363726F 		.ascii	"scrollAlways\000"
 7872      6C6C416C 
 7872      77617973 
 7872      00
 7873              	.LASF31:
 7874 068c 67646973 		.ascii	"gdispImageError\000"
 7874      70496D61 
 7874      67654572 
 7874      726F7200 
 7875              	.LASF155:
 7876 069c 6D656D73 		.ascii	"memset\000"
 7876      657400
 7877              	.LASF60:
 7878 06a3 70726573 		.ascii	"pressed\000"
 7878      73656400 
 7879              	.LASF46:
 7880 06ab 666F6E74 		.ascii	"font\000"
 7880      00
 7881              	.LASF149:
 7882 06b0 73617665 		.ascii	"save_contacts_b\000"
 7882      5F636F6E 
 7882      74616374 
 7882      735F6200 
 7883              	.LASF33:
 7884 06c0 67646973 		.ascii	"gdispImage\000"
 7884      70496D61 
 7884      676500
 7885              	.LASF81:
 7886 06cb 436F6E74 		.ascii	"Contact\000"
 7886      61637400 
ARM GAS  C:\Users\Elis\AppData\Local\Temp\ccGbXKEy.s 			page 146


 7887              	.LASF123:
 7888 06d3 5F685F62 		.ascii	"_h_b\000"
 7888      00
 7889              	.LASF35:
 7890 06d8 666C6167 		.ascii	"flags\000"
 7890      7300
 7891              	.LASF133:
 7892 06de 5F735F62 		.ascii	"_s_b\000"
 7892      00
 7893              	.LASF56:
 7894 06e3 47576964 		.ascii	"GWidgetStyle\000"
 7894      67657453 
 7894      74796C65 
 7894      00
 7895              	.LASF112:
 7896 06f0 5F365F62 		.ascii	"_6_b\000"
 7896      00
 7897              	.LASF148:
 7898 06f5 6164645F 		.ascii	"add_contacts_b\000"
 7898      636F6E74 
 7898      61637473 
 7898      5F6200
 7899              	.LASF88:
 7900 0704 686F6D65 		.ascii	"home_f\000"
 7900      5F6600
 7901              	.LASF38:
 7902 070b 68656967 		.ascii	"height\000"
 7902      687400
 7903              	.LASF71:
 7904 0712 474C6973 		.ascii	"GListObject\000"
 7904      744F626A 
 7904      65637400 
 7905              	.LASF57:
 7906 071e 6261636B 		.ascii	"background\000"
 7906      67726F75 
 7906      6E6400
 7907              	.LASF21:
 7908 0729 67667851 		.ascii	"gfxQueueASync\000"
 7908      75657565 
 7908      4153796E 
 7908      6300
 7909              	.LASF20:
 7910 0737 67667851 		.ascii	"gfxQueueASyncItem\000"
 7910      75657565 
 7910      4153796E 
 7910      63497465 
 7910      6D00
 7911              		.ident	"GCC: (GNU Tools for ARM Embedded Processors) 4.7.4 20140401 (release) [ARM/embedded-4_7-br
ARM GAS  C:\Users\Elis\AppData\Local\Temp\ccGbXKEy.s 			page 147


DEFINED SYMBOLS
                            *ABS*:00000000 contactsScreen.c
C:\Users\Elis\AppData\Local\Temp\ccGbXKEy.s:19     .text.createContactsScreen:00000000 $t
C:\Users\Elis\AppData\Local\Temp\ccGbXKEy.s:25     .text.createContactsScreen:00000000 createContactsScreen
C:\Users\Elis\AppData\Local\Temp\ccGbXKEy.s:541    .text.createContactsScreen:0000030c $d
C:\Users\Elis\AppData\Local\Temp\ccGbXKEy.s:565    .text.createContactsScreen:00000360 $t
C:\Users\Elis\AppData\Local\Temp\ccGbXKEy.s:638    .text.createContactsScreen:000003b0 $d
C:\Users\Elis\AppData\Local\Temp\ccGbXKEy.s:648    .text.destroyContactsScreen:00000000 $t
C:\Users\Elis\AppData\Local\Temp\ccGbXKEy.s:654    .text.destroyContactsScreen:00000000 destroyContactsScreen
C:\Users\Elis\AppData\Local\Temp\ccGbXKEy.s:2868   .bss.background_p:00000000 .LANCHOR0
C:\Users\Elis\AppData\Local\Temp\ccGbXKEy.s:2854   .bss.home_p:00000000 .LANCHOR3
C:\Users\Elis\AppData\Local\Temp\ccGbXKEy.s:2667   .bss.add_p:00000000 .LANCHOR5
C:\Users\Elis\AppData\Local\Temp\ccGbXKEy.s:2660   .bss.del_p:00000000 .LANCHOR7
C:\Users\Elis\AppData\Local\Temp\ccGbXKEy.s:2646   .bss.mainContainer_c:00000000 .LANCHOR1
C:\Users\Elis\AppData\Local\Temp\ccGbXKEy.s:706    .text.createContactAddScreen:00000000 $t
C:\Users\Elis\AppData\Local\Temp\ccGbXKEy.s:712    .text.createContactAddScreen:00000000 createContactAddScreen
C:\Users\Elis\AppData\Local\Temp\ccGbXKEy.s:1240   .text.createContactAddScreen:00000320 $d
C:\Users\Elis\AppData\Local\Temp\ccGbXKEy.s:1275   .text.createContactAddScreen:000003a4 $t
C:\Users\Elis\AppData\Local\Temp\ccGbXKEy.s:1775   .text.createContactAddScreen:000006a8 $d
C:\Users\Elis\AppData\Local\Temp\ccGbXKEy.s:1818   .text.createContactAddScreen:0000074c $t
C:\Users\Elis\AppData\Local\Temp\ccGbXKEy.s:2239   .text.createContactAddScreen:000009c0 $d
C:\Users\Elis\AppData\Local\Temp\ccGbXKEy.s:2274   .text.destroyContactAddScreen:00000000 $t
C:\Users\Elis\AppData\Local\Temp\ccGbXKEy.s:2280   .text.destroyContactAddScreen:00000000 destroyContactAddScreen
C:\Users\Elis\AppData\Local\Temp\ccGbXKEy.s:2632   .bss.back_p:00000000 .LANCHOR12
C:\Users\Elis\AppData\Local\Temp\ccGbXKEy.s:2674   .bss.contacts_contacts_l:00000000 .LANCHOR2
C:\Users\Elis\AppData\Local\Temp\ccGbXKEy.s:2639   .bss.back_contacts_b:00000000 .LANCHOR13
C:\Users\Elis\AppData\Local\Temp\ccGbXKEy.s:2681   .bss.telNum_contacts_lb:00000000 .LANCHOR10
C:\Users\Elis\AppData\Local\Temp\ccGbXKEy.s:2653   .bss.name_contacts_lb:00000000 .LANCHOR9
C:\Users\Elis\AppData\Local\Temp\ccGbXKEy.s:2882   .bss.delete_contacts_b:00000000 .LANCHOR8
C:\Users\Elis\AppData\Local\Temp\ccGbXKEy.s:2889   .bss.home_contacts_b:00000000 .LANCHOR4
C:\Users\Elis\AppData\Local\Temp\ccGbXKEy.s:2861   .bss.add_contacts_b:00000000 .LANCHOR6
C:\Users\Elis\AppData\Local\Temp\ccGbXKEy.s:2875   .bss.save_contacts_b:00000000 .LANCHOR11
C:\Users\Elis\AppData\Local\Temp\ccGbXKEy.s:2656   .bss.name_contacts_lb:00000000 name_contacts_lb
C:\Users\Elis\AppData\Local\Temp\ccGbXKEy.s:2684   .bss.telNum_contacts_lb:00000000 telNum_contacts_lb
C:\Users\Elis\AppData\Local\Temp\ccGbXKEy.s:2642   .bss.back_contacts_b:00000000 back_contacts_b
C:\Users\Elis\AppData\Local\Temp\ccGbXKEy.s:2885   .bss.delete_contacts_b:00000000 delete_contacts_b
C:\Users\Elis\AppData\Local\Temp\ccGbXKEy.s:2878   .bss.save_contacts_b:00000000 save_contacts_b
C:\Users\Elis\AppData\Local\Temp\ccGbXKEy.s:2864   .bss.add_contacts_b:00000000 add_contacts_b
C:\Users\Elis\AppData\Local\Temp\ccGbXKEy.s:2892   .bss.home_contacts_b:00000000 home_contacts_b
C:\Users\Elis\AppData\Local\Temp\ccGbXKEy.s:2677   .bss.contacts_contacts_l:00000000 contacts_contacts_l
C:\Users\Elis\AppData\Local\Temp\ccGbXKEy.s:2631   .bss.back_p:00000000 $d
C:\Users\Elis\AppData\Local\Temp\ccGbXKEy.s:2635   .bss.back_p:00000000 back_p
C:\Users\Elis\AppData\Local\Temp\ccGbXKEy.s:2638   .bss.back_contacts_b:00000000 $d
C:\Users\Elis\AppData\Local\Temp\ccGbXKEy.s:2645   .bss.mainContainer_c:00000000 $d
C:\Users\Elis\AppData\Local\Temp\ccGbXKEy.s:2649   .bss.mainContainer_c:00000000 mainContainer_c
C:\Users\Elis\AppData\Local\Temp\ccGbXKEy.s:2652   .bss.name_contacts_lb:00000000 $d
C:\Users\Elis\AppData\Local\Temp\ccGbXKEy.s:2659   .bss.del_p:00000000 $d
C:\Users\Elis\AppData\Local\Temp\ccGbXKEy.s:2663   .bss.del_p:00000000 del_p
C:\Users\Elis\AppData\Local\Temp\ccGbXKEy.s:2666   .bss.add_p:00000000 $d
C:\Users\Elis\AppData\Local\Temp\ccGbXKEy.s:2670   .bss.add_p:00000000 add_p
C:\Users\Elis\AppData\Local\Temp\ccGbXKEy.s:2673   .bss.contacts_contacts_l:00000000 $d
C:\Users\Elis\AppData\Local\Temp\ccGbXKEy.s:2680   .bss.telNum_contacts_lb:00000000 $d
C:\Users\Elis\AppData\Local\Temp\ccGbXKEy.s:2687   .rodata.str1.4:00000000 $d
C:\Users\Elis\AppData\Local\Temp\ccGbXKEy.s:2853   .bss.home_p:00000000 $d
C:\Users\Elis\AppData\Local\Temp\ccGbXKEy.s:2857   .bss.home_p:00000000 home_p
C:\Users\Elis\AppData\Local\Temp\ccGbXKEy.s:2860   .bss.add_contacts_b:00000000 $d
C:\Users\Elis\AppData\Local\Temp\ccGbXKEy.s:2867   .bss.background_p:00000000 $d
ARM GAS  C:\Users\Elis\AppData\Local\Temp\ccGbXKEy.s 			page 148


C:\Users\Elis\AppData\Local\Temp\ccGbXKEy.s:2871   .bss.background_p:00000000 background_p
C:\Users\Elis\AppData\Local\Temp\ccGbXKEy.s:2874   .bss.save_contacts_b:00000000 $d
C:\Users\Elis\AppData\Local\Temp\ccGbXKEy.s:2881   .bss.delete_contacts_b:00000000 $d
C:\Users\Elis\AppData\Local\Temp\ccGbXKEy.s:2888   .bss.home_contacts_b:00000000 $d
                     .debug_frame:00000010 $d
C:\Users\Elis\AppData\Local\Temp\ccGbXKEy.s:647    .text.createContactsScreen:000003c8 $t
C:\Users\Elis\AppData\Local\Temp\ccGbXKEy.s:2273   .text.createContactAddScreen:00000a3c $t

UNDEFINED SYMBOLS
gwinWidgetClearInit
chThdSetPriority
memset
strlen
strlcat
gfileOpen
gdispImageOpenGFile
gwinGContainerCreate
gwinGListCreate
gwinListSetScroll
gwinGButtonCreate
gwinListAddItem
gwinContainerDraw_Image
GDISP
gwinButtonDraw_Image
gwinContainerDraw_Std
WhiteWidgetStyle
gwinButtonDraw_Normal
gdispImageClose
gwinDestroy
_0_b
_1_b
_2_b
_3_b
_4_b
_5_b
_6_b
_7_b
_8_b
_9_b
_a_b
_b_b
_c_b
_d_b
_e_b
_f_b
_g_b
_h_b
_i_b
_j_b
_k_b
_l_b
_m_b
_n_b
_o_b
_p_b
_r_b
_s_b
ARM GAS  C:\Users\Elis\AppData\Local\Temp\ccGbXKEy.s 			page 149


_t_b
_u_b
_v_b
_z_b
_x_b
_y_b
_q_b
_dot_b
_comma_b
_slash_b
_exclamation_b
_space_b
