ARM GAS  C:\Users\Elis\AppData\Local\Temp\cchUZ69c.s 			page 1


   1              		.syntax unified
   2              		.cpu cortex-m4
   3              		.fpu softvfp
   4              		.eabi_attribute 20, 1
   5              		.eabi_attribute 21, 1
   6              		.eabi_attribute 23, 3
   7              		.eabi_attribute 24, 1
   8              		.eabi_attribute 25, 1
   9              		.eabi_attribute 26, 1
  10              		.eabi_attribute 30, 2
  11              		.eabi_attribute 34, 1
  12              		.eabi_attribute 18, 4
  13              		.thumb
  14              		.file	"contacts_t.c"
  15              		.text
  16              	.Ltext0:
  17              		.cfi_sections	.debug_frame
  18              		.section	.text.contacts_t,"ax",%progbits
  19              		.align	2
  20              		.p2align 4,,15
  21              		.global	contacts_t
  22              		.thumb
  23              		.thumb_func
  24              		.type	contacts_t, %function
  25              	contacts_t:
  26              	.LFB118:
  27              		.file 1 "../../workspace26/Mobile_phone/tasks/contacts_t.c"
  28              		.loc 1 3 0
  29              		.cfi_startproc
  30              		@ args = 0, pretend = 0, frame = 80
  31              		@ frame_needed = 0, uses_anonymous_args = 0
  32              	.LVL0:
  33 0000 30B5     		push	{r4, r5, lr}
  34              	.LCFI0:
  35              		.cfi_def_cfa_offset 12
  36              		.cfi_offset 4, -12
  37              		.cfi_offset 5, -8
  38              		.cfi_offset 14, -4
  39 0002 95B0     		sub	sp, sp, #84
  40              	.LCFI1:
  41              		.cfi_def_cfa_offset 96
  42              		.loc 1 15 0
  43 0004 0023     		movs	r3, #0
  44 0006 0193     		str	r3, [sp, #4]
  45              	.LVL1:
  46              	.L12:
  47              		.loc 1 21 0
  48 0008 FFF7FEFF 		bl	chMsgWait
  49              	.LVL2:
  50              		.loc 1 27 0
  51 000c 456B     		ldr	r5, [r0, #52]
  52              		.loc 1 21 0
  53 000e 0446     		mov	r4, r0
  54              	.LVL3:
  55              		.loc 1 27 0
  56 0010 95F84C00 		ldrb	r0, [r5, #76]	@ zero_extendqisi2
  57              	.LVL4:
ARM GAS  C:\Users\Elis\AppData\Local\Temp\cchUZ69c.s 			page 2


  58 0014 C207     		lsls	r2, r0, #31
  59 0016 11D4     		bmi	.L13
  60              		.loc 1 34 0
  61 0018 00F00202 		and	r2, r0, #2
  62              		.loc 1 43 0
  63 001c 00F00401 		and	r1, r0, #4
  64              		.loc 1 56 0
  65 0020 00F00803 		and	r3, r0, #8
  66              		.loc 1 34 0
  67 0024 D0B2     		uxtb	r0, r2
  68              		.loc 1 43 0
  69 0026 CAB2     		uxtb	r2, r1
  70              		.loc 1 56 0
  71 0028 D9B2     		uxtb	r1, r3
  72              		.loc 1 34 0
  73 002a 78B9     		cbnz	r0, .L15
  74              		.loc 1 43 0
  75 002c EAB9     		cbnz	r2, .L16
  76              		.loc 1 60 0
  77 002e 6846     		mov	r0, sp
  78              		.loc 1 56 0
  79 0030 0029     		cmp	r1, #0
  80 0032 E9D0     		beq	.L12
  81              		.loc 1 58 0
  82 0034 AD6C     		ldr	r5, [r5, #72]
  83              	.LVL5:
  84 0036 1295     		str	r5, [sp, #72]
  85              		.loc 1 60 0
  86 0038 FFF7FEFF 		bl	deleteContact
  87              	.LVL6:
  88              	.L13:
  89              		.loc 1 62 0
  90 003c 6846     		mov	r0, sp
  91 003e FFF7FEFF 		bl	getContacts
  92              	.LVL7:
  93              		.loc 1 64 0
  94 0042 2046     		mov	r0, r4
  95 0044 6946     		mov	r1, sp
  96 0046 FFF7FEFF 		bl	chMsgRelease
  97              	.LVL8:
  98 004a DDE7     		b	.L12
  99              	.LVL9:
 100              	.L15:
 101              		.loc 1 36 0
 102 004c 05F13A01 		add	r1, r5, #58
 103 0050 0B22     		movs	r2, #11
 104 0052 0DF13A00 		add	r0, sp, #58
 105 0056 FFF7FEFF 		bl	strlcpy
 106              	.LVL10:
 107              		.loc 1 38 0
 108 005a 6846     		mov	r0, sp
 109 005c FFF7FEFF 		bl	getContact
 110              	.LVL11:
 111              		.loc 1 40 0
 112 0060 2046     		mov	r0, r4
 113 0062 6946     		mov	r1, sp
 114 0064 FFF7FEFF 		bl	chMsgRelease
ARM GAS  C:\Users\Elis\AppData\Local\Temp\cchUZ69c.s 			page 3


 115              	.LVL12:
 116 0068 CEE7     		b	.L12
 117              	.L16:
 118              		.loc 1 45 0
 119 006a 05F10801 		add	r1, r5, #8
 120 006e 3222     		movs	r2, #50
 121 0070 02A8     		add	r0, sp, #8
 122 0072 FFF7FEFF 		bl	strlcpy
 123              	.LVL13:
 124              		.loc 1 47 0
 125 0076 0DF13A00 		add	r0, sp, #58
 126 007a 05F13A01 		add	r1, r5, #58
 127 007e 0B22     		movs	r2, #11
 128 0080 FFF7FEFF 		bl	strlcpy
 129              	.LVL14:
 130              		.loc 1 49 0
 131 0084 6846     		mov	r0, sp
 132 0086 FFF7FEFF 		bl	addContact
 133              	.LVL15:
 134 008a D7E7     		b	.L13
 135              		.cfi_endproc
 136              	.LFE118:
 137              		.size	contacts_t, .-contacts_t
 138 008c AFF30080 		.text
 139              	.Letext0:
 140              		.file 2 "../../workspace26/Mobile_phone/structures/structures.h"
 141              		.file 3 "c:\\chibistudio\\tools\\gnu tools arm embedded\\4.7 2014q2\\bin\\../lib/gcc/arm-none-eabi
 142              		.file 4 "c:\\chibistudio\\tools\\gnu tools arm embedded\\4.7 2014q2\\bin\\../lib/gcc/arm-none-eabi
 143              		.file 5 "../../chibios/os/ports/GCC/ARMCMx/chtypes.h"
 144              		.file 6 "../../chibios/os/kernel/include/chlists.h"
 145              		.file 7 "../../chibios/os/kernel/include/chthreads.h"
 146              		.file 8 "../../chibios/os/ports/GCC/ARMCMx/chcore_v7m.h"
 147              		.file 9 "../../chibios/os/kernel/include/chmtx.h"
 148              		.file 10 "../../ugfx/src/gos/gos_chibios.h"
 149              		.file 11 "../../workspace26/Mobile_phone/sdcard/sdcard.h"
 150              		.file 12 "../../chibios/os/kernel/include/chmsg.h"
 151              		.file 13 "c:\\chibistudio\\tools\\gnu tools arm embedded\\4.7 2014q2\\bin\\../lib/gcc/arm-none-eab
 152              		.file 14 "../../chibios/os/ports/common/ARMCMx/CMSIS/include/core_cm4.h"