ARM GAS  C:\Users\Elis\AppData\Local\Temp\ccihiUIl.s 			page 1


   1              		.syntax unified
   2              		.cpu cortex-m4
   3              		.fpu softvfp
   4              		.eabi_attribute 20, 1
   5              		.eabi_attribute 21, 1
   6              		.eabi_attribute 23, 3
   7              		.eabi_attribute 24, 1
   8              		.eabi_attribute 25, 1
   9              		.eabi_attribute 26, 1
  10              		.eabi_attribute 30, 2
  11              		.eabi_attribute 34, 1
  12              		.eabi_attribute 18, 4
  13              		.thumb
  14              		.file	"gallery.c"
  15              		.text
  16              	.Ltext0:
  17              		.cfi_sections	.debug_frame
  18              		.section	.text.createGalleryScreen,"ax",%progbits
  19              		.align	2
  20              		.p2align 4,,15
  21              		.global	createGalleryScreen
  22              		.thumb
  23              		.thumb_func
  24              		.type	createGalleryScreen, %function
  25              	createGalleryScreen:
  26              	.LFB118:
  27              		.file 1 "../../workspace26/Mobile_phone/gui/gallery.c"
  28              		.loc 1 20 0
  29              		.cfi_startproc
  30              		@ args = 0, pretend = 0, frame = 136
  31              		@ frame_needed = 0, uses_anonymous_args = 0
  32              	.LVL0:
  33 0000 2DE9F047 		push	{r4, r5, r6, r7, r8, r9, sl, lr}
  34              	.LCFI0:
  35              		.cfi_def_cfa_offset 32
  36              		.cfi_offset 4, -32
  37              		.cfi_offset 5, -28
  38              		.cfi_offset 6, -24
  39              		.cfi_offset 7, -20
  40              		.cfi_offset 8, -16
  41              		.cfi_offset 9, -12
  42              		.cfi_offset 10, -8
  43              		.cfi_offset 14, -4
  44 0004 A2B0     		sub	sp, sp, #136
  45              	.LCFI1:
  46              		.cfi_def_cfa_offset 168
  47              		.loc 1 20 0
  48 0006 8046     		mov	r8, r0
  49              		.loc 1 33 0
  50 0008 01A8     		add	r0, sp, #4
  51              	.LVL1:
  52              		.loc 1 41 0
  53 000a 09AC     		add	r4, sp, #36
  54              		.loc 1 33 0
  55 000c FFF7FEFF 		bl	gwinWidgetClearInit
  56              	.LVL2:
  57              		.loc 1 37 0
ARM GAS  C:\Users\Elis\AppData\Local\Temp\ccihiUIl.s 			page 2


  58 0010 7F20     		movs	r0, #127
  59 0012 FFF7FEFF 		bl	chThdSetPriority
  60              	.LVL3:
  61              		.loc 1 41 0
  62 0016 0021     		movs	r1, #0
  63 0018 6422     		movs	r2, #100
  64 001a 2046     		mov	r0, r4
  65 001c FFF7FEFF 		bl	memset
  66              	.LVL4:
  67 0020 2046     		mov	r0, r4
  68 0022 FFF7FEFF 		bl	strlen
  69              	.LVL5:
  70 0026 A74D     		ldr	r5, .L15
  71 0028 0246     		mov	r2, r0
  72 002a 03CD     		ldmia	r5!, {r0, r1}
  73 002c 2E46     		mov	r6, r5
  74 002e A318     		adds	r3, r4, r2
  75 0030 16F80879 		ldrb	r7, [r6], #-8	@ zero_extendqisi2
  76 0034 A050     		str	r0, [r4, r2]	@ unaligned
  77 0036 5960     		str	r1, [r3, #4]	@ unaligned
  78 0038 1F72     		strb	r7, [r3, #8]
  79 003a 6422     		movs	r2, #100
  80 003c 4146     		mov	r1, r8
  81 003e 2046     		mov	r0, r4
  82 0040 FFF7FEFF 		bl	strlcat
  83              	.LVL6:
  84 0044 6422     		movs	r2, #100
  85 0046 2046     		mov	r0, r4
  86 0048 9F49     		ldr	r1, .L15+4
  87 004a FFF7FEFF 		bl	strlcat
  88              	.LVL7:
  89              		.loc 1 43 0
  90 004e 2046     		mov	r0, r4
  91 0050 9E49     		ldr	r1, .L15+8
  92 0052 FFF7FEFF 		bl	gfileOpen
  93              	.LVL8:
  94              		.loc 1 45 0
  95 0056 0021     		movs	r1, #0
  96 0058 6422     		movs	r2, #100
  97              		.loc 1 43 0
  98 005a 8246     		mov	sl, r0
  99              	.LVL9:
 100              		.loc 1 45 0
 101 005c 2046     		mov	r0, r4
 102              	.LVL10:
 103 005e FFF7FEFF 		bl	memset
 104              	.LVL11:
 105 0062 2046     		mov	r0, r4
 106 0064 FFF7FEFF 		bl	strlen
 107              	.LVL12:
 108 0068 0246     		mov	r2, r0
 109 006a 03CE     		ldmia	r6!, {r0, r1}
 110 006c A618     		adds	r6, r4, r2
 111 006e A050     		str	r0, [r4, r2]	@ unaligned
 112 0070 6422     		movs	r2, #100
 113 0072 7160     		str	r1, [r6, #4]	@ unaligned
 114 0074 3772     		strb	r7, [r6, #8]
ARM GAS  C:\Users\Elis\AppData\Local\Temp\ccihiUIl.s 			page 3


 115 0076 4146     		mov	r1, r8
 116 0078 2046     		mov	r0, r4
 117 007a FFF7FEFF 		bl	strlcat
 118              	.LVL13:
 119 007e 6422     		movs	r2, #100
 120 0080 2046     		mov	r0, r4
 121 0082 9349     		ldr	r1, .L15+12
 122 0084 FFF7FEFF 		bl	strlcat
 123              	.LVL14:
 124              		.loc 1 47 0
 125 0088 2046     		mov	r0, r4
 126 008a 9049     		ldr	r1, .L15+8
 127 008c FFF7FEFF 		bl	gfileOpen
 128              	.LVL15:
 129              		.loc 1 49 0
 130 0090 0021     		movs	r1, #0
 131 0092 6422     		movs	r2, #100
 132              		.loc 1 47 0
 133 0094 8146     		mov	r9, r0
 134              	.LVL16:
 135              		.loc 1 49 0
 136 0096 2046     		mov	r0, r4
 137              	.LVL17:
 138 0098 FFF7FEFF 		bl	memset
 139              	.LVL18:
 140 009c 2046     		mov	r0, r4
 141 009e FFF7FEFF 		bl	strlen
 142              	.LVL19:
 143 00a2 A5F10803 		sub	r3, r5, #8
 144 00a6 0246     		mov	r2, r0
 145 00a8 03CB     		ldmia	r3!, {r0, r1}
 146 00aa A618     		adds	r6, r4, r2
 147 00ac A050     		str	r0, [r4, r2]	@ unaligned
 148 00ae 6422     		movs	r2, #100
 149 00b0 7160     		str	r1, [r6, #4]	@ unaligned
 150 00b2 3772     		strb	r7, [r6, #8]
 151 00b4 4146     		mov	r1, r8
 152 00b6 2046     		mov	r0, r4
 153 00b8 FFF7FEFF 		bl	strlcat
 154              	.LVL20:
 155 00bc 6422     		movs	r2, #100
 156 00be 2046     		mov	r0, r4
 157 00c0 8449     		ldr	r1, .L15+16
 158 00c2 FFF7FEFF 		bl	strlcat
 159              	.LVL21:
 160              		.loc 1 51 0
 161 00c6 2046     		mov	r0, r4
 162 00c8 8049     		ldr	r1, .L15+8
 163 00ca FFF7FEFF 		bl	gfileOpen
 164              	.LVL22:
 165              		.loc 1 53 0
 166 00ce 0021     		movs	r1, #0
 167 00d0 6422     		movs	r2, #100
 168              		.loc 1 51 0
 169 00d2 0646     		mov	r6, r0
 170              	.LVL23:
 171              		.loc 1 53 0
ARM GAS  C:\Users\Elis\AppData\Local\Temp\ccihiUIl.s 			page 4


 172 00d4 2046     		mov	r0, r4
 173              	.LVL24:
 174 00d6 FFF7FEFF 		bl	memset
 175              	.LVL25:
 176 00da 2046     		mov	r0, r4
 177 00dc FFF7FEFF 		bl	strlen
 178              	.LVL26:
 179 00e0 083D     		subs	r5, r5, #8
 180 00e2 0246     		mov	r2, r0
 181 00e4 03CD     		ldmia	r5!, {r0, r1}
 182 00e6 A518     		adds	r5, r4, r2
 183 00e8 A050     		str	r0, [r4, r2]	@ unaligned
 184 00ea 6422     		movs	r2, #100
 185 00ec 6960     		str	r1, [r5, #4]	@ unaligned
 186 00ee 2046     		mov	r0, r4
 187 00f0 4146     		mov	r1, r8
 188 00f2 2F72     		strb	r7, [r5, #8]
 189 00f4 FFF7FEFF 		bl	strlcat
 190              	.LVL27:
 191 00f8 2046     		mov	r0, r4
 192 00fa 7749     		ldr	r1, .L15+20
 193 00fc 6422     		movs	r2, #100
 194 00fe FFF7FEFF 		bl	strlcat
 195              	.LVL28:
 196              		.loc 1 55 0
 197 0102 2046     		mov	r0, r4
 198 0104 7149     		ldr	r1, .L15+8
 199 0106 FFF7FEFF 		bl	gfileOpen
 200              	.LVL29:
 201              		.loc 1 65 0
 202 010a 744B     		ldr	r3, .L15+24
 203              		.loc 1 60 0
 204 010c 0024     		movs	r4, #0
 205              		.loc 1 55 0
 206 010e 8046     		mov	r8, r0
 207              	.LVL30:
 208              		.loc 1 62 0
 209 0110 F021     		movs	r1, #240
 210              		.loc 1 59 0
 211 0112 0120     		movs	r0, #1
 212              	.LVL31:
 213              		.loc 1 63 0
 214 0114 4FF4A077 		mov	r7, #320
 215              		.loc 1 59 0
 216 0118 8DF80C00 		strb	r0, [sp, #12]
 217              		.loc 1 60 0
 218 011c ADF80440 		strh	r4, [sp, #4]	@ movhi
 219              		.loc 1 61 0
 220 0120 ADF80640 		strh	r4, [sp, #6]	@ movhi
 221              		.loc 1 62 0
 222 0124 ADF80810 		strh	r1, [sp, #8]	@ movhi
 223              		.loc 1 63 0
 224 0128 ADF80A70 		strh	r7, [sp, #10]	@ movhi
 225              		.loc 1 64 0
 226 012c 0494     		str	r4, [sp, #16]
 227              		.loc 1 65 0
 228 012e 0593     		str	r3, [sp, #20]
ARM GAS  C:\Users\Elis\AppData\Local\Temp\ccihiUIl.s 			page 5


 229              		.loc 1 67 0
 230 0130 BAF1000F 		cmp	sl, #0
 231 0134 00F0A480 		beq	.L11
 232              		.loc 1 76 0
 233 0138 694D     		ldr	r5, .L15+28
 234 013a 5146     		mov	r1, sl
 235 013c 2846     		mov	r0, r5
 236 013e FFF7FEFF 		bl	gdispImageOpenGFile
 237              	.LVL32:
 238              		.loc 1 77 0
 239 0142 684A     		ldr	r2, .L15+32
 240              		.loc 1 78 0
 241 0144 0795     		str	r5, [sp, #28]
 242              		.loc 1 77 0
 243 0146 0692     		str	r2, [sp, #24]
 244              		.loc 1 79 0
 245 0148 0894     		str	r4, [sp, #32]
 246              	.L3:
 247              		.loc 1 83 0
 248 014a 674C     		ldr	r4, .L15+36
 249 014c 674D     		ldr	r5, .L15+40
 250 014e 2068     		ldr	r0, [r4, #0]
 251 0150 0021     		movs	r1, #0
 252 0152 0B46     		mov	r3, r1
 253 0154 01AA     		add	r2, sp, #4
 254 0156 FFF7FEFF 		bl	gwinGContainerCreate
 255              	.LVL33:
 256 015a 0346     		mov	r3, r0
 257              		.loc 1 88 0
 258 015c 4FF00A0E 		mov	lr, #10
 259              		.loc 1 83 0
 260 0160 2B60     		str	r3, [r5, #0]
 261              		.loc 1 92 0
 262 0162 0493     		str	r3, [sp, #16]
 263              		.loc 1 93 0
 264 0164 624B     		ldr	r3, .L15+44
 265              		.loc 1 88 0
 266 0166 ADF804E0 		strh	lr, [sp, #4]	@ movhi
 267              		.loc 1 87 0
 268 016a 0127     		movs	r7, #1
 269              		.loc 1 95 0
 270 016c 0021     		movs	r1, #0
 271 016e 01AA     		add	r2, sp, #4
 272              		.loc 1 89 0
 273 0170 ADF806E0 		strh	lr, [sp, #6]	@ movhi
 274              		.loc 1 90 0
 275 0174 4FF0DC0C 		mov	ip, #220
 276              		.loc 1 91 0
 277 0178 4FF0C80E 		mov	lr, #200
 278              		.loc 1 95 0
 279 017c 2068     		ldr	r0, [r4, #0]
 280              		.loc 1 93 0
 281 017e 0593     		str	r3, [sp, #20]
 282              		.loc 1 87 0
 283 0180 8DF80C70 		strb	r7, [sp, #12]
 284              		.loc 1 90 0
 285 0184 ADF808C0 		strh	ip, [sp, #8]	@ movhi
ARM GAS  C:\Users\Elis\AppData\Local\Temp\ccihiUIl.s 			page 6


 286              		.loc 1 91 0
 287 0188 ADF80AE0 		strh	lr, [sp, #10]	@ movhi
 288              		.loc 1 95 0
 289 018c FFF7FEFF 		bl	gwinGImageCreate
 290              	.LVL34:
 291 0190 5849     		ldr	r1, .L15+48
 292              		.loc 1 104 0
 293 0192 2A68     		ldr	r2, [r5, #0]
 294              		.loc 1 95 0
 295 0194 0860     		str	r0, [r1, #0]
 296              		.loc 1 100 0
 297 0196 5A23     		movs	r3, #90
 298              		.loc 1 102 0
 299 0198 3C20     		movs	r0, #60
 300              		.loc 1 101 0
 301 019a F021     		movs	r1, #240
 302              		.loc 1 99 0
 303 019c 8DF80C70 		strb	r7, [sp, #12]
 304              		.loc 1 100 0
 305 01a0 ADF80430 		strh	r3, [sp, #4]	@ movhi
 306              		.loc 1 101 0
 307 01a4 ADF80610 		strh	r1, [sp, #6]	@ movhi
 308              		.loc 1 102 0
 309 01a8 ADF80800 		strh	r0, [sp, #8]	@ movhi
 310              		.loc 1 103 0
 311 01ac ADF80A00 		strh	r0, [sp, #10]	@ movhi
 312              		.loc 1 104 0
 313 01b0 0492     		str	r2, [sp, #16]
 314              		.loc 1 106 0
 315 01b2 B9F1000F 		cmp	r9, #0
 316 01b6 72D0     		beq	.L12
 317              		.loc 1 116 0
 318 01b8 4F4F     		ldr	r7, .L15+52
 319 01ba 4946     		mov	r1, r9
 320 01bc 3846     		mov	r0, r7
 321 01be FFF7FEFF 		bl	gdispImageOpenGFile
 322              	.LVL35:
 323              		.loc 1 117 0
 324 01c2 4E4A     		ldr	r2, .L15+56
 325              		.loc 1 120 0
 326 01c4 4E4B     		ldr	r3, .L15+60
 327              		.loc 1 117 0
 328 01c6 0692     		str	r2, [sp, #24]
 329              		.loc 1 119 0
 330 01c8 0020     		movs	r0, #0
 331              		.loc 1 118 0
 332 01ca 0797     		str	r7, [sp, #28]
 333              		.loc 1 119 0
 334 01cc 0890     		str	r0, [sp, #32]
 335              		.loc 1 120 0
 336 01ce 0593     		str	r3, [sp, #20]
 337              	.L5:
 338              		.loc 1 124 0
 339 01d0 0021     		movs	r1, #0
 340 01d2 01AA     		add	r2, sp, #4
 341 01d4 2068     		ldr	r0, [r4, #0]
 342 01d6 FFF7FEFF 		bl	gwinGButtonCreate
ARM GAS  C:\Users\Elis\AppData\Local\Temp\ccihiUIl.s 			page 7


 343              	.LVL36:
 344 01da 4A4B     		ldr	r3, .L15+64
 345              		.loc 1 133 0
 346 01dc 2A68     		ldr	r2, [r5, #0]
 347              		.loc 1 124 0
 348 01de 1860     		str	r0, [r3, #0]
 349              		.loc 1 128 0
 350 01e0 0121     		movs	r1, #1
 351              		.loc 1 131 0
 352 01e2 3C20     		movs	r0, #60
 353              		.loc 1 128 0
 354 01e4 8DF80C10 		strb	r1, [sp, #12]
 355              		.loc 1 129 0
 356 01e8 AA23     		movs	r3, #170
 357              		.loc 1 130 0
 358 01ea F021     		movs	r1, #240
 359              		.loc 1 129 0
 360 01ec ADF80430 		strh	r3, [sp, #4]	@ movhi
 361              		.loc 1 130 0
 362 01f0 ADF80610 		strh	r1, [sp, #6]	@ movhi
 363              		.loc 1 131 0
 364 01f4 ADF80800 		strh	r0, [sp, #8]	@ movhi
 365              		.loc 1 132 0
 366 01f8 ADF80A00 		strh	r0, [sp, #10]	@ movhi
 367              		.loc 1 133 0
 368 01fc 0492     		str	r2, [sp, #16]
 369              		.loc 1 135 0
 370 01fe 002E     		cmp	r6, #0
 371 0200 45D0     		beq	.L13
 372              		.loc 1 145 0
 373 0202 414F     		ldr	r7, .L15+68
 374 0204 3146     		mov	r1, r6
 375 0206 3846     		mov	r0, r7
 376 0208 FFF7FEFF 		bl	gdispImageOpenGFile
 377              	.LVL37:
 378              		.loc 1 146 0
 379 020c 3B4A     		ldr	r2, .L15+56
 380              		.loc 1 149 0
 381 020e 3C4B     		ldr	r3, .L15+60
 382              		.loc 1 146 0
 383 0210 0692     		str	r2, [sp, #24]
 384              		.loc 1 148 0
 385 0212 0020     		movs	r0, #0
 386              		.loc 1 147 0
 387 0214 0797     		str	r7, [sp, #28]
 388              		.loc 1 148 0
 389 0216 0890     		str	r0, [sp, #32]
 390              		.loc 1 149 0
 391 0218 0593     		str	r3, [sp, #20]
 392              	.L7:
 393              		.loc 1 153 0
 394 021a 0021     		movs	r1, #0
 395 021c 01AA     		add	r2, sp, #4
 396 021e 2068     		ldr	r0, [r4, #0]
 397 0220 FFF7FEFF 		bl	gwinGButtonCreate
 398              	.LVL38:
 399 0224 394B     		ldr	r3, .L15+72
ARM GAS  C:\Users\Elis\AppData\Local\Temp\ccihiUIl.s 			page 8


 400              		.loc 1 162 0
 401 0226 2A68     		ldr	r2, [r5, #0]
 402              		.loc 1 153 0
 403 0228 1860     		str	r0, [r3, #0]
 404              		.loc 1 157 0
 405 022a 0121     		movs	r1, #1
 406              		.loc 1 160 0
 407 022c 3C20     		movs	r0, #60
 408              		.loc 1 157 0
 409 022e 8DF80C10 		strb	r1, [sp, #12]
 410              		.loc 1 158 0
 411 0232 0A23     		movs	r3, #10
 412              		.loc 1 159 0
 413 0234 F021     		movs	r1, #240
 414              		.loc 1 158 0
 415 0236 ADF80430 		strh	r3, [sp, #4]	@ movhi
 416              		.loc 1 159 0
 417 023a ADF80610 		strh	r1, [sp, #6]	@ movhi
 418              		.loc 1 160 0
 419 023e ADF80800 		strh	r0, [sp, #8]	@ movhi
 420              		.loc 1 161 0
 421 0242 ADF80A00 		strh	r0, [sp, #10]	@ movhi
 422              		.loc 1 162 0
 423 0246 0492     		str	r2, [sp, #16]
 424              		.loc 1 164 0
 425 0248 B8F1000F 		cmp	r8, #0
 426 024c 30D0     		beq	.L14
 427              		.loc 1 174 0
 428 024e 304D     		ldr	r5, .L15+76
 429 0250 4146     		mov	r1, r8
 430 0252 2846     		mov	r0, r5
 431 0254 FFF7FEFF 		bl	gdispImageOpenGFile
 432              	.LVL39:
 433              		.loc 1 175 0
 434 0258 284A     		ldr	r2, .L15+56
 435              		.loc 1 178 0
 436 025a 294B     		ldr	r3, .L15+60
 437              		.loc 1 175 0
 438 025c 0692     		str	r2, [sp, #24]
 439              		.loc 1 177 0
 440 025e 0020     		movs	r0, #0
 441              		.loc 1 176 0
 442 0260 0795     		str	r5, [sp, #28]
 443              		.loc 1 177 0
 444 0262 0890     		str	r0, [sp, #32]
 445              		.loc 1 178 0
 446 0264 0593     		str	r3, [sp, #20]
 447              	.L9:
 448              		.loc 1 182 0
 449 0266 2068     		ldr	r0, [r4, #0]
 450 0268 0021     		movs	r1, #0
 451 026a 01AA     		add	r2, sp, #4
 452 026c FFF7FEFF 		bl	gwinGButtonCreate
 453              	.LVL40:
 454 0270 284B     		ldr	r3, .L15+80
 455 0272 1860     		str	r0, [r3, #0]
 456              		.loc 1 186 0
ARM GAS  C:\Users\Elis\AppData\Local\Temp\ccihiUIl.s 			page 9


 457 0274 4020     		movs	r0, #64
 458 0276 FFF7FEFF 		bl	chThdSetPriority
 459              	.LVL41:
 460              		.loc 1 188 0
 461 027a 22B0     		add	sp, sp, #136
 462 027c BDE8F087 		pop	{r4, r5, r6, r7, r8, r9, sl, pc}
 463              	.L11:
 464              		.loc 1 69 0
 465 0280 254C     		ldr	r4, .L15+84
 466              		.loc 1 70 0
 467 0282 2648     		ldr	r0, .L15+88
 468              		.loc 1 69 0
 469 0284 0694     		str	r4, [sp, #24]
 470              		.loc 1 70 0
 471 0286 0890     		str	r0, [sp, #32]
 472              		.loc 1 71 0
 473 0288 CDF81CA0 		str	sl, [sp, #28]
 474 028c 5DE7     		b	.L3
 475              	.L13:
 476              		.loc 1 137 0
 477 028e 2449     		ldr	r1, .L15+92
 478              		.loc 1 138 0
 479 0290 224A     		ldr	r2, .L15+88
 480              		.loc 1 140 0
 481 0292 2448     		ldr	r0, .L15+96
 482              		.loc 1 137 0
 483 0294 0691     		str	r1, [sp, #24]
 484              		.loc 1 138 0
 485 0296 0892     		str	r2, [sp, #32]
 486              		.loc 1 139 0
 487 0298 0796     		str	r6, [sp, #28]
 488              		.loc 1 140 0
 489 029a 0590     		str	r0, [sp, #20]
 490 029c BDE7     		b	.L7
 491              	.L12:
 492              		.loc 1 108 0
 493 029e 2049     		ldr	r1, .L15+92
 494              		.loc 1 109 0
 495 02a0 1E4A     		ldr	r2, .L15+88
 496              		.loc 1 111 0
 497 02a2 2148     		ldr	r0, .L15+100
 498              		.loc 1 108 0
 499 02a4 0691     		str	r1, [sp, #24]
 500              		.loc 1 109 0
 501 02a6 0892     		str	r2, [sp, #32]
 502              		.loc 1 110 0
 503 02a8 CDF81C90 		str	r9, [sp, #28]
 504              		.loc 1 111 0
 505 02ac 0590     		str	r0, [sp, #20]
 506 02ae 8FE7     		b	.L5
 507              	.L14:
 508              		.loc 1 166 0
 509 02b0 1B49     		ldr	r1, .L15+92
 510              		.loc 1 167 0
 511 02b2 1A4A     		ldr	r2, .L15+88
 512              		.loc 1 169 0
 513 02b4 1D48     		ldr	r0, .L15+104
ARM GAS  C:\Users\Elis\AppData\Local\Temp\ccihiUIl.s 			page 10


 514              		.loc 1 166 0
 515 02b6 0691     		str	r1, [sp, #24]
 516              		.loc 1 167 0
 517 02b8 0892     		str	r2, [sp, #32]
 518              		.loc 1 168 0
 519 02ba CDF81C80 		str	r8, [sp, #28]
 520              		.loc 1 169 0
 521 02be 0590     		str	r0, [sp, #20]
 522 02c0 D1E7     		b	.L9
 523              	.L16:
 524 02c2 00BF     		.align	2
 525              	.L15:
 526 02c4 00000000 		.word	.LC0
 527 02c8 0C000000 		.word	.LC1
 528 02cc 28000000 		.word	.LC2
 529 02d0 2C000000 		.word	.LC3
 530 02d4 44000000 		.word	.LC4
 531 02d8 5C000000 		.word	.LC5
 532 02dc 74000000 		.word	.LC6
 533 02e0 00000000 		.word	.LANCHOR0
 534 02e4 00000000 		.word	gwinContainerDraw_Image
 535 02e8 00000000 		.word	GDISP
 536 02ec 00000000 		.word	.LANCHOR1
 537 02f0 80000000 		.word	.LC7
 538 02f4 00000000 		.word	.LANCHOR2
 539 02f8 00000000 		.word	.LANCHOR3
 540 02fc 00000000 		.word	gwinButtonDraw_Image
 541 0300 94000000 		.word	.LC9
 542 0304 00000000 		.word	.LANCHOR4
 543 0308 00000000 		.word	.LANCHOR5
 544 030c 00000000 		.word	.LANCHOR6
 545 0310 00000000 		.word	.LANCHOR7
 546 0314 00000000 		.word	.LANCHOR8
 547 0318 00000000 		.word	gwinContainerDraw_Std
 548 031c 00000000 		.word	WhiteWidgetStyle
 549 0320 00000000 		.word	gwinButtonDraw_Normal
 550 0324 98000000 		.word	.LC10
 551 0328 8C000000 		.word	.LC8
 552 032c A0000000 		.word	.LC11
 553              		.cfi_endproc
 554              	.LFE118:
 555              		.size	createGalleryScreen, .-createGalleryScreen
 556              		.section	.text.destroyGalleryScreen,"ax",%progbits
 557              		.align	2
 558              		.p2align 4,,15
 559              		.global	destroyGalleryScreen
 560              		.thumb
 561              		.thumb_func
 562              		.type	destroyGalleryScreen, %function
 563              	destroyGalleryScreen:
 564              	.LFB119:
 565              		.loc 1 190 0
 566              		.cfi_startproc
 567              		@ args = 0, pretend = 0, frame = 0
 568              		@ frame_needed = 0, uses_anonymous_args = 0
 569 0000 10B5     		push	{r4, lr}
 570              	.LCFI2:
ARM GAS  C:\Users\Elis\AppData\Local\Temp\ccihiUIl.s 			page 11


 571              		.cfi_def_cfa_offset 8
 572              		.cfi_offset 4, -8
 573              		.cfi_offset 14, -4
 574              		.loc 1 194 0
 575 0002 7F20     		movs	r0, #127
 576 0004 FFF7FEFF 		bl	chThdSetPriority
 577              	.LVL42:
 578              		.loc 1 198 0
 579 0008 40F20000 		movw	r0, #:lower16:.LANCHOR0
 580 000c C0F20000 		movt	r0, #:upper16:.LANCHOR0
 581 0010 FFF7FEFF 		bl	gdispImageClose
 582              	.LVL43:
 583              		.loc 1 200 0
 584 0014 40F20000 		movw	r0, #:lower16:.LANCHOR3
 585 0018 C0F20000 		movt	r0, #:upper16:.LANCHOR3
 586 001c FFF7FEFF 		bl	gdispImageClose
 587              	.LVL44:
 588              		.loc 1 202 0
 589 0020 40F20000 		movw	r0, #:lower16:.LANCHOR5
 590 0024 C0F20000 		movt	r0, #:upper16:.LANCHOR5
 591 0028 FFF7FEFF 		bl	gdispImageClose
 592              	.LVL45:
 593              		.loc 1 204 0
 594 002c 40F20000 		movw	r0, #:lower16:.LANCHOR7
 595 0030 C0F20000 		movt	r0, #:upper16:.LANCHOR7
 596 0034 FFF7FEFF 		bl	gdispImageClose
 597              	.LVL46:
 598              		.loc 1 208 0
 599 0038 40F20003 		movw	r3, #:lower16:.LANCHOR1
 600 003c C0F20003 		movt	r3, #:upper16:.LANCHOR1
 601              		.loc 1 212 0
 602 0040 40F20004 		movw	r4, #:lower16:.LANCHOR4
 603              		.loc 1 208 0
 604 0044 1868     		ldr	r0, [r3, #0]
 605 0046 FFF7FEFF 		bl	gwinDestroy
 606              	.LVL47:
 607              		.loc 1 214 0
 608 004a 40F20001 		movw	r1, #:lower16:.LANCHOR6
 609              		.loc 1 216 0
 610 004e 40F20003 		movw	r3, #:lower16:.LANCHOR8
 611              		.loc 1 212 0
 612 0052 C0F20004 		movt	r4, #:upper16:.LANCHOR4
 613              		.loc 1 214 0
 614 0056 C0F20001 		movt	r1, #:upper16:.LANCHOR6
 615              		.loc 1 216 0
 616 005a C0F20003 		movt	r3, #:upper16:.LANCHOR8
 617              		.loc 1 212 0
 618 005e 0022     		movs	r2, #0
 619              		.loc 1 220 0
 620 0060 4020     		movs	r0, #64
 621              		.loc 1 212 0
 622 0062 2260     		str	r2, [r4, #0]
 623              		.loc 1 214 0
 624 0064 0A60     		str	r2, [r1, #0]
 625              		.loc 1 216 0
 626 0066 1A60     		str	r2, [r3, #0]
 627              		.loc 1 222 0
ARM GAS  C:\Users\Elis\AppData\Local\Temp\ccihiUIl.s 			page 12


 628 0068 BDE81040 		pop	{r4, lr}
 629              		.loc 1 220 0
 630 006c FFF7FEBF 		b	chThdSetPriority
 631              	.LVL48:
 632              		.cfi_endproc
 633              	.LFE119:
 634              		.size	destroyGalleryScreen, .-destroyGalleryScreen
 635              		.section	.text.setPicture,"ax",%progbits
 636              		.align	2
 637              		.p2align 4,,15
 638              		.global	setPicture
 639              		.thumb
 640              		.thumb_func
 641              		.type	setPicture, %function
 642              	setPicture:
 643              	.LFB120:
 644              		.loc 1 224 0
 645              		.cfi_startproc
 646              		@ args = 0, pretend = 0, frame = 104
 647              		@ frame_needed = 0, uses_anonymous_args = 0
 648              	.LVL49:
 649 0000 F0B5     		push	{r4, r5, r6, r7, lr}
 650              	.LCFI3:
 651              		.cfi_def_cfa_offset 20
 652              		.cfi_offset 4, -20
 653              		.cfi_offset 5, -16
 654              		.cfi_offset 6, -12
 655              		.cfi_offset 7, -8
 656              		.cfi_offset 14, -4
 657 0002 9BB0     		sub	sp, sp, #108
 658              	.LCFI4:
 659              		.cfi_def_cfa_offset 128
 660              		.loc 1 230 0
 661 0004 01AC     		add	r4, sp, #4
 662 0006 6425     		movs	r5, #100
 663 0008 0021     		movs	r1, #0
 664 000a 2A46     		mov	r2, r5
 665              		.loc 1 224 0
 666 000c 0746     		mov	r7, r0
 667              		.loc 1 230 0
 668 000e 2046     		mov	r0, r4
 669              	.LVL50:
 670 0010 FFF7FEFF 		bl	memset
 671              	.LVL51:
 672 0014 2046     		mov	r0, r4
 673 0016 FFF7FEFF 		bl	strlen
 674              	.LVL52:
 675 001a 40F20003 		movw	r3, #:lower16:.LC12
 676 001e C0F20003 		movt	r3, #:upper16:.LC12
 677 0022 0246     		mov	r2, r0
 678 0024 03CB     		ldmia	r3!, {r0, r1}
 679 0026 A618     		adds	r6, r4, r2
 680 0028 1B88     		ldrh	r3, [r3, #0]	@ unaligned
 681 002a A050     		str	r0, [r4, r2]	@ unaligned
 682 002c 2A46     		mov	r2, r5
 683 002e 3381     		strh	r3, [r6, #8]	@ unaligned
 684 0030 7160     		str	r1, [r6, #4]	@ unaligned
ARM GAS  C:\Users\Elis\AppData\Local\Temp\ccihiUIl.s 			page 13


 685 0032 2046     		mov	r0, r4
 686 0034 3946     		mov	r1, r7
 687 0036 FFF7FEFF 		bl	strlcat
 688              	.LVL53:
 689              		.loc 1 234 0
 690 003a 7F20     		movs	r0, #127
 691 003c FFF7FEFF 		bl	chThdSetPriority
 692              	.LVL54:
 693              		.loc 1 238 0
 694 0040 40F20001 		movw	r1, #:lower16:.LC2
 695 0044 C0F20001 		movt	r1, #:upper16:.LC2
 696 0048 2046     		mov	r0, r4
 697 004a FFF7FEFF 		bl	gfileOpen
 698              	.LVL55:
 699 004e 0146     		mov	r1, r0
 700              	.LVL56:
 701              		.loc 1 240 0
 702 0050 40F20000 		movw	r0, #:lower16:.LANCHOR2
 703              	.LVL57:
 704 0054 C0F20000 		movt	r0, #:upper16:.LANCHOR2
 705 0058 0068     		ldr	r0, [r0, #0]
 706 005a FFF7FEFF 		bl	gwinImageOpenGFile
 707              	.LVL58:
 708              		.loc 1 244 0
 709 005e 4020     		movs	r0, #64
 710 0060 FFF7FEFF 		bl	chThdSetPriority
 711              	.LVL59:
 712              		.loc 1 246 0
 713 0064 1BB0     		add	sp, sp, #108
 714 0066 F0BD     		pop	{r4, r5, r6, r7, pc}
 715              		.cfi_endproc
 716              	.LFE120:
 717              		.size	setPicture, .-setPicture
 718              		.global	previousImage_gallery_b
 719              		.global	nextImage_gallery_b
 720              		.global	home_gallery_b
 721 0068 AFF30080 		.section	.bss.prev_p,"aw",%nobits
 721      AFF30080 
 722              		.align	2
 723              		.set	.LANCHOR7,. + 0
 724              		.type	prev_p, %object
 725              		.size	prev_p, 24
 726              	prev_p:
 727 0000 00000000 		.space	24
 727      00000000 
 727      00000000 
 727      00000000 
 727      00000000 
 728              		.section	.bss.mainContainer_c,"aw",%nobits
 729              		.align	2
 730              		.set	.LANCHOR1,. + 0
 731              		.type	mainContainer_c, %object
 732              		.size	mainContainer_c, 4
 733              	mainContainer_c:
 734 0000 00000000 		.space	4
 735              		.section	.bss.pic_box,"aw",%nobits
 736              		.align	2
ARM GAS  C:\Users\Elis\AppData\Local\Temp\ccihiUIl.s 			page 14


 737              		.set	.LANCHOR2,. + 0
 738              		.type	pic_box, %object
 739              		.size	pic_box, 4
 740              	pic_box:
 741 0000 00000000 		.space	4
 742              		.section	.bss.home_p,"aw",%nobits
 743              		.align	2
 744              		.set	.LANCHOR3,. + 0
 745              		.type	home_p, %object
 746              		.size	home_p, 24
 747              	home_p:
 748 0000 00000000 		.space	24
 748      00000000 
 748      00000000 
 748      00000000 
 748      00000000 
 749              		.section	.bss.previousImage_gallery_b,"aw",%nobits
 750              		.align	2
 751              		.set	.LANCHOR8,. + 0
 752              		.type	previousImage_gallery_b, %object
 753              		.size	previousImage_gallery_b, 4
 754              	previousImage_gallery_b:
 755 0000 00000000 		.space	4
 756              		.section	.rodata.str1.4,"aMS",%progbits,1
 757              		.align	2
 758              	.LC0:
 759 0000 2F746865 		.ascii	"/themes/\000"
 759      6D65732F 
 759      00
 760 0009 000000   		.space	3
 761              	.LC1:
 762 000c 2F626163 		.ascii	"/background/background.gif\000"
 762      6B67726F 
 762      756E642F 
 762      6261636B 
 762      67726F75 
 763 0027 00       		.space	1
 764              	.LC2:
 765 0028 726200   		.ascii	"rb\000"
 766 002b 00       		.space	1
 767              	.LC3:
 768 002c 2F69636F 		.ascii	"/icons/homeButton.gif\000"
 768      6E732F68 
 768      6F6D6542 
 768      7574746F 
 768      6E2E6769 
 769 0042 0000     		.space	2
 770              	.LC4:
 771 0044 2F69636F 		.ascii	"/icons/nextButton.gif\000"
 771      6E732F6E 
 771      65787442 
 771      7574746F 
 771      6E2E6769 
 772 005a 0000     		.space	2
 773              	.LC5:
 774 005c 2F69636F 		.ascii	"/icons/prevButton.gif\000"
 774      6E732F70 
ARM GAS  C:\Users\Elis\AppData\Local\Temp\ccihiUIl.s 			page 15


 774      72657642 
 774      7574746F 
 774      6E2E6769 
 775 0072 0000     		.space	2
 776              	.LC6:
 777 0074 436F6E74 		.ascii	"Container\000"
 777      61696E65 
 777      7200
 778 007e 0000     		.space	2
 779              	.LC7:
 780 0080 496D6167 		.ascii	"ImageBox\000"
 780      65426F78 
 780      00
 781 0089 000000   		.space	3
 782              	.LC8:
 783 008c 486F6D65 		.ascii	"Home\000"
 783      00
 784 0091 000000   		.space	3
 785              	.LC9:
 786 0094 00       		.ascii	"\000"
 787 0095 000000   		.space	3
 788              	.LC10:
 789 0098 4E657874 		.ascii	"Next\000"
 789      00
 790 009d 000000   		.space	3
 791              	.LC11:
 792 00a0 50726576 		.ascii	"Prev\000"
 792      00
 793 00a5 000000   		.space	3
 794              	.LC12:
 795 00a8 2F67616C 		.ascii	"/gallery/\000"
 795      6C657279 
 795      2F00
 796 00b2 0000     		.section	.bss.nextImage_gallery_b,"aw",%nobits
 797              		.align	2
 798              		.set	.LANCHOR6,. + 0
 799              		.type	nextImage_gallery_b, %object
 800              		.size	nextImage_gallery_b, 4
 801              	nextImage_gallery_b:
 802 0000 00000000 		.space	4
 803              		.section	.bss.background_p,"aw",%nobits
 804              		.align	2
 805              		.set	.LANCHOR0,. + 0
 806              		.type	background_p, %object
 807              		.size	background_p, 24
 808              	background_p:
 809 0000 00000000 		.space	24
 809      00000000 
 809      00000000 
 809      00000000 
 809      00000000 
 810              		.section	.bss.next_p,"aw",%nobits
 811              		.align	2
 812              		.set	.LANCHOR5,. + 0
 813              		.type	next_p, %object
 814              		.size	next_p, 24
 815              	next_p:
ARM GAS  C:\Users\Elis\AppData\Local\Temp\ccihiUIl.s 			page 16


 816 0000 00000000 		.space	24
 816      00000000 
 816      00000000 
 816      00000000 
 816      00000000 
 817              		.section	.bss.home_gallery_b,"aw",%nobits
 818              		.align	2
 819              		.set	.LANCHOR4,. + 0
 820              		.type	home_gallery_b, %object
 821              		.size	home_gallery_b, 4
 822              	home_gallery_b:
 823 0000 00000000 		.space	4
 824              		.text
 825              	.Letext0:
 826              		.file 2 "c:\\chibistudio\\tools\\gnu tools arm embedded\\4.7 2014q2\\bin\\../lib/gcc/arm-none-eabi
 827              		.file 3 "c:\\chibistudio\\tools\\gnu tools arm embedded\\4.7 2014q2\\bin\\../lib/gcc/arm-none-eabi
 828              		.file 4 "../../chibios/os/ports/GCC/ARMCMx/chtypes.h"
 829              		.file 5 "../../ugfx/src/gfile/gfile.h"
 830              		.file 6 "../../ugfx/src/gqueue/gqueue.h"
 831              		.file 7 "../../ugfx/src/gdisp/gdisp.h"
 832              		.file 8 "../../ugfx/src/gdisp/gdisp_colors.h"
 833              		.file 9 "../../ugfx/src/gdisp/gdisp_image.h"
 834              		.file 10 "../../ugfx/src/gwin/gwin.h"
 835              		.file 11 "../../ugfx/src/gwin/gwin_widget.h"
 836              		.file 12 "../../ugfx/src/gwin/gwin_button.h"
 837              		.file 13 "../../ugfx/src/gwin/gwin_container.h"
 838              		.file 14 "../../ugfx/src/gwin/gwin_image.h"
 839              		.file 15 "../../chibios/os/ports/common/ARMCMx/CMSIS/include/core_cm4.h"
 840              		.file 16 "../../chibios/os/kernel/include/chthreads.h"
 841              		.file 17 "c:\\chibistudio\\tools\\gnu tools arm embedded\\4.7 2014q2\\bin\\../lib/gcc/arm-none-eab
 842              		.file 18 "<built-in>"