ARM GAS  C:\Users\Elis\AppData\Local\Temp\ccdyIOWh.s 			page 1


   1              		.syntax unified
   2              		.cpu cortex-m4
   3              		.fpu softvfp
   4              		.eabi_attribute 20, 1
   5              		.eabi_attribute 21, 1
   6              		.eabi_attribute 23, 3
   7              		.eabi_attribute 24, 1
   8              		.eabi_attribute 25, 1
   9              		.eabi_attribute 26, 1
  10              		.eabi_attribute 30, 2
  11              		.eabi_attribute 34, 1
  12              		.eabi_attribute 18, 4
  13              		.thumb
  14              		.file	"gdisp_fonts.c"
  15              		.text
  16              	.Ltext0:
  17              		.cfi_sections	.debug_frame
  18              		.section	.text.matchfont,"ax",%progbits
  19              		.align	2
  20              		.p2align 4,,15
  21              		.thumb
  22              		.thumb_func
  23              		.type	matchfont, %function
  24              	matchfont:
  25              	.LFB118:
  26              		.file 1 "../../ugfx/src/gdisp/gdisp_fonts.c"
  27              		.loc 1 20 0
  28              		.cfi_startproc
  29              		@ args = 0, pretend = 0, frame = 0
  30              		@ frame_needed = 0, uses_anonymous_args = 0
  31              		@ link register save eliminated.
  32              	.LVL0:
  33 0000 0378     		ldrb	r3, [r0, #0]	@ zero_extendqisi2
  34 0002 0A78     		ldrb	r2, [r1, #0]	@ zero_extendqisi2
  35              	.LVL1:
  36              	.L15:
  37              		.loc 1 22 0
  38 0004 23B9     		cbnz	r3, .L17
  39              		.loc 1 32 0
  40 0006 D2F10100 		rsbs	r0, r2, #1
  41              	.LVL2:
  42 000a 38BF     		it	cc
  43 000c 0020     		movcc	r0, #0
  44 000e 7047     		bx	lr
  45              	.LVL3:
  46              	.L17:
  47              		.loc 1 22 0
  48 0010 2A2B     		cmp	r3, #42
  49 0012 06D0     		beq	.L12
  50              		.loc 1 34 0
  51 0014 9342     		cmp	r3, r2
  52 0016 14D1     		bne	.L10
  53              	.LVL4:
  54 0018 4378     		ldrb	r3, [r0, #1]	@ zero_extendqisi2
  55 001a 4A78     		ldrb	r2, [r1, #1]	@ zero_extendqisi2
  56              		.loc 1 36 0
  57 001c 0130     		adds	r0, r0, #1
ARM GAS  C:\Users\Elis\AppData\Local\Temp\ccdyIOWh.s 			page 2


  58              	.LVL5:
  59              		.loc 1 37 0
  60 001e 0131     		adds	r1, r1, #1
  61              	.LVL6:
  62              		.loc 1 38 0
  63 0020 F0E7     		b	.L15
  64              	.L12:
  65              	.LVL7:
  66              		.loc 1 24 0
  67 0022 42B1     		cbz	r2, .L18
  68              		.loc 1 26 0
  69 0024 4378     		ldrb	r3, [r0, #1]	@ zero_extendqisi2
  70 0026 9342     		cmp	r3, r2
  71 0028 02D0     		beq	.L19
  72 002a 4A78     		ldrb	r2, [r1, #1]	@ zero_extendqisi2
  73              		.loc 1 29 0
  74 002c 0131     		adds	r1, r1, #1
  75              	.LVL8:
  76 002e F8E7     		b	.L12
  77              	.LVL9:
  78              	.L19:
  79              		.loc 1 27 0
  80 0030 0130     		adds	r0, r0, #1
  81              	.LVL10:
  82 0032 1346     		mov	r3, r2
  83 0034 E6E7     		b	.L15
  84              	.L18:
  85              		.loc 1 25 0
  86 0036 4078     		ldrb	r0, [r0, #1]	@ zero_extendqisi2
  87              	.LVL11:
  88 0038 D0F10100 		rsbs	r0, r0, #1
  89 003c 38BF     		it	cc
  90 003e 0020     		movcc	r0, #0
  91 0040 7047     		bx	lr
  92              	.LVL12:
  93              	.L10:
  94              		.loc 1 35 0
  95 0042 0020     		movs	r0, #0
  96              	.LVL13:
  97              		.loc 1 41 0
  98 0044 7047     		bx	lr
  99              		.cfi_endproc
 100              	.LFE118:
 101              		.size	matchfont, .-matchfont
 102 0046 00BFAFF3 		.section	.text.gdispOpenFont,"ax",%progbits
 102      0080AFF3 
 102      0080
 103              		.align	2
 104              		.p2align 4,,15
 105              		.global	gdispOpenFont
 106              		.thumb
 107              		.thumb_func
 108              		.type	gdispOpenFont, %function
 109              	gdispOpenFont:
 110              	.LFB119:
 111              		.loc 1 43 0
 112              		.cfi_startproc
ARM GAS  C:\Users\Elis\AppData\Local\Temp\ccdyIOWh.s 			page 3


 113              		@ args = 0, pretend = 0, frame = 0
 114              		@ frame_needed = 0, uses_anonymous_args = 0
 115              	.LVL14:
 116 0000 70B5     		push	{r4, r5, r6, lr}
 117              	.LCFI0:
 118              		.cfi_def_cfa_offset 16
 119              		.cfi_offset 4, -16
 120              		.cfi_offset 5, -12
 121              		.cfi_offset 6, -8
 122              		.cfi_offset 14, -4
 123              		.loc 1 43 0
 124 0002 0646     		mov	r6, r0
 125              		.loc 1 48 0
 126 0004 FFF7FEFF 		bl	mf_get_font_list
 127              	.LVL15:
 128 0008 0446     		mov	r4, r0
 129 000a 10B9     		cbnz	r0, .L31
 130 000c 0AE0     		b	.L21
 131              	.LVL16:
 132              	.L37:
 133 000e 2468     		ldr	r4, [r4, #0]
 134              	.LVL17:
 135 0010 44B1     		cbz	r4, .L21
 136              	.L31:
 137              		.loc 1 49 0
 138 0012 6568     		ldr	r5, [r4, #4]
 139 0014 3046     		mov	r0, r6
 140 0016 2968     		ldr	r1, [r5, #0]
 141 0018 FFF7FEFF 		bl	matchfont
 142              	.LVL18:
 143 001c 0028     		cmp	r0, #0
 144 001e F6D0     		beq	.L37
 145              		.loc 1 61 0
 146 0020 2846     		mov	r0, r5
 147 0022 70BD     		pop	{r4, r5, r6, pc}
 148              	.L21:
 149              		.loc 1 54 0
 150 0024 FFF7FEFF 		bl	mf_get_font_list
 151              	.LVL19:
 152 0028 0446     		mov	r4, r0
 153 002a 38B9     		cbnz	r0, .L30
 154              	.LVL20:
 155              	.L24:
 156              		.loc 1 60 0
 157 002c FFF7FEFF 		bl	mf_get_font_list
 158              	.LVL21:
 159 0030 4568     		ldr	r5, [r0, #4]
 160              		.loc 1 61 0
 161 0032 2846     		mov	r0, r5
 162 0034 70BD     		pop	{r4, r5, r6, pc}
 163              	.L38:
 164              		.loc 1 54 0
 165 0036 2468     		ldr	r4, [r4, #0]
 166              	.LVL22:
 167 0038 002C     		cmp	r4, #0
 168 003a F7D0     		beq	.L24
 169              	.L30:
ARM GAS  C:\Users\Elis\AppData\Local\Temp\ccdyIOWh.s 			page 4


 170              		.loc 1 55 0
 171 003c 6568     		ldr	r5, [r4, #4]
 172 003e 3046     		mov	r0, r6
 173 0040 6968     		ldr	r1, [r5, #4]
 174 0042 FFF7FEFF 		bl	matchfont
 175              	.LVL23:
 176 0046 0028     		cmp	r0, #0
 177 0048 F5D0     		beq	.L38
 178              		.loc 1 61 0
 179 004a 2846     		mov	r0, r5
 180 004c 70BD     		pop	{r4, r5, r6, pc}
 181              		.cfi_endproc
 182              	.LFE119:
 183              		.size	gdispOpenFont, .-gdispOpenFont
 184 004e 00BF     		.section	.text.gdispCloseFont,"ax",%progbits
 185              		.align	2
 186              		.p2align 4,,15
 187              		.global	gdispCloseFont
 188              		.thumb
 189              		.thumb_func
 190              		.type	gdispCloseFont, %function
 191              	gdispCloseFont:
 192              	.LFB120:
 193              		.loc 1 63 0
 194              		.cfi_startproc
 195              		@ args = 0, pretend = 0, frame = 0
 196              		@ frame_needed = 0, uses_anonymous_args = 0
 197              		@ link register save eliminated.
 198              	.LVL24:
 199              		.loc 1 64 0
 200 0000 90F90F20 		ldrsb	r2, [r0, #15]
 201 0004 002A     		cmp	r2, #0
 202 0006 00DB     		blt	.L41
 203 0008 7047     		bx	lr
 204              	.L41:
 205              	.LVL25:
 206              	.LBB2:
 207              		.loc 1 69 0
 208 000a 0021     		movs	r1, #0
 209 000c 8161     		str	r1, [r0, #24]
 210              	.LBE2:
 211              		.loc 1 74 0
 212              	.LBB3:
 213              		.loc 1 72 0
 214 000e FFF7FEBF 		b	chHeapFree
 215              	.LVL26:
 216              	.LBE3:
 217              		.cfi_endproc
 218              	.LFE120:
 219              		.size	gdispCloseFont, .-gdispCloseFont
 220 0012 00BFAFF3 		.section	.text.gdispScaleFont,"ax",%progbits
 220      0080AFF3 
 220      0080AFF3 
 220      0080
 221              		.align	2
 222              		.p2align 4,,15
 223              		.global	gdispScaleFont
ARM GAS  C:\Users\Elis\AppData\Local\Temp\ccdyIOWh.s 			page 5


 224              		.thumb
 225              		.thumb_func
 226              		.type	gdispScaleFont, %function
 227              	gdispScaleFont:
 228              	.LFB121:
 229              		.loc 1 77 0
 230              		.cfi_startproc
 231              		@ args = 0, pretend = 0, frame = 0
 232              		@ frame_needed = 0, uses_anonymous_args = 0
 233              	.LVL27:
 234 0000 F8B5     		push	{r3, r4, r5, r6, r7, lr}
 235              	.LCFI1:
 236              		.cfi_def_cfa_offset 24
 237              		.cfi_offset 3, -24
 238              		.cfi_offset 4, -20
 239              		.cfi_offset 5, -16
 240              		.cfi_offset 6, -12
 241              		.cfi_offset 7, -8
 242              		.cfi_offset 14, -4
 243              		.loc 1 77 0
 244 0002 0746     		mov	r7, r0
 245 0004 0E46     		mov	r6, r1
 246              		.loc 1 78 0
 247 0006 0020     		movs	r0, #0
 248              	.LVL28:
 249 0008 2421     		movs	r1, #36
 250              	.LVL29:
 251              		.loc 1 77 0
 252 000a 1546     		mov	r5, r2
 253              		.loc 1 78 0
 254 000c FFF7FEFF 		bl	chHeapAlloc
 255              	.LVL30:
 256              		.loc 1 79 0
 257 0010 3946     		mov	r1, r7
 258              		.loc 1 78 0
 259 0012 0446     		mov	r4, r0
 260              	.LVL31:
 261              		.loc 1 79 0
 262 0014 3246     		mov	r2, r6
 263 0016 2B46     		mov	r3, r5
 264 0018 FFF7FEFF 		bl	mf_scale_font
 265              	.LVL32:
 266              		.loc 1 81 0
 267 001c 2046     		mov	r0, r4
 268 001e F8BD     		pop	{r3, r4, r5, r6, r7, pc}
 269              		.cfi_endproc
 270              	.LFE121:
 271              		.size	gdispScaleFont, .-gdispScaleFont
 272              		.section	.text.gdispGetFontName,"ax",%progbits
 273              		.align	2
 274              		.p2align 4,,15
 275              		.global	gdispGetFontName
 276              		.thumb
 277              		.thumb_func
 278              		.type	gdispGetFontName, %function
 279              	gdispGetFontName:
 280              	.LFB122:
ARM GAS  C:\Users\Elis\AppData\Local\Temp\ccdyIOWh.s 			page 6


 281              		.loc 1 83 0
 282              		.cfi_startproc
 283              		@ args = 0, pretend = 0, frame = 0
 284              		@ frame_needed = 0, uses_anonymous_args = 0
 285              		@ link register save eliminated.
 286              	.LVL33:
 287              		.loc 1 85 0
 288 0000 4068     		ldr	r0, [r0, #4]
 289              	.LVL34:
 290 0002 7047     		bx	lr
 291              		.cfi_endproc
 292              	.LFE122:
 293              		.size	gdispGetFontName, .-gdispGetFontName
 294 0004 AFF30080 		.text
 294      AFF30080 
 294      AFF30080 
 295              	.Letext0:
 296              		.file 2 "c:\\chibistudio\\tools\\gnu tools arm embedded\\4.7 2014q2\\bin\\../lib/gcc/arm-none-eabi
 297              		.file 3 "c:\\chibistudio\\tools\\gnu tools arm embedded\\4.7 2014q2\\bin\\../lib/gcc/arm-none-eabi
 298              		.file 4 "../../chibios/os/ports/GCC/ARMCMx/chtypes.h"
 299              		.file 5 "../../chibios/os/kernel/include/chlists.h"
 300              		.file 6 "../../chibios/os/kernel/include/chthreads.h"
 301              		.file 7 "../../chibios/os/ports/GCC/ARMCMx/chcore_v7m.h"
 302              		.file 8 "../../chibios/os/kernel/include/chmtx.h"
 303              		.file 9 "../../chibios/os/kernel/include/chmemcore.h"
 304              		.file 10 "../../chibios/os/kernel/include/chheap.h"
 305              		.file 11 "../../ugfx/src/gdisp/gdisp.h"
 306              		.file 12 "../../ugfx/src/gdisp/mcufont/mf_font.h"
 307              		.file 13 "../../ugfx/src/gdisp/mcufont/mf_encoding.h"
 308              		.file 14 "../../ugfx/src/gdisp/mcufont/mf_scaledfont.h"
 309              		.file 15 "../../chibios/os/ports/common/ARMCMx/CMSIS/include/core_cm4.h"