ARM GAS  C:\Users\Elis\AppData\Local\Temp\ccdhxElo.s 			page 1


   1              		.syntax unified
   2              		.cpu cortex-m4
   3              		.fpu softvfp
   4              		.eabi_attribute 20, 1
   5              		.eabi_attribute 21, 1
   6              		.eabi_attribute 23, 3
   7              		.eabi_attribute 24, 1
   8              		.eabi_attribute 25, 1
   9              		.eabi_attribute 26, 1
  10              		.eabi_attribute 30, 2
  11              		.eabi_attribute 34, 1
  12              		.eabi_attribute 18, 4
  13              		.thumb
  14              		.file	"gdisp_lld_SSD1289.c"
  15              		.text
  16              	.Ltext0:
  17              		.cfi_sections	.debug_frame
  18              		.section	.text.set_cursor,"ax",%progbits
  19              		.align	2
  20              		.p2align 4,,15
  21              		.thumb
  22              		.thumb_func
  23              		.type	set_cursor, %function
  24              	set_cursor:
  25              	.LFB129:
  26              		.file 1 "../../ugfx/drivers/gdisp/SSD1289/gdisp_lld_SSD1289.c"
  27              		.loc 1 49 0
  28              		.cfi_startproc
  29              		@ args = 0, pretend = 0, frame = 0
  30              		@ frame_needed = 0, uses_anonymous_args = 0
  31              		@ link register save eliminated.
  32              	.LVL0:
  33              		.loc 1 55 0
  34 0000 8389     		ldrh	r3, [r0, #12]
  35 0002 B42B     		cmp	r3, #180
  36              	.LBB349:
  37              	.LBB350:
  38              		.file 2 "../../ugfx/boards/base/STM32F407/board_SSD1289.h"
  39              		.loc 2 128 0
  40 0004 4FF0C042 		mov	r2, #1610612736
  41              	.LBE350:
  42              	.LBE349:
  43              		.loc 1 55 0
  44 0008 39D0     		beq	.L4
  45 000a B3F5877F 		cmp	r3, #270
  46 000e 25D0     		beq	.L5
  47 0010 5A2B     		cmp	r3, #90
  48              	.LBB352:
  49              	.LBB353:
  50              		.loc 2 128 0
  51 0012 4FF04E01 		mov	r1, #78
  52 0016 1180     		strh	r1, [r2, #0]	@ movhi
  53              	.LBE353:
  54              	.LBE352:
  55              	.LBB354:
  56              	.LBB355:
  57              		.loc 2 133 0
ARM GAS  C:\Users\Elis\AppData\Local\Temp\ccdhxElo.s 			page 2


  58 0018 4FF00003 		mov	r3, #0
  59              	.LBE355:
  60              	.LBE354:
  61              		.loc 1 55 0
  62 001c 0FD0     		beq	.L3
  63              	.LVL1:
  64              		.loc 1 58 0
  65 001e 90F83810 		ldrb	r1, [r0, #56]	@ zero_extendqisi2
  66              	.LVL2:
  67              	.LBB357:
  68              	.LBB358:
  69              		.loc 2 133 0
  70 0022 C6F20203 		movt	r3, 24578
  71 0026 1980     		strh	r1, [r3, #0]	@ movhi
  72              	.LVL3:
  73              	.LBE358:
  74              	.LBE357:
  75              	.LBB359:
  76              	.LBB360:
  77              		.loc 2 128 0
  78 0028 4F21     		movs	r1, #79
  79              	.LVL4:
  80 002a 1180     		strh	r1, [r2, #0]	@ movhi
  81              	.LBE360:
  82              	.LBE359:
  83              		.loc 1 59 0
  84 002c 408F     		ldrh	r0, [r0, #58]
  85              	.LVL5:
  86 002e C205     		lsls	r2, r0, #23
  87 0030 D10D     		lsrs	r1, r2, #23
  88              	.LVL6:
  89              	.LBB361:
  90              	.LBB362:
  91              		.loc 2 133 0
  92 0032 1980     		strh	r1, [r3, #0]	@ movhi
  93              	.LVL7:
  94              	.L6:
  95              	.LBE362:
  96              	.LBE361:
  97              	.LBB363:
  98              	.LBB364:
  99              		.loc 2 128 0
 100 0034 4FF0C043 		mov	r3, #1610612736
 101 0038 2221     		movs	r1, #34
 102 003a 1980     		strh	r1, [r3, #0]	@ movhi
 103 003c 7047     		bx	lr
 104              	.LVL8:
 105              	.L3:
 106              	.LBE364:
 107              	.LBE363:
 108              		.loc 1 62 0
 109 003e 90F83A10 		ldrb	r1, [r0, #58]	@ zero_extendqisi2
 110              	.LVL9:
 111              	.LBB365:
 112              	.LBB356:
 113              		.loc 2 133 0
 114 0042 C6F20203 		movt	r3, 24578
ARM GAS  C:\Users\Elis\AppData\Local\Temp\ccdhxElo.s 			page 3


 115 0046 1980     		strh	r1, [r3, #0]	@ movhi
 116              	.LVL10:
 117              	.LBE356:
 118              	.LBE365:
 119              	.LBB366:
 120              	.LBB367:
 121              		.loc 2 128 0
 122 0048 4F21     		movs	r1, #79
 123              	.LVL11:
 124 004a 1180     		strh	r1, [r2, #0]	@ movhi
 125              	.LBE367:
 126              	.LBE366:
 127              		.loc 1 63 0
 128 004c 008F     		ldrh	r0, [r0, #56]
 129              	.LVL12:
 130              	.L7:
 131              		.loc 1 67 0
 132 004e C0F59F72 		rsb	r2, r0, #318
 133 0052 511C     		adds	r1, r2, #1
 134 0054 C805     		lsls	r0, r1, #23
 135 0056 C20D     		lsrs	r2, r0, #23
 136              	.LVL13:
 137              	.LBB368:
 138              	.LBB369:
 139              		.loc 2 133 0
 140 0058 1A80     		strh	r2, [r3, #0]	@ movhi
 141 005a EBE7     		b	.L6
 142              	.LVL14:
 143              	.L5:
 144              	.LBE369:
 145              	.LBE368:
 146              	.LBB370:
 147              	.LBB371:
 148              		.loc 2 128 0
 149 005c 4E23     		movs	r3, #78
 150 005e 1380     		strh	r3, [r2, #0]	@ movhi
 151              	.LBE371:
 152              	.LBE370:
 153              		.loc 1 70 0
 154 0060 418F     		ldrh	r1, [r0, #58]
 155              	.LBB372:
 156              	.LBB373:
 157              		.loc 2 133 0
 158 0062 0023     		movs	r3, #0
 159 0064 C6F20203 		movt	r3, 24578
 160              	.LBE373:
 161              	.LBE372:
 162              		.loc 1 70 0
 163 0068 C1F1EF01 		rsb	r1, r1, #239
 164 006c C9B2     		uxtb	r1, r1
 165              	.LVL15:
 166              	.LBB375:
 167              	.LBB374:
 168              		.loc 2 133 0
 169 006e 1980     		strh	r1, [r3, #0]	@ movhi
 170              	.LVL16:
 171              	.LBE374:
ARM GAS  C:\Users\Elis\AppData\Local\Temp\ccdhxElo.s 			page 4


 172              	.LBE375:
 173              	.LBB376:
 174              	.LBB377:
 175              		.loc 2 128 0
 176 0070 4F21     		movs	r1, #79
 177              	.LVL17:
 178 0072 1180     		strh	r1, [r2, #0]	@ movhi
 179              	.LBE377:
 180              	.LBE376:
 181              		.loc 1 71 0
 182 0074 008F     		ldrh	r0, [r0, #56]
 183              	.LVL18:
 184 0076 C205     		lsls	r2, r0, #23
 185 0078 D10D     		lsrs	r1, r2, #23
 186              	.LVL19:
 187              	.LBB378:
 188              	.LBB379:
 189              		.loc 2 133 0
 190 007a 1980     		strh	r1, [r3, #0]	@ movhi
 191 007c DAE7     		b	.L6
 192              	.LVL20:
 193              	.L4:
 194              	.LBE379:
 195              	.LBE378:
 196              	.LBB380:
 197              	.LBB351:
 198              		.loc 2 128 0
 199 007e 4E23     		movs	r3, #78
 200 0080 1380     		strh	r3, [r2, #0]	@ movhi
 201              	.LBE351:
 202              	.LBE380:
 203              		.loc 1 66 0
 204 0082 018F     		ldrh	r1, [r0, #56]
 205              	.LBB381:
 206              	.LBB382:
 207              		.loc 2 133 0
 208 0084 0023     		movs	r3, #0
 209 0086 C6F20203 		movt	r3, 24578
 210              	.LBE382:
 211              	.LBE381:
 212              		.loc 1 66 0
 213 008a C1F1EF01 		rsb	r1, r1, #239
 214 008e C9B2     		uxtb	r1, r1
 215              	.LVL21:
 216              	.LBB384:
 217              	.LBB383:
 218              		.loc 2 133 0
 219 0090 1980     		strh	r1, [r3, #0]	@ movhi
 220              	.LVL22:
 221              	.LBE383:
 222              	.LBE384:
 223              	.LBB385:
 224              	.LBB386:
 225              		.loc 2 128 0
 226 0092 4F21     		movs	r1, #79
 227              	.LVL23:
 228 0094 1180     		strh	r1, [r2, #0]	@ movhi
ARM GAS  C:\Users\Elis\AppData\Local\Temp\ccdhxElo.s 			page 5


 229              	.LBE386:
 230              	.LBE385:
 231              		.loc 1 67 0
 232 0096 408F     		ldrh	r0, [r0, #58]
 233              	.LVL24:
 234 0098 D9E7     		b	.L7
 235              		.cfi_endproc
 236              	.LFE129:
 237              		.size	set_cursor, .-set_cursor
 238 009a 00BFAFF3 		.section	.text.set_viewport,"ax",%progbits
 238      0080
 239              		.align	2
 240              		.p2align 4,,15
 241              		.thumb
 242              		.thumb_func
 243              		.type	set_viewport, %function
 244              	set_viewport:
 245              	.LFB130:
 246              		.loc 1 77 0
 247              		.cfi_startproc
 248              		@ args = 0, pretend = 0, frame = 0
 249              		@ frame_needed = 0, uses_anonymous_args = 0
 250              		@ link register save eliminated.
 251              	.LVL25:
 252              		.loc 1 87 0
 253 0000 8389     		ldrh	r3, [r0, #12]
 254 0002 B42B     		cmp	r3, #180
 255              		.loc 1 77 0
 256 0004 10B4     		push	{r4}
 257              	.LCFI0:
 258              		.cfi_def_cfa_offset 4
 259              		.cfi_offset 4, -4
 260              	.LBB387:
 261              	.LBB388:
 262              		.loc 2 128 0
 263 0006 4FF0C042 		mov	r2, #1610612736
 264              	.LBE388:
 265              	.LBE387:
 266              		.loc 1 87 0
 267 000a 65D0     		beq	.L12
 268 000c B3F5877F 		cmp	r3, #270
 269 0010 45D0     		beq	.L13
 270              	.LBB390:
 271              	.LBB391:
 272              		.loc 2 128 0
 273 0012 4FF04401 		mov	r1, #68
 274              	.LBE391:
 275              	.LBE390:
 276              		.loc 1 87 0
 277 0016 5A2B     		cmp	r3, #90
 278              	.LBB393:
 279              	.LBB392:
 280              		.loc 2 128 0
 281 0018 1180     		strh	r1, [r2, #0]	@ movhi
 282              	.LBE392:
 283              	.LBE393:
 284              		.loc 1 87 0
ARM GAS  C:\Users\Elis\AppData\Local\Temp\ccdhxElo.s 			page 6


 285 001a 1ED0     		beq	.L11
 286              	.LVL26:
 287              		.loc 1 90 0
 288 001c 048F     		ldrh	r4, [r0, #56]
 289 001e B0F93C30 		ldrsh	r3, [r0, #60]
 290 0022 03FA84F1 		sxtah	r1, r3, r4
 291 0026 0139     		subs	r1, r1, #1
 292 0028 E4B2     		uxtb	r4, r4
 293              	.LBB394:
 294              	.LBB395:
 295              		.loc 2 133 0
 296 002a 0023     		movs	r3, #0
 297 002c C6F20203 		movt	r3, 24578
 298              	.LBE395:
 299              	.LBE394:
 300              		.loc 1 90 0
 301 0030 44EA0121 		orr	r1, r4, r1, lsl #8
 302 0034 89B2     		uxth	r1, r1
 303              	.LVL27:
 304              	.LBB397:
 305              	.LBB396:
 306              		.loc 2 133 0
 307 0036 1980     		strh	r1, [r3, #0]	@ movhi
 308              	.LVL28:
 309              	.LBE396:
 310              	.LBE397:
 311              	.LBB398:
 312              	.LBB399:
 313              		.loc 2 128 0
 314 0038 4521     		movs	r1, #69
 315              	.LVL29:
 316 003a 1180     		strh	r1, [r2, #0]	@ movhi
 317              	.LBE399:
 318              	.LBE398:
 319              		.loc 1 91 0
 320 003c 418F     		ldrh	r1, [r0, #58]
 321 003e C905     		lsls	r1, r1, #23
 322 0040 C90D     		lsrs	r1, r1, #23
 323              	.LVL30:
 324              	.LBB400:
 325              	.LBB401:
 326              		.loc 2 133 0
 327 0042 1980     		strh	r1, [r3, #0]	@ movhi
 328              	.LVL31:
 329              	.LBE401:
 330              	.LBE400:
 331              	.LBB402:
 332              	.LBB403:
 333              		.loc 2 128 0
 334 0044 4621     		movs	r1, #70
 335              	.LVL32:
 336 0046 1180     		strh	r1, [r2, #0]	@ movhi
 337              	.LBE403:
 338              	.LBE402:
 339              		.loc 1 92 0
 340 0048 418F     		ldrh	r1, [r0, #58]
 341 004a C08F     		ldrh	r0, [r0, #62]
ARM GAS  C:\Users\Elis\AppData\Local\Temp\ccdhxElo.s 			page 7


 342              	.LVL33:
 343              	.L16:
 344              		.loc 1 107 0
 345 004c 0A18     		adds	r2, r1, r0
 346 004e 511E     		subs	r1, r2, #1
 347 0050 C805     		lsls	r0, r1, #23
 348 0052 C20D     		lsrs	r2, r0, #23
 349              	.LVL34:
 350              	.LBB404:
 351              	.LBB405:
 352              		.loc 2 133 0
 353 0054 1A80     		strh	r2, [r3, #0]	@ movhi
 354              	.LVL35:
 355              	.L9:
 356              	.LBE405:
 357              	.LBE404:
 358              		.loc 1 110 0
 359 0056 10BC     		pop	{r4}
 360 0058 7047     		bx	lr
 361              	.LVL36:
 362              	.L11:
 363              		.loc 1 95 0
 364 005a 448F     		ldrh	r4, [r0, #58]
 365 005c B0F93E30 		ldrsh	r3, [r0, #62]
 366 0060 03FA84F1 		sxtah	r1, r3, r4
 367 0064 0139     		subs	r1, r1, #1
 368 0066 E4B2     		uxtb	r4, r4
 369              	.LBB406:
 370              	.LBB407:
 371              		.loc 2 133 0
 372 0068 0023     		movs	r3, #0
 373 006a C6F20203 		movt	r3, 24578
 374              	.LBE407:
 375              	.LBE406:
 376              		.loc 1 95 0
 377 006e 44EA0121 		orr	r1, r4, r1, lsl #8
 378 0072 8CB2     		uxth	r4, r1
 379              	.LVL37:
 380              	.LBB409:
 381              	.LBB410:
 382              		.loc 2 128 0
 383 0074 4521     		movs	r1, #69
 384              	.LVL38:
 385              	.LBE410:
 386              	.LBE409:
 387              	.LBB412:
 388              	.LBB408:
 389              		.loc 2 133 0
 390 0076 1C80     		strh	r4, [r3, #0]	@ movhi
 391              	.LVL39:
 392              	.LBE408:
 393              	.LBE412:
 394              	.LBB413:
 395              	.LBB411:
 396              		.loc 2 128 0
 397 0078 1180     		strh	r1, [r2, #0]	@ movhi
 398              	.LBE411:
ARM GAS  C:\Users\Elis\AppData\Local\Temp\ccdhxElo.s 			page 8


 399              	.LBE413:
 400              		.loc 1 77 0
 401 007a 848F     		ldrh	r4, [r0, #60]
 402              	.LVL40:
 403 007c 018F     		ldrh	r1, [r0, #56]
 404 007e 6118     		adds	r1, r4, r1
 405              		.loc 1 96 0
 406 0080 C1F5A071 		rsb	r1, r1, #320
 407 0084 C905     		lsls	r1, r1, #23
 408 0086 C90D     		lsrs	r1, r1, #23
 409              	.LVL41:
 410              	.LBB414:
 411              	.LBB415:
 412              		.loc 2 133 0
 413 0088 1980     		strh	r1, [r3, #0]	@ movhi
 414              	.LVL42:
 415              	.LBE415:
 416              	.LBE414:
 417              	.LBB416:
 418              	.LBB417:
 419              		.loc 2 128 0
 420 008a 4621     		movs	r1, #70
 421              	.LVL43:
 422 008c 1180     		strh	r1, [r2, #0]	@ movhi
 423              	.LBE417:
 424              	.LBE416:
 425              		.loc 1 97 0
 426 008e 008F     		ldrh	r0, [r0, #56]
 427              	.LVL44:
 428              	.L15:
 429              		.loc 1 102 0
 430 0090 C0F59F72 		rsb	r2, r0, #318
 431 0094 511C     		adds	r1, r2, #1
 432 0096 C805     		lsls	r0, r1, #23
 433 0098 C20D     		lsrs	r2, r0, #23
 434              	.LVL45:
 435              	.LBB418:
 436              	.LBB419:
 437              		.loc 2 133 0
 438 009a 1A80     		strh	r2, [r3, #0]	@ movhi
 439 009c DBE7     		b	.L9
 440              	.LVL46:
 441              	.L13:
 442              	.LBE419:
 443              	.LBE418:
 444              	.LBB420:
 445              	.LBB421:
 446              		.loc 2 128 0
 447 009e 4423     		movs	r3, #68
 448 00a0 1380     		strh	r3, [r2, #0]	@ movhi
 449              	.LBE421:
 450              	.LBE420:
 451              		.loc 1 105 0
 452 00a2 418F     		ldrh	r1, [r0, #58]
 453              		.loc 1 77 0
 454 00a4 C48F     		ldrh	r4, [r0, #62]
 455 00a6 0B19     		adds	r3, r1, r4
ARM GAS  C:\Users\Elis\AppData\Local\Temp\ccdhxElo.s 			page 9


 456              		.loc 1 105 0
 457 00a8 C3F1F004 		rsb	r4, r3, #240
 458 00ac 09B2     		sxth	r1, r1
 459 00ae E4B2     		uxtb	r4, r4
 460 00b0 C1F1EF01 		rsb	r1, r1, #239
 461              	.LBB422:
 462              	.LBB423:
 463              		.loc 2 133 0
 464 00b4 0023     		movs	r3, #0
 465 00b6 C6F20203 		movt	r3, 24578
 466              	.LBE423:
 467              	.LBE422:
 468              		.loc 1 105 0
 469 00ba 44EA0121 		orr	r1, r4, r1, lsl #8
 470 00be 89B2     		uxth	r1, r1
 471              	.LVL47:
 472              	.LBB425:
 473              	.LBB424:
 474              		.loc 2 133 0
 475 00c0 1980     		strh	r1, [r3, #0]	@ movhi
 476              	.LVL48:
 477              	.LBE424:
 478              	.LBE425:
 479              	.LBB426:
 480              	.LBB427:
 481              		.loc 2 128 0
 482 00c2 4521     		movs	r1, #69
 483              	.LVL49:
 484 00c4 1180     		strh	r1, [r2, #0]	@ movhi
 485              	.LBE427:
 486              	.LBE426:
 487              		.loc 1 106 0
 488 00c6 018F     		ldrh	r1, [r0, #56]
 489 00c8 C905     		lsls	r1, r1, #23
 490 00ca C90D     		lsrs	r1, r1, #23
 491              	.LVL50:
 492              	.LBB428:
 493              	.LBB429:
 494              		.loc 2 133 0
 495 00cc 1980     		strh	r1, [r3, #0]	@ movhi
 496              	.LVL51:
 497              	.LBE429:
 498              	.LBE428:
 499              	.LBB430:
 500              	.LBB431:
 501              		.loc 2 128 0
 502 00ce 4621     		movs	r1, #70
 503              	.LVL52:
 504 00d0 1180     		strh	r1, [r2, #0]	@ movhi
 505              	.LBE431:
 506              	.LBE430:
 507              		.loc 1 107 0
 508 00d2 018F     		ldrh	r1, [r0, #56]
 509 00d4 808F     		ldrh	r0, [r0, #60]
 510              	.LVL53:
 511 00d6 B9E7     		b	.L16
 512              	.LVL54:
ARM GAS  C:\Users\Elis\AppData\Local\Temp\ccdhxElo.s 			page 10


 513              	.L12:
 514              	.LBB432:
 515              	.LBB389:
 516              		.loc 2 128 0
 517 00d8 4424     		movs	r4, #68
 518 00da 1480     		strh	r4, [r2, #0]	@ movhi
 519              	.LBE389:
 520              	.LBE432:
 521              		.loc 1 100 0
 522 00dc 038F     		ldrh	r3, [r0, #56]
 523              		.loc 1 77 0
 524 00de 818F     		ldrh	r1, [r0, #60]
 525 00e0 5C18     		adds	r4, r3, r1
 526              		.loc 1 100 0
 527 00e2 C4F1F001 		rsb	r1, r4, #240
 528 00e6 1BB2     		sxth	r3, r3
 529 00e8 CCB2     		uxtb	r4, r1
 530 00ea C3F1EF01 		rsb	r1, r3, #239
 531              	.LBB433:
 532              	.LBB434:
 533              		.loc 2 133 0
 534 00ee 0023     		movs	r3, #0
 535 00f0 C6F20203 		movt	r3, 24578
 536              	.LBE434:
 537              	.LBE433:
 538              		.loc 1 100 0
 539 00f4 44EA0124 		orr	r4, r4, r1, lsl #8
 540 00f8 A1B2     		uxth	r1, r4
 541              	.LVL55:
 542              	.LBB436:
 543              	.LBB437:
 544              		.loc 2 128 0
 545 00fa 4524     		movs	r4, #69
 546              	.LVL56:
 547              	.LBE437:
 548              	.LBE436:
 549              	.LBB439:
 550              	.LBB435:
 551              		.loc 2 133 0
 552 00fc 1980     		strh	r1, [r3, #0]	@ movhi
 553              	.LVL57:
 554              	.LBE435:
 555              	.LBE439:
 556              	.LBB440:
 557              	.LBB438:
 558              		.loc 2 128 0
 559 00fe 1480     		strh	r4, [r2, #0]	@ movhi
 560              	.LBE438:
 561              	.LBE440:
 562              		.loc 1 77 0
 563 0100 C48F     		ldrh	r4, [r0, #62]
 564 0102 418F     		ldrh	r1, [r0, #58]
 565              	.LVL58:
 566 0104 6118     		adds	r1, r4, r1
 567              		.loc 1 101 0
 568 0106 C1F5A071 		rsb	r1, r1, #320
 569 010a C905     		lsls	r1, r1, #23
ARM GAS  C:\Users\Elis\AppData\Local\Temp\ccdhxElo.s 			page 11


 570 010c C90D     		lsrs	r1, r1, #23
 571              	.LVL59:
 572              	.LBB441:
 573              	.LBB442:
 574              		.loc 2 133 0
 575 010e 1980     		strh	r1, [r3, #0]	@ movhi
 576              	.LVL60:
 577              	.LBE442:
 578              	.LBE441:
 579              	.LBB443:
 580              	.LBB444:
 581              		.loc 2 128 0
 582 0110 4621     		movs	r1, #70
 583              	.LVL61:
 584 0112 1180     		strh	r1, [r2, #0]	@ movhi
 585              	.LBE444:
 586              	.LBE443:
 587              		.loc 1 102 0
 588 0114 408F     		ldrh	r0, [r0, #58]
 589              	.LVL62:
 590 0116 BBE7     		b	.L15
 591              		.cfi_endproc
 592              	.LFE130:
 593              		.size	set_viewport, .-set_viewport
 594 0118 AFF30080 		.section	.text.gdisp_lld_write_start,"ax",%progbits
 594      AFF30080 
 595              		.align	2
 596              		.p2align 4,,15
 597              		.global	gdisp_lld_write_start
 598              		.thumb
 599              		.thumb_func
 600              		.type	gdisp_lld_write_start, %function
 601              	gdisp_lld_write_start:
 602              	.LFB132:
 603              		.loc 1 198 0
 604              		.cfi_startproc
 605              		@ args = 0, pretend = 0, frame = 0
 606              		@ frame_needed = 0, uses_anonymous_args = 0
 607              		@ link register save eliminated.
 608              	.LVL63:
 609              		.loc 1 204 0
 610              		.loc 1 200 0
 611 0000 FFF7FEBF 		b	set_viewport
 612              	.LVL64:
 613              		.cfi_endproc
 614              	.LFE132:
 615              		.size	gdisp_lld_write_start, .-gdisp_lld_write_start
 616 0004 AFF30080 		.section	.text.gdisp_lld_write_color,"ax",%progbits
 616      AFF30080 
 616      AFF30080 
 617              		.align	2
 618              		.p2align 4,,15
 619              		.global	gdisp_lld_write_color
 620              		.thumb
 621              		.thumb_func
 622              		.type	gdisp_lld_write_color, %function
 623              	gdisp_lld_write_color:
ARM GAS  C:\Users\Elis\AppData\Local\Temp\ccdhxElo.s 			page 12


 624              	.LFB133:
 625              		.loc 1 205 0
 626              		.cfi_startproc
 627              		@ args = 0, pretend = 0, frame = 0
 628              		@ frame_needed = 0, uses_anonymous_args = 0
 629              		@ link register save eliminated.
 630              	.LVL65:
 631              	.LBB445:
 632              	.LBB446:
 633              		.loc 2 133 0
 634 0000 0023     		movs	r3, #0
 635              	.LBE446:
 636              	.LBE445:
 637              		.loc 1 206 0
 638 0002 B0F84820 		ldrh	r2, [r0, #72]
 639              	.LVL66:
 640              	.LBB448:
 641              	.LBB447:
 642              		.loc 2 133 0
 643 0006 C6F20203 		movt	r3, 24578
 644 000a 1A80     		strh	r2, [r3, #0]	@ movhi
 645 000c 7047     		bx	lr
 646              	.LBE447:
 647              	.LBE448:
 648              		.cfi_endproc
 649              	.LFE133:
 650              		.size	gdisp_lld_write_color, .-gdisp_lld_write_color
 651 000e 00BF     		.section	.text.gdisp_lld_write_stop,"ax",%progbits
 652              		.align	2
 653              		.p2align 4,,15
 654              		.global	gdisp_lld_write_stop
 655              		.thumb
 656              		.thumb_func
 657              		.type	gdisp_lld_write_stop, %function
 658              	gdisp_lld_write_stop:
 659              	.LFB134:
 660              		.loc 1 208 0
 661              		.cfi_startproc
 662              		@ args = 0, pretend = 0, frame = 0
 663              		@ frame_needed = 0, uses_anonymous_args = 0
 664              		@ link register save eliminated.
 665              	.LVL67:
 666 0000 7047     		bx	lr
 667              		.cfi_endproc
 668              	.LFE134:
 669              		.size	gdisp_lld_write_stop, .-gdisp_lld_write_stop
 670 0002 00BFAFF3 		.section	.text.gdisp_lld_write_pos,"ax",%progbits
 670      0080AFF3 
 670      0080AFF3 
 670      0080
 671              		.align	2
 672              		.p2align 4,,15
 673              		.global	gdisp_lld_write_pos
 674              		.thumb
 675              		.thumb_func
 676              		.type	gdisp_lld_write_pos, %function
 677              	gdisp_lld_write_pos:
ARM GAS  C:\Users\Elis\AppData\Local\Temp\ccdhxElo.s 			page 13


 678              	.LFB135:
 679              		.loc 1 212 0
 680              		.cfi_startproc
 681              		@ args = 0, pretend = 0, frame = 0
 682              		@ frame_needed = 0, uses_anonymous_args = 0
 683              		@ link register save eliminated.
 684              	.LVL68:
 685              		.loc 1 214 0
 686              		.loc 1 213 0
 687 0000 FFF7FEBF 		b	set_cursor
 688              	.LVL69:
 689              		.cfi_endproc
 690              	.LFE135:
 691              		.size	gdisp_lld_write_pos, .-gdisp_lld_write_pos
 692 0004 AFF30080 		.section	.text.gdisp_lld_read_start,"ax",%progbits
 692      AFF30080 
 692      AFF30080 
 693              		.align	2
 694              		.p2align 4,,15
 695              		.global	gdisp_lld_read_start
 696              		.thumb
 697              		.thumb_func
 698              		.type	gdisp_lld_read_start, %function
 699              	gdisp_lld_read_start:
 700              	.LFB136:
 701              		.loc 1 219 0
 702              		.cfi_startproc
 703              		@ args = 0, pretend = 0, frame = 8
 704              		@ frame_needed = 0, uses_anonymous_args = 0
 705              	.LVL70:
 706 0000 10B5     		push	{r4, lr}
 707              	.LCFI1:
 708              		.cfi_def_cfa_offset 8
 709              		.cfi_offset 4, -8
 710              		.cfi_offset 14, -4
 711 0002 0446     		mov	r4, r0
 712 0004 82B0     		sub	sp, sp, #8
 713              	.LCFI2:
 714              		.cfi_def_cfa_offset 16
 715              		.loc 1 221 0
 716 0006 FFF7FEFF 		bl	set_viewport
 717              	.LVL71:
 718              		.loc 1 222 0
 719 000a 2046     		mov	r0, r4
 720 000c FFF7FEFF 		bl	set_cursor
 721              	.LVL72:
 722              	.LBB449:
 723              	.LBB450:
 724              		.loc 2 138 0
 725 0010 40F60802 		movw	r2, #2056
 726              	.LBE450:
 727              	.LBE449:
 728              	.LBB453:
 729              	.LBB454:
 730              	.LBB455:
 731              		.loc 2 148 0
 732 0014 0023     		movs	r3, #0
ARM GAS  C:\Users\Elis\AppData\Local\Temp\ccdhxElo.s 			page 14


 733              	.LBE455:
 734              	.LBE454:
 735              	.LBE453:
 736              	.LBB460:
 737              	.LBB451:
 738              		.loc 2 138 0
 739 0016 4FF02041 		mov	r1, #-1610612736
 740 001a C0F20102 		movt	r2, 1
 741              	.LBE451:
 742              	.LBE460:
 743              	.LBB461:
 744              	.LBB458:
 745              	.LBB456:
 746              		.loc 2 148 0
 747 001e C6F20203 		movt	r3, 24578
 748              	.LBE456:
 749              	.LBE458:
 750              	.LBE461:
 751              	.LBB462:
 752              	.LBB452:
 753              		.loc 2 138 0
 754 0022 4A60     		str	r2, [r1, #4]
 755              	.LBE452:
 756              	.LBE462:
 757              	.LBB463:
 758              	.LBB459:
 759              	.LBB457:
 760              		.loc 2 148 0
 761 0024 1888     		ldrh	r0, [r3, #0]
 762 0026 82B2     		uxth	r2, r0
 763              	.LBE457:
 764              	.LBE459:
 765              		.loc 1 224 0
 766 0028 ADF80620 		strh	r2, [sp, #6]	@ movhi
 767              	.LVL73:
 768 002c BDF80630 		ldrh	r3, [sp, #6]
 769              	.LBE463:
 770              		.loc 1 225 0
 771 0030 02B0     		add	sp, sp, #8
 772 0032 10BD     		pop	{r4, pc}
 773              		.cfi_endproc
 774              	.LFE136:
 775              		.size	gdisp_lld_read_start, .-gdisp_lld_read_start
 776 0034 AFF30080 		.section	.text.gdisp_lld_read_color,"ax",%progbits
 776      AFF30080 
 776      AFF30080 
 777              		.align	2
 778              		.p2align 4,,15
 779              		.global	gdisp_lld_read_color
 780              		.thumb
 781              		.thumb_func
 782              		.type	gdisp_lld_read_color, %function
 783              	gdisp_lld_read_color:
 784              	.LFB137:
 785              		.loc 1 226 0
 786              		.cfi_startproc
 787              		@ args = 0, pretend = 0, frame = 0
ARM GAS  C:\Users\Elis\AppData\Local\Temp\ccdhxElo.s 			page 15


 788              		@ frame_needed = 0, uses_anonymous_args = 0
 789              		@ link register save eliminated.
 790              	.LVL74:
 791              	.LBB464:
 792              	.LBB465:
 793              		.loc 2 148 0
 794 0000 0023     		movs	r3, #0
 795 0002 C6F20203 		movt	r3, 24578
 796 0006 1888     		ldrh	r0, [r3, #0]
 797              	.LVL75:
 798              	.LBE465:
 799              	.LBE464:
 800              		.loc 1 231 0
 801 0008 80B2     		uxth	r0, r0
 802 000a 7047     		bx	lr
 803              		.cfi_endproc
 804              	.LFE137:
 805              		.size	gdisp_lld_read_color, .-gdisp_lld_read_color
 806 000c AFF30080 		.section	.text.gdisp_lld_read_stop,"ax",%progbits
 807              		.align	2
 808              		.p2align 4,,15
 809              		.global	gdisp_lld_read_stop
 810              		.thumb
 811              		.thumb_func
 812              		.type	gdisp_lld_read_stop, %function
 813              	gdisp_lld_read_stop:
 814              	.LFB138:
 815              		.loc 1 232 0
 816              		.cfi_startproc
 817              		@ args = 0, pretend = 0, frame = 0
 818              		@ frame_needed = 0, uses_anonymous_args = 0
 819              		@ link register save eliminated.
 820              	.LVL76:
 821              	.LBB466:
 822              	.LBB467:
 823              		.loc 2 143 0
 824 0000 40F20143 		movw	r3, #1025
 825 0004 4FF02042 		mov	r2, #-1610612736
 826 0008 C0F20103 		movt	r3, 1
 827 000c 5360     		str	r3, [r2, #4]
 828 000e 7047     		bx	lr
 829              	.LBE467:
 830              	.LBE466:
 831              		.cfi_endproc
 832              	.LFE138:
 833              		.size	gdisp_lld_read_stop, .-gdisp_lld_read_stop
 834              		.section	.text.gdisp_lld_control,"ax",%progbits
 835              		.align	2
 836              		.p2align 4,,15
 837              		.global	gdisp_lld_control
 838              		.thumb
 839              		.thumb_func
 840              		.type	gdisp_lld_control, %function
 841              	gdisp_lld_control:
 842              	.LFB139:
 843              		.loc 1 280 0
 844              		.cfi_startproc
ARM GAS  C:\Users\Elis\AppData\Local\Temp\ccdhxElo.s 			page 16


 845              		@ args = 0, pretend = 0, frame = 0
 846              		@ frame_needed = 0, uses_anonymous_args = 0
 847              	.LVL77:
 848              		.loc 1 281 0
 849 0000 B0F93830 		ldrsh	r3, [r0, #56]
 850 0004 012B     		cmp	r3, #1
 851              		.loc 1 280 0
 852 0006 70B5     		push	{r4, r5, r6, lr}
 853              	.LCFI3:
 854              		.cfi_def_cfa_offset 16
 855              		.cfi_offset 4, -16
 856              		.cfi_offset 5, -12
 857              		.cfi_offset 6, -8
 858              		.cfi_offset 14, -4
 859              		.loc 1 280 0
 860 0008 0446     		mov	r4, r0
 861              		.loc 1 281 0
 862 000a 2AD0     		beq	.L27
 863 000c 022B     		cmp	r3, #2
 864 000e 1DD0     		beq	.L28
 865 0010 33BB     		cbnz	r3, .L24
 866              		.loc 1 283 0
 867 0012 90F84C20 		ldrb	r2, [r0, #76]	@ zero_extendqisi2
 868 0016 817B     		ldrb	r1, [r0, #14]	@ zero_extendqisi2
 869 0018 9142     		cmp	r1, r2
 870 001a 21D0     		beq	.L24
 871              		.loc 1 285 0
 872 001c 012A     		cmp	r2, #1
 873 001e 3DD0     		beq	.L30
 874 0020 032A     		cmp	r2, #3
 875 0022 54D0     		beq	.L31
 876 0024 E2B9     		cbnz	r2, .L24
 877              	.LVL78:
 878              	.LBB514:
 879              	.LBB515:
 880              		.loc 2 133 0
 881 0026 0021     		movs	r1, #0
 882              	.LBE515:
 883              	.LBE514:
 884              	.LBB518:
 885              	.LBB519:
 886              		.loc 2 128 0
 887 0028 4FF0C040 		mov	r0, #1610612736
 888              	.LVL79:
 889              	.LBE519:
 890              	.LBE518:
 891              	.LBB522:
 892              	.LBB516:
 893              		.loc 2 133 0
 894 002c C6F20201 		movt	r1, 24578
 895              	.LBE516:
 896              	.LBE522:
 897              	.LBB523:
 898              	.LBB520:
 899              		.loc 2 128 0
 900 0030 1025     		movs	r5, #16
 901              	.LBE520:
ARM GAS  C:\Users\Elis\AppData\Local\Temp\ccdhxElo.s 			page 17


 902              	.LBE523:
 903              	.LBB524:
 904              	.LBB525:
 905 0032 0726     		movs	r6, #7
 906              	.LBE525:
 907              	.LBE524:
 908              	.LBB527:
 909              	.LBB521:
 910 0034 0580     		strh	r5, [r0, #0]	@ movhi
 911              	.LVL80:
 912              	.LBE521:
 913              	.LBE527:
 914              	.LBB528:
 915              	.LBB529:
 916              		.loc 2 133 0
 917 0036 1346     		mov	r3, r2
 918              	.LBE529:
 919              	.LBE528:
 920              	.LBB532:
 921              	.LBB517:
 922 0038 0A80     		strh	r2, [r1, #0]	@ movhi
 923              	.LVL81:
 924              	.LBE517:
 925              	.LBE532:
 926              	.LBB533:
 927              	.LBB526:
 928              		.loc 2 128 0
 929 003a 0680     		strh	r6, [r0, #0]	@ movhi
 930              	.LVL82:
 931              	.LBE526:
 932              	.LBE533:
 933              	.LBB534:
 934              	.LBB535:
 935              		.loc 2 133 0
 936 003c 0A80     		strh	r2, [r1, #0]	@ movhi
 937              	.LVL83:
 938              	.LBE535:
 939              	.LBE534:
 940              	.LBB536:
 941              	.LBB537:
 942              		.loc 2 128 0
 943 003e 0280     		strh	r2, [r0, #0]	@ movhi
 944              	.LVL84:
 945              	.LBE537:
 946              	.LBE536:
 947              	.LBB538:
 948              	.LBB539:
 949              		.loc 2 133 0
 950 0040 0A80     		strh	r2, [r1, #0]	@ movhi
 951              	.LVL85:
 952              	.LBE539:
 953              	.LBE538:
 954              	.LBB540:
 955              	.LBB530:
 956 0042 0122     		movs	r2, #1
 957              	.LBE530:
 958              	.LBE540:
ARM GAS  C:\Users\Elis\AppData\Local\Temp\ccdhxElo.s 			page 18


 959              	.LBB541:
 960              	.LBB542:
 961              		.loc 2 128 0
 962 0044 0580     		strh	r5, [r0, #0]	@ movhi
 963              	.LVL86:
 964              	.LBE542:
 965              	.LBE541:
 966              	.LBB543:
 967              	.LBB531:
 968              		.loc 2 133 0
 969 0046 0A80     		strh	r2, [r1, #0]	@ movhi
 970              	.LVL87:
 971              	.L32:
 972              	.LBE531:
 973              	.LBE543:
 974              		.loc 1 309 0
 975 0048 A373     		strb	r3, [r4, #14]
 976              		.loc 1 310 0
 977 004a 70BD     		pop	{r4, r5, r6, pc}
 978              	.LVL88:
 979              	.L28:
 980              		.loc 1 355 0
 981 004c C26C     		ldr	r2, [r0, #76]
 982 004e 642A     		cmp	r2, #100
 983 0050 21D8     		bhi	.L39
 984 0052 D2B2     		uxtb	r2, r2
 985              	.L40:
 986              	.LBB544:
 987              	.LBB545:
 988              		.loc 2 115 0
 989 0054 0221     		movs	r1, #2
 990 0056 3448     		ldr	r0, .L44
 991              	.LVL89:
 992 0058 FFF7FEFF 		bl	pwmEnableChannel
 993              	.LVL90:
 994              	.LBE545:
 995              	.LBE544:
 996              		.loc 1 358 0
 997 005c E16C     		ldr	r1, [r4, #76]
 998 005e E173     		strb	r1, [r4, #15]
 999              	.L24:
 1000 0060 70BD     		pop	{r4, r5, r6, pc}
 1001              	.LVL91:
 1002              	.L27:
 1003              		.loc 1 313 0
 1004 0062 C06C     		ldr	r0, [r0, #76]
 1005              	.LVL92:
 1006 0064 A389     		ldrh	r3, [r4, #12]
 1007 0066 82B2     		uxth	r2, r0
 1008 0068 9342     		cmp	r3, r2
 1009 006a F9D0     		beq	.L24
 1010              		.loc 1 315 0
 1011 006c 5A2A     		cmp	r2, #90
 1012 006e 3FD0     		beq	.L34
 1013 0070 1EDC     		bgt	.L37
 1014 0072 002A     		cmp	r2, #0
 1015 0074 4DD1     		bne	.L43
ARM GAS  C:\Users\Elis\AppData\Local\Temp\ccdhxElo.s 			page 19


 1016              	.LVL93:
 1017              	.LBB546:
 1018              	.LBB547:
 1019              		.loc 2 128 0
 1020 0076 4FF0C041 		mov	r1, #1610612736
 1021 007a 1120     		movs	r0, #17
 1022              	.LBE547:
 1023              	.LBE546:
 1024              	.LBB549:
 1025              	.LBB550:
 1026              		.loc 2 133 0
 1027 007c 0023     		movs	r3, #0
 1028              	.LBE550:
 1029              	.LBE549:
 1030              	.LBB552:
 1031              	.LBB548:
 1032              		.loc 2 128 0
 1033 007e 0880     		strh	r0, [r1, #0]	@ movhi
 1034              	.LVL94:
 1035              	.LBE548:
 1036              	.LBE552:
 1037              	.LBB553:
 1038              	.LBB551:
 1039              		.loc 2 133 0
 1040 0080 C6F20203 		movt	r3, 24578
 1041 0084 46F27000 		movw	r0, #24688
 1042              	.LVL95:
 1043              	.L41:
 1044              	.LBE551:
 1045              	.LBE553:
 1046              	.LBB554:
 1047              	.LBB555:
 1048 0088 1880     		strh	r0, [r3, #0]	@ movhi
 1049              	.LBE555:
 1050              	.LBE554:
 1051              		.loc 1 338 0
 1052 008a F021     		movs	r1, #240
 1053              		.loc 1 337 0
 1054 008c 4FF4A073 		mov	r3, #320
 1055 0090 6381     		strh	r3, [r4, #10]	@ movhi
 1056              		.loc 1 338 0
 1057 0092 2181     		strh	r1, [r4, #8]	@ movhi
 1058              		.loc 1 339 0
 1059 0094 3BE0     		b	.L38
 1060              	.LVL96:
 1061              	.L39:
 1062              		.loc 1 356 0
 1063 0096 6422     		movs	r2, #100
 1064 0098 C264     		str	r2, [r0, #76]
 1065 009a DBE7     		b	.L40
 1066              	.L30:
 1067              	.LVL97:
 1068              	.LBB558:
 1069              	.LBB559:
 1070              		.loc 2 133 0
 1071 009c 0021     		movs	r1, #0
 1072              	.LBE559:
ARM GAS  C:\Users\Elis\AppData\Local\Temp\ccdhxElo.s 			page 20


 1073              	.LBE558:
 1074              	.LBB562:
 1075              	.LBB563:
 1076              		.loc 2 128 0
 1077 009e 4FF0C043 		mov	r3, #1610612736
 1078              	.LBE563:
 1079              	.LBE562:
 1080              	.LBB565:
 1081              	.LBB560:
 1082              		.loc 2 133 0
 1083 00a2 C6F20201 		movt	r1, 24578
 1084              	.LBE560:
 1085              	.LBE565:
 1086              	.LBB566:
 1087              	.LBB564:
 1088              		.loc 2 128 0
 1089 00a6 1020     		movs	r0, #16
 1090              	.LVL98:
 1091 00a8 1880     		strh	r0, [r3, #0]	@ movhi
 1092              	.LVL99:
 1093              	.LBE564:
 1094              	.LBE566:
 1095              	.LBB567:
 1096              	.LBB561:
 1097              		.loc 2 133 0
 1098 00aa 1346     		mov	r3, r2
 1099 00ac 0A80     		strh	r2, [r1, #0]	@ movhi
 1100 00ae CBE7     		b	.L32
 1101              	.LVL100:
 1102              	.L37:
 1103              	.LBE561:
 1104              	.LBE567:
 1105              		.loc 1 315 0
 1106 00b0 B42A     		cmp	r2, #180
 1107 00b2 2FD0     		beq	.L35
 1108 00b4 B2F5877F 		cmp	r2, #270
 1109 00b8 D2D1     		bne	.L24
 1110              	.LVL101:
 1111              	.LBB568:
 1112              	.LBB569:
 1113              		.loc 2 128 0
 1114 00ba 4FF0C041 		mov	r1, #1610612736
 1115 00be 1120     		movs	r0, #17
 1116              	.LBE569:
 1117              	.LBE568:
 1118              	.LBB571:
 1119              	.LBB572:
 1120              		.loc 2 133 0
 1121 00c0 0023     		movs	r3, #0
 1122              	.LBE572:
 1123              	.LBE571:
 1124              	.LBB575:
 1125              	.LBB570:
 1126              		.loc 2 128 0
 1127 00c2 0880     		strh	r0, [r1, #0]	@ movhi
 1128              	.LVL102:
 1129              	.LBE570:
ARM GAS  C:\Users\Elis\AppData\Local\Temp\ccdhxElo.s 			page 21


 1130              	.LBE575:
 1131              	.LBB576:
 1132              	.LBB573:
 1133              		.loc 2 133 0
 1134 00c4 C6F20203 		movt	r3, 24578
 1135 00c8 46F26800 		movw	r0, #24680
 1136 00cc 19E0     		b	.L42
 1137              	.LVL103:
 1138              	.L31:
 1139              	.LBE573:
 1140              	.LBE576:
 1141              	.LBB577:
 1142              	.LBB578:
 1143 00ce 0022     		movs	r2, #0
 1144 00d0 C6F20202 		movt	r2, 24578
 1145              	.LBE578:
 1146              	.LBE577:
 1147              	.LBB580:
 1148              	.LBB581:
 1149              		.loc 2 128 0
 1150 00d4 4FF0C041 		mov	r1, #1610612736
 1151 00d8 1020     		movs	r0, #16
 1152              	.LVL104:
 1153 00da 0880     		strh	r0, [r1, #0]	@ movhi
 1154              	.LVL105:
 1155              	.LBE581:
 1156              	.LBE580:
 1157              	.LBB582:
 1158              	.LBB579:
 1159              		.loc 2 133 0
 1160 00dc 1380     		strh	r3, [r2, #0]	@ movhi
 1161              	.LVL106:
 1162              	.LBE579:
 1163              	.LBE582:
 1164              	.LBB583:
 1165              	.LBB584:
 1166              		.loc 2 128 0
 1167 00de 0B80     		strh	r3, [r1, #0]	@ movhi
 1168              	.LVL107:
 1169              	.LBE584:
 1170              	.LBE583:
 1171              	.LBB585:
 1172              	.LBB586:
 1173              		.loc 2 133 0
 1174 00e0 0123     		movs	r3, #1
 1175 00e2 1380     		strh	r3, [r2, #0]	@ movhi
 1176              	.LBE586:
 1177              	.LBE585:
 1178              		.loc 1 298 0
 1179 00e4 0520     		movs	r0, #5
 1180 00e6 FFF7FEFF 		bl	gfxSleepMicroseconds
 1181              	.LVL108:
 1182 00ea 94F84C30 		ldrb	r3, [r4, #76]	@ zero_extendqisi2
 1183 00ee ABE7     		b	.L32
 1184              	.LVL109:
 1185              	.L34:
 1186              	.LBB587:
ARM GAS  C:\Users\Elis\AppData\Local\Temp\ccdhxElo.s 			page 22


 1187              	.LBB588:
 1188              		.loc 2 128 0
 1189 00f0 4FF0C041 		mov	r1, #1610612736
 1190 00f4 1120     		movs	r0, #17
 1191              	.LBE588:
 1192              	.LBE587:
 1193              	.LBB590:
 1194              	.LBB591:
 1195              		.loc 2 133 0
 1196 00f6 0023     		movs	r3, #0
 1197              	.LBE591:
 1198              	.LBE590:
 1199              	.LBB593:
 1200              	.LBB589:
 1201              		.loc 2 128 0
 1202 00f8 0880     		strh	r0, [r1, #0]	@ movhi
 1203              	.LVL110:
 1204              	.LBE589:
 1205              	.LBE593:
 1206              	.LBB594:
 1207              	.LBB592:
 1208              		.loc 2 133 0
 1209 00fa C6F20203 		movt	r3, 24578
 1210 00fe 46F25800 		movw	r0, #24664
 1211              	.LVL111:
 1212              	.L42:
 1213              	.LBE592:
 1214              	.LBE594:
 1215              	.LBB595:
 1216              	.LBB574:
 1217 0102 1880     		strh	r0, [r3, #0]	@ movhi
 1218              	.LBE574:
 1219              	.LBE595:
 1220              		.loc 1 345 0
 1221 0104 F023     		movs	r3, #240
 1222              		.loc 1 346 0
 1223 0106 4FF4A070 		mov	r0, #320
 1224              		.loc 1 345 0
 1225 010a 6381     		strh	r3, [r4, #10]	@ movhi
 1226              		.loc 1 346 0
 1227 010c 2081     		strh	r0, [r4, #8]	@ movhi
 1228              	.L38:
 1229              		.loc 1 351 0
 1230 010e A281     		strh	r2, [r4, #12]	@ movhi
 1231              		.loc 1 352 0
 1232 0110 70BD     		pop	{r4, r5, r6, pc}
 1233              	.L43:
 1234 0112 70BD     		pop	{r4, r5, r6, pc}
 1235              	.L35:
 1236              	.LVL112:
 1237              	.LBB596:
 1238              	.LBB597:
 1239              		.loc 2 128 0
 1240 0114 4FF0C041 		mov	r1, #1610612736
 1241 0118 1120     		movs	r0, #17
 1242              	.LBE597:
 1243              	.LBE596:
ARM GAS  C:\Users\Elis\AppData\Local\Temp\ccdhxElo.s 			page 23


 1244              	.LBB599:
 1245              	.LBB556:
 1246              		.loc 2 133 0
 1247 011a 0023     		movs	r3, #0
 1248              	.LBE556:
 1249              	.LBE599:
 1250              	.LBB600:
 1251              	.LBB598:
 1252              		.loc 2 128 0
 1253 011c 0880     		strh	r0, [r1, #0]	@ movhi
 1254              	.LVL113:
 1255              	.LBE598:
 1256              	.LBE600:
 1257              	.LBB601:
 1258              	.LBB557:
 1259              		.loc 2 133 0
 1260 011e C6F20203 		movt	r3, 24578
 1261 0122 46F24000 		movw	r0, #24640
 1262 0126 AFE7     		b	.L41
 1263              	.L45:
 1264              		.align	2
 1265              	.L44:
 1266 0128 00000000 		.word	PWMD3
 1267              	.LBE557:
 1268              	.LBE601:
 1269              		.cfi_endproc
 1270              	.LFE139:
 1271              		.size	gdisp_lld_control, .-gdisp_lld_control
 1272 012c AFF30080 		.section	.text.gdisp_lld_init,"ax",%progbits
 1273              		.align	2
 1274              		.p2align 4,,15
 1275              		.global	gdisp_lld_init
 1276              		.thumb
 1277              		.thumb_func
 1278              		.type	gdisp_lld_init, %function
 1279              	gdisp_lld_init:
 1280              	.LFB131:
 1281              		.loc 1 120 0
 1282              		.cfi_startproc
 1283              		@ args = 0, pretend = 0, frame = 32
 1284              		@ frame_needed = 0, uses_anonymous_args = 0
 1285              	.LVL114:
 1286 0000 2DE9F04F 		push	{r4, r5, r6, r7, r8, r9, sl, fp, lr}
 1287              	.LCFI4:
 1288              		.cfi_def_cfa_offset 36
 1289              		.cfi_offset 4, -36
 1290              		.cfi_offset 5, -32
 1291              		.cfi_offset 6, -28
 1292              		.cfi_offset 7, -24
 1293              		.cfi_offset 8, -20
 1294              		.cfi_offset 9, -16
 1295              		.cfi_offset 10, -12
 1296              		.cfi_offset 11, -8
 1297              		.cfi_offset 14, -4
 1298              	.LBB771:
 1299              	.LBB772:
 1300              		.loc 2 46 0
ARM GAS  C:\Users\Elis\AppData\Local\Temp\ccdhxElo.s 			page 24


 1301 0004 427F     		ldrb	r2, [r0, #29]	@ zero_extendqisi2
 1302              	.LBE772:
 1303              	.LBE771:
 1304              		.loc 1 122 0
 1305 0006 0023     		movs	r3, #0
 1306              		.loc 1 120 0
 1307 0008 89B0     		sub	sp, sp, #36
 1308              	.LCFI5:
 1309              		.cfi_def_cfa_offset 72
 1310              		.loc 1 120 0
 1311 000a 8046     		mov	r8, r0
 1312              		.loc 1 122 0
 1313 000c 4361     		str	r3, [r0, #20]
 1314              	.LVL115:
 1315              	.LBB775:
 1316              	.LBB774:
 1317              		.loc 2 44 0
 1318 000e 8361     		str	r3, [r0, #24]
 1319              		.loc 2 46 0
 1320 0010 002A     		cmp	r2, #0
 1321 0012 39D1     		bne	.L47
 1322              	.LBB773:
 1323              		.loc 2 79 0
 1324 0014 C44C     		ldr	r4, .L49
 1325              		.loc 2 65 0
 1326 0016 4FF46055 		mov	r5, #14336
 1327 001a C4F20205 		movt	r5, 16386
 1328              		.loc 2 79 0
 1329 001e 94E80700 		ldmia	r4, {r0, r1, r2}
 1330              	.LVL116:
 1331              		.loc 2 65 0
 1332 0022 AE6B     		ldr	r6, [r5, #56]
 1333              		.loc 2 79 0
 1334 0024 02AF     		add	r7, sp, #8
 1335              		.loc 2 65 0
 1336 0026 46F00103 		orr	r3, r6, #1
 1337              		.loc 2 82 0
 1338 002a 0C34     		adds	r4, r4, #12
 1339              		.loc 2 65 0
 1340 002c AB63     		str	r3, [r5, #56]
 1341              		.loc 2 79 0
 1342 002e 87E80700 		stmia	r7, {r0, r1, r2}
 1343              		.loc 2 82 0
 1344 0032 94E80700 		ldmia	r4, {r0, r1, r2}
 1345 0036 05AC     		add	r4, sp, #20
 1346 0038 84E80700 		stmia	r4, {r0, r1, r2}
 1347              		.loc 2 85 0
 1348 003c 40F20261 		movw	r1, #1538
 1349 0040 3846     		mov	r0, r7
 1350 0042 FFF7FEFF 		bl	palSetBusMode
 1351              	.LVL117:
 1352              		.loc 2 86 0
 1353 0046 2046     		mov	r0, r4
 1354 0048 40F20261 		movw	r1, #1538
 1355 004c FFF7FEFF 		bl	palSetBusMode
 1356              	.LVL118:
 1357              		.loc 2 89 0
ARM GAS  C:\Users\Elis\AppData\Local\Temp\ccdhxElo.s 			page 25


 1358 0050 4FF02045 		mov	r5, #-1610612736
 1359 0054 40F20142 		movw	r2, #1025
 1360 0058 C0F20102 		movt	r2, 1
 1361              		.loc 2 93 0
 1362 005c 41F21106 		movw	r6, #4113
 1363              		.loc 2 89 0
 1364 0060 6A60     		str	r2, [r5, #4]
 1365              		.loc 2 97 0
 1366 0062 B248     		ldr	r0, .L49+4
 1367 0064 B249     		ldr	r1, .L49+8
 1368              		.loc 2 93 0
 1369 0066 2E60     		str	r6, [r5, #0]
 1370              		.loc 2 97 0
 1371 0068 FFF7FEFF 		bl	pwmStart
 1372              	.LVL119:
 1373              		.loc 2 98 0
 1374 006c 4FF48060 		mov	r0, #1024
 1375 0070 C4F20200 		movt	r0, 16386
 1376 0074 0121     		movs	r1, #1
 1377 0076 4FF48172 		mov	r2, #258
 1378 007a FFF7FEFF 		bl	_pal_lld_setgroupmode
 1379              	.LVL120:
 1380              		.loc 2 99 0
 1381 007e AB48     		ldr	r0, .L49+4
 1382 0080 0221     		movs	r1, #2
 1383 0082 6422     		movs	r2, #100
 1384 0084 FFF7FEFF 		bl	pwmEnableChannel
 1385              	.LVL121:
 1386              	.L47:
 1387              	.LBE773:
 1388              	.LBE774:
 1389              	.LBE775:
 1390              	.LBB776:
 1391              	.LBB777:
 1392              		.loc 2 133 0
 1393 0088 0024     		movs	r4, #0
 1394              	.LBE777:
 1395              	.LBE776:
 1396              	.LBB781:
 1397              	.LBB782:
 1398              		.loc 2 128 0
 1399 008a 4FF0C045 		mov	r5, #1610612736
 1400              	.LBE782:
 1401              	.LBE781:
 1402              	.LBB785:
 1403              	.LBB778:
 1404              		.loc 2 133 0
 1405 008e C6F20204 		movt	r4, 24578
 1406              	.LBE778:
 1407              	.LBE785:
 1408              		.loc 1 129 0
 1409 0092 1420     		movs	r0, #20
 1410              	.LBB786:
 1411              	.LBB783:
 1412              		.loc 2 128 0
 1413 0094 0027     		movs	r7, #0
 1414              	.LBE783:
ARM GAS  C:\Users\Elis\AppData\Local\Temp\ccdhxElo.s 			page 26


 1415              	.LBE786:
 1416              		.loc 1 129 0
 1417 0096 FFF7FEFF 		bl	gfxSleepMilliseconds
 1418              	.LVL122:
 1419              	.LBB787:
 1420              	.LBB779:
 1421              		.loc 2 133 0
 1422 009a 4FF0010A 		mov	sl, #1
 1423              	.LBE779:
 1424              	.LBE787:
 1425              		.loc 1 131 0
 1426 009e 1420     		movs	r0, #20
 1427 00a0 FFF7FEFF 		bl	gfxSleepMilliseconds
 1428              	.LVL123:
 1429              	.LBB788:
 1430              	.LBB784:
 1431              		.loc 2 128 0
 1432 00a4 2F80     		strh	r7, [r5, #0]	@ movhi
 1433              	.LVL124:
 1434              	.LBE784:
 1435              	.LBE788:
 1436              		.loc 1 136 0
 1437 00a6 0520     		movs	r0, #5
 1438              	.LBB789:
 1439              	.LBB780:
 1440              		.loc 2 133 0
 1441 00a8 A4F800A0 		strh	sl, [r4, #0]	@ movhi
 1442              	.LBE780:
 1443              	.LBE789:
 1444              		.loc 1 136 0
 1445 00ac FFF7FEFF 		bl	gfxSleepMicroseconds
 1446              	.LVL125:
 1447              	.LBB790:
 1448              	.LBB791:
 1449              		.loc 2 128 0
 1450 00b0 4FF0030B 		mov	fp, #3
 1451              	.LBE791:
 1452              	.LBE790:
 1453              	.LBB793:
 1454              	.LBB794:
 1455              		.loc 2 133 0
 1456 00b4 4AF6A401 		movw	r1, #43172
 1457              	.LBE794:
 1458              	.LBE793:
 1459              	.LBB796:
 1460              	.LBB792:
 1461              		.loc 2 128 0
 1462 00b8 A5F800B0 		strh	fp, [r5, #0]	@ movhi
 1463              	.LVL126:
 1464              	.LBE792:
 1465              	.LBE796:
 1466              		.loc 1 137 0
 1467 00bc 0520     		movs	r0, #5
 1468              	.LBB797:
 1469              	.LBB795:
 1470              		.loc 2 133 0
 1471 00be 2180     		strh	r1, [r4, #0]	@ movhi
ARM GAS  C:\Users\Elis\AppData\Local\Temp\ccdhxElo.s 			page 27


 1472              	.LBE795:
 1473              	.LBE797:
 1474              		.loc 1 137 0
 1475 00c0 FFF7FEFF 		bl	gfxSleepMicroseconds
 1476              	.LVL127:
 1477              	.LBB798:
 1478              	.LBB799:
 1479              		.loc 2 128 0
 1480 00c4 0C20     		movs	r0, #12
 1481 00c6 2880     		strh	r0, [r5, #0]	@ movhi
 1482              	.LVL128:
 1483              	.LBE799:
 1484              	.LBE798:
 1485              		.loc 1 138 0
 1486 00c8 0520     		movs	r0, #5
 1487              	.LBB800:
 1488              	.LBB801:
 1489              		.loc 2 133 0
 1490 00ca 2780     		strh	r7, [r4, #0]	@ movhi
 1491              	.LBE801:
 1492              	.LBE800:
 1493              		.loc 1 138 0
 1494 00cc FFF7FEFF 		bl	gfxSleepMicroseconds
 1495              	.LVL129:
 1496              	.LBB802:
 1497              	.LBB803:
 1498              		.loc 2 128 0
 1499 00d0 0D23     		movs	r3, #13
 1500              	.LBE803:
 1501              	.LBE802:
 1502              	.LBB805:
 1503              	.LBB806:
 1504              		.loc 2 133 0
 1505 00d2 40F60C02 		movw	r2, #2060
 1506              	.LBE806:
 1507              	.LBE805:
 1508              	.LBB808:
 1509              	.LBB804:
 1510              		.loc 2 128 0
 1511 00d6 2B80     		strh	r3, [r5, #0]	@ movhi
 1512              	.LVL130:
 1513              	.LBE804:
 1514              	.LBE808:
 1515              		.loc 1 139 0
 1516 00d8 0520     		movs	r0, #5
 1517              	.LBB809:
 1518              	.LBB807:
 1519              		.loc 2 133 0
 1520 00da 2280     		strh	r2, [r4, #0]	@ movhi
 1521              	.LBE807:
 1522              	.LBE809:
 1523              		.loc 1 139 0
 1524 00dc FFF7FEFF 		bl	gfxSleepMicroseconds
 1525              	.LVL131:
 1526              	.LBB810:
 1527              	.LBB811:
 1528              		.loc 2 128 0
ARM GAS  C:\Users\Elis\AppData\Local\Temp\ccdhxElo.s 			page 28


 1529 00e0 0E26     		movs	r6, #14
 1530              	.LBE811:
 1531              	.LBE810:
 1532              	.LBB813:
 1533              	.LBB814:
 1534              		.loc 2 133 0
 1535 00e2 4FF42C51 		mov	r1, #11008
 1536              	.LBE814:
 1537              	.LBE813:
 1538              	.LBB816:
 1539              	.LBB812:
 1540              		.loc 2 128 0
 1541 00e6 2E80     		strh	r6, [r5, #0]	@ movhi
 1542              	.LVL132:
 1543              	.LBE812:
 1544              	.LBE816:
 1545              		.loc 1 140 0
 1546 00e8 0520     		movs	r0, #5
 1547              	.LBB817:
 1548              	.LBB815:
 1549              		.loc 2 133 0
 1550 00ea 2180     		strh	r1, [r4, #0]	@ movhi
 1551              	.LBE815:
 1552              	.LBE817:
 1553              		.loc 1 140 0
 1554 00ec FFF7FEFF 		bl	gfxSleepMicroseconds
 1555              	.LVL133:
 1556              	.LBB818:
 1557              	.LBB819:
 1558              		.loc 2 133 0
 1559 00f0 B023     		movs	r3, #176
 1560              	.LBE819:
 1561              	.LBE818:
 1562              	.LBB821:
 1563              	.LBB822:
 1564              		.loc 2 128 0
 1565 00f2 1E20     		movs	r0, #30
 1566 00f4 2880     		strh	r0, [r5, #0]	@ movhi
 1567              	.LVL134:
 1568              	.LBE822:
 1569              	.LBE821:
 1570              	.LBB823:
 1571              	.LBB820:
 1572              		.loc 2 133 0
 1573 00f6 2380     		strh	r3, [r4, #0]	@ movhi
 1574              	.LBE820:
 1575              	.LBE823:
 1576              		.loc 1 141 0
 1577 00f8 0520     		movs	r0, #5
 1578 00fa FFF7FEFF 		bl	gfxSleepMicroseconds
 1579              	.LVL135:
 1580              	.LBB824:
 1581              	.LBB825:
 1582              		.loc 2 133 0
 1583 00fe 42F63F32 		movw	r2, #11071
 1584              	.LBE825:
 1585              	.LBE824:
ARM GAS  C:\Users\Elis\AppData\Local\Temp\ccdhxElo.s 			page 29


 1586              	.LBB827:
 1587              	.LBB828:
 1588              		.loc 2 128 0
 1589 0102 A5F800A0 		strh	sl, [r5, #0]	@ movhi
 1590              	.LVL136:
 1591              	.LBE828:
 1592              	.LBE827:
 1593              		.loc 1 142 0
 1594 0106 0520     		movs	r0, #5
 1595              	.LBB829:
 1596              	.LBB826:
 1597              		.loc 2 133 0
 1598 0108 2280     		strh	r2, [r4, #0]	@ movhi
 1599              	.LBE826:
 1600              	.LBE829:
 1601              		.loc 1 142 0
 1602 010a FFF7FEFF 		bl	gfxSleepMicroseconds
 1603              	.LVL137:
 1604              	.LBB830:
 1605              	.LBB831:
 1606              		.loc 2 128 0
 1607 010e 0226     		movs	r6, #2
 1608              	.LBE831:
 1609              	.LBE830:
 1610              	.LBB833:
 1611              	.LBB834:
 1612              		.loc 2 133 0
 1613 0110 4FF4C061 		mov	r1, #1536
 1614              	.LBE834:
 1615              	.LBE833:
 1616              	.LBB836:
 1617              	.LBB832:
 1618              		.loc 2 128 0
 1619 0114 2E80     		strh	r6, [r5, #0]	@ movhi
 1620              	.LVL138:
 1621              	.LBE832:
 1622              	.LBE836:
 1623              		.loc 1 143 0
 1624 0116 0520     		movs	r0, #5
 1625              	.LBB837:
 1626              	.LBB835:
 1627              		.loc 2 133 0
 1628 0118 2180     		strh	r1, [r4, #0]	@ movhi
 1629              	.LBE835:
 1630              	.LBE837:
 1631              		.loc 1 143 0
 1632 011a 0096     		str	r6, [sp, #0]
 1633 011c FFF7FEFF 		bl	gfxSleepMicroseconds
 1634              	.LVL139:
 1635              	.LBB838:
 1636              	.LBB839:
 1637              		.loc 2 128 0
 1638 0120 1020     		movs	r0, #16
 1639 0122 2880     		strh	r0, [r5, #0]	@ movhi
 1640              	.LVL140:
 1641              	.LBE839:
 1642              	.LBE838:
ARM GAS  C:\Users\Elis\AppData\Local\Temp\ccdhxElo.s 			page 30


 1643              		.loc 1 144 0
 1644 0124 0520     		movs	r0, #5
 1645              	.LBB840:
 1646              	.LBB841:
 1647              		.loc 2 133 0
 1648 0126 2780     		strh	r7, [r4, #0]	@ movhi
 1649              	.LBE841:
 1650              	.LBE840:
 1651              	.LBB842:
 1652              	.LBB843:
 1653              		.loc 2 128 0
 1654 0128 0526     		movs	r6, #5
 1655              	.LBE843:
 1656              	.LBE842:
 1657              		.loc 1 144 0
 1658 012a FFF7FEFF 		bl	gfxSleepMicroseconds
 1659              	.LVL141:
 1660              	.LBB845:
 1661              	.LBB846:
 1662              		.loc 2 133 0
 1663 012e 46F27002 		movw	r2, #24688
 1664              	.LBE846:
 1665              	.LBE845:
 1666              	.LBB848:
 1667              	.LBB849:
 1668              		.loc 2 128 0
 1669 0132 1123     		movs	r3, #17
 1670 0134 2B80     		strh	r3, [r5, #0]	@ movhi
 1671              	.LVL142:
 1672              	.LBE849:
 1673              	.LBE848:
 1674              		.loc 1 145 0
 1675 0136 3046     		mov	r0, r6
 1676              	.LBB850:
 1677              	.LBB847:
 1678              		.loc 2 133 0
 1679 0138 2280     		strh	r2, [r4, #0]	@ movhi
 1680              	.LBE847:
 1681              	.LBE850:
 1682              		.loc 1 145 0
 1683 013a FFF7FEFF 		bl	gfxSleepMicroseconds
 1684              	.LVL143:
 1685              	.LBB851:
 1686              	.LBB844:
 1687              		.loc 2 128 0
 1688 013e 2E80     		strh	r6, [r5, #0]	@ movhi
 1689              	.LVL144:
 1690              	.LBE844:
 1691              	.LBE851:
 1692              		.loc 1 146 0
 1693 0140 3046     		mov	r0, r6
 1694              	.LBB852:
 1695              	.LBB853:
 1696              		.loc 2 133 0
 1697 0142 2780     		strh	r7, [r4, #0]	@ movhi
 1698              	.LBE853:
 1699              	.LBE852:
ARM GAS  C:\Users\Elis\AppData\Local\Temp\ccdhxElo.s 			page 31


 1700              		.loc 1 146 0
 1701 0144 FFF7FEFF 		bl	gfxSleepMicroseconds
 1702              	.LVL145:
 1703              	.LBB854:
 1704              	.LBB855:
 1705              		.loc 2 128 0
 1706 0148 0621     		movs	r1, #6
 1707 014a 2980     		strh	r1, [r5, #0]	@ movhi
 1708              	.LVL146:
 1709              	.LBE855:
 1710              	.LBE854:
 1711              		.loc 1 147 0
 1712 014c 3046     		mov	r0, r6
 1713              	.LBB856:
 1714              	.LBB857:
 1715              		.loc 2 133 0
 1716 014e 2780     		strh	r7, [r4, #0]	@ movhi
 1717              	.LBE857:
 1718              	.LBE856:
 1719              		.loc 1 147 0
 1720 0150 FFF7FEFF 		bl	gfxSleepMicroseconds
 1721              	.LVL147:
 1722              	.LBB858:
 1723              	.LBB859:
 1724              		.loc 2 133 0
 1725 0154 4EF61C73 		movw	r3, #61212
 1726              	.LBE859:
 1727              	.LBE858:
 1728              	.LBB861:
 1729              	.LBB862:
 1730              		.loc 2 128 0
 1731 0158 1620     		movs	r0, #22
 1732 015a 2880     		strh	r0, [r5, #0]	@ movhi
 1733              	.LVL148:
 1734              	.LBE862:
 1735              	.LBE861:
 1736              	.LBB863:
 1737              	.LBB860:
 1738              		.loc 2 133 0
 1739 015c 2380     		strh	r3, [r4, #0]	@ movhi
 1740              	.LBE860:
 1741              	.LBE863:
 1742              		.loc 1 148 0
 1743 015e 3046     		mov	r0, r6
 1744 0160 FFF7FEFF 		bl	gfxSleepMicroseconds
 1745              	.LVL149:
 1746              	.LBB864:
 1747              	.LBB865:
 1748              		.loc 2 128 0
 1749 0164 1722     		movs	r2, #23
 1750 0166 2A80     		strh	r2, [r5, #0]	@ movhi
 1751              	.LVL150:
 1752              	.LBE865:
 1753              	.LBE864:
 1754              		.loc 1 149 0
 1755 0168 3046     		mov	r0, r6
 1756              	.LBB866:
ARM GAS  C:\Users\Elis\AppData\Local\Temp\ccdhxElo.s 			page 32


 1757              	.LBB867:
 1758              		.loc 2 133 0
 1759 016a A4F800B0 		strh	fp, [r4, #0]	@ movhi
 1760              	.LBE867:
 1761              	.LBE866:
 1762              		.loc 1 149 0
 1763 016e FFF7FEFF 		bl	gfxSleepMicroseconds
 1764              	.LVL151:
 1765              	.LBB868:
 1766              	.LBB869:
 1767              		.loc 2 128 0
 1768 0172 0721     		movs	r1, #7
 1769              	.LBE869:
 1770              	.LBE868:
 1771              	.LBB871:
 1772              	.LBB872:
 1773              		.loc 2 133 0
 1774 0174 01F59673 		add	r3, r1, #300
 1775              	.LBE872:
 1776              	.LBE871:
 1777              	.LBB874:
 1778              	.LBB870:
 1779              		.loc 2 128 0
 1780 0178 2980     		strh	r1, [r5, #0]	@ movhi
 1781              	.LVL152:
 1782              	.LBE870:
 1783              	.LBE874:
 1784              		.loc 1 150 0
 1785 017a 3046     		mov	r0, r6
 1786              	.LBB875:
 1787              	.LBB873:
 1788              		.loc 2 133 0
 1789 017c 2380     		strh	r3, [r4, #0]	@ movhi
 1790              	.LBE873:
 1791              	.LBE875:
 1792              		.loc 1 150 0
 1793 017e FFF7FEFF 		bl	gfxSleepMicroseconds
 1794              	.LVL153:
 1795              	.LBB876:
 1796              	.LBB877:
 1797              		.loc 2 128 0
 1798 0182 0B20     		movs	r0, #11
 1799 0184 2880     		strh	r0, [r5, #0]	@ movhi
 1800              	.LVL154:
 1801              	.LBE877:
 1802              	.LBE876:
 1803              		.loc 1 151 0
 1804 0186 3046     		mov	r0, r6
 1805              	.LBB878:
 1806              	.LBB879:
 1807              		.loc 2 133 0
 1808 0188 2780     		strh	r7, [r4, #0]	@ movhi
 1809              	.LBE879:
 1810              	.LBE878:
 1811              		.loc 1 151 0
 1812 018a FFF7FEFF 		bl	gfxSleepMicroseconds
 1813              	.LVL155:
ARM GAS  C:\Users\Elis\AppData\Local\Temp\ccdhxElo.s 			page 33


 1814              	.LBB880:
 1815              	.LBB881:
 1816              		.loc 2 128 0
 1817 018e 0F22     		movs	r2, #15
 1818 0190 2A80     		strh	r2, [r5, #0]	@ movhi
 1819              	.LVL156:
 1820              	.LBE881:
 1821              	.LBE880:
 1822              		.loc 1 152 0
 1823 0192 3046     		mov	r0, r6
 1824              	.LBB882:
 1825              	.LBB883:
 1826              		.loc 2 133 0
 1827 0194 2780     		strh	r7, [r4, #0]	@ movhi
 1828              	.LBE883:
 1829              	.LBE882:
 1830              		.loc 1 152 0
 1831 0196 FFF7FEFF 		bl	gfxSleepMicroseconds
 1832              	.LVL157:
 1833              	.LBB884:
 1834              	.LBB885:
 1835              		.loc 2 128 0
 1836 019a 4121     		movs	r1, #65
 1837 019c 2980     		strh	r1, [r5, #0]	@ movhi
 1838              	.LVL158:
 1839              	.LBE885:
 1840              	.LBE884:
 1841              		.loc 1 153 0
 1842 019e 3046     		mov	r0, r6
 1843              	.LBB886:
 1844              	.LBB887:
 1845              		.loc 2 133 0
 1846 01a0 2780     		strh	r7, [r4, #0]	@ movhi
 1847              	.LBE887:
 1848              	.LBE886:
 1849              		.loc 1 153 0
 1850 01a2 FFF7FEFF 		bl	gfxSleepMicroseconds
 1851              	.LVL159:
 1852              	.LBB888:
 1853              	.LBB889:
 1854              		.loc 2 128 0
 1855 01a6 4223     		movs	r3, #66
 1856 01a8 2B80     		strh	r3, [r5, #0]	@ movhi
 1857              	.LVL160:
 1858              	.LBE889:
 1859              	.LBE888:
 1860              		.loc 1 154 0
 1861 01aa 3046     		mov	r0, r6
 1862              	.LBB890:
 1863              	.LBB891:
 1864              		.loc 2 133 0
 1865 01ac 2780     		strh	r7, [r4, #0]	@ movhi
 1866              	.LBE891:
 1867              	.LBE890:
 1868              		.loc 1 154 0
 1869 01ae FFF7FEFF 		bl	gfxSleepMicroseconds
 1870              	.LVL161:
ARM GAS  C:\Users\Elis\AppData\Local\Temp\ccdhxElo.s 			page 34


 1871              	.LBB892:
 1872              	.LBB893:
 1873              		.loc 2 128 0
 1874 01b2 4820     		movs	r0, #72
 1875 01b4 2880     		strh	r0, [r5, #0]	@ movhi
 1876              	.LVL162:
 1877              	.LBE893:
 1878              	.LBE892:
 1879              		.loc 1 155 0
 1880 01b6 3046     		mov	r0, r6
 1881              	.LBB894:
 1882              	.LBB895:
 1883              		.loc 2 133 0
 1884 01b8 2780     		strh	r7, [r4, #0]	@ movhi
 1885              	.LBE895:
 1886              	.LBE894:
 1887              		.loc 1 155 0
 1888 01ba FFF7FEFF 		bl	gfxSleepMicroseconds
 1889              	.LVL163:
 1890              	.LBB896:
 1891              	.LBB897:
 1892              		.loc 2 133 0
 1893 01be 40F23F19 		movw	r9, #319
 1894              	.LBE897:
 1895              	.LBE896:
 1896              	.LBB899:
 1897              	.LBB900:
 1898              		.loc 2 128 0
 1899 01c2 4922     		movs	r2, #73
 1900 01c4 2A80     		strh	r2, [r5, #0]	@ movhi
 1901              	.LVL164:
 1902              	.LBE900:
 1903              	.LBE899:
 1904              		.loc 1 156 0
 1905 01c6 3046     		mov	r0, r6
 1906              	.LBB901:
 1907              	.LBB898:
 1908              		.loc 2 133 0
 1909 01c8 A4F80090 		strh	r9, [r4, #0]	@ movhi
 1910              	.LBE898:
 1911              	.LBE901:
 1912              		.loc 1 156 0
 1913 01cc FFF7FEFF 		bl	gfxSleepMicroseconds
 1914              	.LVL165:
 1915              	.LBB902:
 1916              	.LBB903:
 1917              		.loc 2 128 0
 1918 01d0 4A21     		movs	r1, #74
 1919 01d2 2980     		strh	r1, [r5, #0]	@ movhi
 1920              	.LVL166:
 1921              	.LBE903:
 1922              	.LBE902:
 1923              		.loc 1 157 0
 1924 01d4 3046     		mov	r0, r6
 1925              	.LBB904:
 1926              	.LBB905:
 1927              		.loc 2 133 0
ARM GAS  C:\Users\Elis\AppData\Local\Temp\ccdhxElo.s 			page 35


 1928 01d6 2780     		strh	r7, [r4, #0]	@ movhi
 1929              	.LBE905:
 1930              	.LBE904:
 1931              		.loc 1 157 0
 1932 01d8 FFF7FEFF 		bl	gfxSleepMicroseconds
 1933              	.LVL167:
 1934              	.LBB906:
 1935              	.LBB907:
 1936              		.loc 2 128 0
 1937 01dc 4B23     		movs	r3, #75
 1938 01de 2B80     		strh	r3, [r5, #0]	@ movhi
 1939              	.LVL168:
 1940              	.LBE907:
 1941              	.LBE906:
 1942              		.loc 1 158 0
 1943 01e0 3046     		mov	r0, r6
 1944              	.LBB908:
 1945              	.LBB909:
 1946              		.loc 2 133 0
 1947 01e2 2780     		strh	r7, [r4, #0]	@ movhi
 1948              	.LBE909:
 1949              	.LBE908:
 1950              		.loc 1 158 0
 1951 01e4 FFF7FEFF 		bl	gfxSleepMicroseconds
 1952              	.LVL169:
 1953              	.LBB910:
 1954              	.LBB911:
 1955              		.loc 2 133 0
 1956 01e8 4FF46F42 		mov	r2, #61184
 1957              	.LBE911:
 1958              	.LBE910:
 1959              	.LBB913:
 1960              	.LBB914:
 1961              		.loc 2 128 0
 1962 01ec 4420     		movs	r0, #68
 1963 01ee 2880     		strh	r0, [r5, #0]	@ movhi
 1964              	.LVL170:
 1965              	.LBE914:
 1966              	.LBE913:
 1967              	.LBB915:
 1968              	.LBB912:
 1969              		.loc 2 133 0
 1970 01f0 2280     		strh	r2, [r4, #0]	@ movhi
 1971              	.LBE912:
 1972              	.LBE915:
 1973              		.loc 1 159 0
 1974 01f2 3046     		mov	r0, r6
 1975 01f4 FFF7FEFF 		bl	gfxSleepMicroseconds
 1976              	.LVL171:
 1977              	.LBB916:
 1978              	.LBB917:
 1979              		.loc 2 128 0
 1980 01f8 4521     		movs	r1, #69
 1981 01fa 2980     		strh	r1, [r5, #0]	@ movhi
 1982              	.LVL172:
 1983              	.LBE917:
 1984              	.LBE916:
ARM GAS  C:\Users\Elis\AppData\Local\Temp\ccdhxElo.s 			page 36


 1985              		.loc 1 160 0
 1986 01fc 3046     		mov	r0, r6
 1987              	.LBB918:
 1988              	.LBB919:
 1989              		.loc 2 133 0
 1990 01fe 2780     		strh	r7, [r4, #0]	@ movhi
 1991              	.LBE919:
 1992              	.LBE918:
 1993              		.loc 1 160 0
 1994 0200 FFF7FEFF 		bl	gfxSleepMicroseconds
 1995              	.LVL173:
 1996              	.LBB920:
 1997              	.LBB921:
 1998              		.loc 2 128 0
 1999 0204 4623     		movs	r3, #70
 2000 0206 2B80     		strh	r3, [r5, #0]	@ movhi
 2001              	.LVL174:
 2002              	.LBE921:
 2003              	.LBE920:
 2004              		.loc 1 161 0
 2005 0208 3046     		mov	r0, r6
 2006              	.LBB922:
 2007              	.LBB923:
 2008              		.loc 2 133 0
 2009 020a A4F80090 		strh	r9, [r4, #0]	@ movhi
 2010              	.LBE923:
 2011              	.LBE922:
 2012              		.loc 1 161 0
 2013 020e FFF7FEFF 		bl	gfxSleepMicroseconds
 2014              	.LVL175:
 2015              	.LBB924:
 2016              	.LBB925:
 2017              		.loc 2 133 0
 2018 0212 40F20772 		movw	r2, #1799
 2019              	.LBE925:
 2020              	.LBE924:
 2021              	.LBB927:
 2022              	.LBB928:
 2023              		.loc 2 128 0
 2024 0216 3020     		movs	r0, #48
 2025 0218 2880     		strh	r0, [r5, #0]	@ movhi
 2026              	.LVL176:
 2027              	.LBE928:
 2028              	.LBE927:
 2029              	.LBB929:
 2030              	.LBB926:
 2031              		.loc 2 133 0
 2032 021a 2280     		strh	r2, [r4, #0]	@ movhi
 2033              	.LBE926:
 2034              	.LBE929:
 2035              		.loc 1 162 0
 2036 021c 3046     		mov	r0, r6
 2037 021e FFF7FEFF 		bl	gfxSleepMicroseconds
 2038              	.LVL177:
 2039              	.LBB930:
 2040              	.LBB931:
 2041              		.loc 2 133 0
ARM GAS  C:\Users\Elis\AppData\Local\Temp\ccdhxElo.s 			page 37


 2042 0222 4FF40179 		mov	r9, #516
 2043              	.LBE931:
 2044              	.LBE930:
 2045              	.LBB933:
 2046              	.LBB934:
 2047              		.loc 2 128 0
 2048 0226 3121     		movs	r1, #49
 2049 0228 2980     		strh	r1, [r5, #0]	@ movhi
 2050              	.LVL178:
 2051              	.LBE934:
 2052              	.LBE933:
 2053              		.loc 1 163 0
 2054 022a 3046     		mov	r0, r6
 2055              	.LBB935:
 2056              	.LBB932:
 2057              		.loc 2 133 0
 2058 022c A4F80090 		strh	r9, [r4, #0]	@ movhi
 2059              	.LBE932:
 2060              	.LBE935:
 2061              		.loc 1 163 0
 2062 0230 FFF7FEFF 		bl	gfxSleepMicroseconds
 2063              	.LVL179:
 2064              	.LBB936:
 2065              	.LBB937:
 2066              		.loc 2 128 0
 2067 0234 4FF0320C 		mov	ip, #50
 2068 0238 A5F800C0 		strh	ip, [r5, #0]	@ movhi
 2069              	.LVL180:
 2070              	.LBE937:
 2071              	.LBE936:
 2072              		.loc 1 164 0
 2073 023c 3046     		mov	r0, r6
 2074              	.LBB938:
 2075              	.LBB939:
 2076              		.loc 2 133 0
 2077 023e A4F80090 		strh	r9, [r4, #0]	@ movhi
 2078              	.LBE939:
 2079              	.LBE938:
 2080              		.loc 1 164 0
 2081 0242 CDF804C0 		str	ip, [sp, #4]
 2082 0246 FFF7FEFF 		bl	gfxSleepMicroseconds
 2083              	.LVL181:
 2084              	.LBB940:
 2085              	.LBB941:
 2086              		.loc 2 128 0
 2087 024a 3323     		movs	r3, #51
 2088              	.LBE941:
 2089              	.LBE940:
 2090              	.LBB943:
 2091              	.LBB944:
 2092              		.loc 2 133 0
 2093 024c 40F20252 		movw	r2, 1282	@ movhi
 2094              	.LBE944:
 2095              	.LBE943:
 2096              	.LBB946:
 2097              	.LBB942:
 2098              		.loc 2 128 0
ARM GAS  C:\Users\Elis\AppData\Local\Temp\ccdhxElo.s 			page 38


 2099 0250 2B80     		strh	r3, [r5, #0]	@ movhi
 2100              	.LVL182:
 2101              	.LBE942:
 2102              	.LBE946:
 2103              		.loc 1 165 0
 2104 0252 3046     		mov	r0, r6
 2105              	.LBB947:
 2106              	.LBB945:
 2107              		.loc 2 133 0
 2108 0254 2280     		strh	r2, [r4, #0]	@ movhi
 2109              	.LBE945:
 2110              	.LBE947:
 2111              		.loc 1 165 0
 2112 0256 FFF7FEFF 		bl	gfxSleepMicroseconds
 2113              	.LVL183:
 2114              	.LBB948:
 2115              	.LBB949:
 2116              		.loc 2 133 0
 2117 025a 40F20751 		movw	r1, #1287
 2118              	.LBE949:
 2119              	.LBE948:
 2120              	.LBB951:
 2121              	.LBB952:
 2122              		.loc 2 128 0
 2123 025e 3420     		movs	r0, #52
 2124 0260 2880     		strh	r0, [r5, #0]	@ movhi
 2125              	.LVL184:
 2126              	.LBE952:
 2127              	.LBE951:
 2128              	.LBB953:
 2129              	.LBB950:
 2130              		.loc 2 133 0
 2131 0262 2180     		strh	r1, [r4, #0]	@ movhi
 2132              	.LBE950:
 2133              	.LBE953:
 2134              		.loc 1 166 0
 2135 0264 3046     		mov	r0, r6
 2136 0266 FFF7FEFF 		bl	gfxSleepMicroseconds
 2137              	.LVL185:
 2138              	.LBB954:
 2139              	.LBB955:
 2140              		.loc 2 128 0
 2141 026a 3523     		movs	r3, #53
 2142 026c 2B80     		strh	r3, [r5, #0]	@ movhi
 2143              	.LVL186:
 2144              	.LBE955:
 2145              	.LBE954:
 2146              		.loc 1 167 0
 2147 026e 3046     		mov	r0, r6
 2148              	.LBB956:
 2149              	.LBB957:
 2150              		.loc 2 133 0
 2151 0270 A4F80090 		strh	r9, [r4, #0]	@ movhi
 2152              	.LBE957:
 2153              	.LBE956:
 2154              		.loc 1 167 0
 2155 0274 FFF7FEFF 		bl	gfxSleepMicroseconds
ARM GAS  C:\Users\Elis\AppData\Local\Temp\ccdhxElo.s 			page 39


 2156              	.LVL187:
 2157              	.LBB958:
 2158              	.LBB959:
 2159              		.loc 2 128 0
 2160 0278 3622     		movs	r2, #54
 2161 027a 2A80     		strh	r2, [r5, #0]	@ movhi
 2162              	.LVL188:
 2163              	.LBE959:
 2164              	.LBE958:
 2165              		.loc 1 168 0
 2166 027c 3046     		mov	r0, r6
 2167              	.LBB960:
 2168              	.LBB961:
 2169              		.loc 2 133 0
 2170 027e A4F80090 		strh	r9, [r4, #0]	@ movhi
 2171              	.LBE961:
 2172              	.LBE960:
 2173              		.loc 1 168 0
 2174 0282 FFF7FEFF 		bl	gfxSleepMicroseconds
 2175              	.LVL189:
 2176              	.LBB962:
 2177              	.LBB963:
 2178              		.loc 2 133 0
 2179 0286 40F20251 		movw	r1, 1282	@ movhi
 2180              	.LBE963:
 2181              	.LBE962:
 2182              	.LBB965:
 2183              	.LBB966:
 2184              		.loc 2 128 0
 2185 028a 3720     		movs	r0, #55
 2186 028c 2880     		strh	r0, [r5, #0]	@ movhi
 2187              	.LVL190:
 2188              	.LBE966:
 2189              	.LBE965:
 2190              	.LBB967:
 2191              	.LBB964:
 2192              		.loc 2 133 0
 2193 028e 2180     		strh	r1, [r4, #0]	@ movhi
 2194              	.LBE964:
 2195              	.LBE967:
 2196              		.loc 1 169 0
 2197 0290 3046     		mov	r0, r6
 2198 0292 FFF7FEFF 		bl	gfxSleepMicroseconds
 2199              	.LVL191:
 2200              	.LBB968:
 2201              	.LBB969:
 2202              		.loc 2 133 0
 2203 0296 09F1FE09 		add	r9, r9, #254
 2204              	.LBE969:
 2205              	.LBE968:
 2206              	.LBB971:
 2207              	.LBB972:
 2208              		.loc 2 128 0
 2209 029a 3A23     		movs	r3, #58
 2210 029c 2B80     		strh	r3, [r5, #0]	@ movhi
 2211              	.LVL192:
 2212              	.LBE972:
ARM GAS  C:\Users\Elis\AppData\Local\Temp\ccdhxElo.s 			page 40


 2213              	.LBE971:
 2214              		.loc 1 170 0
 2215 029e 3046     		mov	r0, r6
 2216              	.LBB973:
 2217              	.LBB970:
 2218              		.loc 2 133 0
 2219 02a0 A4F80090 		strh	r9, [r4, #0]	@ movhi
 2220              	.LBE970:
 2221              	.LBE973:
 2222              		.loc 1 170 0
 2223 02a4 FFF7FEFF 		bl	gfxSleepMicroseconds
 2224              	.LVL193:
 2225              	.LBB974:
 2226              	.LBB975:
 2227              		.loc 2 128 0
 2228 02a8 3B22     		movs	r2, #59
 2229 02aa 2A80     		strh	r2, [r5, #0]	@ movhi
 2230              	.LVL194:
 2231              	.LBE975:
 2232              	.LBE974:
 2233              		.loc 1 171 0
 2234 02ac 3046     		mov	r0, r6
 2235              	.LBB976:
 2236              	.LBB977:
 2237              		.loc 2 133 0
 2238 02ae A4F80090 		strh	r9, [r4, #0]	@ movhi
 2239              	.LBE977:
 2240              	.LBE976:
 2241              		.loc 1 171 0
 2242 02b2 FFF7FEFF 		bl	gfxSleepMicroseconds
 2243              	.LVL195:
 2244              	.LBB978:
 2245              	.LBB979:
 2246              		.loc 2 128 0
 2247 02b6 2320     		movs	r0, #35
 2248 02b8 2880     		strh	r0, [r5, #0]	@ movhi
 2249              	.LVL196:
 2250              	.LBE979:
 2251              	.LBE978:
 2252              		.loc 1 172 0
 2253 02ba 3046     		mov	r0, r6
 2254              	.LBB980:
 2255              	.LBB981:
 2256              		.loc 2 133 0
 2257 02bc 2780     		strh	r7, [r4, #0]	@ movhi
 2258              	.LBE981:
 2259              	.LBE980:
 2260              		.loc 1 172 0
 2261 02be FFF7FEFF 		bl	gfxSleepMicroseconds
 2262              	.LVL197:
 2263              	.LBB982:
 2264              	.LBB983:
 2265              		.loc 2 128 0
 2266 02c2 2421     		movs	r1, #36
 2267 02c4 2980     		strh	r1, [r5, #0]	@ movhi
 2268              	.LVL198:
 2269              	.LBE983:
ARM GAS  C:\Users\Elis\AppData\Local\Temp\ccdhxElo.s 			page 41


 2270              	.LBE982:
 2271              		.loc 1 173 0
 2272 02c6 3046     		mov	r0, r6
 2273              	.LBB984:
 2274              	.LBB985:
 2275              		.loc 2 133 0
 2276 02c8 2780     		strh	r7, [r4, #0]	@ movhi
 2277              	.LBE985:
 2278              	.LBE984:
 2279              		.loc 1 173 0
 2280 02ca FFF7FEFF 		bl	gfxSleepMicroseconds
 2281              	.LVL199:
 2282              	.LBB986:
 2283              	.LBB987:
 2284              		.loc 2 128 0
 2285 02ce 2523     		movs	r3, #37
 2286              	.LBE987:
 2287              	.LBE986:
 2288              	.LBB989:
 2289              	.LBB990:
 2290              		.loc 2 133 0
 2291 02d0 4FF40042 		mov	r2, #32768
 2292              	.LBE990:
 2293              	.LBE989:
 2294              	.LBB992:
 2295              	.LBB988:
 2296              		.loc 2 128 0
 2297 02d4 2B80     		strh	r3, [r5, #0]	@ movhi
 2298              	.LVL200:
 2299              	.LBE988:
 2300              	.LBE992:
 2301              		.loc 1 174 0
 2302 02d6 3046     		mov	r0, r6
 2303              	.LBB993:
 2304              	.LBB991:
 2305              		.loc 2 133 0
 2306 02d8 2280     		strh	r2, [r4, #0]	@ movhi
 2307              	.LBE991:
 2308              	.LBE993:
 2309              		.loc 1 174 0
 2310 02da FFF7FEFF 		bl	gfxSleepMicroseconds
 2311              	.LVL201:
 2312              	.LBB994:
 2313              	.LBB995:
 2314              		.loc 2 128 0
 2315 02de 4F20     		movs	r0, #79
 2316 02e0 2880     		strh	r0, [r5, #0]	@ movhi
 2317              	.LVL202:
 2318              	.LBE995:
 2319              	.LBE994:
 2320              		.loc 1 175 0
 2321 02e2 3046     		mov	r0, r6
 2322              	.LBB996:
 2323              	.LBB997:
 2324              		.loc 2 133 0
 2325 02e4 2780     		strh	r7, [r4, #0]	@ movhi
 2326              	.LBE997:
ARM GAS  C:\Users\Elis\AppData\Local\Temp\ccdhxElo.s 			page 42


 2327              	.LBE996:
 2328              		.loc 1 175 0
 2329 02e6 FFF7FEFF 		bl	gfxSleepMicroseconds
 2330              	.LVL203:
 2331              	.LBB998:
 2332              	.LBB999:
 2333              		.loc 2 128 0
 2334 02ea 4E21     		movs	r1, #78
 2335 02ec 2980     		strh	r1, [r5, #0]	@ movhi
 2336              	.LVL204:
 2337              	.LBE999:
 2338              	.LBE998:
 2339              		.loc 1 176 0
 2340 02ee 3046     		mov	r0, r6
 2341              	.LBB1000:
 2342              	.LBB1001:
 2343              		.loc 2 133 0
 2344 02f0 2780     		strh	r7, [r4, #0]	@ movhi
 2345              	.LBE1001:
 2346              	.LBE1000:
 2347              		.loc 1 176 0
 2348 02f2 FFF7FEFF 		bl	gfxSleepMicroseconds
 2349              	.LVL205:
 2350              	.LBB1002:
 2351              	.LBB1003:
 2352              		.loc 2 115 0
 2353 02f6 0099     		ldr	r1, [sp, #0]
 2354 02f8 0C48     		ldr	r0, .L49+4
 2355 02fa 6422     		movs	r2, #100
 2356 02fc FFF7FEFF 		bl	pwmEnableChannel
 2357              	.LVL206:
 2358              	.LBE1003:
 2359              	.LBE1002:
 2360              		.loc 1 192 0
 2361 0300 6421     		movs	r1, #100
 2362 0302 88F80F10 		strb	r1, [r8, #15]
 2363              		.loc 1 193 0
 2364 0306 DDF804C0 		ldr	ip, [sp, #4]
 2365              		.loc 1 190 0
 2366 030a A8F80C70 		strh	r7, [r8, #12]	@ movhi
 2367              		.loc 1 188 0
 2368 030e F022     		movs	r2, #240
 2369              		.loc 1 189 0
 2370 0310 4FF4A070 		mov	r0, #320
 2371 0314 A8F80A00 		strh	r0, [r8, #10]	@ movhi
 2372              		.loc 1 188 0
 2373 0318 A8F80820 		strh	r2, [r8, #8]	@ movhi
 2374              		.loc 1 191 0
 2375 031c 88F80EB0 		strb	fp, [r8, #14]
 2376              		.loc 1 193 0
 2377 0320 88F810C0 		strb	ip, [r8, #16]
 2378 0324 06E0     		b	.L50
 2379              	.L51:
 2380 0326 00BF     		.align	2
 2381              	.L49:
 2382 0328 00000000 		.word	.LANCHOR0
 2383 032c 00000000 		.word	PWMD3
ARM GAS  C:\Users\Elis\AppData\Local\Temp\ccdhxElo.s 			page 43


 2384 0330 00000000 		.word	.LANCHOR1
 2385              	.L50:
 2386              		.loc 1 195 0
 2387 0334 5046     		mov	r0, sl
 2388 0336 09B0     		add	sp, sp, #36
 2389 0338 BDE8F08F 		pop	{r4, r5, r6, r7, r8, r9, sl, fp, pc}
 2390              		.cfi_endproc
 2391              	.LFE131:
 2392              		.size	gdisp_lld_init, .-gdisp_lld_init
 2393              		.global	GDISPVMT_OnlyOne
 2394 033c AFF30080 		.section	.rodata
 2395              		.align	2
 2396              		.set	.LANCHOR0,. + 0
 2397              	.LC0:
 2398 0000 000C0240 		.word	1073875968
 2399 0004 B3CF0000 		.word	53171
 2400 0008 00000000 		.word	0
 2401              	.LC1:
 2402 000c 00100240 		.word	1073876992
 2403 0010 80FF0000 		.word	65408
 2404 0014 00000000 		.word	0
 2405              		.section	.rodata.pwmcfg,"a",%progbits
 2406              		.align	2
 2407              		.set	.LANCHOR1,. + 0
 2408              		.type	pwmcfg, %object
 2409              		.size	pwmcfg, 52
 2410              	pwmcfg:
 2411 0000 A0860100 		.word	100000
 2412 0004 6400     		.short	100
 2413 0006 0000     		.space	2
 2414 0008 00000000 		.word	0
 2415 000c 00000000 		.word	0
 2416 0010 00000000 		.word	0
 2417 0014 00000000 		.word	0
 2418 0018 00000000 		.word	0
 2419 001c 01000000 		.word	1
 2420 0020 00000000 		.word	0
 2421 0024 00000000 		.word	0
 2422 0028 00000000 		.word	0
 2423 002c 00000000 		.word	0
 2424 0030 00000000 		.word	0
 2425              		.section	.rodata.GDISPVMT_OnlyOne,"a",%progbits
 2426              		.align	2
 2427              		.type	GDISPVMT_OnlyOne, %object
 2428              		.size	GDISPVMT_OnlyOne, 96
 2429              	GDISPVMT_OnlyOne:
 2430 0000 6700     		.short	103
 2431 0002 0000     		.short	0
 2432 0004 60000000 		.word	96
 2433 0008 00000000 		.word	_gdispInitDriver
 2434 000c 00000000 		.word	_gdispPostInitDriver
 2435 0010 00000000 		.word	_gdispDeInitDriver
 2436 0014 00000000 		.word	gdisp_lld_init
 2437 0018 00000000 		.word	0
 2438 001c 00000000 		.word	gdisp_lld_write_start
 2439 0020 00000000 		.word	gdisp_lld_write_pos
 2440 0024 00000000 		.word	gdisp_lld_write_color
ARM GAS  C:\Users\Elis\AppData\Local\Temp\ccdhxElo.s 			page 44


 2441 0028 00000000 		.word	gdisp_lld_write_stop
 2442 002c 00000000 		.word	gdisp_lld_read_start
 2443 0030 00000000 		.word	gdisp_lld_read_color
 2444 0034 00000000 		.word	gdisp_lld_read_stop
 2445 0038 00000000 		.word	0
 2446 003c 00000000 		.word	0
 2447 0040 00000000 		.word	0
 2448 0044 00000000 		.word	0
 2449 0048 00000000 		.word	0
 2450 004c 00000000 		.word	0
 2451 0050 00000000 		.word	gdisp_lld_control
 2452 0054 00000000 		.word	0
 2453 0058 00000000 		.word	0
 2454 005c 00000000 		.word	0
 2455              		.text
 2456              	.Letext0:
 2457              		.file 3 "c:\\chibistudio\\tools\\gnu tools arm embedded\\4.7 2014q2\\bin\\../lib/gcc/arm-none-eabi
 2458              		.file 4 "../../chibios/os/ports/GCC/ARMCMx/chtypes.h"
 2459              		.file 5 "../../chibios/os/kernel/include/chlists.h"
 2460              		.file 6 "../../chibios/os/kernel/include/chthreads.h"
 2461              		.file 7 "../../chibios/os/ports/GCC/ARMCMx/chcore_v7m.h"
 2462              		.file 8 "../../chibios/os/kernel/include/chmtx.h"
 2463              		.file 9 "../../chibios/os/hal/platforms/STM32F4xx/stm32f4xx.h"
 2464              		.file 10 "../../chibios/os/hal/platforms/STM32/GPIOv2/pal_lld.h"
 2465              		.file 11 "../../chibios/os/hal/include/pal.h"
 2466              		.file 12 "../../chibios/os/hal/include/pwm.h"
 2467              		.file 13 "../../chibios/os/hal/platforms/STM32/TIMv1/pwm_lld.h"
 2468              		.file 14 "../../chibios/os/hal/platforms/STM32/TIMv1/stm32_tim.h"
 2469              		.file 15 "../../ugfx/src/gos/gos_chibios.h"
 2470              		.file 16 "../../ugfx/src/gdisp/gdisp.h"
 2471              		.file 17 "../../ugfx/src/gdisp/gdisp_driver.h"
 2472              		.file 18 "../../ugfx/src/gdisp/gdisp_colors.h"
 2473              		.file 19 "../../ugfx/src/gdriver/gdriver.h"
 2474              		.file 20 "../../chibios/os/ports/common/ARMCMx/CMSIS/include/core_cm4.h"