ARM GAS  C:\Users\Elis\AppData\Local\Temp\ccdmZfox.s 			page 1


   1              		.syntax unified
   2              		.cpu cortex-m4
   3              		.fpu softvfp
   4              		.eabi_attribute 20, 1
   5              		.eabi_attribute 21, 1
   6              		.eabi_attribute 23, 3
   7              		.eabi_attribute 24, 1
   8              		.eabi_attribute 25, 1
   9              		.eabi_attribute 26, 1
  10              		.eabi_attribute 30, 2
  11              		.eabi_attribute 34, 1
  12              		.eabi_attribute 18, 4
  13              		.thumb
  14              		.file	"gdisp_image.c"
  15              		.text
  16              	.Ltext0:
  17              		.cfi_sections	.debug_frame
  18              		.section	.text.gdispImageInit,"ax",%progbits
  19              		.align	2
  20              		.p2align 4,,15
  21              		.global	gdispImageInit
  22              		.thumb
  23              		.thumb_func
  24              		.type	gdispImageInit, %function
  25              	gdispImageInit:
  26              	.LFB119:
  27              		.file 1 "../../ugfx/src/gdisp/gdisp_image.c"
  28              		.loc 1 126 0
  29              		.cfi_startproc
  30              		@ args = 0, pretend = 0, frame = 0
  31              		@ frame_needed = 0, uses_anonymous_args = 0
  32              		@ link register save eliminated.
  33              	.LVL0:
  34              		.loc 1 127 0
  35 0000 0023     		movs	r3, #0
  36 0002 0380     		strh	r3, [r0, #0]	@ movhi
  37 0004 7047     		bx	lr
  38              		.cfi_endproc
  39              	.LFE119:
  40              		.size	gdispImageInit, .-gdispImageInit
  41 0006 00BFAFF3 		.section	.text.gdispImageOpenGFile,"ax",%progbits
  41      0080AFF3 
  41      0080
  42              		.align	2
  43              		.p2align 4,,15
  44              		.global	gdispImageOpenGFile
  45              		.thumb
  46              		.thumb_func
  47              		.type	gdispImageOpenGFile, %function
  48              	gdispImageOpenGFile:
  49              	.LFB120:
  50              		.loc 1 130 0
  51              		.cfi_startproc
  52              		@ args = 0, pretend = 0, frame = 0
  53              		@ frame_needed = 0, uses_anonymous_args = 0
  54              	.LVL1:
  55 0000 F8B5     		push	{r3, r4, r5, r6, r7, lr}
ARM GAS  C:\Users\Elis\AppData\Local\Temp\ccdmZfox.s 			page 2


  56              	.LCFI0:
  57              		.cfi_def_cfa_offset 24
  58              		.cfi_offset 3, -24
  59              		.cfi_offset 4, -20
  60              		.cfi_offset 5, -16
  61              		.cfi_offset 6, -12
  62              		.cfi_offset 7, -8
  63              		.cfi_offset 14, -4
  64              		.loc 1 130 0
  65 0002 0446     		mov	r4, r0
  66              		.loc 1 133 0
  67 0004 0029     		cmp	r1, #0
  68 0006 2AD0     		beq	.L7
  69              		.loc 1 137 0
  70 0008 174A     		ldr	r2, .L11
  71              		.loc 1 135 0
  72 000a C160     		str	r1, [r0, #12]
  73              		.loc 1 136 0
  74 000c 4FF6FF71 		movw	r1, #65535
  75              	.LVL2:
  76              		.loc 1 137 0
  77 0010 1046     		mov	r0, r2
  78              	.LVL3:
  79              		.loc 1 136 0
  80 0012 A180     		strh	r1, [r4, #4]	@ movhi
  81              		.loc 1 137 0
  82 0014 2261     		str	r2, [r4, #16]
  83              		.loc 1 139 0
  84 0016 48F20106 		movw	r6, #32769
  85              		.loc 1 137 0
  86 001a 02F11407 		add	r7, r2, #20
  87 001e 07E0     		b	.L6
  88              	.LVL4:
  89              	.L4:
  90              		.loc 1 148 0
  91 0020 E068     		ldr	r0, [r4, #12]
  92              	.LVL5:
  93 0022 FFF7FEFF 		bl	gfileSetPos
  94              	.LVL6:
  95              		.loc 1 137 0
  96 0026 2069     		ldr	r0, [r4, #16]
  97 0028 1430     		adds	r0, r0, #20
  98 002a B842     		cmp	r0, r7
  99 002c 2061     		str	r0, [r4, #16]
 100 002e 0AD2     		bcs	.L10
 101              	.LVL7:
 102              	.L6:
 103              		.loc 1 138 0
 104 0030 0368     		ldr	r3, [r0, #0]
 105 0032 2046     		mov	r0, r4
 106 0034 9847     		blx	r3
 107              	.LVL8:
 108              		.loc 1 148 0
 109 0036 0021     		movs	r1, #0
 110              		.loc 1 139 0
 111 0038 B042     		cmp	r0, r6
 112              		.loc 1 138 0
ARM GAS  C:\Users\Elis\AppData\Local\Temp\ccdmZfox.s 			page 3


 113 003a 0546     		mov	r5, r0
 114              	.LVL9:
 115              		.loc 1 139 0
 116 003c F0D0     		beq	.L4
 117              		.loc 1 140 0
 118 003e 0304     		lsls	r3, r0, #16
 119 0040 03D4     		bmi	.L5
 120              		.loc 1 161 0
 121 0042 2846     		mov	r0, r5
 122 0044 F8BD     		pop	{r3, r4, r5, r6, r7, pc}
 123              	.LVL10:
 124              	.L10:
 125              		.loc 1 152 0
 126 0046 0022     		movs	r2, #0
 127 0048 2280     		strh	r2, [r4, #0]	@ movhi
 128              	.LVL11:
 129              	.L5:
 130              		.loc 1 155 0
 131 004a E068     		ldr	r0, [r4, #12]
 132 004c FFF7FEFF 		bl	gfileClose
 133              	.LVL12:
 134              		.loc 1 156 0
 135 0050 0021     		movs	r1, #0
 136 0052 E160     		str	r1, [r4, #12]
 137              		.loc 1 157 0
 138 0054 6180     		strh	r1, [r4, #2]	@ movhi
 139              		.loc 1 158 0
 140 0056 2161     		str	r1, [r4, #16]
 141              		.loc 1 159 0
 142 0058 6161     		str	r1, [r4, #20]
 143              		.loc 1 161 0
 144 005a 2846     		mov	r0, r5
 145 005c F8BD     		pop	{r3, r4, r5, r6, r7, pc}
 146              	.LVL13:
 147              	.L7:
 148              		.loc 1 134 0
 149 005e 48F20505 		movw	r5, #32773
 150              		.loc 1 161 0
 151 0062 2846     		mov	r0, r5
 152              	.LVL14:
 153 0064 F8BD     		pop	{r3, r4, r5, r6, r7, pc}
 154              	.L12:
 155 0066 00BF     		.align	2
 156              	.L11:
 157 0068 00000000 		.word	.LANCHOR0
 158              		.cfi_endproc
 159              	.LFE120:
 160              		.size	gdispImageOpenGFile, .-gdispImageOpenGFile
 161 006c AFF30080 		.section	.text.gdispImageOpen,"ax",%progbits
 162              		.align	2
 163              		.p2align 4,,15
 164              		.global	gdispImageOpen
 165              		.thumb
 166              		.thumb_func
 167              		.type	gdispImageOpen, %function
 168              	gdispImageOpen:
 169              	.LFB118:
ARM GAS  C:\Users\Elis\AppData\Local\Temp\ccdmZfox.s 			page 4


 170              		.loc 1 95 0
 171              		.cfi_startproc
 172              		@ args = 0, pretend = 0, frame = 0
 173              		@ frame_needed = 0, uses_anonymous_args = 0
 174              		@ link register save eliminated.
 175              	.LVL15:
 176              		.loc 1 96 0
 177 0000 C168     		ldr	r1, [r0, #12]
 178              		.loc 1 97 0
 179              		.loc 1 96 0
 180 0002 FFF7FEBF 		b	gdispImageOpenGFile
 181              	.LVL16:
 182              		.cfi_endproc
 183              	.LFE118:
 184              		.size	gdispImageOpen, .-gdispImageOpen
 185 0006 00BFAFF3 		.section	.text.gdispImageClose,"ax",%progbits
 185      0080AFF3 
 185      0080
 186              		.align	2
 187              		.p2align 4,,15
 188              		.global	gdispImageClose
 189              		.thumb
 190              		.thumb_func
 191              		.type	gdispImageClose, %function
 192              	gdispImageClose:
 193              	.LFB121:
 194              		.loc 1 163 0
 195              		.cfi_startproc
 196              		@ args = 0, pretend = 0, frame = 0
 197              		@ frame_needed = 0, uses_anonymous_args = 0
 198              	.LVL17:
 199              		.loc 1 164 0
 200 0000 0369     		ldr	r3, [r0, #16]
 201              		.loc 1 163 0
 202 0002 10B5     		push	{r4, lr}
 203              	.LCFI1:
 204              		.cfi_def_cfa_offset 8
 205              		.cfi_offset 4, -8
 206              		.cfi_offset 14, -4
 207              		.loc 1 163 0
 208 0004 0446     		mov	r4, r0
 209              		.loc 1 164 0
 210 0006 0BB1     		cbz	r3, .L15
 211              		.loc 1 165 0
 212 0008 5968     		ldr	r1, [r3, #4]
 213 000a 8847     		blx	r1
 214              	.LVL18:
 215              	.L15:
 216              		.loc 1 166 0
 217 000c E068     		ldr	r0, [r4, #12]
 218 000e FFF7FEFF 		bl	gfileClose
 219              	.LVL19:
 220              		.loc 1 167 0
 221 0012 0020     		movs	r0, #0
 222 0014 2080     		strh	r0, [r4, #0]	@ movhi
 223              		.loc 1 168 0
 224 0016 6080     		strh	r0, [r4, #2]	@ movhi
ARM GAS  C:\Users\Elis\AppData\Local\Temp\ccdmZfox.s 			page 5


 225              		.loc 1 169 0
 226 0018 2061     		str	r0, [r4, #16]
 227              		.loc 1 170 0
 228 001a 6061     		str	r0, [r4, #20]
 229 001c 10BD     		pop	{r4, pc}
 230              		.cfi_endproc
 231              	.LFE121:
 232              		.size	gdispImageClose, .-gdispImageClose
 233 001e 00BF     		.section	.text.gdispImageIsOpen,"ax",%progbits
 234              		.align	2
 235              		.p2align 4,,15
 236              		.global	gdispImageIsOpen
 237              		.thumb
 238              		.thumb_func
 239              		.type	gdispImageIsOpen, %function
 240              	gdispImageIsOpen:
 241              	.LFB122:
 242              		.loc 1 173 0
 243              		.cfi_startproc
 244              		@ args = 0, pretend = 0, frame = 0
 245              		@ frame_needed = 0, uses_anonymous_args = 0
 246              		@ link register save eliminated.
 247              	.LVL20:
 248              		.loc 1 174 0
 249 0000 0388     		ldrh	r3, [r0, #0]
 250 0002 23B1     		cbz	r3, .L21
 251              		.loc 1 174 0 is_stmt 0 discriminator 1
 252 0004 0069     		ldr	r0, [r0, #16]
 253              	.LVL21:
 254 0006 0030     		adds	r0, r0, #0
 255 0008 18BF     		it	ne
 256 000a 0120     		movne	r0, #1
 257 000c 7047     		bx	lr
 258              	.LVL22:
 259              	.L21:
 260              		.loc 1 174 0
 261 000e 1846     		mov	r0, r3
 262              	.LVL23:
 263              		.loc 1 175 0 is_stmt 1
 264 0010 7047     		bx	lr
 265              		.cfi_endproc
 266              	.LFE122:
 267              		.size	gdispImageIsOpen, .-gdispImageIsOpen
 268 0012 00BFAFF3 		.section	.text.gdispImageSetBgColor,"ax",%progbits
 268      0080AFF3 
 268      0080AFF3 
 268      0080
 269              		.align	2
 270              		.p2align 4,,15
 271              		.global	gdispImageSetBgColor
 272              		.thumb
 273              		.thumb_func
 274              		.type	gdispImageSetBgColor, %function
 275              	gdispImageSetBgColor:
 276              	.LFB123:
 277              		.loc 1 177 0
 278              		.cfi_startproc
ARM GAS  C:\Users\Elis\AppData\Local\Temp\ccdmZfox.s 			page 6


 279              		@ args = 0, pretend = 0, frame = 0
 280              		@ frame_needed = 0, uses_anonymous_args = 0
 281              		@ link register save eliminated.
 282              	.LVL24:
 283              		.loc 1 178 0
 284 0000 8180     		strh	r1, [r0, #4]	@ movhi
 285 0002 7047     		bx	lr
 286              		.cfi_endproc
 287              	.LFE123:
 288              		.size	gdispImageSetBgColor, .-gdispImageSetBgColor
 289 0004 AFF30080 		.section	.text.gdispImageCache,"ax",%progbits
 289      AFF30080 
 289      AFF30080 
 290              		.align	2
 291              		.p2align 4,,15
 292              		.global	gdispImageCache
 293              		.thumb
 294              		.thumb_func
 295              		.type	gdispImageCache, %function
 296              	gdispImageCache:
 297              	.LFB124:
 298              		.loc 1 181 0
 299              		.cfi_startproc
 300              		@ args = 0, pretend = 0, frame = 0
 301              		@ frame_needed = 0, uses_anonymous_args = 0
 302              	.LVL25:
 303 0000 08B5     		push	{r3, lr}
 304              	.LCFI2:
 305              		.cfi_def_cfa_offset 8
 306              		.cfi_offset 3, -8
 307              		.cfi_offset 14, -4
 308              		.loc 1 182 0
 309 0002 0369     		ldr	r3, [r0, #16]
 310 0004 13B1     		cbz	r3, .L25
 311              		.loc 1 183 0
 312 0006 9968     		ldr	r1, [r3, #8]
 313 0008 8847     		blx	r1
 314              	.LVL26:
 315 000a 08BD     		pop	{r3, pc}
 316              	.LVL27:
 317              	.L25:
 318              		.loc 1 182 0
 319 000c 48F20100 		movw	r0, #32769
 320              	.LVL28:
 321              		.loc 1 184 0
 322 0010 08BD     		pop	{r3, pc}
 323              		.cfi_endproc
 324              	.LFE124:
 325              		.size	gdispImageCache, .-gdispImageCache
 326 0012 00BFAFF3 		.section	.text.gdispGImageDraw,"ax",%progbits
 326      0080AFF3 
 326      0080AFF3 
 326      0080
 327              		.align	2
 328              		.p2align 4,,15
 329              		.global	gdispGImageDraw
 330              		.thumb
ARM GAS  C:\Users\Elis\AppData\Local\Temp\ccdmZfox.s 			page 7


 331              		.thumb_func
 332              		.type	gdispGImageDraw, %function
 333              	gdispGImageDraw:
 334              	.LFB125:
 335              		.loc 1 186 0
 336              		.cfi_startproc
 337              		@ args = 16, pretend = 0, frame = 0
 338              		@ frame_needed = 0, uses_anonymous_args = 0
 339              	.LVL29:
 340 0000 30B5     		push	{r4, r5, lr}
 341              	.LCFI3:
 342              		.cfi_def_cfa_offset 12
 343              		.cfi_offset 4, -12
 344              		.cfi_offset 5, -8
 345              		.cfi_offset 14, -4
 346              		.loc 1 187 0
 347 0002 0C69     		ldr	r4, [r1, #16]
 348              		.loc 1 186 0
 349 0004 85B0     		sub	sp, sp, #20
 350              	.LCFI4:
 351              		.cfi_def_cfa_offset 32
 352              		.loc 1 187 0
 353 0006 7CB1     		cbz	r4, .L28
 354              		.loc 1 188 0
 355 0008 BDF92050 		ldrsh	r5, [sp, #32]
 356 000c 0095     		str	r5, [sp, #0]
 357 000e BDF92450 		ldrsh	r5, [sp, #36]
 358 0012 0195     		str	r5, [sp, #4]
 359 0014 BDF92850 		ldrsh	r5, [sp, #40]
 360 0018 0295     		str	r5, [sp, #8]
 361 001a BDF92C50 		ldrsh	r5, [sp, #44]
 362 001e 0395     		str	r5, [sp, #12]
 363 0020 E468     		ldr	r4, [r4, #12]
 364 0022 A047     		blx	r4
 365              	.LVL30:
 366              	.L27:
 367              		.loc 1 189 0
 368 0024 05B0     		add	sp, sp, #20
 369 0026 30BD     		pop	{r4, r5, pc}
 370              	.LVL31:
 371              	.L28:
 372              		.loc 1 187 0
 373 0028 48F20100 		movw	r0, #32769
 374              	.LVL32:
 375 002c FAE7     		b	.L27
 376              		.cfi_endproc
 377              	.LFE125:
 378              		.size	gdispGImageDraw, .-gdispGImageDraw
 379 002e 00BF     		.section	.text.gdispImageNext,"ax",%progbits
 380              		.align	2
 381              		.p2align 4,,15
 382              		.global	gdispImageNext
 383              		.thumb
 384              		.thumb_func
 385              		.type	gdispImageNext, %function
 386              	gdispImageNext:
 387              	.LFB126:
ARM GAS  C:\Users\Elis\AppData\Local\Temp\ccdmZfox.s 			page 8


 388              		.loc 1 191 0
 389              		.cfi_startproc
 390              		@ args = 0, pretend = 0, frame = 0
 391              		@ frame_needed = 0, uses_anonymous_args = 0
 392              	.LVL33:
 393 0000 08B5     		push	{r3, lr}
 394              	.LCFI5:
 395              		.cfi_def_cfa_offset 8
 396              		.cfi_offset 3, -8
 397              		.cfi_offset 14, -4
 398              		.loc 1 192 0
 399 0002 0369     		ldr	r3, [r0, #16]
 400 0004 13B1     		cbz	r3, .L31
 401              		.loc 1 193 0
 402 0006 1969     		ldr	r1, [r3, #16]
 403 0008 8847     		blx	r1
 404              	.LVL34:
 405 000a 08BD     		pop	{r3, pc}
 406              	.LVL35:
 407              	.L31:
 408              		.loc 1 192 0
 409 000c 48F20100 		movw	r0, #32769
 410              	.LVL36:
 411              		.loc 1 194 0
 412 0010 08BD     		pop	{r3, pc}
 413              		.cfi_endproc
 414              	.LFE126:
 415              		.size	gdispImageNext, .-gdispImageNext
 416 0012 00BFAFF3 		.section	.text.gdispImageAlloc,"ax",%progbits
 416      0080AFF3 
 416      0080AFF3 
 416      0080
 417              		.align	2
 418              		.p2align 4,,15
 419              		.global	gdispImageAlloc
 420              		.thumb
 421              		.thumb_func
 422              		.type	gdispImageAlloc, %function
 423              	gdispImageAlloc:
 424              	.LFB127:
 425              		.loc 1 197 0
 426              		.cfi_startproc
 427              		@ args = 0, pretend = 0, frame = 0
 428              		@ frame_needed = 0, uses_anonymous_args = 0
 429              		@ link register save eliminated.
 430              	.LVL37:
 431              		.loc 1 210 0
 432 0000 0020     		movs	r0, #0
 433              	.LVL38:
 434              		.loc 1 212 0
 435              		.loc 1 210 0
 436 0002 FFF7FEBF 		b	chHeapAlloc
 437              	.LVL39:
 438              		.cfi_endproc
 439              	.LFE127:
 440              		.size	gdispImageAlloc, .-gdispImageAlloc
 441 0006 00BFAFF3 		.section	.text.gdispImageFree,"ax",%progbits
ARM GAS  C:\Users\Elis\AppData\Local\Temp\ccdmZfox.s 			page 9


 441      0080AFF3 
 441      0080
 442              		.align	2
 443              		.p2align 4,,15
 444              		.global	gdispImageFree
 445              		.thumb
 446              		.thumb_func
 447              		.type	gdispImageFree, %function
 448              	gdispImageFree:
 449              	.LFB128:
 450              		.loc 1 214 0
 451              		.cfi_startproc
 452              		@ args = 0, pretend = 0, frame = 0
 453              		@ frame_needed = 0, uses_anonymous_args = 0
 454              		@ link register save eliminated.
 455              	.LVL40:
 456              		.loc 1 221 0
 457 0000 0846     		mov	r0, r1
 458              	.LVL41:
 459              		.loc 1 223 0
 460              		.loc 1 221 0
 461 0002 FFF7FEBF 		b	chHeapFree
 462              	.LVL42:
 463              		.cfi_endproc
 464              	.LFE128:
 465              		.size	gdispImageFree, .-gdispImageFree
 466 0006 00BFAFF3 		.section	.data.ImageHandlers,"aw",%progbits
 466      0080AFF3 
 466      0080
 467              		.align	2
 468              		.set	.LANCHOR0,. + 0
 469              		.type	ImageHandlers, %object
 470              		.size	ImageHandlers, 20
 471              	ImageHandlers:
 472 0000 00000000 		.word	gdispImageOpen_GIF
 473 0004 00000000 		.word	gdispImageClose_GIF
 474 0008 00000000 		.word	gdispImageCache_GIF
 475 000c 00000000 		.word	gdispGImageDraw_GIF
 476 0010 00000000 		.word	gdispImageNext_GIF
 477              		.text
 478              	.Letext0:
 479              		.file 2 "c:\\chibistudio\\tools\\gnu tools arm embedded\\4.7 2014q2\\bin\\../lib/gcc/arm-none-eabi
 480              		.file 3 "c:\\chibistudio\\tools\\gnu tools arm embedded\\4.7 2014q2\\bin\\../lib/gcc/arm-none-eabi
 481              		.file 4 "../../chibios/os/ports/GCC/ARMCMx/chtypes.h"
 482              		.file 5 "../../chibios/os/kernel/include/chlists.h"
 483              		.file 6 "../../chibios/os/kernel/include/chthreads.h"
 484              		.file 7 "../../chibios/os/ports/GCC/ARMCMx/chcore_v7m.h"
 485              		.file 8 "../../chibios/os/kernel/include/chmtx.h"
 486              		.file 9 "../../chibios/os/kernel/include/chmemcore.h"
 487              		.file 10 "../../chibios/os/kernel/include/chheap.h"
 488              		.file 11 "../../ugfx/src/gos/gos_chibios.h"
 489              		.file 12 "../../ugfx/src/gfile/gfile.h"
 490              		.file 13 "../../ugfx/src/gdisp/gdisp.h"
 491              		.file 14 "../../ugfx/src/gdisp/gdisp_colors.h"
 492              		.file 15 "../../ugfx/src/gdisp/gdisp_image.h"
 493              		.file 16 "../../chibios/os/ports/common/ARMCMx/CMSIS/include/core_cm4.h"