ARM GAS  C:\Users\Elis\AppData\Local\Temp\ccOLYkLd.s 			page 1


   1              		.syntax unified
   2              		.cpu cortex-m4
   3              		.fpu softvfp
   4              		.eabi_attribute 20, 1
   5              		.eabi_attribute 21, 1
   6              		.eabi_attribute 23, 3
   7              		.eabi_attribute 24, 1
   8              		.eabi_attribute 25, 1
   9              		.eabi_attribute 26, 1
  10              		.eabi_attribute 30, 2
  11              		.eabi_attribute 34, 1
  12              		.eabi_attribute 18, 4
  13              		.thumb
  14              		.file	"gdriver.c"
  15              		.text
  16              	.Ltext0:
  17              		.cfi_sections	.debug_frame
  18              		.section	.text._gdriverInit,"ax",%progbits
  19              		.align	2
  20              		.p2align 4,,15
  21              		.global	_gdriverInit
  22              		.thumb
  23              		.thumb_func
  24              		.type	_gdriverInit, %function
  25              	_gdriverInit:
  26              	.LFB118:
  27              		.file 1 "../../ugfx/src/gdriver/gdriver.c"
  28              		.loc 1 21 0
  29              		.cfi_startproc
  30              		@ args = 0, pretend = 0, frame = 0
  31              		@ frame_needed = 0, uses_anonymous_args = 0
  32              		@ link register save eliminated.
  33 0000 7047     		bx	lr
  34              		.cfi_endproc
  35              	.LFE118:
  36              		.size	_gdriverInit, .-_gdriverInit
  37 0002 00BFAFF3 		.section	.text.gdriverRegister,"ax",%progbits
  37      0080AFF3 
  37      0080AFF3 
  37      0080
  38              		.align	2
  39              		.p2align 4,,15
  40              		.global	gdriverRegister
  41              		.thumb
  42              		.thumb_func
  43              		.type	gdriverRegister, %function
  44              	gdriverRegister:
  45              	.LFB120:
  46              		.loc 1 31 0
  47              		.cfi_startproc
  48              		@ args = 0, pretend = 0, frame = 0
  49              		@ frame_needed = 0, uses_anonymous_args = 0
  50              	.LVL0:
  51              		.loc 1 31 0
  52 0000 2DE9F047 		push	{r4, r5, r6, r7, r8, r9, sl, lr}
  53              	.LCFI0:
  54              		.cfi_def_cfa_offset 32
ARM GAS  C:\Users\Elis\AppData\Local\Temp\ccOLYkLd.s 			page 2


  55              		.cfi_offset 4, -32
  56              		.cfi_offset 5, -28
  57              		.cfi_offset 6, -24
  58              		.cfi_offset 7, -20
  59              		.cfi_offset 8, -16
  60              		.cfi_offset 9, -12
  61              		.cfi_offset 10, -8
  62              		.cfi_offset 14, -4
  63              		.loc 1 37 0
  64 0004 DFF88C80 		ldr	r8, .L24+4
  65 0008 D8F80040 		ldr	r4, [r8, #0]
  66              	.LVL1:
  67              		.loc 1 31 0
  68 000c 0646     		mov	r6, r0
  69 000e 8946     		mov	r9, r1
  70              		.loc 1 37 0
  71 0010 002C     		cmp	r4, #0
  72 0012 34D0     		beq	.L11
  73              		.loc 1 36 0
  74 0014 0027     		movs	r7, #0
  75 0016 0088     		ldrh	r0, [r0, #0]
  76              	.LVL2:
  77 0018 BA46     		mov	sl, r7
  78              	.LVL3:
  79              	.L6:
  80              		.loc 1 38 0
  81 001a 6568     		ldr	r5, [r4, #4]
  82              		.loc 1 37 0
  83 001c 2468     		ldr	r4, [r4, #0]
  84              	.LVL4:
  85              		.loc 1 38 0
  86 001e B542     		cmp	r5, r6
  87              		.loc 1 40 0
  88 0020 2D88     		ldrh	r5, [r5, #0]
  89              		.loc 1 39 0
  90 0022 08BF     		it	eq
  91 0024 0AF1010A 		addeq	sl, sl, #1
  92              	.LVL5:
  93              		.loc 1 40 0
  94 0028 8542     		cmp	r5, r0
  95              		.loc 1 41 0
  96 002a 08BF     		it	eq
  97 002c 0137     		addeq	r7, r7, #1
  98              	.LVL6:
  99              		.loc 1 37 0
 100 002e 002C     		cmp	r4, #0
 101 0030 F3D1     		bne	.L6
 102              	.LVL7:
 103              	.L3:
 104              		.loc 1 45 0
 105 0032 0020     		movs	r0, #0
 106 0034 7168     		ldr	r1, [r6, #4]
 107              	.LVL8:
 108 0036 FFF7FEFF 		bl	chHeapAlloc
 109              	.LVL9:
 110              		.loc 1 46 0
 111 003a 0446     		mov	r4, r0
ARM GAS  C:\Users\Elis\AppData\Local\Temp\ccOLYkLd.s 			page 3


 112 003c B8B1     		cbz	r0, .L7
 113              		.loc 1 48 0
 114 003e 0021     		movs	r1, #0
 115 0040 7268     		ldr	r2, [r6, #4]
 116 0042 FFF7FEFF 		bl	memset
 117              	.LVL10:
 118              		.loc 1 50 0
 119 0046 B568     		ldr	r5, [r6, #8]
 120              		.loc 1 49 0
 121 0048 6660     		str	r6, [r4, #4]
 122              		.loc 1 50 0
 123 004a 35B1     		cbz	r5, .L8
 124              		.loc 1 50 0 is_stmt 0 discriminator 1
 125 004c 2046     		mov	r0, r4
 126 004e 4946     		mov	r1, r9
 127 0050 5246     		mov	r2, sl
 128 0052 3B46     		mov	r3, r7
 129 0054 A847     		blx	r5
 130              	.LVL11:
 131 0056 0546     		mov	r5, r0
 132 0058 A0B1     		cbz	r0, .L23
 133              	.L8:
 134              		.loc 1 56 0 is_stmt 1
 135 005a D8F80030 		ldr	r3, [r8, #0]
 136 005e 4BB1     		cbz	r3, .L9
 137              		.loc 1 57 0
 138 0060 0B48     		ldr	r0, .L24
 139 0062 0368     		ldr	r3, [r0, #0]
 140 0064 1C60     		str	r4, [r3, #0]
 141              	.L10:
 142              		.loc 1 62 0
 143 0066 F168     		ldr	r1, [r6, #12]
 144 0068 09B1     		cbz	r1, .L7
 145              		.loc 1 63 0
 146 006a 2046     		mov	r0, r4
 147 006c 8847     		blx	r1
 148              	.LVL12:
 149              	.L7:
 150              		.loc 1 66 0
 151 006e 2046     		mov	r0, r4
 152 0070 BDE8F087 		pop	{r4, r5, r6, r7, r8, r9, sl, pc}
 153              	.LVL13:
 154              	.L9:
 155              		.loc 1 59 0
 156 0074 0749     		ldr	r1, .L24+4
 157 0076 064A     		ldr	r2, .L24
 158 0078 0C60     		str	r4, [r1, #0]
 159 007a 1460     		str	r4, [r2, #0]
 160 007c F3E7     		b	.L10
 161              	.LVL14:
 162              	.L11:
 163              		.loc 1 36 0
 164 007e 2746     		mov	r7, r4
 165 0080 A246     		mov	sl, r4
 166 0082 D6E7     		b	.L3
 167              	.LVL15:
 168              	.L23:
ARM GAS  C:\Users\Elis\AppData\Local\Temp\ccOLYkLd.s 			page 4


 169              		.loc 1 51 0
 170 0084 2046     		mov	r0, r4
 171 0086 FFF7FEFF 		bl	chHeapFree
 172              	.LVL16:
 173              		.loc 1 52 0
 174 008a 2C46     		mov	r4, r5
 175              	.LVL17:
 176 008c EFE7     		b	.L7
 177              	.L25:
 178 008e 00BF     		.align	2
 179              	.L24:
 180 0090 00000000 		.word	.LANCHOR1
 181 0094 00000000 		.word	.LANCHOR0
 182              		.cfi_endproc
 183              	.LFE120:
 184              		.size	gdriverRegister, .-gdriverRegister
 185 0098 AFF30080 		.section	.text.gdriverUnRegister,"ax",%progbits
 185      AFF30080 
 186              		.align	2
 187              		.p2align 4,,15
 188              		.global	gdriverUnRegister
 189              		.thumb
 190              		.thumb_func
 191              		.type	gdriverUnRegister, %function
 192              	gdriverUnRegister:
 193              	.LFB121:
 194              		.loc 1 68 0
 195              		.cfi_startproc
 196              		@ args = 0, pretend = 0, frame = 0
 197              		@ frame_needed = 0, uses_anonymous_args = 0
 198              	.LVL18:
 199 0000 10B5     		push	{r4, lr}
 200              	.LCFI1:
 201              		.cfi_def_cfa_offset 8
 202              		.cfi_offset 4, -8
 203              		.cfi_offset 14, -4
 204              		.loc 1 72 0
 205 0002 0446     		mov	r4, r0
 206 0004 C0B1     		cbz	r0, .L26
 207              		.loc 1 76 0
 208 0006 0D4B     		ldr	r3, .L40
 209 0008 1A68     		ldr	r2, [r3, #0]
 210 000a 8242     		cmp	r2, r0
 211 000c 01D1     		bne	.L36
 212 000e 10E0     		b	.L39
 213              	.LVL19:
 214              	.L33:
 215              		.loc 1 80 0
 216 0010 0246     		mov	r2, r0
 217              	.LVL20:
 218              	.L36:
 219              		.loc 1 79 0 discriminator 1
 220 0012 1068     		ldr	r0, [r2, #0]
 221 0014 18B1     		cbz	r0, .L29
 222              		.loc 1 80 0
 223 0016 8442     		cmp	r4, r0
 224 0018 FAD1     		bne	.L33
ARM GAS  C:\Users\Elis\AppData\Local\Temp\ccOLYkLd.s 			page 5


 225              		.loc 1 81 0
 226 001a 2168     		ldr	r1, [r4, #0]
 227 001c 1160     		str	r1, [r2, #0]
 228              	.LVL21:
 229              	.L29:
 230              		.loc 1 88 0
 231 001e 6368     		ldr	r3, [r4, #4]
 232 0020 1A69     		ldr	r2, [r3, #16]
 233 0022 0AB1     		cbz	r2, .L32
 234              		.loc 1 89 0
 235 0024 2046     		mov	r0, r4
 236 0026 9047     		blx	r2
 237              	.LVL22:
 238              	.L32:
 239              		.loc 1 92 0
 240 0028 2046     		mov	r0, r4
 241              		.loc 1 93 0
 242 002a BDE81040 		pop	{r4, lr}
 243              		.loc 1 92 0
 244 002e FFF7FEBF 		b	chHeapFree
 245              	.LVL23:
 246              	.L39:
 247              		.loc 1 77 0
 248 0032 0068     		ldr	r0, [r0, #0]
 249              	.LVL24:
 250 0034 1860     		str	r0, [r3, #0]
 251 0036 F2E7     		b	.L29
 252              	.LVL25:
 253              	.L26:
 254 0038 10BD     		pop	{r4, pc}
 255              	.L41:
 256 003a 00BF     		.align	2
 257              	.L40:
 258 003c 00000000 		.word	.LANCHOR0
 259              		.cfi_endproc
 260              	.LFE121:
 261              		.size	gdriverUnRegister, .-gdriverUnRegister
 262              		.section	.text._gdriverDeinit,"ax",%progbits
 263              		.align	2
 264              		.p2align 4,,15
 265              		.global	_gdriverDeinit
 266              		.thumb
 267              		.thumb_func
 268              		.type	_gdriverDeinit, %function
 269              	_gdriverDeinit:
 270              	.LFB119:
 271              		.loc 1 25 0
 272              		.cfi_startproc
 273              		@ args = 0, pretend = 0, frame = 0
 274              		@ frame_needed = 0, uses_anonymous_args = 0
 275 0000 10B5     		push	{r4, lr}
 276              	.LCFI2:
 277              		.cfi_def_cfa_offset 8
 278              		.cfi_offset 4, -8
 279              		.cfi_offset 14, -4
 280              		.loc 1 26 0
 281 0002 044C     		ldr	r4, .L48
ARM GAS  C:\Users\Elis\AppData\Local\Temp\ccOLYkLd.s 			page 6


 282 0004 2068     		ldr	r0, [r4, #0]
 283 0006 20B1     		cbz	r0, .L42
 284              	.L46:
 285              		.loc 1 27 0
 286 0008 FFF7FEFF 		bl	gdriverUnRegister
 287              	.LVL26:
 288              		.loc 1 26 0
 289 000c 2068     		ldr	r0, [r4, #0]
 290 000e 0028     		cmp	r0, #0
 291 0010 FAD1     		bne	.L46
 292              	.L42:
 293 0012 10BD     		pop	{r4, pc}
 294              	.L49:
 295              		.align	2
 296              	.L48:
 297 0014 00000000 		.word	.LANCHOR0
 298              		.cfi_endproc
 299              	.LFE119:
 300              		.size	_gdriverDeinit, .-_gdriverDeinit
 301 0018 AFF30080 		.section	.text.gdriverGetInstance,"ax",%progbits
 301      AFF30080 
 302              		.align	2
 303              		.p2align 4,,15
 304              		.global	gdriverGetInstance
 305              		.thumb
 306              		.thumb_func
 307              		.type	gdriverGetInstance, %function
 308              	gdriverGetInstance:
 309              	.LFB122:
 310              		.loc 1 95 0
 311              		.cfi_startproc
 312              		@ args = 0, pretend = 0, frame = 0
 313              		@ frame_needed = 0, uses_anonymous_args = 0
 314              		@ link register save eliminated.
 315              	.LVL27:
 316              		.loc 1 101 0
 317 0000 0A4B     		ldr	r3, .L58
 318 0002 1B68     		ldr	r3, [r3, #0]
 319              	.LVL28:
 320              		.loc 1 95 0
 321 0004 10B4     		push	{r4}
 322              	.LCFI3:
 323              		.cfi_def_cfa_offset 4
 324              		.cfi_offset 4, -4
 325              		.loc 1 101 0
 326 0006 6BB1     		cbz	r3, .L51
 327 0008 0024     		movs	r4, #0
 328 000a 01E0     		b	.L53
 329              	.LVL29:
 330              	.L52:
 331 000c 1B68     		ldr	r3, [r3, #0]
 332              	.LVL30:
 333 000e 4BB1     		cbz	r3, .L51
 334              	.LVL31:
 335              	.L53:
 336              		.loc 1 102 0
 337 0010 5A68     		ldr	r2, [r3, #4]
ARM GAS  C:\Users\Elis\AppData\Local\Temp\ccOLYkLd.s 			page 7


 338 0012 1288     		ldrh	r2, [r2, #0]
 339 0014 8242     		cmp	r2, r0
 340 0016 F9D1     		bne	.L52
 341              		.loc 1 103 0
 342 0018 8C42     		cmp	r4, r1
 343 001a 03D0     		beq	.L51
 344              		.loc 1 101 0
 345 001c 1B68     		ldr	r3, [r3, #0]
 346              	.LVL32:
 347              		.loc 1 105 0
 348 001e 0134     		adds	r4, r4, #1
 349              	.LVL33:
 350              		.loc 1 101 0
 351 0020 002B     		cmp	r3, #0
 352 0022 F5D1     		bne	.L53
 353              	.LVL34:
 354              	.L51:
 355              		.loc 1 109 0
 356 0024 1846     		mov	r0, r3
 357              	.LVL35:
 358 0026 10BC     		pop	{r4}
 359 0028 7047     		bx	lr
 360              	.L59:
 361 002a 00BF     		.align	2
 362              	.L58:
 363 002c 00000000 		.word	.LANCHOR0
 364              		.cfi_endproc
 365              	.LFE122:
 366              		.size	gdriverGetInstance, .-gdriverGetInstance
 367              		.section	.text.gdriverInstanceCount,"ax",%progbits
 368              		.align	2
 369              		.p2align 4,,15
 370              		.global	gdriverInstanceCount
 371              		.thumb
 372              		.thumb_func
 373              		.type	gdriverInstanceCount, %function
 374              	gdriverInstanceCount:
 375              	.LFB123:
 376              		.loc 1 111 0
 377              		.cfi_startproc
 378              		@ args = 0, pretend = 0, frame = 0
 379              		@ frame_needed = 0, uses_anonymous_args = 0
 380              		@ link register save eliminated.
 381              	.LVL36:
 382              		.loc 1 117 0
 383 0000 074B     		ldr	r3, .L66
 384 0002 1B68     		ldr	r3, [r3, #0]
 385              	.LVL37:
 386              		.loc 1 111 0
 387 0004 0146     		mov	r1, r0
 388              		.loc 1 117 0
 389 0006 4BB1     		cbz	r3, .L64
 390 0008 0020     		movs	r0, #0
 391              	.LVL38:
 392              	.L63:
 393              		.loc 1 118 0
 394 000a 5A68     		ldr	r2, [r3, #4]
ARM GAS  C:\Users\Elis\AppData\Local\Temp\ccOLYkLd.s 			page 8


 395              		.loc 1 117 0
 396 000c 1B68     		ldr	r3, [r3, #0]
 397              	.LVL39:
 398              		.loc 1 118 0
 399 000e 1288     		ldrh	r2, [r2, #0]
 400 0010 8A42     		cmp	r2, r1
 401              		.loc 1 119 0
 402 0012 08BF     		it	eq
 403 0014 0130     		addeq	r0, r0, #1
 404              	.LVL40:
 405              		.loc 1 117 0
 406 0016 002B     		cmp	r3, #0
 407 0018 F7D1     		bne	.L63
 408 001a 7047     		bx	lr
 409              	.LVL41:
 410              	.L64:
 411              		.loc 1 116 0
 412 001c 1846     		mov	r0, r3
 413              	.LVL42:
 414              		.loc 1 122 0
 415 001e 7047     		bx	lr
 416              	.L67:
 417              		.align	2
 418              	.L66:
 419 0020 00000000 		.word	.LANCHOR0
 420              		.cfi_endproc
 421              	.LFE123:
 422              		.size	gdriverInstanceCount, .-gdriverInstanceCount
 423 0024 AFF30080 		.section	.text.gdriverGetNext,"ax",%progbits
 423      AFF30080 
 423      AFF30080 
 424              		.align	2
 425              		.p2align 4,,15
 426              		.global	gdriverGetNext
 427              		.thumb
 428              		.thumb_func
 429              		.type	gdriverGetNext, %function
 430              	gdriverGetNext:
 431              	.LFB124:
 432              		.loc 1 124 0
 433              		.cfi_startproc
 434              		@ args = 0, pretend = 0, frame = 0
 435              		@ frame_needed = 0, uses_anonymous_args = 0
 436              		@ link register save eliminated.
 437              	.LVL43:
 438              		.loc 1 125 0
 439 0000 51B1     		cbz	r1, .L69
 440              		.loc 1 125 0 is_stmt 0 discriminator 1
 441 0002 0B68     		ldr	r3, [r1, #0]
 442              	.L84:
 443              	.LVL44:
 444              		.loc 1 127 0 is_stmt 1
 445 0004 33B1     		cbz	r3, .L70
 446              	.L85:
 447              		.loc 1 127 0 is_stmt 0 discriminator 2
 448 0006 5A68     		ldr	r2, [r3, #4]
 449 0008 1188     		ldrh	r1, [r2, #0]
ARM GAS  C:\Users\Elis\AppData\Local\Temp\ccOLYkLd.s 			page 9


 450 000a 8142     		cmp	r1, r0
 451 000c 02D0     		beq	.L70
 452              		.loc 1 128 0 is_stmt 1
 453 000e 1B68     		ldr	r3, [r3, #0]
 454              	.LVL45:
 455              		.loc 1 127 0
 456 0010 002B     		cmp	r3, #0
 457 0012 F8D1     		bne	.L85
 458              	.L70:
 459              		.loc 1 131 0
 460 0014 1846     		mov	r0, r3
 461              	.LVL46:
 462 0016 7047     		bx	lr
 463              	.LVL47:
 464              	.L69:
 465              		.loc 1 125 0 discriminator 2
 466 0018 014B     		ldr	r3, .L86
 467 001a 1B68     		ldr	r3, [r3, #0]
 468 001c F2E7     		b	.L84
 469              	.L87:
 470 001e 00BF     		.align	2
 471              	.L86:
 472 0020 00000000 		.word	.LANCHOR0
 473              		.cfi_endproc
 474              	.LFE124:
 475              		.size	gdriverGetNext, .-gdriverGetNext
 476 0024 AFF30080 		.section	.text.gdriverGetDriverInstanceNumber,"ax",%progbits
 476      AFF30080 
 476      AFF30080 
 477              		.align	2
 478              		.p2align 4,,15
 479              		.global	gdriverGetDriverInstanceNumber
 480              		.thumb
 481              		.thumb_func
 482              		.type	gdriverGetDriverInstanceNumber, %function
 483              	gdriverGetDriverInstanceNumber:
 484              	.LFB125:
 485              		.loc 1 133 0
 486              		.cfi_startproc
 487              		@ args = 0, pretend = 0, frame = 0
 488              		@ frame_needed = 0, uses_anonymous_args = 0
 489              		@ link register save eliminated.
 490              	.LVL48:
 491              		.loc 1 139 0
 492 0000 0D4B     		ldr	r3, .L95
 493 0002 1B68     		ldr	r3, [r3, #0]
 494              	.LVL49:
 495              		.loc 1 133 0
 496 0004 10B4     		push	{r4}
 497              	.LCFI4:
 498              		.cfi_def_cfa_offset 4
 499              		.cfi_offset 4, -4
 500              		.loc 1 133 0
 501 0006 0146     		mov	r1, r0
 502              		.loc 1 139 0
 503 0008 7BB1     		cbz	r3, .L93
 504              		.loc 1 140 0
ARM GAS  C:\Users\Elis\AppData\Local\Temp\ccOLYkLd.s 			page 10


 505 000a 8342     		cmp	r3, r0
 506 000c 11D0     		beq	.L94
 507 000e 4268     		ldr	r2, [r0, #4]
 508              		.loc 1 138 0
 509 0010 0020     		movs	r0, #0
 510              	.LVL50:
 511 0012 1488     		ldrh	r4, [r2, #0]
 512 0014 01E0     		b	.L90
 513              	.LVL51:
 514              	.L92:
 515              		.loc 1 140 0
 516 0016 9942     		cmp	r1, r3
 517 0018 09D0     		beq	.L89
 518              	.LVL52:
 519              	.L90:
 520              		.loc 1 142 0
 521 001a 5A68     		ldr	r2, [r3, #4]
 522              		.loc 1 139 0
 523 001c 1B68     		ldr	r3, [r3, #0]
 524              	.LVL53:
 525              		.loc 1 142 0
 526 001e 1288     		ldrh	r2, [r2, #0]
 527 0020 A242     		cmp	r2, r4
 528              		.loc 1 143 0
 529 0022 08BF     		it	eq
 530 0024 0130     		addeq	r0, r0, #1
 531              	.LVL54:
 532              		.loc 1 139 0
 533 0026 002B     		cmp	r3, #0
 534 0028 F5D1     		bne	.L92
 535              	.LVL55:
 536              	.L93:
 537              		.loc 1 145 0
 538 002a 4FF0FF30 		mov	r0, #-1
 539              	.L89:
 540              		.loc 1 146 0
 541 002e 10BC     		pop	{r4}
 542 0030 7047     		bx	lr
 543              	.LVL56:
 544              	.L94:
 545              		.loc 1 138 0
 546 0032 0020     		movs	r0, #0
 547              	.LVL57:
 548 0034 FBE7     		b	.L89
 549              	.L96:
 550 0036 00BF     		.align	2
 551              	.L95:
 552 0038 00000000 		.word	.LANCHOR0
 553              		.cfi_endproc
 554              	.LFE125:
 555              		.size	gdriverGetDriverInstanceNumber, .-gdriverGetDriverInstanceNumber
 556 003c AFF30080 		.section	.bss.dtail,"aw",%nobits
 557              		.align	2
 558              		.set	.LANCHOR1,. + 0
 559              		.type	dtail, %object
 560              		.size	dtail, 4
 561              	dtail:
ARM GAS  C:\Users\Elis\AppData\Local\Temp\ccOLYkLd.s 			page 11


 562 0000 00000000 		.space	4
 563              		.section	.bss.dhead,"aw",%nobits
 564              		.align	2
 565              		.set	.LANCHOR0,. + 0
 566              		.type	dhead, %object
 567              		.size	dhead, 4
 568              	dhead:
 569 0000 00000000 		.space	4
 570              		.text
 571              	.Letext0:
 572              		.file 2 "c:\\chibistudio\\tools\\gnu tools arm embedded\\4.7 2014q2\\bin\\../lib/gcc/arm-none-eabi
 573              		.file 3 "c:\\chibistudio\\tools\\gnu tools arm embedded\\4.7 2014q2\\bin\\../lib/gcc/arm-none-eabi
 574              		.file 4 "../../chibios/os/ports/GCC/ARMCMx/chtypes.h"
 575              		.file 5 "../../chibios/os/kernel/include/chlists.h"
 576              		.file 6 "../../chibios/os/kernel/include/chthreads.h"
 577              		.file 7 "../../chibios/os/ports/GCC/ARMCMx/chcore_v7m.h"
 578              		.file 8 "../../chibios/os/kernel/include/chmtx.h"
 579              		.file 9 "../../chibios/os/kernel/include/chmemcore.h"
 580              		.file 10 "../../chibios/os/kernel/include/chheap.h"
 581              		.file 11 "../../ugfx/src/gdriver/gdriver.h"
 582              		.file 12 "../../chibios/os/ports/common/ARMCMx/CMSIS/include/core_cm4.h"