ARM GAS  C:\Users\Elis\AppData\Local\Temp\ccHBMfae.s 			page 1


   1              		.syntax unified
   2              		.cpu cortex-m4
   3              		.fpu softvfp
   4              		.eabi_attribute 20, 1
   5              		.eabi_attribute 21, 1
   6              		.eabi_attribute 23, 3
   7              		.eabi_attribute 24, 1
   8              		.eabi_attribute 25, 1
   9              		.eabi_attribute 26, 1
  10              		.eabi_attribute 30, 2
  11              		.eabi_attribute 34, 1
  12              		.eabi_attribute 18, 4
  13              		.thumb
  14              		.file	"gfile.c"
  15              		.text
  16              	.Ltext0:
  17              		.cfi_sections	.debug_frame
  18              		.section	.text._gfileInit,"ax",%progbits
  19              		.align	2
  20              		.p2align 4,,15
  21              		.global	_gfileInit
  22              		.thumb
  23              		.thumb_func
  24              		.type	_gfileInit, %function
  25              	_gfileInit:
  26              	.LFB118:
  27              		.file 1 "../../ugfx/src/gfile/gfile.c"
  28              		.loc 1 63 0
  29              		.cfi_startproc
  30              		@ args = 0, pretend = 0, frame = 0
  31              		@ frame_needed = 0, uses_anonymous_args = 0
  32              		@ link register save eliminated.
  33 0000 7047     		bx	lr
  34              		.cfi_endproc
  35              	.LFE118:
  36              		.size	_gfileInit, .-_gfileInit
  37 0002 00BFAFF3 		.section	.text._gfileDeinit,"ax",%progbits
  37      0080AFF3 
  37      0080AFF3 
  37      0080
  38              		.align	2
  39              		.p2align 4,,15
  40              		.global	_gfileDeinit
  41              		.thumb
  42              		.thumb_func
  43              		.type	_gfileDeinit, %function
  44              	_gfileDeinit:
  45              	.LFB119:
  46              		.loc 1 71 0
  47              		.cfi_startproc
  48              		@ args = 0, pretend = 0, frame = 0
  49              		@ frame_needed = 0, uses_anonymous_args = 0
  50              		@ link register save eliminated.
  51 0000 7047     		bx	lr
  52              		.cfi_endproc
  53              	.LFE119:
  54              		.size	_gfileDeinit, .-_gfileDeinit
ARM GAS  C:\Users\Elis\AppData\Local\Temp\ccHBMfae.s 			page 2


  55 0002 00BFAFF3 		.section	.text._gfileFindSlot,"ax",%progbits
  55      0080AFF3 
  55      0080AFF3 
  55      0080
  56              		.align	2
  57              		.p2align 4,,15
  58              		.global	_gfileFindSlot
  59              		.thumb
  60              		.thumb_func
  61              		.type	_gfileFindSlot, %function
  62              	_gfileFindSlot:
  63              	.LFB120:
  64              		.loc 1 78 0
  65              		.cfi_startproc
  66              		@ args = 0, pretend = 0, frame = 0
  67              		@ frame_needed = 0, uses_anonymous_args = 0
  68              		@ link register save eliminated.
  69              	.LVL0:
  70              		.loc 1 82 0
  71 0000 3B4B     		ldr	r3, .L43
  72              		.loc 1 83 0
  73 0002 9A88     		ldrh	r2, [r3, #4]
  74 0004 D207     		lsls	r2, r2, #31
  75              		.loc 1 82 0
  76 0006 03F5A071 		add	r1, r3, #320
  77              		.loc 1 83 0
  78 000a 13D5     		bpl	.L36
  79              		.loc 1 82 0
  80 000c 1033     		adds	r3, r3, #16
  81              	.LVL1:
  82 000e 8B42     		cmp	r3, r1
  83 0010 0DD2     		bcs	.L37
  84              		.loc 1 83 0
  85 0012 9A88     		ldrh	r2, [r3, #4]
  86 0014 D207     		lsls	r2, r2, #31
  87 0016 0DD5     		bpl	.L36
  88 0018 06E0     		b	.L33
  89              	.L26:
  90 001a 9A88     		ldrh	r2, [r3, #4]
  91 001c D207     		lsls	r2, r2, #31
  92 001e 09D5     		bpl	.L36
  93              		.loc 1 82 0
  94 0020 1033     		adds	r3, r3, #16
  95              	.LVL2:
  96              		.loc 1 83 0
  97 0022 9A88     		ldrh	r2, [r3, #4]
  98 0024 D207     		lsls	r2, r2, #31
  99 0026 05D5     		bpl	.L36
 100              	.L33:
 101              		.loc 1 82 0
 102 0028 1033     		adds	r3, r3, #16
 103              	.LVL3:
 104 002a 8B42     		cmp	r3, r1
 105 002c F5D3     		bcc	.L26
 106              	.LVL4:
 107              	.L37:
 108              		.loc 1 116 0
ARM GAS  C:\Users\Elis\AppData\Local\Temp\ccHBMfae.s 			page 3


 109 002e 0023     		movs	r3, #0
 110              	.LVL5:
 111              	.L5:
 112              		.loc 1 122 0
 113 0030 1846     		mov	r0, r3
 114 0032 7047     		bx	lr
 115              	.LVL6:
 116              	.L36:
 117              		.loc 1 85 0
 118 0034 0178     		ldrb	r1, [r0, #0]	@ zero_extendqisi2
 119 0036 7229     		cmp	r1, #114
 120 0038 42D0     		beq	.L7
 121 003a 7729     		cmp	r1, #119
 122 003c 20D0     		beq	.L8
 123 003e 6129     		cmp	r1, #97
 124 0040 F5D1     		bne	.L37
 125              		.loc 1 106 0
 126 0042 0C22     		movs	r2, #12
 127 0044 9A80     		strh	r2, [r3, #4]	@ movhi
 128              	.LVL7:
 129              	.L20:
 130              		.loc 1 107 0 discriminator 1
 131 0046 4178     		ldrb	r1, [r0, #1]	@ zero_extendqisi2
 132 0048 0029     		cmp	r1, #0
 133 004a F1D0     		beq	.L5
 134              		.loc 1 108 0
 135 004c 6229     		cmp	r1, #98
 136 004e 11D0     		beq	.L23
 137 0050 7829     		cmp	r1, #120
 138 0052 09D0     		beq	.L24
 139 0054 2B29     		cmp	r1, #43
 140 0056 01D0     		beq	.L40
 141 0058 0130     		adds	r0, r0, #1
 142 005a F4E7     		b	.L20
 143              	.L40:
 144              		.loc 1 109 0
 145 005c 9A88     		ldrh	r2, [r3, #4]
 146 005e 42F00201 		orr	r1, r2, #2
 147 0062 9980     		strh	r1, [r3, #4]	@ movhi
 148 0064 0130     		adds	r0, r0, #1
 149 0066 EEE7     		b	.L20
 150              	.L24:
 151              		.loc 1 111 0
 152 0068 9A88     		ldrh	r2, [r3, #4]
 153 006a 42F40071 		orr	r1, r2, #512
 154 006e 9980     		strh	r1, [r3, #4]	@ movhi
 155 0070 0130     		adds	r0, r0, #1
 156 0072 E8E7     		b	.L20
 157              	.L23:
 158              		.loc 1 110 0
 159 0074 9A88     		ldrh	r2, [r3, #4]
 160 0076 42F01001 		orr	r1, r2, #16
 161 007a 9980     		strh	r1, [r3, #4]	@ movhi
 162 007c 0130     		adds	r0, r0, #1
 163 007e E2E7     		b	.L20
 164              	.LVL8:
 165              	.L8:
ARM GAS  C:\Users\Elis\AppData\Local\Temp\ccHBMfae.s 			page 4


 166              		.loc 1 96 0
 167 0080 40F20442 		movw	r2, #1028
 168 0084 9A80     		strh	r2, [r3, #4]	@ movhi
 169              	.LVL9:
 170              	.L14:
 171              		.loc 1 97 0 discriminator 1
 172 0086 4178     		ldrb	r1, [r0, #1]	@ zero_extendqisi2
 173 0088 0029     		cmp	r1, #0
 174 008a D1D0     		beq	.L5
 175              		.loc 1 98 0
 176 008c 6229     		cmp	r1, #98
 177 008e 11D0     		beq	.L17
 178 0090 7829     		cmp	r1, #120
 179 0092 09D0     		beq	.L18
 180 0094 2B29     		cmp	r1, #43
 181 0096 01D0     		beq	.L41
 182 0098 0130     		adds	r0, r0, #1
 183 009a F4E7     		b	.L14
 184              	.L41:
 185              		.loc 1 99 0
 186 009c 9A88     		ldrh	r2, [r3, #4]
 187 009e 42F00201 		orr	r1, r2, #2
 188 00a2 9980     		strh	r1, [r3, #4]	@ movhi
 189 00a4 0130     		adds	r0, r0, #1
 190 00a6 EEE7     		b	.L14
 191              	.L18:
 192              		.loc 1 101 0
 193 00a8 9A88     		ldrh	r2, [r3, #4]
 194 00aa 42F40071 		orr	r1, r2, #512
 195 00ae 9980     		strh	r1, [r3, #4]	@ movhi
 196 00b0 0130     		adds	r0, r0, #1
 197 00b2 E8E7     		b	.L14
 198              	.L17:
 199              		.loc 1 100 0
 200 00b4 9A88     		ldrh	r2, [r3, #4]
 201 00b6 42F01001 		orr	r1, r2, #16
 202 00ba 9980     		strh	r1, [r3, #4]	@ movhi
 203 00bc 0130     		adds	r0, r0, #1
 204 00be E2E7     		b	.L14
 205              	.LVL10:
 206              	.L7:
 207              		.loc 1 87 0
 208 00c0 4FF48172 		mov	r2, #258
 209 00c4 9A80     		strh	r2, [r3, #4]	@ movhi
 210              	.LVL11:
 211              	.L9:
 212              		.loc 1 88 0 discriminator 1
 213 00c6 4178     		ldrb	r1, [r0, #1]	@ zero_extendqisi2
 214 00c8 0029     		cmp	r1, #0
 215 00ca B1D0     		beq	.L5
 216              		.loc 1 89 0
 217 00cc 2B29     		cmp	r1, #43
 218 00ce 09D0     		beq	.L11
 219 00d0 6229     		cmp	r1, #98
 220 00d2 01D0     		beq	.L42
 221 00d4 0130     		adds	r0, r0, #1
 222 00d6 F6E7     		b	.L9
ARM GAS  C:\Users\Elis\AppData\Local\Temp\ccHBMfae.s 			page 5


 223              	.L42:
 224              		.loc 1 91 0
 225 00d8 9A88     		ldrh	r2, [r3, #4]
 226 00da 42F01001 		orr	r1, r2, #16
 227 00de 9980     		strh	r1, [r3, #4]	@ movhi
 228 00e0 0130     		adds	r0, r0, #1
 229 00e2 F0E7     		b	.L9
 230              	.L11:
 231              		.loc 1 90 0
 232 00e4 9A88     		ldrh	r2, [r3, #4]
 233 00e6 42F00401 		orr	r1, r2, #4
 234 00ea 9980     		strh	r1, [r3, #4]	@ movhi
 235 00ec 0130     		adds	r0, r0, #1
 236 00ee EAE7     		b	.L9
 237              	.L44:
 238              		.align	2
 239              	.L43:
 240 00f0 00000000 		.word	.LANCHOR0
 241              		.cfi_endproc
 242              	.LFE120:
 243              		.size	_gfileFindSlot, .-_gfileFindSlot
 244 00f4 AFF30080 		.section	.text.gfileExists,"ax",%progbits
 244      AFF30080 
 244      AFF30080 
 245              		.align	2
 246              		.p2align 4,,15
 247              		.global	gfileExists
 248              		.thumb
 249              		.thumb_func
 250              		.type	gfileExists, %function
 251              	gfileExists:
 252              	.LFB121:
 253              		.loc 1 128 0
 254              		.cfi_startproc
 255              		@ args = 0, pretend = 0, frame = 0
 256              		@ frame_needed = 0, uses_anonymous_args = 0
 257              	.LVL12:
 258 0000 08B5     		push	{r3, lr}
 259              	.LCFI0:
 260              		.cfi_def_cfa_offset 8
 261              		.cfi_offset 3, -8
 262              		.cfi_offset 14, -4
 263              		.loc 1 141 0
 264 0002 044B     		ldr	r3, .L48
 265              		.loc 1 142 0
 266 0004 1968     		ldr	r1, [r3, #0]
 267 0006 8A68     		ldr	r2, [r1, #8]
 268 0008 0AB1     		cbz	r2, .L47
 269 000a 9047     		blx	r2
 270              	.LVL13:
 271 000c 08BD     		pop	{r3, pc}
 272              	.LVL14:
 273              	.L47:
 274              		.loc 1 145 0
 275 000e 1046     		mov	r0, r2
 276              	.LVL15:
 277              		.loc 1 146 0
ARM GAS  C:\Users\Elis\AppData\Local\Temp\ccHBMfae.s 			page 6


 278 0010 08BD     		pop	{r3, pc}
 279              	.L49:
 280 0012 00BF     		.align	2
 281              	.L48:
 282 0014 00000000 		.word	.LANCHOR1
 283              		.cfi_endproc
 284              	.LFE121:
 285              		.size	gfileExists, .-gfileExists
 286 0018 AFF30080 		.section	.text.gfileDelete,"ax",%progbits
 286      AFF30080 
 287              		.align	2
 288              		.p2align 4,,15
 289              		.global	gfileDelete
 290              		.thumb
 291              		.thumb_func
 292              		.type	gfileDelete, %function
 293              	gfileDelete:
 294              	.LFB122:
 295              		.loc 1 148 0
 296              		.cfi_startproc
 297              		@ args = 0, pretend = 0, frame = 0
 298              		@ frame_needed = 0, uses_anonymous_args = 0
 299              	.LVL16:
 300 0000 08B5     		push	{r3, lr}
 301              	.LCFI1:
 302              		.cfi_def_cfa_offset 8
 303              		.cfi_offset 3, -8
 304              		.cfi_offset 14, -4
 305              		.loc 1 161 0
 306 0002 044B     		ldr	r3, .L53
 307              		.loc 1 162 0
 308 0004 1968     		ldr	r1, [r3, #0]
 309 0006 4A68     		ldr	r2, [r1, #4]
 310 0008 0AB1     		cbz	r2, .L52
 311 000a 9047     		blx	r2
 312              	.LVL17:
 313 000c 08BD     		pop	{r3, pc}
 314              	.LVL18:
 315              	.L52:
 316              		.loc 1 165 0
 317 000e 1046     		mov	r0, r2
 318              	.LVL19:
 319              		.loc 1 166 0
 320 0010 08BD     		pop	{r3, pc}
 321              	.L54:
 322 0012 00BF     		.align	2
 323              	.L53:
 324 0014 00000000 		.word	.LANCHOR1
 325              		.cfi_endproc
 326              	.LFE122:
 327              		.size	gfileDelete, .-gfileDelete
 328 0018 AFF30080 		.section	.text.gfileGetFilesize,"ax",%progbits
 328      AFF30080 
 329              		.align	2
 330              		.p2align 4,,15
 331              		.global	gfileGetFilesize
 332              		.thumb
ARM GAS  C:\Users\Elis\AppData\Local\Temp\ccHBMfae.s 			page 7


 333              		.thumb_func
 334              		.type	gfileGetFilesize, %function
 335              	gfileGetFilesize:
 336              	.LFB123:
 337              		.loc 1 168 0
 338              		.cfi_startproc
 339              		@ args = 0, pretend = 0, frame = 0
 340              		@ frame_needed = 0, uses_anonymous_args = 0
 341              	.LVL20:
 342 0000 08B5     		push	{r3, lr}
 343              	.LCFI2:
 344              		.cfi_def_cfa_offset 8
 345              		.cfi_offset 3, -8
 346              		.cfi_offset 14, -4
 347              		.loc 1 182 0
 348 0002 044B     		ldr	r3, .L58
 349              		.loc 1 183 0
 350 0004 1968     		ldr	r1, [r3, #0]
 351 0006 CA68     		ldr	r2, [r1, #12]
 352 0008 0AB1     		cbz	r2, .L57
 353 000a 9047     		blx	r2
 354              	.LVL21:
 355 000c 08BD     		pop	{r3, pc}
 356              	.LVL22:
 357              	.L57:
 358              		.loc 1 186 0
 359 000e 4FF0FF30 		mov	r0, #-1
 360              	.LVL23:
 361              		.loc 1 187 0
 362 0012 08BD     		pop	{r3, pc}
 363              	.L59:
 364              		.align	2
 365              	.L58:
 366 0014 00000000 		.word	.LANCHOR1
 367              		.cfi_endproc
 368              	.LFE123:
 369              		.size	gfileGetFilesize, .-gfileGetFilesize
 370 0018 AFF30080 		.section	.text.gfileRename,"ax",%progbits
 370      AFF30080 
 371              		.align	2
 372              		.p2align 4,,15
 373              		.global	gfileRename
 374              		.thumb
 375              		.thumb_func
 376              		.type	gfileRename, %function
 377              	gfileRename:
 378              	.LFB124:
 379              		.loc 1 189 0
 380              		.cfi_startproc
 381              		@ args = 0, pretend = 0, frame = 0
 382              		@ frame_needed = 0, uses_anonymous_args = 0
 383              	.LVL24:
 384 0000 08B5     		push	{r3, lr}
 385              	.LCFI3:
 386              		.cfi_def_cfa_offset 8
 387              		.cfi_offset 3, -8
 388              		.cfi_offset 14, -4
ARM GAS  C:\Users\Elis\AppData\Local\Temp\ccHBMfae.s 			page 8


 389              		.loc 1 217 0
 390 0002 044B     		ldr	r3, .L63
 391              		.loc 1 218 0
 392 0004 1A68     		ldr	r2, [r3, #0]
 393 0006 1369     		ldr	r3, [r2, #16]
 394 0008 0BB1     		cbz	r3, .L62
 395 000a 9847     		blx	r3
 396              	.LVL25:
 397 000c 08BD     		pop	{r3, pc}
 398              	.LVL26:
 399              	.L62:
 400              		.loc 1 221 0
 401 000e 1846     		mov	r0, r3
 402              	.LVL27:
 403              		.loc 1 222 0
 404 0010 08BD     		pop	{r3, pc}
 405              	.L64:
 406 0012 00BF     		.align	2
 407              	.L63:
 408 0014 00000000 		.word	.LANCHOR1
 409              		.cfi_endproc
 410              	.LFE124:
 411              		.size	gfileRename, .-gfileRename
 412 0018 AFF30080 		.section	.text.gfileOpen,"ax",%progbits
 412      AFF30080 
 413              		.align	2
 414              		.p2align 4,,15
 415              		.global	gfileOpen
 416              		.thumb
 417              		.thumb_func
 418              		.type	gfileOpen, %function
 419              	gfileOpen:
 420              	.LFB126:
 421              		.loc 1 242 0
 422              		.cfi_startproc
 423              		@ args = 0, pretend = 0, frame = 0
 424              		@ frame_needed = 0, uses_anonymous_args = 0
 425              	.LVL28:
 426 0000 70B5     		push	{r4, r5, r6, lr}
 427              	.LCFI4:
 428              		.cfi_def_cfa_offset 16
 429              		.cfi_offset 4, -16
 430              		.cfi_offset 5, -12
 431              		.cfi_offset 6, -8
 432              		.cfi_offset 14, -4
 433              		.loc 1 242 0
 434 0002 0646     		mov	r6, r0
 435              		.loc 1 247 0
 436 0004 0846     		mov	r0, r1
 437              	.LVL29:
 438 0006 FFF7FEFF 		bl	_gfileFindSlot
 439              	.LVL30:
 440 000a 0446     		mov	r4, r0
 441 000c 08B3     		cbz	r0, .L76
 442              	.LVL31:
 443              	.LBB4:
 444              		.loc 1 226 0 discriminator 1
ARM GAS  C:\Users\Elis\AppData\Local\Temp\ccHBMfae.s 			page 9


 445 000e 8388     		ldrh	r3, [r0, #4]
 446              	.LBE4:
 447              		.loc 1 263 0 discriminator 1
 448 0010 114A     		ldr	r2, .L90
 449              	.LBB9:
 450              	.LBB5:
 451              		.loc 1 226 0 discriminator 1
 452 0012 03F00400 		and	r0, r3, #4
 453              	.LVL32:
 454 0016 81B2     		uxth	r1, r0
 455              	.LBE5:
 456              	.LBE9:
 457              		.loc 1 263 0 discriminator 1
 458 0018 1568     		ldr	r5, [r2, #0]
 459              	.LVL33:
 460              	.LBB10:
 461              	.LBB6:
 462              		.loc 1 226 0 discriminator 1
 463 001a B1B9     		cbnz	r1, .L89
 464              	.L67:
 465              		.loc 1 230 0
 466 001c 6A69     		ldr	r2, [r5, #20]
 467 001e BAB1     		cbz	r2, .L68
 468 0020 2046     		mov	r0, r4
 469 0022 3146     		mov	r1, r6
 470 0024 9047     		blx	r2
 471              	.LVL34:
 472 0026 98B1     		cbz	r0, .L68
 473              		.loc 1 236 0
 474 0028 A088     		ldrh	r0, [r4, #4]
 475              		.loc 1 234 0
 476 002a 2560     		str	r5, [r4, #0]
 477              		.loc 1 236 0
 478 002c 40F00103 		orr	r3, r0, #1
 479              		.loc 1 235 0
 480 0030 0021     		movs	r1, #0
 481 0032 E160     		str	r1, [r4, #12]
 482              		.loc 1 236 0
 483 0034 A380     		strh	r3, [r4, #4]	@ movhi
 484              	.LBE6:
 485              		.loc 1 237 0
 486 0036 2A78     		ldrb	r2, [r5, #0]	@ zero_extendqisi2
 487              	.LBB7:
 488 0038 02F00403 		and	r3, r2, #4
 489 003c D9B2     		uxtb	r1, r3
 490 003e 41B1     		cbz	r1, .L76
 491              		.loc 1 238 0
 492 0040 40F04100 		orr	r0, r0, #65
 493 0044 A080     		strh	r0, [r4, #4]	@ movhi
 494              	.LBE7:
 495              	.LBE10:
 496              		.loc 1 269 0
 497 0046 2046     		mov	r0, r4
 498 0048 70BD     		pop	{r4, r5, r6, pc}
 499              	.L89:
 500              	.LBB11:
 501              		.loc 1 226 0
ARM GAS  C:\Users\Elis\AppData\Local\Temp\ccHBMfae.s 			page 10


 502 004a 2B78     		ldrb	r3, [r5, #0]	@ zero_extendqisi2
 503              	.LBB8:
 504 004c DB07     		lsls	r3, r3, #31
 505 004e E5D4     		bmi	.L67
 506              	.L68:
 507              	.LBE8:
 508              	.LBE11:
 509              		.loc 1 268 0
 510 0050 0024     		movs	r4, #0
 511              	.LVL35:
 512              	.L76:
 513              		.loc 1 269 0
 514 0052 2046     		mov	r0, r4
 515 0054 70BD     		pop	{r4, r5, r6, pc}
 516              	.L91:
 517 0056 00BF     		.align	2
 518              	.L90:
 519 0058 00000000 		.word	.LANCHOR1
 520              		.cfi_endproc
 521              	.LFE126:
 522              		.size	gfileOpen, .-gfileOpen
 523 005c AFF30080 		.section	.text.gfileClose,"ax",%progbits
 524              		.align	2
 525              		.p2align 4,,15
 526              		.global	gfileClose
 527              		.thumb
 528              		.thumb_func
 529              		.type	gfileClose, %function
 530              	gfileClose:
 531              	.LFB127:
 532              		.loc 1 271 0
 533              		.cfi_startproc
 534              		@ args = 0, pretend = 0, frame = 0
 535              		@ frame_needed = 0, uses_anonymous_args = 0
 536              	.LVL36:
 537 0000 10B5     		push	{r4, lr}
 538              	.LCFI5:
 539              		.cfi_def_cfa_offset 8
 540              		.cfi_offset 4, -8
 541              		.cfi_offset 14, -4
 542              		.loc 1 272 0
 543 0002 0446     		mov	r4, r0
 544 0004 40B1     		cbz	r0, .L92
 545              		.loc 1 272 0 is_stmt 0 discriminator 1
 546 0006 8388     		ldrh	r3, [r0, #4]
 547 0008 DB07     		lsls	r3, r3, #31
 548 000a 05D5     		bpl	.L92
 549              		.loc 1 274 0 is_stmt 1
 550 000c 0168     		ldr	r1, [r0, #0]
 551 000e 8A69     		ldr	r2, [r1, #24]
 552 0010 02B1     		cbz	r2, .L94
 553              		.loc 1 275 0
 554 0012 9047     		blx	r2
 555              	.LVL37:
 556              	.L94:
 557              		.loc 1 276 0
 558 0014 0020     		movs	r0, #0
ARM GAS  C:\Users\Elis\AppData\Local\Temp\ccHBMfae.s 			page 11


 559 0016 A080     		strh	r0, [r4, #4]	@ movhi
 560              	.L92:
 561 0018 10BD     		pop	{r4, pc}
 562              		.cfi_endproc
 563              	.LFE127:
 564              		.size	gfileClose, .-gfileClose
 565 001a 00BFAFF3 		.section	.text.gfileRead,"ax",%progbits
 565      0080
 566              		.align	2
 567              		.p2align 4,,15
 568              		.global	gfileRead
 569              		.thumb
 570              		.thumb_func
 571              		.type	gfileRead, %function
 572              	gfileRead:
 573              	.LFB128:
 574              		.loc 1 279 0
 575              		.cfi_startproc
 576              		@ args = 0, pretend = 0, frame = 0
 577              		@ frame_needed = 0, uses_anonymous_args = 0
 578              	.LVL38:
 579 0000 10B5     		push	{r4, lr}
 580              	.LCFI6:
 581              		.cfi_def_cfa_offset 8
 582              		.cfi_offset 4, -8
 583              		.cfi_offset 14, -4
 584              		.loc 1 282 0
 585 0002 0446     		mov	r4, r0
 586 0004 20B1     		cbz	r0, .L107
 587              		.loc 1 282 0 is_stmt 0 discriminator 1
 588 0006 8388     		ldrh	r3, [r0, #4]
 589 0008 03F00303 		and	r3, r3, #3
 590 000c 032B     		cmp	r3, #3
 591 000e 01D0     		beq	.L114
 592              	.LVL39:
 593              	.L107:
 594              		.loc 1 283 0 is_stmt 1
 595 0010 0020     		movs	r0, #0
 596 0012 10BD     		pop	{r4, pc}
 597              	.LVL40:
 598              	.L114:
 599              		.loc 1 284 0
 600 0014 0368     		ldr	r3, [r0, #0]
 601 0016 DB69     		ldr	r3, [r3, #28]
 602 0018 002B     		cmp	r3, #0
 603 001a F9D0     		beq	.L107
 604              		.loc 1 286 0
 605 001c 9847     		blx	r3
 606              	.LVL41:
 607 001e 0028     		cmp	r0, #0
 608 0020 F6D0     		beq	.L107
 609              		.loc 1 288 0
 610 0022 E168     		ldr	r1, [r4, #12]
 611 0024 0A18     		adds	r2, r1, r0
 612 0026 E260     		str	r2, [r4, #12]
 613              		.loc 1 290 0
 614 0028 10BD     		pop	{r4, pc}
ARM GAS  C:\Users\Elis\AppData\Local\Temp\ccHBMfae.s 			page 12


 615              		.cfi_endproc
 616              	.LFE128:
 617              		.size	gfileRead, .-gfileRead
 618 002a 00BFAFF3 		.section	.text.gfileWrite,"ax",%progbits
 618      0080
 619              		.align	2
 620              		.p2align 4,,15
 621              		.global	gfileWrite
 622              		.thumb
 623              		.thumb_func
 624              		.type	gfileWrite, %function
 625              	gfileWrite:
 626              	.LFB129:
 627              		.loc 1 292 0
 628              		.cfi_startproc
 629              		@ args = 0, pretend = 0, frame = 0
 630              		@ frame_needed = 0, uses_anonymous_args = 0
 631              	.LVL42:
 632 0000 10B5     		push	{r4, lr}
 633              	.LCFI7:
 634              		.cfi_def_cfa_offset 8
 635              		.cfi_offset 4, -8
 636              		.cfi_offset 14, -4
 637              		.loc 1 295 0
 638 0002 0446     		mov	r4, r0
 639 0004 20B1     		cbz	r0, .L118
 640              		.loc 1 295 0 is_stmt 0 discriminator 1
 641 0006 8388     		ldrh	r3, [r0, #4]
 642 0008 03F00503 		and	r3, r3, #5
 643 000c 052B     		cmp	r3, #5
 644 000e 01D0     		beq	.L125
 645              	.LVL43:
 646              	.L118:
 647              		.loc 1 296 0 is_stmt 1
 648 0010 0020     		movs	r0, #0
 649 0012 10BD     		pop	{r4, pc}
 650              	.LVL44:
 651              	.L125:
 652              		.loc 1 297 0
 653 0014 0368     		ldr	r3, [r0, #0]
 654 0016 1B6A     		ldr	r3, [r3, #32]
 655 0018 002B     		cmp	r3, #0
 656 001a F9D0     		beq	.L118
 657              		.loc 1 299 0
 658 001c 9847     		blx	r3
 659              	.LVL45:
 660 001e 0028     		cmp	r0, #0
 661 0020 F6D0     		beq	.L118
 662              		.loc 1 301 0
 663 0022 E168     		ldr	r1, [r4, #12]
 664 0024 0A18     		adds	r2, r1, r0
 665 0026 E260     		str	r2, [r4, #12]
 666              		.loc 1 303 0
 667 0028 10BD     		pop	{r4, pc}
 668              		.cfi_endproc
 669              	.LFE129:
 670              		.size	gfileWrite, .-gfileWrite
ARM GAS  C:\Users\Elis\AppData\Local\Temp\ccHBMfae.s 			page 13


 671 002a 00BFAFF3 		.section	.text.gfileGetPos,"ax",%progbits
 671      0080
 672              		.align	2
 673              		.p2align 4,,15
 674              		.global	gfileGetPos
 675              		.thumb
 676              		.thumb_func
 677              		.type	gfileGetPos, %function
 678              	gfileGetPos:
 679              	.LFB130:
 680              		.loc 1 305 0
 681              		.cfi_startproc
 682              		@ args = 0, pretend = 0, frame = 0
 683              		@ frame_needed = 0, uses_anonymous_args = 0
 684              		@ link register save eliminated.
 685              	.LVL46:
 686              		.loc 1 306 0
 687 0000 30B1     		cbz	r0, .L127
 688              		.loc 1 306 0 is_stmt 0 discriminator 1
 689 0002 8388     		ldrh	r3, [r0, #4]
 690 0004 13F00101 		ands	r1, r3, #1
 691 0008 01D0     		beq	.L129
 692              		.loc 1 308 0 is_stmt 1
 693 000a C068     		ldr	r0, [r0, #12]
 694              	.LVL47:
 695 000c 7047     		bx	lr
 696              	.LVL48:
 697              	.L129:
 698              		.loc 1 307 0
 699 000e 0846     		mov	r0, r1
 700              	.LVL49:
 701              	.L127:
 702              		.loc 1 309 0
 703 0010 7047     		bx	lr
 704              		.cfi_endproc
 705              	.LFE130:
 706              		.size	gfileGetPos, .-gfileGetPos
 707 0012 00BFAFF3 		.section	.text.gfileSetPos,"ax",%progbits
 707      0080AFF3 
 707      0080AFF3 
 707      0080
 708              		.align	2
 709              		.p2align 4,,15
 710              		.global	gfileSetPos
 711              		.thumb
 712              		.thumb_func
 713              		.type	gfileSetPos, %function
 714              	gfileSetPos:
 715              	.LFB131:
 716              		.loc 1 311 0
 717              		.cfi_startproc
 718              		@ args = 0, pretend = 0, frame = 0
 719              		@ frame_needed = 0, uses_anonymous_args = 0
 720              	.LVL50:
 721 0000 38B5     		push	{r3, r4, r5, lr}
 722              	.LCFI8:
 723              		.cfi_def_cfa_offset 16
ARM GAS  C:\Users\Elis\AppData\Local\Temp\ccHBMfae.s 			page 14


 724              		.cfi_offset 3, -16
 725              		.cfi_offset 4, -12
 726              		.cfi_offset 5, -8
 727              		.cfi_offset 14, -4
 728              		.loc 1 311 0
 729 0002 0D46     		mov	r5, r1
 730              		.loc 1 312 0
 731 0004 0446     		mov	r4, r0
 732 0006 50B1     		cbz	r0, .L133
 733              		.loc 1 312 0 is_stmt 0 discriminator 1
 734 0008 8388     		ldrh	r3, [r0, #4]
 735 000a DB07     		lsls	r3, r3, #31
 736 000c 07D5     		bpl	.L133
 737              		.loc 1 314 0 is_stmt 1
 738 000e 0268     		ldr	r2, [r0, #0]
 739 0010 536A     		ldr	r3, [r2, #36]
 740 0012 23B1     		cbz	r3, .L133
 741              		.loc 1 314 0 is_stmt 0 discriminator 1
 742 0014 9847     		blx	r3
 743              	.LVL51:
 744 0016 10B1     		cbz	r0, .L133
 745              		.loc 1 316 0 is_stmt 1
 746 0018 E560     		str	r5, [r4, #12]
 747              		.loc 1 317 0
 748 001a 0120     		movs	r0, #1
 749              		.loc 1 318 0
 750 001c 38BD     		pop	{r3, r4, r5, pc}
 751              	.L133:
 752              		.loc 1 313 0
 753 001e 0020     		movs	r0, #0
 754 0020 38BD     		pop	{r3, r4, r5, pc}
 755              		.cfi_endproc
 756              	.LFE131:
 757              		.size	gfileSetPos, .-gfileSetPos
 758 0022 00BFAFF3 		.section	.text.gfileGetSize,"ax",%progbits
 758      0080AFF3 
 758      0080AFF3 
 758      0080
 759              		.align	2
 760              		.p2align 4,,15
 761              		.global	gfileGetSize
 762              		.thumb
 763              		.thumb_func
 764              		.type	gfileGetSize, %function
 765              	gfileGetSize:
 766              	.LFB132:
 767              		.loc 1 320 0
 768              		.cfi_startproc
 769              		@ args = 0, pretend = 0, frame = 0
 770              		@ frame_needed = 0, uses_anonymous_args = 0
 771              	.LVL52:
 772 0000 08B5     		push	{r3, lr}
 773              	.LCFI9:
 774              		.cfi_def_cfa_offset 8
 775              		.cfi_offset 3, -8
 776              		.cfi_offset 14, -4
 777              		.loc 1 321 0
ARM GAS  C:\Users\Elis\AppData\Local\Temp\ccHBMfae.s 			page 15


 778 0002 0246     		mov	r2, r0
 779 0004 40B1     		cbz	r0, .L147
 780              		.loc 1 321 0 is_stmt 0 discriminator 1
 781 0006 8388     		ldrh	r3, [r0, #4]
 782 0008 13F00101 		ands	r1, r3, #1
 783 000c 06D0     		beq	.L146
 784              		.loc 1 323 0 is_stmt 1
 785 000e 0268     		ldr	r2, [r0, #0]
 786 0010 926A     		ldr	r2, [r2, #40]
 787 0012 0AB1     		cbz	r2, .L147
 788              		.loc 1 325 0
 789 0014 9047     		blx	r2
 790              	.LVL53:
 791 0016 08BD     		pop	{r3, pc}
 792              	.LVL54:
 793              	.L147:
 794              		.loc 1 322 0
 795 0018 1046     		mov	r0, r2
 796              	.LVL55:
 797              		.loc 1 326 0
 798 001a 08BD     		pop	{r3, pc}
 799              	.LVL56:
 800              	.L146:
 801              		.loc 1 322 0
 802 001c 0846     		mov	r0, r1
 803              	.LVL57:
 804 001e 08BD     		pop	{r3, pc}
 805              		.cfi_endproc
 806              	.LFE132:
 807              		.size	gfileGetSize, .-gfileGetSize
 808              		.section	.text.gfileEOF,"ax",%progbits
 809              		.align	2
 810              		.p2align 4,,15
 811              		.global	gfileEOF
 812              		.thumb
 813              		.thumb_func
 814              		.type	gfileEOF, %function
 815              	gfileEOF:
 816              	.LFB133:
 817              		.loc 1 328 0
 818              		.cfi_startproc
 819              		@ args = 0, pretend = 0, frame = 0
 820              		@ frame_needed = 0, uses_anonymous_args = 0
 821              	.LVL58:
 822 0000 08B5     		push	{r3, lr}
 823              	.LCFI10:
 824              		.cfi_def_cfa_offset 8
 825              		.cfi_offset 3, -8
 826              		.cfi_offset 14, -4
 827              		.loc 1 329 0
 828 0002 38B1     		cbz	r0, .L151
 829              		.loc 1 329 0 is_stmt 0 discriminator 1
 830 0004 8288     		ldrh	r2, [r0, #4]
 831 0006 D207     		lsls	r2, r2, #31
 832 0008 04D5     		bpl	.L151
 833              		.loc 1 331 0 is_stmt 1
 834 000a 0168     		ldr	r1, [r0, #0]
ARM GAS  C:\Users\Elis\AppData\Local\Temp\ccHBMfae.s 			page 16


 835 000c CB6A     		ldr	r3, [r1, #44]
 836 000e 1BB1     		cbz	r3, .L152
 837              		.loc 1 333 0
 838 0010 9847     		blx	r3
 839              	.LVL59:
 840 0012 08BD     		pop	{r3, pc}
 841              	.LVL60:
 842              	.L151:
 843              		.loc 1 330 0
 844 0014 0120     		movs	r0, #1
 845              	.LVL61:
 846 0016 08BD     		pop	{r3, pc}
 847              	.LVL62:
 848              	.L152:
 849              		.loc 1 332 0
 850 0018 1846     		mov	r0, r3
 851              	.LVL63:
 852              		.loc 1 334 0
 853 001a 08BD     		pop	{r3, pc}
 854              		.cfi_endproc
 855              	.LFE133:
 856              		.size	gfileEOF, .-gfileEOF
 857 001c AFF30080 		.section	.text.gfileMount,"ax",%progbits
 858              		.align	2
 859              		.p2align 4,,15
 860              		.global	gfileMount
 861              		.thumb
 862              		.thumb_func
 863              		.type	gfileMount, %function
 864              	gfileMount:
 865              	.LFB134:
 866              		.loc 1 336 0
 867              		.cfi_startproc
 868              		@ args = 0, pretend = 0, frame = 0
 869              		@ frame_needed = 0, uses_anonymous_args = 0
 870              	.LVL64:
 871 0000 08B5     		push	{r3, lr}
 872              	.LCFI11:
 873              		.cfi_def_cfa_offset 8
 874              		.cfi_offset 3, -8
 875              		.cfi_offset 14, -4
 876              		.loc 1 340 0
 877 0002 074B     		ldr	r3, .L158
 878              		.loc 1 341 0
 879 0004 1B68     		ldr	r3, [r3, #0]
 880 0006 5A78     		ldrb	r2, [r3, #1]	@ zero_extendqisi2
 881 0008 8242     		cmp	r2, r0
 882 000a 01D0     		beq	.L157
 883              		.loc 1 347 0
 884 000c 0020     		movs	r0, #0
 885              	.LVL65:
 886 000e 08BD     		pop	{r3, pc}
 887              	.LVL66:
 888              	.L157:
 889              		.loc 1 342 0
 890 0010 1B6B     		ldr	r3, [r3, #48]
 891 0012 13B1     		cbz	r3, .L156
ARM GAS  C:\Users\Elis\AppData\Local\Temp\ccHBMfae.s 			page 17


 892              		.loc 1 344 0
 893 0014 0846     		mov	r0, r1
 894              	.LVL67:
 895 0016 9847     		blx	r3
 896              	.LVL68:
 897 0018 08BD     		pop	{r3, pc}
 898              	.LVL69:
 899              	.L156:
 900              		.loc 1 347 0
 901 001a 1846     		mov	r0, r3
 902              	.LVL70:
 903              		.loc 1 348 0
 904 001c 08BD     		pop	{r3, pc}
 905              	.L159:
 906 001e 00BF     		.align	2
 907              	.L158:
 908 0020 00000000 		.word	.LANCHOR1
 909              		.cfi_endproc
 910              	.LFE134:
 911              		.size	gfileMount, .-gfileMount
 912 0024 AFF30080 		.section	.text.gfileUnmount,"ax",%progbits
 912      AFF30080 
 912      AFF30080 
 913              		.align	2
 914              		.p2align 4,,15
 915              		.global	gfileUnmount
 916              		.thumb
 917              		.thumb_func
 918              		.type	gfileUnmount, %function
 919              	gfileUnmount:
 920              	.LFB135:
 921              		.loc 1 350 0
 922              		.cfi_startproc
 923              		@ args = 0, pretend = 0, frame = 0
 924              		@ frame_needed = 0, uses_anonymous_args = 0
 925              	.LVL71:
 926 0000 08B5     		push	{r3, lr}
 927              	.LCFI12:
 928              		.cfi_def_cfa_offset 8
 929              		.cfi_offset 3, -8
 930              		.cfi_offset 14, -4
 931              		.loc 1 354 0
 932 0002 074B     		ldr	r3, .L165
 933              		.loc 1 355 0
 934 0004 1B68     		ldr	r3, [r3, #0]
 935 0006 5A78     		ldrb	r2, [r3, #1]	@ zero_extendqisi2
 936 0008 8242     		cmp	r2, r0
 937 000a 01D0     		beq	.L164
 938              		.loc 1 361 0
 939 000c 0020     		movs	r0, #0
 940              	.LVL72:
 941              	.L161:
 942              		.loc 1 362 0
 943 000e 08BD     		pop	{r3, pc}
 944              	.LVL73:
 945              	.L164:
 946              		.loc 1 356 0
ARM GAS  C:\Users\Elis\AppData\Local\Temp\ccHBMfae.s 			page 18


 947 0010 186B     		ldr	r0, [r3, #48]
 948              	.LVL74:
 949 0012 0028     		cmp	r0, #0
 950 0014 FBD0     		beq	.L161
 951              		.loc 1 358 0
 952 0016 5B6B     		ldr	r3, [r3, #52]
 953 0018 0846     		mov	r0, r1
 954 001a 9847     		blx	r3
 955              	.LVL75:
 956 001c 08BD     		pop	{r3, pc}
 957              	.L166:
 958 001e 00BF     		.align	2
 959              	.L165:
 960 0020 00000000 		.word	.LANCHOR1
 961              		.cfi_endproc
 962              	.LFE135:
 963              		.size	gfileUnmount, .-gfileUnmount
 964 0024 AFF30080 		.section	.text.gfileSync,"ax",%progbits
 964      AFF30080 
 964      AFF30080 
 965              		.align	2
 966              		.p2align 4,,15
 967              		.global	gfileSync
 968              		.thumb
 969              		.thumb_func
 970              		.type	gfileSync, %function
 971              	gfileSync:
 972              	.LFB136:
 973              		.loc 1 364 0
 974              		.cfi_startproc
 975              		@ args = 0, pretend = 0, frame = 0
 976              		@ frame_needed = 0, uses_anonymous_args = 0
 977              	.LVL76:
 978 0000 08B5     		push	{r3, lr}
 979              	.LCFI13:
 980              		.cfi_def_cfa_offset 8
 981              		.cfi_offset 3, -8
 982              		.cfi_offset 14, -4
 983              		.loc 1 365 0
 984 0002 0368     		ldr	r3, [r0, #0]
 985 0004 996B     		ldr	r1, [r3, #56]
 986 0006 09B1     		cbz	r1, .L169
 987              		.loc 1 367 0
 988 0008 8847     		blx	r1
 989              	.LVL77:
 990 000a 08BD     		pop	{r3, pc}
 991              	.LVL78:
 992              	.L169:
 993              		.loc 1 366 0
 994 000c 0846     		mov	r0, r1
 995              	.LVL79:
 996              		.loc 1 368 0
 997 000e 08BD     		pop	{r3, pc}
 998              		.cfi_endproc
 999              	.LFE136:
 1000              		.size	gfileSync, .-gfileSync
 1001              		.section	.text.gfileOpenFileList,"ax",%progbits
ARM GAS  C:\Users\Elis\AppData\Local\Temp\ccHBMfae.s 			page 19


 1002              		.align	2
 1003              		.p2align 4,,15
 1004              		.global	gfileOpenFileList
 1005              		.thumb
 1006              		.thumb_func
 1007              		.type	gfileOpenFileList, %function
 1008              	gfileOpenFileList:
 1009              	.LFB137:
 1010              		.loc 1 371 0
 1011              		.cfi_startproc
 1012              		@ args = 0, pretend = 0, frame = 8
 1013              		@ frame_needed = 0, uses_anonymous_args = 0
 1014              	.LVL80:
 1015 0000 30B5     		push	{r4, r5, lr}
 1016              	.LCFI14:
 1017              		.cfi_def_cfa_offset 12
 1018              		.cfi_offset 4, -12
 1019              		.cfi_offset 5, -8
 1020              		.cfi_offset 14, -4
 1021              		.loc 1 376 0
 1022 0002 0B4C     		ldr	r4, .L180
 1023              		.loc 1 377 0
 1024 0004 2368     		ldr	r3, [r4, #0]
 1025 0006 5D78     		ldrb	r5, [r3, #1]	@ zero_extendqisi2
 1026 0008 8542     		cmp	r5, r0
 1027              		.loc 1 371 0
 1028 000a 83B0     		sub	sp, sp, #12
 1029              	.LCFI15:
 1030              		.cfi_def_cfa_offset 24
 1031              		.loc 1 377 0
 1032 000c 02D0     		beq	.L171
 1033              	.LVL81:
 1034              	.L173:
 1035              		.loc 1 388 0
 1036 000e 0020     		movs	r0, #0
 1037              	.L172:
 1038              		.loc 1 389 0
 1039 0010 03B0     		add	sp, sp, #12
 1040 0012 30BD     		pop	{r4, r5, pc}
 1041              	.LVL82:
 1042              	.L171:
 1043              		.loc 1 378 0
 1044 0014 DB6B     		ldr	r3, [r3, #60]
 1045 0016 002B     		cmp	r3, #0
 1046 0018 F9D0     		beq	.L173
 1047              		.loc 1 380 0
 1048 001a 0846     		mov	r0, r1
 1049              	.LVL83:
 1050 001c 0192     		str	r2, [sp, #4]
 1051 001e 1146     		mov	r1, r2
 1052              	.LVL84:
 1053 0020 9847     		blx	r3
 1054              	.LVL85:
 1055              		.loc 1 381 0
 1056 0022 019A     		ldr	r2, [sp, #4]
 1057 0024 0028     		cmp	r0, #0
 1058 0026 F2D0     		beq	.L173
ARM GAS  C:\Users\Elis\AppData\Local\Temp\ccHBMfae.s 			page 20


 1059              		.loc 1 382 0
 1060 0028 2168     		ldr	r1, [r4, #0]
 1061              		.loc 1 383 0
 1062 002a 0271     		strb	r2, [r0, #4]
 1063              		.loc 1 382 0
 1064 002c 0160     		str	r1, [r0, #0]
 1065 002e EFE7     		b	.L172
 1066              	.L181:
 1067              		.align	2
 1068              	.L180:
 1069 0030 00000000 		.word	.LANCHOR1
 1070              		.cfi_endproc
 1071              	.LFE137:
 1072              		.size	gfileOpenFileList, .-gfileOpenFileList
 1073 0034 AFF30080 		.section	.text.gfileReadFileList,"ax",%progbits
 1073      AFF30080 
 1073      AFF30080 
 1074              		.align	2
 1075              		.p2align 4,,15
 1076              		.global	gfileReadFileList
 1077              		.thumb
 1078              		.thumb_func
 1079              		.type	gfileReadFileList, %function
 1080              	gfileReadFileList:
 1081              	.LFB138:
 1082              		.loc 1 391 0
 1083              		.cfi_startproc
 1084              		@ args = 0, pretend = 0, frame = 0
 1085              		@ frame_needed = 0, uses_anonymous_args = 0
 1086              	.LVL86:
 1087 0000 08B5     		push	{r3, lr}
 1088              	.LCFI16:
 1089              		.cfi_def_cfa_offset 8
 1090              		.cfi_offset 3, -8
 1091              		.cfi_offset 14, -4
 1092              		.loc 1 392 0
 1093 0002 0368     		ldr	r3, [r0, #0]
 1094 0004 196C     		ldr	r1, [r3, #64]
 1095 0006 09B1     		cbz	r1, .L184
 1096              		.loc 1 392 0 is_stmt 0 discriminator 1
 1097 0008 8847     		blx	r1
 1098              	.LVL87:
 1099 000a 08BD     		pop	{r3, pc}
 1100              	.LVL88:
 1101              	.L184:
 1102              		.loc 1 392 0
 1103 000c 0846     		mov	r0, r1
 1104              	.LVL89:
 1105              		.loc 1 393 0 is_stmt 1
 1106 000e 08BD     		pop	{r3, pc}
 1107              		.cfi_endproc
 1108              	.LFE138:
 1109              		.size	gfileReadFileList, .-gfileReadFileList
 1110              		.section	.text.gfileCloseFileList,"ax",%progbits
 1111              		.align	2
 1112              		.p2align 4,,15
 1113              		.global	gfileCloseFileList
ARM GAS  C:\Users\Elis\AppData\Local\Temp\ccHBMfae.s 			page 21


 1114              		.thumb
 1115              		.thumb_func
 1116              		.type	gfileCloseFileList, %function
 1117              	gfileCloseFileList:
 1118              	.LFB139:
 1119              		.loc 1 395 0
 1120              		.cfi_startproc
 1121              		@ args = 0, pretend = 0, frame = 0
 1122              		@ frame_needed = 0, uses_anonymous_args = 0
 1123              	.LVL90:
 1124 0000 08B5     		push	{r3, lr}
 1125              	.LCFI17:
 1126              		.cfi_def_cfa_offset 8
 1127              		.cfi_offset 3, -8
 1128              		.cfi_offset 14, -4
 1129              		.loc 1 396 0
 1130 0002 0368     		ldr	r3, [r0, #0]
 1131 0004 596C     		ldr	r1, [r3, #68]
 1132 0006 01B1     		cbz	r1, .L185
 1133              		.loc 1 397 0
 1134 0008 8847     		blx	r1
 1135              	.LVL91:
 1136              	.L185:
 1137 000a 08BD     		pop	{r3, pc}
 1138              		.cfi_endproc
 1139              	.LFE139:
 1140              		.size	gfileCloseFileList, .-gfileCloseFileList
 1141              		.global	gfileStdErr
 1142              		.global	gfileStdOut
 1143              		.global	gfileStdIn
 1144 000c AFF30080 		.section	.data.FsArray,"aw",%progbits
 1145              		.align	2
 1146              		.set	.LANCHOR1,. + 0
 1147              		.type	FsArray, %object
 1148              		.size	FsArray, 4
 1149              	FsArray:
 1150 0000 00000000 		.word	FsFatFSVMT
 1151              		.section	.bss.gfileStdOut,"aw",%nobits
 1152              		.align	2
 1153              		.type	gfileStdOut, %object
 1154              		.size	gfileStdOut, 4
 1155              	gfileStdOut:
 1156 0000 00000000 		.space	4
 1157              		.section	.bss.gfileStdIn,"aw",%nobits
 1158              		.align	2
 1159              		.type	gfileStdIn, %object
 1160              		.size	gfileStdIn, 4
 1161              	gfileStdIn:
 1162 0000 00000000 		.space	4
 1163              		.section	.bss.gfileArr,"aw",%nobits
 1164              		.align	2
 1165              		.set	.LANCHOR0,. + 0
 1166              		.type	gfileArr, %object
 1167              		.size	gfileArr, 320
 1168              	gfileArr:
 1169 0000 00000000 		.space	320
 1169      00000000 
ARM GAS  C:\Users\Elis\AppData\Local\Temp\ccHBMfae.s 			page 22


 1169      00000000 
 1169      00000000 
 1169      00000000 
 1170              		.section	.bss.gfileStdErr,"aw",%nobits
 1171              		.align	2
 1172              		.type	gfileStdErr, %object
 1173              		.size	gfileStdErr, 4
 1174              	gfileStdErr:
 1175 0000 00000000 		.space	4
 1176              		.text
 1177              	.Letext0:
 1178              		.file 2 "c:\\chibistudio\\tools\\gnu tools arm embedded\\4.7 2014q2\\bin\\../lib/gcc/arm-none-eabi
 1179              		.file 3 "c:\\chibistudio\\tools\\gnu tools arm embedded\\4.7 2014q2\\bin\\../lib/gcc/arm-none-eabi
 1180              		.file 4 "../../chibios/os/ports/GCC/ARMCMx/chtypes.h"
 1181              		.file 5 "../../ugfx/src/gfile/gfile.h"
 1182              		.file 6 "../../ugfx/src/gfile/gfile_fs.h"
 1183              		.file 7 "../../chibios/os/ports/common/ARMCMx/CMSIS/include/core_cm4.h"