ARM GAS  C:\Users\Elis\AppData\Local\Temp\ccI10hpc.s 			page 1


   1              		.syntax unified
   2              		.cpu cortex-m4
   3              		.fpu softvfp
   4              		.eabi_attribute 20, 1
   5              		.eabi_attribute 21, 1
   6              		.eabi_attribute 23, 3
   7              		.eabi_attribute 24, 1
   8              		.eabi_attribute 25, 1
   9              		.eabi_attribute 26, 1
  10              		.eabi_attribute 30, 2
  11              		.eabi_attribute 34, 1
  12              		.eabi_attribute 18, 4
  13              		.thumb
  14              		.file	"gfile_fatfs_diskio_chibios.c"
  15              		.text
  16              	.Ltext0:
  17              		.cfi_sections	.debug_frame
  18              		.section	.text.disk_initialize,"ax",%progbits
  19              		.align	2
  20              		.p2align 4,,15
  21              		.global	disk_initialize
  22              		.thumb
  23              		.thumb_func
  24              		.type	disk_initialize, %function
  25              	disk_initialize:
  26              	.LFB118:
  27              		.file 1 "../../ugfx/src/gfile/gfile_fatfs_diskio_chibios.c"
  28              		.loc 1 43 0
  29              		.cfi_startproc
  30              		@ args = 0, pretend = 0, frame = 0
  31              		@ frame_needed = 0, uses_anonymous_args = 0
  32              	.LVL0:
  33 0000 10B5     		push	{r4, lr}
  34              	.LCFI0:
  35              		.cfi_def_cfa_offset 8
  36              		.cfi_offset 4, -8
  37              		.cfi_offset 14, -4
  38              		.loc 1 46 0
  39 0002 60B9     		cbnz	r0, .L8
  40              	.LVL1:
  41              		.loc 1 60 0
  42 0004 0748     		ldr	r0, .L10
  43              	.LVL2:
  44 0006 0479     		ldrb	r4, [r0, #4]	@ zero_extendqisi2
  45              		.loc 1 58 0
  46 0008 053C     		subs	r4, r4, #5
  47 000a 18BF     		it	ne
  48 000c 0124     		movne	r4, #1
  49              	.LVL3:
  50              		.loc 1 62 0
  51 000e FFF7FEFF 		bl	sdc_lld_is_write_protected
  52              	.LVL4:
  53 0012 10B1     		cbz	r0, .L2
  54              		.loc 1 63 0
  55 0014 44F00400 		orr	r0, r4, #4
  56 0018 C4B2     		uxtb	r4, r0
  57              	.LVL5:
ARM GAS  C:\Users\Elis\AppData\Local\Temp\ccI10hpc.s 			page 2


  58              	.L2:
  59              		.loc 1 68 0
  60 001a 2046     		mov	r0, r4
  61 001c 10BD     		pop	{r4, pc}
  62              	.LVL6:
  63              	.L8:
  64              		.loc 1 67 0
  65 001e 0224     		movs	r4, #2
  66              		.loc 1 68 0
  67 0020 2046     		mov	r0, r4
  68              	.LVL7:
  69 0022 10BD     		pop	{r4, pc}
  70              	.L11:
  71              		.align	2
  72              	.L10:
  73 0024 00000000 		.word	SDCD1
  74              		.cfi_endproc
  75              	.LFE118:
  76              		.size	disk_initialize, .-disk_initialize
  77 0028 AFF30080 		.section	.text.disk_status,"ax",%progbits
  77      AFF30080 
  78              		.align	2
  79              		.p2align 4,,15
  80              		.global	disk_status
  81              		.thumb
  82              		.thumb_func
  83              		.type	disk_status, %function
  84              	disk_status:
  85              	.LFB119:
  86              		.loc 1 78 0
  87              		.cfi_startproc
  88              		@ args = 0, pretend = 0, frame = 0
  89              		@ frame_needed = 0, uses_anonymous_args = 0
  90              	.LVL8:
  91 0000 10B5     		push	{r4, lr}
  92              	.LCFI1:
  93              		.cfi_def_cfa_offset 8
  94              		.cfi_offset 4, -8
  95              		.cfi_offset 14, -4
  96              		.loc 1 81 0
  97 0002 60B9     		cbnz	r0, .L19
  98              	.LVL9:
  99              		.loc 1 95 0
 100 0004 0748     		ldr	r0, .L20
 101              	.LVL10:
 102 0006 0479     		ldrb	r4, [r0, #4]	@ zero_extendqisi2
 103              		.loc 1 93 0
 104 0008 053C     		subs	r4, r4, #5
 105 000a 18BF     		it	ne
 106 000c 0124     		movne	r4, #1
 107              	.LVL11:
 108              		.loc 1 97 0
 109 000e FFF7FEFF 		bl	sdc_lld_is_write_protected
 110              	.LVL12:
 111 0012 10B1     		cbz	r0, .L13
 112              		.loc 1 98 0
 113 0014 44F00400 		orr	r0, r4, #4
ARM GAS  C:\Users\Elis\AppData\Local\Temp\ccI10hpc.s 			page 3


 114 0018 C4B2     		uxtb	r4, r0
 115              	.LVL13:
 116              	.L13:
 117              		.loc 1 103 0
 118 001a 2046     		mov	r0, r4
 119 001c 10BD     		pop	{r4, pc}
 120              	.LVL14:
 121              	.L19:
 122              		.loc 1 102 0
 123 001e 0224     		movs	r4, #2
 124              		.loc 1 103 0
 125 0020 2046     		mov	r0, r4
 126              	.LVL15:
 127 0022 10BD     		pop	{r4, pc}
 128              	.L21:
 129              		.align	2
 130              	.L20:
 131 0024 00000000 		.word	SDCD1
 132              		.cfi_endproc
 133              	.LFE119:
 134              		.size	disk_status, .-disk_status
 135 0028 AFF30080 		.section	.text.disk_read,"ax",%progbits
 135      AFF30080 
 136              		.align	2
 137              		.p2align 4,,15
 138              		.global	disk_read
 139              		.thumb
 140              		.thumb_func
 141              		.type	disk_read, %function
 142              	disk_read:
 143              	.LFB120:
 144              		.loc 1 116 0
 145              		.cfi_startproc
 146              		@ args = 0, pretend = 0, frame = 0
 147              		@ frame_needed = 0, uses_anonymous_args = 0
 148              		@ link register save eliminated.
 149              	.LVL16:
 150 0000 10B4     		push	{r4}
 151              	.LCFI2:
 152              		.cfi_def_cfa_offset 4
 153              		.cfi_offset 4, -4
 154              		.loc 1 116 0
 155 0002 0C46     		mov	r4, r1
 156              		.loc 1 117 0
 157 0004 28B9     		cbnz	r0, .L27
 158              		.loc 1 135 0
 159 0006 0748     		ldr	r0, .L29
 160              	.LVL17:
 161 0008 0179     		ldrb	r1, [r0, #4]	@ zero_extendqisi2
 162              	.LVL18:
 163 000a 0529     		cmp	r1, #5
 164 000c 04D0     		beq	.L28
 165              		.loc 1 136 0
 166 000e 0320     		movs	r0, #3
 167 0010 00E0     		b	.L23
 168              	.LVL19:
 169              	.L27:
ARM GAS  C:\Users\Elis\AppData\Local\Temp\ccI10hpc.s 			page 4


 170              		.loc 1 142 0
 171 0012 0420     		movs	r0, #4
 172              	.LVL20:
 173              	.L23:
 174              		.loc 1 143 0
 175 0014 10BC     		pop	{r4}
 176 0016 7047     		bx	lr
 177              	.L28:
 178              		.loc 1 137 0
 179 0018 1146     		mov	r1, r2
 180 001a 2246     		mov	r2, r4
 181              	.LVL21:
 182              		.loc 1 143 0
 183 001c 10BC     		pop	{r4}
 184              		.loc 1 137 0
 185 001e FFF7FEBF 		b	sdcRead
 186              	.LVL22:
 187              	.L30:
 188 0022 00BF     		.align	2
 189              	.L29:
 190 0024 00000000 		.word	SDCD1
 191              		.cfi_endproc
 192              	.LFE120:
 193              		.size	disk_read, .-disk_read
 194 0028 AFF30080 		.section	.text.disk_write,"ax",%progbits
 194      AFF30080 
 195              		.align	2
 196              		.p2align 4,,15
 197              		.global	disk_write
 198              		.thumb
 199              		.thumb_func
 200              		.type	disk_write, %function
 201              	disk_write:
 202              	.LFB121:
 203              		.loc 1 157 0
 204              		.cfi_startproc
 205              		@ args = 0, pretend = 0, frame = 0
 206              		@ frame_needed = 0, uses_anonymous_args = 0
 207              		@ link register save eliminated.
 208              	.LVL23:
 209 0000 10B4     		push	{r4}
 210              	.LCFI3:
 211              		.cfi_def_cfa_offset 4
 212              		.cfi_offset 4, -4
 213              		.loc 1 157 0
 214 0002 0C46     		mov	r4, r1
 215              		.loc 1 158 0
 216 0004 28B9     		cbnz	r0, .L36
 217              		.loc 1 178 0
 218 0006 0748     		ldr	r0, .L38
 219              	.LVL24:
 220 0008 0179     		ldrb	r1, [r0, #4]	@ zero_extendqisi2
 221              	.LVL25:
 222 000a 0529     		cmp	r1, #5
 223 000c 04D0     		beq	.L37
 224              		.loc 1 179 0
 225 000e 0320     		movs	r0, #3
ARM GAS  C:\Users\Elis\AppData\Local\Temp\ccI10hpc.s 			page 5


 226 0010 00E0     		b	.L32
 227              	.LVL26:
 228              	.L36:
 229              		.loc 1 185 0
 230 0012 0420     		movs	r0, #4
 231              	.LVL27:
 232              	.L32:
 233              		.loc 1 186 0
 234 0014 10BC     		pop	{r4}
 235 0016 7047     		bx	lr
 236              	.L37:
 237              		.loc 1 180 0
 238 0018 1146     		mov	r1, r2
 239 001a 2246     		mov	r2, r4
 240              	.LVL28:
 241              		.loc 1 186 0
 242 001c 10BC     		pop	{r4}
 243              		.loc 1 180 0
 244 001e FFF7FEBF 		b	sdcWrite
 245              	.LVL29:
 246              	.L39:
 247 0022 00BF     		.align	2
 248              	.L38:
 249 0024 00000000 		.word	SDCD1
 250              		.cfi_endproc
 251              	.LFE121:
 252              		.size	disk_write, .-disk_write
 253 0028 AFF30080 		.section	.text.disk_ioctl,"ax",%progbits
 253      AFF30080 
 254              		.align	2
 255              		.p2align 4,,15
 256              		.global	disk_ioctl
 257              		.thumb
 258              		.thumb_func
 259              		.type	disk_ioctl, %function
 260              	disk_ioctl:
 261              	.LFB122:
 262              		.loc 1 199 0
 263              		.cfi_startproc
 264              		@ args = 0, pretend = 0, frame = 0
 265              		@ frame_needed = 0, uses_anonymous_args = 0
 266              		@ link register save eliminated.
 267              	.LVL30:
 268              		.loc 1 200 0
 269 0000 28B9     		cbnz	r0, .L49
 270              		.loc 1 219 0
 271 0002 0329     		cmp	r1, #3
 272 0004 03D8     		bhi	.L49
 273 0006 DFE801F0 		tbb	[pc, r1]
 274              	.L47:
 275 000a 07       		.byte	(.L51-.L47)/2
 276 000b 09       		.byte	(.L44-.L47)/2
 277 000c 0E       		.byte	(.L45-.L47)/2
 278 000d 04       		.byte	(.L46-.L47)/2
 279              		.align	1
 280              	.L49:
 281              		.loc 1 237 0
ARM GAS  C:\Users\Elis\AppData\Local\Temp\ccI10hpc.s 			page 6


 282 000e 0420     		movs	r0, #4
 283              	.LVL31:
 284              		.loc 1 242 0
 285 0010 7047     		bx	lr
 286              	.LVL32:
 287              	.L46:
 288              		.loc 1 229 0
 289 0012 4FF48073 		mov	r3, #256
 290 0016 1360     		str	r3, [r2, #0]
 291              	.L51:
 292              		.loc 1 230 0
 293 0018 0020     		movs	r0, #0
 294              	.LVL33:
 295 001a 7047     		bx	lr
 296              	.LVL34:
 297              	.L44:
 298              		.loc 1 223 0
 299 001c 0449     		ldr	r1, .L52
 300              	.LVL35:
 301 001e 8B6A     		ldr	r3, [r1, #40]
 302              		.loc 1 224 0
 303 0020 0020     		movs	r0, #0
 304              	.LVL36:
 305              		.loc 1 223 0
 306 0022 1360     		str	r3, [r2, #0]
 307              		.loc 1 224 0
 308 0024 7047     		bx	lr
 309              	.LVL37:
 310              	.L45:
 311              		.loc 1 226 0
 312 0026 4FF40070 		mov	r0, #512
 313              	.LVL38:
 314 002a 1080     		strh	r0, [r2, #0]	@ movhi
 315              		.loc 1 227 0
 316 002c 0020     		movs	r0, #0
 317 002e 7047     		bx	lr
 318              	.L53:
 319              		.align	2
 320              	.L52:
 321 0030 00000000 		.word	SDCD1
 322              		.cfi_endproc
 323              	.LFE122:
 324              		.size	disk_ioctl, .-disk_ioctl
 325 0034 AFF30080 		.section	.text.get_fattime,"ax",%progbits
 325      AFF30080 
 325      AFF30080 
 326              		.align	2
 327              		.p2align 4,,15
 328              		.global	get_fattime
 329              		.thumb
 330              		.thumb_func
 331              		.type	get_fattime, %function
 332              	get_fattime:
 333              	.LFB123:
 334              		.loc 1 244 0
 335              		.cfi_startproc
 336              		@ args = 0, pretend = 0, frame = 0
ARM GAS  C:\Users\Elis\AppData\Local\Temp\ccI10hpc.s 			page 7


 337              		@ frame_needed = 0, uses_anonymous_args = 0
 338              		@ link register save eliminated.
 339              		.loc 1 250 0
 340 0000 4FF40410 		mov	r0, #2162688
 341 0004 7047     		bx	lr
 342              		.cfi_endproc
 343              	.LFE123:
 344              		.size	get_fattime, .-get_fattime
 345 0006 00BFAFF3 		.text
 345      0080AFF3 
 345      0080
 346              	.Letext0:
 347              		.file 2 "c:\\chibistudio\\tools\\gnu tools arm embedded\\4.7 2014q2\\bin\\../lib/gcc/arm-none-eabi
 348              		.file 3 "../../chibios/os/ports/GCC/ARMCMx/chtypes.h"
 349              		.file 4 "../../chibios/os/kernel/include/chlists.h"
 350              		.file 5 "../../chibios/os/kernel/include/chthreads.h"
 351              		.file 6 "../../chibios/os/ports/GCC/ARMCMx/chcore_v7m.h"
 352              		.file 7 "../../chibios/os/kernel/include/chmtx.h"
 353              		.file 8 "../../chibios/os/hal/platforms/STM32F4xx/stm32f4xx.h"
 354              		.file 9 "../../chibios/os/hal/platforms/STM32F4xx/stm32_dma.h"
 355              		.file 10 "../../chibios/os/hal/include/io_block.h"
 356              		.file 11 "../../chibios/os/hal/platforms/STM32/sdc_lld.h"
 357              		.file 12 "../../ugfx/3rdparty/fatfs-0.10b/src/integer.h"
 358              		.file 13 "../../ugfx/3rdparty/fatfs-0.10b/src/diskio.h"
 359              		.file 14 "../../chibios/os/ports/common/ARMCMx/CMSIS/include/core_cm4.h"
 360              		.file 15 "../../chibios/os/hal/include/sdc.h"