ARM GAS  C:\Users\Elis\AppData\Local\Temp\ccSuWDYb.s 			page 1


   1              		.syntax unified
   2              		.cpu cortex-m4
   3              		.fpu softvfp
   4              		.eabi_attribute 20, 1
   5              		.eabi_attribute 21, 1
   6              		.eabi_attribute 23, 3
   7              		.eabi_attribute 24, 1
   8              		.eabi_attribute 25, 1
   9              		.eabi_attribute 26, 1
  10              		.eabi_attribute 30, 2
  11              		.eabi_attribute 34, 1
  12              		.eabi_attribute 18, 4
  13              		.thumb
  14              		.file	"gfile_fatfs_wrapper.c"
  15              		.text
  16              	.Ltext0:
  17              		.cfi_sections	.debug_frame
  18              		.section	.text.get_ldnumber,"ax",%progbits
  19              		.align	2
  20              		.p2align 4,,15
  21              		.thumb
  22              		.thumb_func
  23              		.type	get_ldnumber, %function
  24              	get_ldnumber:
  25              	.LFB147:
  26              		.file 1 "../../ugfx/3rdparty/fatfs-0.10b/src/ff.c"
  27              		.loc 1 2080 0
  28              		.cfi_startproc
  29              		@ args = 0, pretend = 0, frame = 0
  30              		@ frame_needed = 0, uses_anonymous_args = 0
  31              		@ link register save eliminated.
  32              	.LVL0:
  33 0000 F0B4     		push	{r4, r5, r6, r7}
  34              	.LCFI0:
  35              		.cfi_def_cfa_offset 16
  36              		.cfi_offset 4, -16
  37              		.cfi_offset 5, -12
  38              		.cfi_offset 6, -8
  39              		.cfi_offset 7, -4
  40              		.loc 1 2086 0
  41 0002 0468     		ldr	r4, [r0, #0]
  42              		.loc 1 2080 0
  43 0004 0646     		mov	r6, r0
  44              		.loc 1 2086 0
  45 0006 BCB1     		cbz	r4, .L15
  46              	.LVL1:
  47              		.loc 1 2087 0 discriminator 1
  48 0008 2578     		ldrb	r5, [r4, #0]	@ zero_extendqisi2
  49 000a 1F2D     		cmp	r5, #31
  50 000c 0BD9     		bls	.L9
  51              		.loc 1 2087 0 is_stmt 0
  52 000e 3A2D     		cmp	r5, #58
  53 0010 12D0     		beq	.L15
  54              		.loc 1 2077 0 is_stmt 1
  55 0012 671C     		adds	r7, r4, #1
  56 0014 3B46     		mov	r3, r7
  57 0016 01E0     		b	.L3
ARM GAS  C:\Users\Elis\AppData\Local\Temp\ccSuWDYb.s 			page 2


  58              	.LVL2:
  59              	.L18:
  60              		.loc 1 2087 0 discriminator 2
  61 0018 3A2A     		cmp	r2, #58
  62 001a 07D0     		beq	.L17
  63              	.LVL3:
  64              	.L3:
  65              		.loc 1 2087 0 is_stmt 0 discriminator 1
  66 001c 1946     		mov	r1, r3
  67              	.LVL4:
  68 001e 13F8012B 		ldrb	r2, [r3], #1	@ zero_extendqisi2
  69 0022 1F2A     		cmp	r2, #31
  70 0024 F8D8     		bhi	.L18
  71              	.LVL5:
  72              	.L9:
  73              		.loc 1 2122 0 is_stmt 1
  74 0026 0020     		movs	r0, #0
  75              	.LVL6:
  76              	.L14:
  77              		.loc 1 2126 0
  78 0028 F0BC     		pop	{r4, r5, r6, r7}
  79 002a 7047     		bx	lr
  80              	.LVL7:
  81              	.L17:
  82              		.loc 1 2090 0
  83 002c A5F13000 		sub	r0, r5, #48
  84              	.LVL8:
  85              		.loc 1 2091 0
  86 0030 0928     		cmp	r0, #9
  87 0032 01D8     		bhi	.L15
  88              		.loc 1 2091 0 is_stmt 0 discriminator 1
  89 0034 8F42     		cmp	r7, r1
  90 0036 02D0     		beq	.L19
  91              	.LVL9:
  92              	.L15:
  93              		.loc 1 2083 0 is_stmt 1
  94 0038 4FF0FF30 		mov	r0, #-1
  95 003c F4E7     		b	.L14
  96              	.LVL10:
  97              	.L19:
  98              		.loc 1 2092 0
  99 003e 0028     		cmp	r0, #0
 100 0040 FAD1     		bne	.L15
 101              	.LVL11:
 102              		.loc 1 2094 0
 103 0042 0234     		adds	r4, r4, #2
 104              	.LVL12:
 105 0044 3460     		str	r4, [r6, #0]
 106 0046 EFE7     		b	.L14
 107              		.cfi_endproc
 108              	.LFE147:
 109              		.size	get_ldnumber, .-get_ldnumber
 110 0048 AFF30080 		.section	.text.validate,"ax",%progbits
 110      AFF30080 
 111              		.align	2
 112              		.p2align 4,,15
 113              		.thumb
ARM GAS  C:\Users\Elis\AppData\Local\Temp\ccSuWDYb.s 			page 3


 114              		.thumb_func
 115              		.type	validate, %function
 116              	validate:
 117              	.LFB150:
 118              		.loc 1 2338 0
 119              		.cfi_startproc
 120              		@ args = 0, pretend = 0, frame = 0
 121              		@ frame_needed = 0, uses_anonymous_args = 0
 122              	.LVL13:
 123 0000 08B5     		push	{r3, lr}
 124              	.LCFI1:
 125              		.cfi_def_cfa_offset 8
 126              		.cfi_offset 3, -8
 127              		.cfi_offset 14, -4
 128              		.loc 1 2342 0
 129 0002 18B1     		cbz	r0, .L25
 130              		.loc 1 2342 0 is_stmt 0 discriminator 1
 131 0004 0368     		ldr	r3, [r0, #0]
 132 0006 0BB1     		cbz	r3, .L25
 133 0008 1A78     		ldrb	r2, [r3, #0]	@ zero_extendqisi2
 134 000a 0AB9     		cbnz	r2, .L27
 135              	.LVL14:
 136              	.L25:
 137              		.loc 1 2343 0 is_stmt 1
 138 000c 0920     		movs	r0, #9
 139              		.loc 1 2351 0
 140 000e 08BD     		pop	{r3, pc}
 141              	.LVL15:
 142              	.L27:
 143              		.loc 1 2342 0 discriminator 1
 144 0010 D988     		ldrh	r1, [r3, #6]
 145 0012 8088     		ldrh	r0, [r0, #4]
 146              	.LVL16:
 147 0014 8142     		cmp	r1, r0
 148 0016 F9D1     		bne	.L25
 149              		.loc 1 2347 0
 150 0018 5878     		ldrb	r0, [r3, #1]	@ zero_extendqisi2
 151 001a FFF7FEFF 		bl	disk_status
 152              	.LVL17:
 153 001e 10F0010F 		tst	r0, #1
 154              		.loc 1 2348 0
 155 0022 0CBF     		ite	eq
 156 0024 0020     		moveq	r0, #0
 157 0026 0320     		movne	r0, #3
 158 0028 08BD     		pop	{r3, pc}
 159              		.cfi_endproc
 160              	.LFE150:
 161              		.size	validate, .-validate
 162 002a 00BFAFF3 		.section	.text.sync_window,"ax",%progbits
 162      0080
 163              		.align	2
 164              		.p2align 4,,15
 165              		.thumb
 166              		.thumb_func
 167              		.type	sync_window, %function
 168              	sync_window:
 169              	.LFB122:
ARM GAS  C:\Users\Elis\AppData\Local\Temp\ccSuWDYb.s 			page 4


 170              		.loc 1 758 0
 171              		.cfi_startproc
 172              		@ args = 0, pretend = 0, frame = 0
 173              		@ frame_needed = 0, uses_anonymous_args = 0
 174              	.LVL18:
 175 0000 F8B5     		push	{r3, r4, r5, r6, r7, lr}
 176              	.LCFI2:
 177              		.cfi_def_cfa_offset 24
 178              		.cfi_offset 3, -24
 179              		.cfi_offset 4, -20
 180              		.cfi_offset 5, -16
 181              		.cfi_offset 6, -12
 182              		.cfi_offset 7, -8
 183              		.cfi_offset 14, -4
 184              		.loc 1 758 0
 185 0002 0446     		mov	r4, r0
 186              		.loc 1 763 0
 187 0004 0079     		ldrb	r0, [r0, #4]	@ zero_extendqisi2
 188              	.LVL19:
 189 0006 00B9     		cbnz	r0, .L47
 190              		.loc 1 776 0
 191 0008 F8BD     		pop	{r3, r4, r5, r6, r7, pc}
 192              	.L47:
 193              	.LVL20:
 194              	.LBB134:
 195              	.LBB135:
 196              		.loc 1 764 0
 197 000a E56A     		ldr	r5, [r4, #44]
 198              	.LVL21:
 199              		.loc 1 765 0
 200 000c 6078     		ldrb	r0, [r4, #1]	@ zero_extendqisi2
 201 000e 04F13006 		add	r6, r4, #48
 202 0012 3146     		mov	r1, r6
 203 0014 2A46     		mov	r2, r5
 204 0016 0123     		movs	r3, #1
 205 0018 FFF7FEFF 		bl	disk_write
 206              	.LVL22:
 207 001c 18BB     		cbnz	r0, .L35
 208              		.loc 1 768 0
 209 001e 226A     		ldr	r2, [r4, #32]
 210 0020 A369     		ldr	r3, [r4, #24]
 211              		.loc 1 767 0
 212 0022 2071     		strb	r0, [r4, #4]
 213              		.loc 1 768 0
 214 0024 A81A     		subs	r0, r5, r2
 215 0026 9842     		cmp	r0, r3
 216 0028 1BD2     		bcs	.L32
 217              		.loc 1 769 0
 218 002a E778     		ldrb	r7, [r4, #3]	@ zero_extendqisi2
 219              	.LVL23:
 220 002c 012F     		cmp	r7, #1
 221 002e 18D9     		bls	.L32
 222 0030 FA07     		lsls	r2, r7, #31
 223 0032 0CD5     		bpl	.L42
 224              		.loc 1 770 0
 225 0034 ED18     		adds	r5, r5, r3
 226              	.LVL24:
ARM GAS  C:\Users\Elis\AppData\Local\Temp\ccSuWDYb.s 			page 5


 227              		.loc 1 771 0
 228 0036 6078     		ldrb	r0, [r4, #1]	@ zero_extendqisi2
 229 0038 02E0     		b	.L46
 230              	.LVL25:
 231              	.L48:
 232 003a A169     		ldr	r1, [r4, #24]
 233 003c 6078     		ldrb	r0, [r4, #1]	@ zero_extendqisi2
 234              		.loc 1 770 0
 235 003e 6D18     		adds	r5, r5, r1
 236              	.LVL26:
 237              	.L46:
 238              		.loc 1 771 0
 239 0040 0123     		movs	r3, #1
 240 0042 3146     		mov	r1, r6
 241 0044 2A46     		mov	r2, r5
 242 0046 FFF7FEFF 		bl	disk_write
 243              	.LVL27:
 244 004a A369     		ldr	r3, [r4, #24]
 245              		.loc 1 769 0
 246 004c 013F     		subs	r7, r7, #1
 247              	.LVL28:
 248              	.L42:
 249              		.loc 1 770 0
 250 004e ED18     		adds	r5, r5, r3
 251              	.LVL29:
 252              		.loc 1 771 0
 253 0050 3146     		mov	r1, r6
 254 0052 0123     		movs	r3, #1
 255 0054 2A46     		mov	r2, r5
 256 0056 6078     		ldrb	r0, [r4, #1]	@ zero_extendqisi2
 257              		.loc 1 769 0
 258 0058 013F     		subs	r7, r7, #1
 259              	.LVL30:
 260              		.loc 1 771 0
 261 005a FFF7FEFF 		bl	disk_write
 262              	.LVL31:
 263              		.loc 1 769 0
 264 005e 012F     		cmp	r7, #1
 265 0060 EBD1     		bne	.L48
 266              	.LVL32:
 267              	.L32:
 268              		.loc 1 775 0
 269 0062 0020     		movs	r0, #0
 270 0064 F8BD     		pop	{r3, r4, r5, r6, r7, pc}
 271              	.LVL33:
 272              	.L35:
 273              		.loc 1 766 0
 274 0066 0120     		movs	r0, #1
 275              	.LBE135:
 276              	.LBE134:
 277              		.loc 1 776 0
 278 0068 F8BD     		pop	{r3, r4, r5, r6, r7, pc}
 279              		.cfi_endproc
 280              	.LFE122:
 281              		.size	sync_window, .-sync_window
 282 006a 00BFAFF3 		.section	.text.sync_fs,"ax",%progbits
 282      0080
ARM GAS  C:\Users\Elis\AppData\Local\Temp\ccSuWDYb.s 			page 6


 283              		.align	2
 284              		.p2align 4,,15
 285              		.thumb
 286              		.thumb_func
 287              		.type	sync_fs, %function
 288              	sync_fs:
 289              	.LFB124:
 290              		.loc 1 810 0
 291              		.cfi_startproc
 292              		@ args = 0, pretend = 0, frame = 8
 293              		@ frame_needed = 0, uses_anonymous_args = 0
 294              	.LVL34:
 295 0000 2DE9F04F 		push	{r4, r5, r6, r7, r8, r9, sl, fp, lr}
 296              	.LCFI3:
 297              		.cfi_def_cfa_offset 36
 298              		.cfi_offset 4, -36
 299              		.cfi_offset 5, -32
 300              		.cfi_offset 6, -28
 301              		.cfi_offset 7, -24
 302              		.cfi_offset 8, -20
 303              		.cfi_offset 9, -16
 304              		.cfi_offset 10, -12
 305              		.cfi_offset 11, -8
 306              		.cfi_offset 14, -4
 307 0004 83B0     		sub	sp, sp, #12
 308              	.LCFI4:
 309              		.cfi_def_cfa_offset 48
 310              		.loc 1 810 0
 311 0006 0446     		mov	r4, r0
 312              		.loc 1 814 0
 313 0008 FFF7FEFF 		bl	sync_window
 314              	.LVL35:
 315              		.loc 1 815 0
 316 000c 50B9     		cbnz	r0, .L50
 317              		.loc 1 817 0
 318 000e 2378     		ldrb	r3, [r4, #0]	@ zero_extendqisi2
 319 0010 032B     		cmp	r3, #3
 320 0012 0AD0     		beq	.L55
 321              	.LVL36:
 322              	.L51:
 323              		.loc 1 831 0
 324 0014 0021     		movs	r1, #0
 325 0016 6078     		ldrb	r0, [r4, #1]	@ zero_extendqisi2
 326 0018 0A46     		mov	r2, r1
 327 001a FFF7FEFF 		bl	disk_ioctl
 328              	.LVL37:
 329 001e 0030     		adds	r0, r0, #0
 330 0020 18BF     		it	ne
 331 0022 0120     		movne	r0, #1
 332              	.L50:
 333              	.LVL38:
 334              		.loc 1 836 0
 335 0024 03B0     		add	sp, sp, #12
 336 0026 BDE8F08F 		pop	{r4, r5, r6, r7, r8, r9, sl, fp, pc}
 337              	.L55:
 338              		.loc 1 817 0 discriminator 1
 339 002a 6179     		ldrb	r1, [r4, #5]	@ zero_extendqisi2
ARM GAS  C:\Users\Elis\AppData\Local\Temp\ccSuWDYb.s 			page 7


 340 002c 0129     		cmp	r1, #1
 341 002e F1D1     		bne	.L51
 342              		.loc 1 819 0
 343 0030 04F13001 		add	r1, r4, #48
 344              	.LVL39:
 345              		.loc 1 807 0
 346 0034 04F50C75 		add	r5, r4, #560
 347              		.loc 1 580 0
 348 0038 0E46     		mov	r6, r1
 349              	.LVL40:
 350              	.L52:
 351              	.LBB136:
 352              	.LBB137:
 353              		.loc 1 583 0
 354 003a 3246     		mov	r2, r6
 355 003c 02F8010B 		strb	r0, [r2], #1
 356 0040 7070     		strb	r0, [r6, #1]
 357 0042 561C     		adds	r6, r2, #1
 358              	.LVL41:
 359              		.loc 1 582 0
 360 0044 AE42     		cmp	r6, r5
 361 0046 F8D1     		bne	.L52
 362              	.LBE137:
 363              	.LBE136:
 364              		.loc 1 824 0
 365 0048 E368     		ldr	r3, [r4, #12]
 366              		.loc 1 823 0
 367 004a D4F81080 		ldr	r8, [r4, #16]
 368              		.loc 1 826 0
 369 004e E069     		ldr	r0, [r4, #28]
 370              	.LVL42:
 371              		.loc 1 824 0
 372 0050 84F81C32 		strb	r3, [r4, #540]
 373 0054 4FEA136B 		lsr	fp, r3, #24
 374 0058 CDF804B0 		str	fp, [sp, #4]
 375 005c C3F3072C 		ubfx	ip, r3, #8, #8
 376 0060 4FEA134E 		lsr	lr, r3, #16
 377              		.loc 1 820 0
 378 0064 4FF0550B 		mov	fp, #85
 379              		.loc 1 824 0
 380 0068 019B     		ldr	r3, [sp, #4]
 381              		.loc 1 823 0
 382 006a 84F81882 		strb	r8, [r4, #536]
 383              		.loc 1 826 0
 384 006e 421C     		adds	r2, r0, #1
 385              	.LVL43:
 386              		.loc 1 821 0
 387 0070 5227     		movs	r7, #82
 388 0072 6120     		movs	r0, #97
 389 0074 4125     		movs	r5, #65
 390              		.loc 1 822 0
 391 0076 7226     		movs	r6, #114
 392              	.LVL44:
 393              		.loc 1 823 0
 394 0078 C8F3072A 		ubfx	sl, r8, #8, #8
 395 007c 4FEA1849 		lsr	r9, r8, #16
 396              		.loc 1 820 0
ARM GAS  C:\Users\Elis\AppData\Local\Temp\ccSuWDYb.s 			page 8


 397 0080 84F82EB2 		strb	fp, [r4, #558]
 398              		.loc 1 823 0
 399 0084 4FEA1868 		lsr	r8, r8, #24
 400              		.loc 1 820 0
 401 0088 4FF0AA0B 		mov	fp, #170
 402              		.loc 1 821 0
 403 008c 84F83200 		strb	r0, [r4, #50]
 404              		.loc 1 822 0
 405 0090 84F81702 		strb	r0, [r4, #535]
 406              		.loc 1 824 0
 407 0094 84F81F32 		strb	r3, [r4, #543]
 408              		.loc 1 820 0
 409 0098 84F82FB2 		strb	fp, [r4, #559]
 410              		.loc 1 821 0
 411 009c 84F83070 		strb	r7, [r4, #48]
 412 00a0 84F83170 		strb	r7, [r4, #49]
 413 00a4 84F83350 		strb	r5, [r4, #51]
 414              		.loc 1 822 0
 415 00a8 84F81462 		strb	r6, [r4, #532]
 416 00ac 84F81562 		strb	r6, [r4, #533]
 417 00b0 84F81652 		strb	r5, [r4, #534]
 418              		.loc 1 823 0
 419 00b4 84F819A2 		strb	sl, [r4, #537]
 420 00b8 84F81A92 		strb	r9, [r4, #538]
 421 00bc 84F81B82 		strb	r8, [r4, #539]
 422              		.loc 1 824 0
 423 00c0 84F81DC2 		strb	ip, [r4, #541]
 424 00c4 84F81EE2 		strb	lr, [r4, #542]
 425              		.loc 1 826 0
 426 00c8 E262     		str	r2, [r4, #44]
 427              		.loc 1 827 0
 428 00ca 6078     		ldrb	r0, [r4, #1]	@ zero_extendqisi2
 429 00cc 0123     		movs	r3, #1
 430 00ce FFF7FEFF 		bl	disk_write
 431              	.LVL45:
 432              		.loc 1 828 0
 433 00d2 0021     		movs	r1, #0
 434 00d4 6171     		strb	r1, [r4, #5]
 435 00d6 9DE7     		b	.L51
 436              		.cfi_endproc
 437              	.LFE124:
 438              		.size	sync_fs, .-sync_fs
 439 00d8 AFF30080 		.section	.text.move_window,"ax",%progbits
 439      AFF30080 
 440              		.align	2
 441              		.p2align 4,,15
 442              		.thumb
 443              		.thumb_func
 444              		.type	move_window, %function
 445              	move_window:
 446              	.LFB123:
 447              		.loc 1 785 0
 448              		.cfi_startproc
 449              		@ args = 0, pretend = 0, frame = 0
 450              		@ frame_needed = 0, uses_anonymous_args = 0
 451              	.LVL46:
 452 0000 38B5     		push	{r3, r4, r5, lr}
ARM GAS  C:\Users\Elis\AppData\Local\Temp\ccSuWDYb.s 			page 9


 453              	.LCFI5:
 454              		.cfi_def_cfa_offset 16
 455              		.cfi_offset 3, -16
 456              		.cfi_offset 4, -12
 457              		.cfi_offset 5, -8
 458              		.cfi_offset 14, -4
 459              		.loc 1 786 0
 460 0002 C36A     		ldr	r3, [r0, #44]
 461 0004 8B42     		cmp	r3, r1
 462              		.loc 1 785 0
 463 0006 0446     		mov	r4, r0
 464 0008 0D46     		mov	r5, r1
 465              		.loc 1 786 0
 466 000a 0FD0     		beq	.L59
 467              		.loc 1 788 0
 468 000c FFF7FEFF 		bl	sync_window
 469              	.LVL47:
 470 0010 08B1     		cbz	r0, .L62
 471              	.L60:
 472              		.loc 1 789 0
 473 0012 0120     		movs	r0, #1
 474              		.loc 1 797 0
 475 0014 38BD     		pop	{r3, r4, r5, pc}
 476              	.L62:
 477              	.LVL48:
 478              	.LBB140:
 479              	.LBB141:
 480              		.loc 1 791 0
 481 0016 6078     		ldrb	r0, [r4, #1]	@ zero_extendqisi2
 482 0018 04F13001 		add	r1, r4, #48
 483 001c 2A46     		mov	r2, r5
 484 001e 0123     		movs	r3, #1
 485 0020 FFF7FEFF 		bl	disk_read
 486              	.LVL49:
 487 0024 0028     		cmp	r0, #0
 488 0026 F4D1     		bne	.L60
 489              		.loc 1 793 0
 490 0028 E562     		str	r5, [r4, #44]
 491 002a 38BD     		pop	{r3, r4, r5, pc}
 492              	.LVL50:
 493              	.L59:
 494              	.LBE141:
 495              	.LBE140:
 496              		.loc 1 796 0
 497 002c 0020     		movs	r0, #0
 498              	.LVL51:
 499 002e 38BD     		pop	{r3, r4, r5, pc}
 500              		.cfi_endproc
 501              	.LFE123:
 502              		.size	move_window, .-move_window
 503              		.section	.text.check_fs,"ax",%progbits
 504              		.align	2
 505              		.p2align 4,,15
 506              		.thumb
 507              		.thumb_func
 508              		.type	check_fs, %function
 509              	check_fs:
ARM GAS  C:\Users\Elis\AppData\Local\Temp\ccSuWDYb.s 			page 10


 510              	.LFB148:
 511              		.loc 1 2140 0
 512              		.cfi_startproc
 513              		@ args = 0, pretend = 0, frame = 0
 514              		@ frame_needed = 0, uses_anonymous_args = 0
 515              	.LVL52:
 516 0000 38B5     		push	{r3, r4, r5, lr}
 517              	.LCFI6:
 518              		.cfi_def_cfa_offset 16
 519              		.cfi_offset 3, -16
 520              		.cfi_offset 4, -12
 521              		.cfi_offset 5, -8
 522              		.cfi_offset 14, -4
 523              		.loc 1 2141 0
 524 0002 4FF0FF32 		mov	r2, #-1
 525 0006 0023     		movs	r3, #0
 526 0008 0371     		strb	r3, [r0, #4]
 527 000a C262     		str	r2, [r0, #44]
 528              		.loc 1 2140 0
 529 000c 0446     		mov	r4, r0
 530              		.loc 1 2142 0
 531 000e FFF7FEFF 		bl	move_window
 532              	.LVL53:
 533 0012 08B1     		cbz	r0, .L68
 534              		.loc 1 2143 0
 535 0014 0320     		movs	r0, #3
 536 0016 38BD     		pop	{r3, r4, r5, pc}
 537              	.L68:
 538              		.loc 1 2145 0
 539 0018 94F82E22 		ldrb	r2, [r4, #558]	@ zero_extendqisi2
 540 001c 94F82F12 		ldrb	r1, [r4, #559]	@ zero_extendqisi2
 541 0020 4AF65523 		movw	r3, #43605
 542 0024 42EA0121 		orr	r1, r2, r1, lsl #8
 543 0028 0AB2     		sxth	r2, r1
 544 002a CFF6FF73 		movt	r3, 65535
 545 002e 9A42     		cmp	r2, r3
 546 0030 01D0     		beq	.L69
 547              		.loc 1 2146 0
 548 0032 0220     		movs	r0, #2
 549              	.L64:
 550              		.loc 1 2154 0
 551 0034 38BD     		pop	{r3, r4, r5, pc}
 552              	.L69:
 553              		.loc 1 2148 0
 554 0036 94F86830 		ldrb	r3, [r4, #104]	@ zero_extendqisi2
 555 003a 94F86950 		ldrb	r5, [r4, #105]	@ zero_extendqisi2
 556 003e 94F86610 		ldrb	r1, [r4, #102]	@ zero_extendqisi2
 557 0042 94F86720 		ldrb	r2, [r4, #103]	@ zero_extendqisi2
 558 0046 1B04     		lsls	r3, r3, #16
 559 0048 43EA0563 		orr	r3, r3, r5, lsl #24
 560 004c 0B43     		orrs	r3, r3, r1
 561 004e 43EA0221 		orr	r1, r3, r2, lsl #8
 562 0052 44F24613 		movw	r3, #16710
 563 0056 21F07F42 		bic	r2, r1, #-16777216
 564 005a C0F25403 		movt	r3, 84
 565 005e 9A42     		cmp	r2, r3
 566 0060 E8D0     		beq	.L64
ARM GAS  C:\Users\Elis\AppData\Local\Temp\ccSuWDYb.s 			page 11


 567              	.LVL54:
 568              	.LBB144:
 569              	.LBB145:
 570              		.loc 1 2150 0
 571 0062 94F88420 		ldrb	r2, [r4, #132]	@ zero_extendqisi2
 572 0066 94F88550 		ldrb	r5, [r4, #133]	@ zero_extendqisi2
 573 006a 94F88210 		ldrb	r1, [r4, #130]	@ zero_extendqisi2
 574 006e 94F88300 		ldrb	r0, [r4, #131]	@ zero_extendqisi2
 575 0072 1204     		lsls	r2, r2, #16
 576 0074 42EA0562 		orr	r2, r2, r5, lsl #24
 577 0078 0A43     		orrs	r2, r2, r1
 578 007a 42EA0021 		orr	r1, r2, r0, lsl #8
 579 007e 21F07F40 		bic	r0, r1, #-16777216
 580              	.LBE145:
 581              	.LBE144:
 582              		.loc 1 2151 0
 583 0082 C01A     		subs	r0, r0, r3
 584 0084 18BF     		it	ne
 585 0086 0120     		movne	r0, #1
 586 0088 38BD     		pop	{r3, r4, r5, pc}
 587              		.cfi_endproc
 588              	.LFE148:
 589              		.size	check_fs, .-check_fs
 590 008a 00BFAFF3 		.section	.text.find_volume,"ax",%progbits
 590      0080
 591              		.align	2
 592              		.p2align 4,,15
 593              		.thumb
 594              		.thumb_func
 595              		.type	find_volume, %function
 596              	find_volume:
 597              	.LFB149:
 598              		.loc 1 2169 0
 599              		.cfi_startproc
 600              		@ args = 0, pretend = 0, frame = 16
 601              		@ frame_needed = 0, uses_anonymous_args = 0
 602              	.LVL55:
 603 0000 2DE9F041 		push	{r4, r5, r6, r7, r8, lr}
 604              	.LCFI7:
 605              		.cfi_def_cfa_offset 24
 606              		.cfi_offset 4, -24
 607              		.cfi_offset 5, -20
 608              		.cfi_offset 6, -16
 609              		.cfi_offset 7, -12
 610              		.cfi_offset 8, -8
 611              		.cfi_offset 14, -4
 612              		.loc 1 2179 0
 613 0004 0023     		movs	r3, #0
 614 0006 0360     		str	r3, [r0, #0]
 615              		.loc 1 2169 0
 616 0008 84B0     		sub	sp, sp, #16
 617              	.LCFI8:
 618              		.cfi_def_cfa_offset 40
 619              		.loc 1 2169 0
 620 000a 0546     		mov	r5, r0
 621              		.loc 1 2180 0
 622 000c 0846     		mov	r0, r1
ARM GAS  C:\Users\Elis\AppData\Local\Temp\ccSuWDYb.s 			page 12


 623              	.LVL56:
 624              		.loc 1 2169 0
 625 000e 1746     		mov	r7, r2
 626              		.loc 1 2180 0
 627 0010 FFF7FEFF 		bl	get_ldnumber
 628              	.LVL57:
 629              		.loc 1 2181 0
 630 0014 061E     		subs	r6, r0, #0
 631 0016 17DB     		blt	.L98
 632              		.loc 1 2184 0
 633 0018 B448     		ldr	r0, .L162
 634              	.LVL58:
 635 001a 50F82640 		ldr	r4, [r0, r6, lsl #2]
 636              	.LVL59:
 637              		.loc 1 2185 0
 638 001e ACB1     		cbz	r4, .L99
 639              		.loc 1 2188 0
 640 0020 2C60     		str	r4, [r5, #0]
 641              		.loc 1 2190 0
 642 0022 2178     		ldrb	r1, [r4, #0]	@ zero_extendqisi2
 643 0024 21B1     		cbz	r1, .L72
 644              		.loc 1 2191 0
 645 0026 6078     		ldrb	r0, [r4, #1]	@ zero_extendqisi2
 646 0028 FFF7FEFF 		bl	disk_status
 647              	.LVL60:
 648              		.loc 1 2192 0
 649 002c C207     		lsls	r2, r0, #31
 650 002e 0FD5     		bpl	.L154
 651              	.LVL61:
 652              	.L72:
 653              		.loc 1 2202 0
 654 0030 0022     		movs	r2, #0
 655              		.loc 1 2203 0
 656 0032 F0B2     		uxtb	r0, r6
 657              		.loc 1 2202 0
 658 0034 2270     		strb	r2, [r4, #0]
 659              		.loc 1 2203 0
 660 0036 6070     		strb	r0, [r4, #1]
 661              		.loc 1 2204 0
 662 0038 FFF7FEFF 		bl	disk_initialize
 663              	.LVL62:
 664              		.loc 1 2205 0
 665 003c C307     		lsls	r3, r0, #31
 666 003e 12D5     		bpl	.L155
 667              		.loc 1 2206 0
 668 0040 0320     		movs	r0, #3
 669              	.LVL63:
 670              	.L151:
 671              		.loc 1 2325 0
 672 0042 04B0     		add	sp, sp, #16
 673 0044 BDE8F081 		pop	{r4, r5, r6, r7, r8, pc}
 674              	.LVL64:
 675              	.L98:
 676              		.loc 1 2181 0
 677 0048 0B20     		movs	r0, #11
 678              	.LVL65:
 679 004a FAE7     		b	.L151
ARM GAS  C:\Users\Elis\AppData\Local\Temp\ccSuWDYb.s 			page 13


 680              	.LVL66:
 681              	.L99:
 682              		.loc 1 2185 0
 683 004c 0C20     		movs	r0, #12
 684 004e F8E7     		b	.L151
 685              	.LVL67:
 686              	.L154:
 687              		.loc 1 2193 0
 688 0050 002F     		cmp	r7, #0
 689 0052 00F02981 		beq	.L100
 690              		.loc 1 2193 0 is_stmt 0 discriminator 1
 691 0056 00F00402 		and	r2, r0, #4
 692 005a D3B2     		uxtb	r3, r2
 693              		.loc 1 2194 0 is_stmt 1 discriminator 1
 694 005c 002B     		cmp	r3, #0
 695 005e 14BF     		ite	ne
 696 0060 0A20     		movne	r0, #10
 697 0062 0020     		moveq	r0, #0
 698              	.LVL68:
 699 0064 EDE7     		b	.L151
 700              	.LVL69:
 701              	.L155:
 702              		.loc 1 2207 0
 703 0066 2FB1     		cbz	r7, .L73
 704              		.loc 1 2207 0 is_stmt 0 discriminator 1
 705 0068 00F00403 		and	r3, r0, #4
 706 006c D8B2     		uxtb	r0, r3
 707              	.LVL70:
 708 006e 08B1     		cbz	r0, .L73
 709              		.loc 1 2208 0 is_stmt 1
 710 0070 0A20     		movs	r0, #10
 711 0072 E6E7     		b	.L151
 712              	.L73:
 713              	.LVL71:
 714              		.loc 1 2215 0
 715 0074 0021     		movs	r1, #0
 716 0076 2046     		mov	r0, r4
 717 0078 FFF7FEFF 		bl	check_fs
 718              	.LVL72:
 719              		.loc 1 2216 0
 720 007c 0128     		cmp	r0, #1
 721 007e 07D0     		beq	.L156
 722              		.loc 1 2214 0
 723 0080 0025     		movs	r5, #0
 724              	.LVL73:
 725              	.L74:
 726              		.loc 1 2231 0
 727 0082 0328     		cmp	r0, #3
 728 0084 00F01281 		beq	.L110
 729              		.loc 1 2232 0
 730 0088 0028     		cmp	r0, #0
 731 008a 68D0     		beq	.L85
 732              	.LVL74:
 733              	.L86:
 734 008c 0D20     		movs	r0, #13
 735 008e D8E7     		b	.L151
 736              	.LVL75:
ARM GAS  C:\Users\Elis\AppData\Local\Temp\ccSuWDYb.s 			page 14


 737              	.L156:
 738              	.LBB146:
 739              	.LBB147:
 740              		.loc 1 2222 0
 741 0090 94F8F251 		ldrb	r5, [r4, #498]	@ zero_extendqisi2
 742              	.LVL76:
 743 0094 002D     		cmp	r5, #0
 744 0096 00F00F81 		beq	.L105
 745 009a 94F8F851 		ldrb	r5, [r4, #504]	@ zero_extendqisi2
 746 009e 94F8F901 		ldrb	r0, [r4, #505]	@ zero_extendqisi2
 747              	.LVL77:
 748 00a2 94F8F631 		ldrb	r3, [r4, #502]	@ zero_extendqisi2
 749 00a6 94F8F721 		ldrb	r2, [r4, #503]	@ zero_extendqisi2
 750 00aa 2904     		lsls	r1, r5, #16
 751 00ac 41EA0065 		orr	r5, r1, r0, lsl #24
 752 00b0 45EA0300 		orr	r0, r5, r3
 753 00b4 40EA0221 		orr	r1, r0, r2, lsl #8
 754              	.L75:
 755 00b8 94F80232 		ldrb	r3, [r4, #514]	@ zero_extendqisi2
 756 00bc 0091     		str	r1, [sp, #0]
 757              	.LVL78:
 758 00be 002B     		cmp	r3, #0
 759 00c0 00F0F880 		beq	.L106
 760 00c4 94F80812 		ldrb	r1, [r4, #520]	@ zero_extendqisi2
 761 00c8 94F80952 		ldrb	r5, [r4, #521]	@ zero_extendqisi2
 762 00cc 94F80602 		ldrb	r0, [r4, #518]	@ zero_extendqisi2
 763 00d0 94F80722 		ldrb	r2, [r4, #519]	@ zero_extendqisi2
 764 00d4 0B04     		lsls	r3, r1, #16
 765 00d6 43EA0561 		orr	r1, r3, r5, lsl #24
 766 00da 41EA0005 		orr	r5, r1, r0
 767 00de 45EA0222 		orr	r2, r5, r2, lsl #8
 768              	.L76:
 769 00e2 94F81202 		ldrb	r0, [r4, #530]	@ zero_extendqisi2
 770 00e6 0192     		str	r2, [sp, #4]
 771              	.LVL79:
 772 00e8 0028     		cmp	r0, #0
 773 00ea 00F0E180 		beq	.L107
 774 00ee 94F81812 		ldrb	r1, [r4, #536]	@ zero_extendqisi2
 775 00f2 94F81952 		ldrb	r5, [r4, #537]	@ zero_extendqisi2
 776 00f6 94F81632 		ldrb	r3, [r4, #534]	@ zero_extendqisi2
 777 00fa 94F81702 		ldrb	r0, [r4, #535]	@ zero_extendqisi2
 778 00fe 0A04     		lsls	r2, r1, #16
 779 0100 42EA0561 		orr	r1, r2, r5, lsl #24
 780 0104 41EA0305 		orr	r5, r1, r3
 781 0108 45EA0022 		orr	r2, r5, r0, lsl #8
 782              	.L77:
 783 010c 94F82232 		ldrb	r3, [r4, #546]	@ zero_extendqisi2
 784 0110 0292     		str	r2, [sp, #8]
 785              	.LVL80:
 786 0112 73B1     		cbz	r3, .L78
 787              		.loc 1 2222 0 is_stmt 0 discriminator 1
 788 0114 94F82812 		ldrb	r1, [r4, #552]	@ zero_extendqisi2
 789 0118 94F82902 		ldrb	r0, [r4, #553]	@ zero_extendqisi2
 790 011c 94F82632 		ldrb	r3, [r4, #550]	@ zero_extendqisi2
 791 0120 94F82722 		ldrb	r2, [r4, #551]	@ zero_extendqisi2
 792 0124 0D04     		lsls	r5, r1, #16
 793 0126 45EA0061 		orr	r1, r5, r0, lsl #24
ARM GAS  C:\Users\Elis\AppData\Local\Temp\ccSuWDYb.s 			page 15


 794 012a 41EA0300 		orr	r0, r1, r3
 795 012e 40EA0223 		orr	r3, r0, r2, lsl #8
 796              	.L78:
 797              	.LBE147:
 798              		.loc 1 2227 0 is_stmt 1 discriminator 3
 799 0132 009D     		ldr	r5, [sp, #0]
 800              	.LBB148:
 801              		.loc 1 2222 0 discriminator 3
 802 0134 0393     		str	r3, [sp, #12]
 803              	.LVL81:
 804              	.LBE148:
 805              		.loc 1 2228 0 discriminator 3
 806 0136 002D     		cmp	r5, #0
 807 0138 40F0C080 		bne	.L157
 808              	.L79:
 809              	.LVL82:
 810              		.loc 1 2227 0
 811 013c 019D     		ldr	r5, [sp, #4]
 812              	.LVL83:
 813              		.loc 1 2228 0
 814 013e 002D     		cmp	r5, #0
 815 0140 40F0C480 		bne	.L158
 816              	.L81:
 817              	.LVL84:
 818              		.loc 1 2227 0
 819 0144 029D     		ldr	r5, [sp, #8]
 820              	.LVL85:
 821              		.loc 1 2228 0
 822 0146 002D     		cmp	r5, #0
 823 0148 40F0C880 		bne	.L159
 824              	.L82:
 825              	.LVL86:
 826              		.loc 1 2227 0
 827 014c 039D     		ldr	r5, [sp, #12]
 828              	.LVL87:
 829              		.loc 1 2228 0
 830 014e 002D     		cmp	r5, #0
 831 0150 9CD0     		beq	.L86
 832              		.loc 1 2228 0 is_stmt 0 discriminator 1
 833 0152 2046     		mov	r0, r4
 834 0154 2946     		mov	r1, r5
 835 0156 FFF7FEFF 		bl	check_fs
 836              	.LVL88:
 837              		.loc 1 2229 0 is_stmt 1 discriminator 1
 838 015a 0028     		cmp	r0, #0
 839 015c 91D1     		bne	.L74
 840              	.LVL89:
 841              	.L85:
 842              	.LBE146:
 843              		.loc 1 2236 0
 844 015e 94F83C20 		ldrb	r2, [r4, #60]	@ zero_extendqisi2
 845 0162 94F83B10 		ldrb	r1, [r4, #59]	@ zero_extendqisi2
 846 0166 41EA0220 		orr	r0, r1, r2, lsl #8
 847 016a B0F5007F 		cmp	r0, #512
 848 016e 8DD1     		bne	.L86
 849              		.loc 1 2239 0
 850 0170 94F84720 		ldrb	r2, [r4, #71]	@ zero_extendqisi2
ARM GAS  C:\Users\Elis\AppData\Local\Temp\ccSuWDYb.s 			page 16


 851 0174 94F84630 		ldrb	r3, [r4, #70]	@ zero_extendqisi2
 852              	.LVL90:
 853              		.loc 1 2240 0
 854 0178 53EA0223 		orrs	r3, r3, r2, lsl #8
 855              	.LVL91:
 856 017c 0DD1     		bne	.L87
 857              		.loc 1 2240 0 is_stmt 0 discriminator 1
 858 017e 94F85610 		ldrb	r1, [r4, #86]	@ zero_extendqisi2
 859 0182 94F85700 		ldrb	r0, [r4, #87]	@ zero_extendqisi2
 860 0186 94F85430 		ldrb	r3, [r4, #84]	@ zero_extendqisi2
 861              	.LVL92:
 862 018a 94F85520 		ldrb	r2, [r4, #85]	@ zero_extendqisi2
 863              	.LVL93:
 864 018e 0904     		lsls	r1, r1, #16
 865 0190 41EA0060 		orr	r0, r1, r0, lsl #24
 866 0194 0343     		orrs	r3, r3, r0
 867 0196 43EA0223 		orr	r3, r3, r2, lsl #8
 868              	.LVL94:
 869              	.L87:
 870              		.loc 1 2243 0 is_stmt 1
 871 019a 94F84020 		ldrb	r2, [r4, #64]	@ zero_extendqisi2
 872              		.loc 1 2241 0
 873 019e A361     		str	r3, [r4, #24]
 874              		.loc 1 2244 0
 875 01a0 511E     		subs	r1, r2, #1
 876 01a2 0129     		cmp	r1, #1
 877              		.loc 1 2243 0
 878 01a4 E270     		strb	r2, [r4, #3]
 879              		.loc 1 2244 0
 880 01a6 3FF671AF 		bhi	.L86
 881              	.LVL95:
 882              		.loc 1 2248 0
 883 01aa 94F83D10 		ldrb	r1, [r4, #61]	@ zero_extendqisi2
 884 01ae A170     		strb	r1, [r4, #2]
 885              		.loc 1 2249 0
 886 01b0 0029     		cmp	r1, #0
 887 01b2 3FF46BAF 		beq	.L86
 888              		.loc 1 2249 0 is_stmt 0 discriminator 1
 889 01b6 481E     		subs	r0, r1, #1
 890 01b8 0842     		tst	r0, r1
 891 01ba 7FF467AF 		bne	.L86
 892              		.loc 1 2252 0 is_stmt 1
 893 01be 94F84100 		ldrb	r0, [r4, #65]	@ zero_extendqisi2
 894 01c2 94F84260 		ldrb	r6, [r4, #66]	@ zero_extendqisi2
 895              	.LVL96:
 896 01c6 40EA0626 		orr	r6, r0, r6, lsl #8
 897 01ca B0B2     		uxth	r0, r6
 898              		.loc 1 2253 0
 899 01cc 16F00F0F 		tst	r6, #15
 900              		.loc 1 2252 0
 901 01d0 2081     		strh	r0, [r4, #8]	@ movhi
 902              		.loc 1 2253 0
 903 01d2 7FF45BAF 		bne	.L86
 904              		.loc 1 2256 0
 905 01d6 94F84470 		ldrb	r7, [r4, #68]	@ zero_extendqisi2
 906 01da 94F84360 		ldrb	r6, [r4, #67]	@ zero_extendqisi2
 907              	.LVL97:
ARM GAS  C:\Users\Elis\AppData\Local\Temp\ccSuWDYb.s 			page 17


 908              		.loc 1 2257 0
 909 01de 56EA0726 		orrs	r6, r6, r7, lsl #8
 910              	.LVL98:
 911 01e2 0FD1     		bne	.L88
 912              		.loc 1 2257 0 is_stmt 0 discriminator 1
 913 01e4 94F852C0 		ldrb	ip, [r4, #82]	@ zero_extendqisi2
 914 01e8 94F85380 		ldrb	r8, [r4, #83]	@ zero_extendqisi2
 915 01ec 94F85060 		ldrb	r6, [r4, #80]	@ zero_extendqisi2
 916              	.LVL99:
 917 01f0 94F85170 		ldrb	r7, [r4, #81]	@ zero_extendqisi2
 918              	.LVL100:
 919 01f4 4FEA0C4E 		lsl	lr, ip, #16
 920 01f8 4EEA086C 		orr	ip, lr, r8, lsl #24
 921 01fc 4CEA0606 		orr	r6, ip, r6
 922 0200 46EA0726 		orr	r6, r6, r7, lsl #8
 923              	.LVL101:
 924              	.L88:
 925              		.loc 1 2259 0 is_stmt 1
 926 0204 94F83FE0 		ldrb	lr, [r4, #63]	@ zero_extendqisi2
 927 0208 94F83E70 		ldrb	r7, [r4, #62]	@ zero_extendqisi2
 928              	.LVL102:
 929              		.loc 1 2260 0
 930 020c 57EA0E2C 		orrs	ip, r7, lr, lsl #8
 931 0210 3FF43CAF 		beq	.L86
 932              		.loc 1 2246 0
 933 0214 02FB03F2 		mul	r2, r2, r3
 934              	.LVL103:
 935              		.loc 1 2263 0
 936 0218 0CEB1017 		add	r7, ip, r0, lsr #4
 937              	.LVL104:
 938 021c BF18     		adds	r7, r7, r2
 939              	.LVL105:
 940              		.loc 1 2264 0
 941 021e BE42     		cmp	r6, r7
 942 0220 FFF434AF 		bcc	.L86
 943              		.loc 1 2265 0
 944 0224 F61B     		subs	r6, r6, r7
 945              	.LVL106:
 946 0226 B6FBF1F1 		udiv	r1, r6, r1
 947              	.LVL107:
 948              		.loc 1 2266 0
 949 022a 0029     		cmp	r1, #0
 950 022c 3FF42EAF 		beq	.L86
 951              	.LVL108:
 952              		.loc 1 2268 0
 953 0230 40F6F576 		movw	r6, #4085
 954 0234 B142     		cmp	r1, r6
 955 0236 40F2DF80 		bls	.L111
 956              	.LVL109:
 957              		.loc 1 2269 0
 958 023a 06F57046 		add	r6, r6, #61440
 959 023e B142     		cmp	r1, r6
 960 0240 00F2BD80 		bhi	.L90
 961              		.loc 1 2268 0
 962 0244 0226     		movs	r6, #2
 963              	.LVL110:
 964              	.L89:
ARM GAS  C:\Users\Elis\AppData\Local\Temp\ccSuWDYb.s 			page 18


 965              		.loc 1 2272 0
 966 0246 0231     		adds	r1, r1, #2
 967              	.LVL111:
 968              		.loc 1 2274 0
 969 0248 05EB0C0E 		add	lr, r5, ip
 970              	.LVL112:
 971              		.loc 1 2275 0
 972 024c 7F19     		adds	r7, r7, r5
 973              	.LVL113:
 974              		.loc 1 2272 0
 975 024e 6161     		str	r1, [r4, #20]
 976              		.loc 1 2273 0
 977 0250 E561     		str	r5, [r4, #28]
 978              		.loc 1 2274 0
 979 0252 C4F820E0 		str	lr, [r4, #32]
 980              		.loc 1 2275 0
 981 0256 A762     		str	r7, [r4, #40]
 982              		.loc 1 2281 0
 983 0258 0028     		cmp	r0, #0
 984 025a 3FF417AF 		beq	.L86
 985              		.loc 1 2282 0
 986 025e 02EB0E00 		add	r0, r2, lr
 987              	.LVL114:
 988              		.loc 1 2284 0
 989 0262 022E     		cmp	r6, #2
 990              		.loc 1 2282 0
 991 0264 6062     		str	r0, [r4, #36]
 992              		.loc 1 2284 0
 993 0266 00F0A880 		beq	.L160
 994              		.loc 1 2284 0 is_stmt 0 discriminator 2
 995 026a 0322     		movs	r2, #3
 996              	.LVL115:
 997 026c 02FB01F6 		mul	r6, r2, r1
 998              	.LVL116:
 999 0270 01F00101 		and	r1, r1, #1
 1000              	.LVL117:
 1001 0274 01EB5600 		add	r0, r1, r6, lsr #1
 1002 0278 0126     		movs	r6, #1
 1003              	.LVL118:
 1004              	.L91:
 1005              		.loc 1 2286 0 is_stmt 1
 1006 027a 00F2FF11 		addw	r1, r0, #511
 1007 027e B3EB512F 		cmp	r3, r1, lsr #9
 1008 0282 FFF403AF 		bcc	.L86
 1009              		.loc 1 2291 0
 1010 0286 4FF0FF33 		mov	r3, #-1
 1011              	.LVL119:
 1012              		.loc 1 2294 0
 1013 028a 8022     		movs	r2, #128
 1014              		.loc 1 2296 0
 1015 028c 032E     		cmp	r6, #3
 1016              		.loc 1 2291 0
 1017 028e 2361     		str	r3, [r4, #16]
 1018 0290 E360     		str	r3, [r4, #12]
 1019              		.loc 1 2294 0
 1020 0292 6271     		strb	r2, [r4, #5]
 1021              		.loc 1 2296 0
ARM GAS  C:\Users\Elis\AppData\Local\Temp\ccSuWDYb.s 			page 19


 1022 0294 2ED0     		beq	.L161
 1023              	.LVL120:
 1024              	.L94:
 1025              		.loc 1 2316 0
 1026 0296 164A     		ldr	r2, .L162+4
 1027              		.loc 1 2315 0
 1028 0298 2670     		strb	r6, [r4, #0]
 1029              		.loc 1 2316 0
 1030 029a 1388     		ldrh	r3, [r2, #0]
 1031 029c 581C     		adds	r0, r3, #1
 1032 029e 81B2     		uxth	r1, r0
 1033 02a0 1180     		strh	r1, [r2, #0]	@ movhi
 1034 02a2 E180     		strh	r1, [r4, #6]	@ movhi
 1035              		.loc 1 2324 0
 1036 02a4 0020     		movs	r0, #0
 1037 02a6 CCE6     		b	.L151
 1038              	.LVL121:
 1039              	.L100:
 1040              		.loc 1 2195 0
 1041 02a8 3846     		mov	r0, r7
 1042              	.LVL122:
 1043 02aa CAE6     		b	.L151
 1044              	.LVL123:
 1045              	.L110:
 1046              		.loc 1 2231 0
 1047 02ac 0120     		movs	r0, #1
 1048              	.LVL124:
 1049 02ae C8E6     		b	.L151
 1050              	.LVL125:
 1051              	.L107:
 1052              	.LBB150:
 1053              	.LBB149:
 1054              		.loc 1 2222 0
 1055 02b0 0246     		mov	r2, r0
 1056 02b2 2BE7     		b	.L77
 1057              	.LVL126:
 1058              	.L106:
 1059 02b4 1A46     		mov	r2, r3
 1060 02b6 14E7     		b	.L76
 1061              	.LVL127:
 1062              	.L105:
 1063 02b8 2946     		mov	r1, r5
 1064 02ba FDE6     		b	.L75
 1065              	.LVL128:
 1066              	.L157:
 1067              	.LBE149:
 1068              		.loc 1 2228 0
 1069 02bc 2046     		mov	r0, r4
 1070 02be 2946     		mov	r1, r5
 1071 02c0 FFF7FEFF 		bl	check_fs
 1072              	.LVL129:
 1073              		.loc 1 2229 0
 1074 02c4 0028     		cmp	r0, #0
 1075 02c6 7FF439AF 		bne	.L79
 1076 02ca 48E7     		b	.L85
 1077              	.LVL130:
 1078              	.L158:
ARM GAS  C:\Users\Elis\AppData\Local\Temp\ccSuWDYb.s 			page 20


 1079              		.loc 1 2228 0
 1080 02cc 2046     		mov	r0, r4
 1081 02ce 2946     		mov	r1, r5
 1082 02d0 FFF7FEFF 		bl	check_fs
 1083              	.LVL131:
 1084              		.loc 1 2229 0
 1085 02d4 0028     		cmp	r0, #0
 1086 02d6 7FF435AF 		bne	.L81
 1087 02da 40E7     		b	.L85
 1088              	.LVL132:
 1089              	.L159:
 1090              		.loc 1 2228 0
 1091 02dc 2046     		mov	r0, r4
 1092 02de 2946     		mov	r1, r5
 1093 02e0 FFF7FEFF 		bl	check_fs
 1094              	.LVL133:
 1095              		.loc 1 2229 0
 1096 02e4 0028     		cmp	r0, #0
 1097 02e6 7FF431AF 		bne	.L82
 1098 02ea 38E7     		b	.L85
 1099              	.L163:
 1100              		.align	2
 1101              	.L162:
 1102 02ec 00000000 		.word	.LANCHOR0
 1103 02f0 00000000 		.word	.LANCHOR1
 1104              	.LVL134:
 1105              	.L161:
 1106              	.LBE150:
 1107              		.loc 1 2297 0
 1108 02f4 94F86100 		ldrb	r0, [r4, #97]	@ zero_extendqisi2
 1109              	.LVL135:
 1110 02f8 94F86010 		ldrb	r1, [r4, #96]	@ zero_extendqisi2
 1111              	.LVL136:
 1112 02fc 41EA0023 		orr	r3, r1, r0, lsl #8
 1113 0300 012B     		cmp	r3, #1
 1114 0302 C8D1     		bne	.L94
 1115              		.loc 1 2298 0
 1116 0304 2046     		mov	r0, r4
 1117 0306 691C     		adds	r1, r5, #1
 1118 0308 FFF7FEFF 		bl	move_window
 1119              	.LVL137:
 1120 030c 0028     		cmp	r0, #0
 1121 030e C2D1     		bne	.L94
 1122              		.loc 1 2301 0
 1123 0310 94F82F22 		ldrb	r2, [r4, #559]	@ zero_extendqisi2
 1124 0314 94F82E12 		ldrb	r1, [r4, #558]	@ zero_extendqisi2
 1125              		.loc 1 2300 0
 1126 0318 6071     		strb	r0, [r4, #5]
 1127              		.loc 1 2301 0
 1128 031a 4AF65523 		movw	r3, #43605
 1129 031e 41EA0220 		orr	r0, r1, r2, lsl #8
 1130 0322 02B2     		sxth	r2, r0
 1131 0324 CFF6FF73 		movt	r3, 65535
 1132 0328 9A42     		cmp	r2, r3
 1133 032a B4D1     		bne	.L94
 1134              		.loc 1 2302 0
 1135 032c 94F83220 		ldrb	r2, [r4, #50]	@ zero_extendqisi2
ARM GAS  C:\Users\Elis\AppData\Local\Temp\ccSuWDYb.s 			page 21


 1136 0330 94F83300 		ldrb	r0, [r4, #51]	@ zero_extendqisi2
 1137 0334 94F83030 		ldrb	r3, [r4, #48]	@ zero_extendqisi2
 1138 0338 94F83110 		ldrb	r1, [r4, #49]	@ zero_extendqisi2
 1139 033c 1204     		lsls	r2, r2, #16
 1140 033e 42EA0060 		orr	r0, r2, r0, lsl #24
 1141 0342 1843     		orrs	r0, r0, r3
 1142 0344 45F25223 		movw	r3, #21074
 1143 0348 40EA0121 		orr	r1, r0, r1, lsl #8
 1144 034c C4F26113 		movt	r3, 16737
 1145 0350 9942     		cmp	r1, r3
 1146 0352 A0D1     		bne	.L94
 1147              		.loc 1 2303 0
 1148 0354 94F81622 		ldrb	r2, [r4, #534]	@ zero_extendqisi2
 1149 0358 94F81702 		ldrb	r0, [r4, #535]	@ zero_extendqisi2
 1150 035c 94F81432 		ldrb	r3, [r4, #532]	@ zero_extendqisi2
 1151 0360 94F81512 		ldrb	r1, [r4, #533]	@ zero_extendqisi2
 1152 0364 1204     		lsls	r2, r2, #16
 1153 0366 42EA0060 		orr	r0, r2, r0, lsl #24
 1154 036a 1843     		orrs	r0, r0, r3
 1155 036c 47F27223 		movw	r3, #29298
 1156 0370 40EA0121 		orr	r1, r0, r1, lsl #8
 1157 0374 C6F24113 		movt	r3, 24897
 1158 0378 9942     		cmp	r1, r3
 1159 037a 8CD1     		bne	.L94
 1160              		.loc 1 2306 0
 1161 037c 94F81A72 		ldrb	r7, [r4, #538]	@ zero_extendqisi2
 1162              		.loc 1 2309 0
 1163 0380 94F81E52 		ldrb	r5, [r4, #542]	@ zero_extendqisi2
 1164              	.LVL138:
 1165              		.loc 1 2306 0
 1166 0384 94F81B82 		ldrb	r8, [r4, #539]	@ zero_extendqisi2
 1167              		.loc 1 2309 0
 1168 0388 94F81FC2 		ldrb	ip, [r4, #543]	@ zero_extendqisi2
 1169              		.loc 1 2306 0
 1170 038c 94F81822 		ldrb	r2, [r4, #536]	@ zero_extendqisi2
 1171              		.loc 1 2309 0
 1172 0390 94F81C32 		ldrb	r3, [r4, #540]	@ zero_extendqisi2
 1173              		.loc 1 2306 0
 1174 0394 94F81902 		ldrb	r0, [r4, #537]	@ zero_extendqisi2
 1175              		.loc 1 2309 0
 1176 0398 94F81D12 		ldrb	r1, [r4, #541]	@ zero_extendqisi2
 1177              		.loc 1 2306 0
 1178 039c 3F04     		lsls	r7, r7, #16
 1179              		.loc 1 2309 0
 1180 039e 2D04     		lsls	r5, r5, #16
 1181              		.loc 1 2306 0
 1182 03a0 47EA0867 		orr	r7, r7, r8, lsl #24
 1183              		.loc 1 2309 0
 1184 03a4 45EA0C65 		orr	r5, r5, ip, lsl #24
 1185              		.loc 1 2306 0
 1186 03a8 3A43     		orrs	r2, r2, r7
 1187              		.loc 1 2309 0
 1188 03aa 2B43     		orrs	r3, r3, r5
 1189              		.loc 1 2306 0
 1190 03ac 42EA0020 		orr	r0, r2, r0, lsl #8
 1191              		.loc 1 2309 0
 1192 03b0 43EA0121 		orr	r1, r3, r1, lsl #8
ARM GAS  C:\Users\Elis\AppData\Local\Temp\ccSuWDYb.s 			page 22


 1193              		.loc 1 2306 0
 1194 03b4 2061     		str	r0, [r4, #16]
 1195              		.loc 1 2309 0
 1196 03b6 E160     		str	r1, [r4, #12]
 1197 03b8 6DE7     		b	.L94
 1198              	.LVL139:
 1199              	.L160:
 1200              		.loc 1 2284 0 discriminator 1
 1201 03ba 4800     		lsls	r0, r1, #1
 1202 03bc 5DE7     		b	.L91
 1203              	.LVL140:
 1204              	.L90:
 1205              		.loc 1 2272 0
 1206 03be 0231     		adds	r1, r1, #2
 1207              	.LVL141:
 1208              		.loc 1 2274 0
 1209 03c0 05EB0C02 		add	r2, r5, ip
 1210              		.loc 1 2275 0
 1211 03c4 7F19     		adds	r7, r7, r5
 1212              	.LVL142:
 1213              		.loc 1 2272 0
 1214 03c6 6161     		str	r1, [r4, #20]
 1215              		.loc 1 2273 0
 1216 03c8 E561     		str	r5, [r4, #28]
 1217              		.loc 1 2274 0
 1218 03ca 2262     		str	r2, [r4, #32]
 1219              		.loc 1 2275 0
 1220 03cc A762     		str	r7, [r4, #40]
 1221              		.loc 1 2277 0
 1222 03ce 0028     		cmp	r0, #0
 1223 03d0 7FF45CAE 		bne	.L86
 1224              		.loc 1 2278 0
 1225 03d4 94F85E60 		ldrb	r6, [r4, #94]	@ zero_extendqisi2
 1226 03d8 94F85F70 		ldrb	r7, [r4, #95]	@ zero_extendqisi2
 1227 03dc 94F85C20 		ldrb	r2, [r4, #92]	@ zero_extendqisi2
 1228 03e0 94F85D00 		ldrb	r0, [r4, #93]	@ zero_extendqisi2
 1229              	.LVL143:
 1230 03e4 3604     		lsls	r6, r6, #16
 1231 03e6 46EA0766 		orr	r6, r6, r7, lsl #24
 1232 03ea 3243     		orrs	r2, r2, r6
 1233 03ec 42EA0020 		orr	r0, r2, r0, lsl #8
 1234 03f0 6062     		str	r0, [r4, #36]
 1235              		.loc 1 2269 0
 1236 03f2 0326     		movs	r6, #3
 1237              		.loc 1 2279 0
 1238 03f4 8800     		lsls	r0, r1, #2
 1239              	.LVL144:
 1240 03f6 40E7     		b	.L91
 1241              	.LVL145:
 1242              	.L111:
 1243              		.loc 1 2267 0
 1244 03f8 0126     		movs	r6, #1
 1245 03fa 24E7     		b	.L89
 1246              		.cfi_endproc
 1247              	.LFE149:
 1248              		.size	find_volume, .-find_volume
 1249 03fc AFF30080 		.section	.text.clust2sect,"ax",%progbits
ARM GAS  C:\Users\Elis\AppData\Local\Temp\ccSuWDYb.s 			page 23


 1250              		.align	2
 1251              		.p2align 4,,15
 1252              		.global	clust2sect
 1253              		.thumb
 1254              		.thumb_func
 1255              		.type	clust2sect, %function
 1256              	clust2sect:
 1257              	.LFB125:
 1258              		.loc 1 851 0
 1259              		.cfi_startproc
 1260              		@ args = 0, pretend = 0, frame = 0
 1261              		@ frame_needed = 0, uses_anonymous_args = 0
 1262              		@ link register save eliminated.
 1263              	.LVL146:
 1264              		.loc 1 853 0
 1265 0000 4369     		ldr	r3, [r0, #20]
 1266              		.loc 1 852 0
 1267 0002 0239     		subs	r1, r1, #2
 1268              	.LVL147:
 1269              		.loc 1 853 0
 1270 0004 9A1E     		subs	r2, r3, #2
 1271 0006 9142     		cmp	r1, r2
 1272 0008 04D2     		bcs	.L166
 1273              		.loc 1 854 0
 1274 000a 8278     		ldrb	r2, [r0, #2]	@ zero_extendqisi2
 1275 000c 806A     		ldr	r0, [r0, #40]
 1276              	.LVL148:
 1277 000e 02FB0100 		mla	r0, r2, r1, r0
 1278 0012 7047     		bx	lr
 1279              	.LVL149:
 1280              	.L166:
 1281              		.loc 1 853 0
 1282 0014 0020     		movs	r0, #0
 1283              	.LVL150:
 1284              		.loc 1 855 0
 1285 0016 7047     		bx	lr
 1286              		.cfi_endproc
 1287              	.LFE125:
 1288              		.size	clust2sect, .-clust2sect
 1289 0018 AFF30080 		.section	.text.get_fat,"ax",%progbits
 1289      AFF30080 
 1290              		.align	2
 1291              		.p2align 4,,15
 1292              		.global	get_fat
 1293              		.thumb
 1294              		.thumb_func
 1295              		.type	get_fat, %function
 1296              	get_fat:
 1297              	.LFB126:
 1298              		.loc 1 869 0
 1299              		.cfi_startproc
 1300              		@ args = 0, pretend = 0, frame = 0
 1301              		@ frame_needed = 0, uses_anonymous_args = 0
 1302              	.LVL151:
 1303              		.loc 1 874 0
 1304 0000 0129     		cmp	r1, #1
 1305              		.loc 1 869 0
ARM GAS  C:\Users\Elis\AppData\Local\Temp\ccSuWDYb.s 			page 24


 1306 0002 F8B5     		push	{r3, r4, r5, r6, r7, lr}
 1307              	.LCFI9:
 1308              		.cfi_def_cfa_offset 24
 1309              		.cfi_offset 3, -24
 1310              		.cfi_offset 4, -20
 1311              		.cfi_offset 5, -16
 1312              		.cfi_offset 6, -12
 1313              		.cfi_offset 7, -8
 1314              		.cfi_offset 14, -4
 1315              		.loc 1 869 0
 1316 0004 0C46     		mov	r4, r1
 1317 0006 0546     		mov	r5, r0
 1318              		.loc 1 874 0
 1319 0008 09D9     		bls	.L177
 1320              		.loc 1 874 0 is_stmt 0 discriminator 1
 1321 000a 4369     		ldr	r3, [r0, #20]
 1322 000c 9942     		cmp	r1, r3
 1323 000e 06D2     		bcs	.L177
 1324              	.LVL152:
 1325              	.LBB153:
 1326              	.LBB154:
 1327              		.loc 1 877 0 is_stmt 1
 1328 0010 0178     		ldrb	r1, [r0, #0]	@ zero_extendqisi2
 1329              	.LVL153:
 1330 0012 0229     		cmp	r1, #2
 1331 0014 2CD0     		beq	.L171
 1332 0016 0329     		cmp	r1, #3
 1333 0018 0FD0     		beq	.L172
 1334 001a 0129     		cmp	r1, #1
 1335 001c 01D0     		beq	.L180
 1336              	.LVL154:
 1337              	.L177:
 1338              	.LBE154:
 1339              	.LBE153:
 1340              		.loc 1 875 0
 1341 001e 0120     		movs	r0, #1
 1342              	.LVL155:
 1343              		.loc 1 901 0
 1344 0020 F8BD     		pop	{r3, r4, r5, r6, r7, pc}
 1345              	.LVL156:
 1346              	.L180:
 1347              	.LBB156:
 1348              	.LBB155:
 1349              		.loc 1 880 0
 1350 0022 026A     		ldr	r2, [r0, #32]
 1351              		.loc 1 879 0
 1352 0024 04EB5406 		add	r6, r4, r4, lsr #1
 1353              	.LVL157:
 1354              		.loc 1 880 0
 1355 0028 02EB5621 		add	r1, r2, r6, lsr #9
 1356 002c FFF7FEFF 		bl	move_window
 1357              	.LVL158:
 1358 0030 0028     		cmp	r0, #0
 1359 0032 2FD0     		beq	.L173
 1360              	.LVL159:
 1361              	.L174:
 1362              		.loc 1 900 0
ARM GAS  C:\Users\Elis\AppData\Local\Temp\ccSuWDYb.s 			page 25


 1363 0034 4FF0FF30 		mov	r0, #-1
 1364 0038 F8BD     		pop	{r3, r4, r5, r6, r7, pc}
 1365              	.LVL160:
 1366              	.L172:
 1367              		.loc 1 892 0
 1368 003a 036A     		ldr	r3, [r0, #32]
 1369 003c 03EBD411 		add	r1, r3, r4, lsr #7
 1370 0040 FFF7FEFF 		bl	move_window
 1371              	.LVL161:
 1372 0044 0028     		cmp	r0, #0
 1373 0046 F5D1     		bne	.L174
 1374              		.loc 1 893 0
 1375 0048 6406     		lsls	r4, r4, #25
 1376              	.LVL162:
 1377 004a E20D     		lsrs	r2, r4, #23
 1378 004c 02F13000 		add	r0, r2, #48
 1379 0050 2B18     		adds	r3, r5, r0
 1380              	.LVL163:
 1381              		.loc 1 894 0
 1382 0052 AC18     		adds	r4, r5, r2
 1383 0054 DA78     		ldrb	r2, [r3, #3]	@ zero_extendqisi2
 1384 0056 9978     		ldrb	r1, [r3, #2]	@ zero_extendqisi2
 1385 0058 5878     		ldrb	r0, [r3, #1]	@ zero_extendqisi2
 1386 005a 94F83030 		ldrb	r3, [r4, #48]	@ zero_extendqisi2
 1387              	.LVL164:
 1388 005e 1206     		lsls	r2, r2, #24
 1389 0060 42EA0141 		orr	r1, r2, r1, lsl #16
 1390 0064 41EA0020 		orr	r0, r1, r0, lsl #8
 1391 0068 1843     		orrs	r0, r0, r3
 1392 006a 20F07040 		bic	r0, r0, #-268435456
 1393 006e F8BD     		pop	{r3, r4, r5, r6, r7, pc}
 1394              	.LVL165:
 1395              	.L171:
 1396              		.loc 1 887 0
 1397 0070 036A     		ldr	r3, [r0, #32]
 1398 0072 03EB1421 		add	r1, r3, r4, lsr #8
 1399 0076 FFF7FEFF 		bl	move_window
 1400              	.LVL166:
 1401 007a 0028     		cmp	r0, #0
 1402 007c DAD1     		bne	.L174
 1403              		.loc 1 888 0
 1404 007e 2406     		lsls	r4, r4, #24
 1405              	.LVL167:
 1406 0080 E20D     		lsrs	r2, r4, #23
 1407              	.LVL168:
 1408              		.loc 1 889 0
 1409 0082 A918     		adds	r1, r5, r2
 1410 0084 0C46     		mov	r4, r1
 1411 0086 91F83030 		ldrb	r3, [r1, #48]	@ zero_extendqisi2
 1412 008a 91F83100 		ldrb	r0, [r1, #49]	@ zero_extendqisi2
 1413 008e 43EA0020 		orr	r0, r3, r0, lsl #8
 1414 0092 F8BD     		pop	{r3, r4, r5, r6, r7, pc}
 1415              	.LVL169:
 1416              	.L173:
 1417              		.loc 1 881 0
 1418 0094 F005     		lsls	r0, r6, #23
 1419 0096 C70D     		lsrs	r7, r0, #23
ARM GAS  C:\Users\Elis\AppData\Local\Temp\ccSuWDYb.s 			page 26


 1420              		.loc 1 882 0
 1421 0098 296A     		ldr	r1, [r5, #32]
 1422              		.loc 1 881 0
 1423 009a EB19     		adds	r3, r5, r7
 1424 009c 0136     		adds	r6, r6, #1
 1425              	.LVL170:
 1426              		.loc 1 882 0
 1427 009e 2846     		mov	r0, r5
 1428 00a0 01EB5621 		add	r1, r1, r6, lsr #9
 1429              		.loc 1 881 0
 1430 00a4 93F83070 		ldrb	r7, [r3, #48]	@ zero_extendqisi2
 1431              	.LVL171:
 1432              		.loc 1 882 0
 1433 00a8 FFF7FEFF 		bl	move_window
 1434              	.LVL172:
 1435 00ac 0028     		cmp	r0, #0
 1436 00ae C1D1     		bne	.L174
 1437              		.loc 1 883 0
 1438 00b0 F605     		lsls	r6, r6, #23
 1439              	.LVL173:
 1440 00b2 F60D     		lsrs	r6, r6, #23
 1441 00b4 AD19     		adds	r5, r5, r6
 1442              	.LVL174:
 1443              		.loc 1 884 0
 1444 00b6 E307     		lsls	r3, r4, #31
 1445              		.loc 1 883 0
 1446 00b8 95F83020 		ldrb	r2, [r5, #48]	@ zero_extendqisi2
 1447 00bc 47EA0220 		orr	r0, r7, r2, lsl #8
 1448              	.LVL175:
 1449              		.loc 1 884 0
 1450 00c0 01D5     		bpl	.L175
 1451 00c2 0009     		lsrs	r0, r0, #4
 1452              	.LVL176:
 1453 00c4 F8BD     		pop	{r3, r4, r5, r6, r7, pc}
 1454              	.LVL177:
 1455              	.L175:
 1456 00c6 0105     		lsls	r1, r0, #20
 1457 00c8 080D     		lsrs	r0, r1, #20
 1458              	.LVL178:
 1459 00ca F8BD     		pop	{r3, r4, r5, r6, r7, pc}
 1460              	.LBE155:
 1461              	.LBE156:
 1462              		.cfi_endproc
 1463              	.LFE126:
 1464              		.size	get_fat, .-get_fat
 1465 00cc AFF30080 		.section	.text.dir_sdi,"ax",%progbits
 1466              		.align	2
 1467              		.p2align 4,,15
 1468              		.thumb
 1469              		.thumb_func
 1470              		.type	dir_sdi, %function
 1471              	dir_sdi:
 1472              	.LFB130:
 1473              		.loc 1 1121 0
 1474              		.cfi_startproc
 1475              		@ args = 0, pretend = 0, frame = 0
 1476              		@ frame_needed = 0, uses_anonymous_args = 0
ARM GAS  C:\Users\Elis\AppData\Local\Temp\ccSuWDYb.s 			page 27


 1477              	.LVL179:
 1478 0000 70B5     		push	{r4, r5, r6, lr}
 1479              	.LCFI10:
 1480              		.cfi_def_cfa_offset 16
 1481              		.cfi_offset 4, -16
 1482              		.cfi_offset 5, -12
 1483              		.cfi_offset 6, -8
 1484              		.cfi_offset 14, -4
 1485              		.loc 1 1121 0
 1486 0002 0C46     		mov	r4, r1
 1487              		.loc 1 1127 0
 1488 0004 8168     		ldr	r1, [r0, #8]
 1489              	.LVL180:
 1490              		.loc 1 1126 0
 1491 0006 C480     		strh	r4, [r0, #6]	@ movhi
 1492              		.loc 1 1128 0
 1493 0008 0129     		cmp	r1, #1
 1494              		.loc 1 1121 0
 1495 000a 0546     		mov	r5, r0
 1496              		.loc 1 1128 0
 1497 000c 03D0     		beq	.L199
 1498              		.loc 1 1128 0 is_stmt 0 discriminator 1
 1499 000e 0068     		ldr	r0, [r0, #0]
 1500              	.LVL181:
 1501 0010 4369     		ldr	r3, [r0, #20]
 1502 0012 9942     		cmp	r1, r3
 1503 0014 01D3     		bcc	.L200
 1504              	.LVL182:
 1505              	.L199:
 1506              		.loc 1 1150 0 is_stmt 1
 1507 0016 0220     		movs	r0, #2
 1508              		.loc 1 1155 0
 1509 0018 70BD     		pop	{r4, r5, r6, pc}
 1510              	.LVL183:
 1511              	.L200:
 1512              		.loc 1 1130 0
 1513 001a C1B9     		cbnz	r1, .L185
 1514              		.loc 1 1130 0 is_stmt 0 discriminator 1
 1515 001c 0278     		ldrb	r2, [r0, #0]	@ zero_extendqisi2
 1516 001e 032A     		cmp	r2, #3
 1517 0020 11D0     		beq	.L201
 1518              	.LVL184:
 1519              	.L186:
 1520              		.loc 1 1134 0 is_stmt 1
 1521 0022 0289     		ldrh	r2, [r0, #8]
 1522 0024 9442     		cmp	r4, r2
 1523 0026 F6D2     		bcs	.L199
 1524              		.loc 1 1136 0
 1525 0028 436A     		ldr	r3, [r0, #36]
 1526              	.LVL185:
 1527              	.L187:
 1528              		.loc 1 1149 0
 1529 002a E960     		str	r1, [r5, #12]
 1530              		.loc 1 1150 0
 1531 002c 002B     		cmp	r3, #0
 1532 002e F2D0     		beq	.L199
 1533              		.loc 1 1152 0
ARM GAS  C:\Users\Elis\AppData\Local\Temp\ccSuWDYb.s 			page 28


 1534 0030 04F00F01 		and	r1, r4, #15
 1535              	.LVL186:
 1536 0034 00EB4110 		add	r0, r0, r1, lsl #5
 1537 0038 3030     		adds	r0, r0, #48
 1538              		.loc 1 1151 0
 1539 003a 03EB1413 		add	r3, r3, r4, lsr #4
 1540              	.LVL187:
 1541              		.loc 1 1152 0
 1542 003e 6861     		str	r0, [r5, #20]
 1543              		.loc 1 1151 0
 1544 0040 2B61     		str	r3, [r5, #16]
 1545              		.loc 1 1154 0
 1546 0042 0020     		movs	r0, #0
 1547 0044 70BD     		pop	{r4, r5, r6, pc}
 1548              	.LVL188:
 1549              	.L201:
 1550              		.loc 1 1131 0
 1551 0046 426A     		ldr	r2, [r0, #36]
 1552              	.LVL189:
 1553              		.loc 1 1133 0
 1554 0048 002A     		cmp	r2, #0
 1555 004a EAD0     		beq	.L186
 1556 004c 1146     		mov	r1, r2
 1557              	.LVL190:
 1558              	.L185:
 1559              		.loc 1 1139 0
 1560 004e 8678     		ldrb	r6, [r0, #2]	@ zero_extendqisi2
 1561 0050 3601     		lsls	r6, r6, #4
 1562              	.LVL191:
 1563              		.loc 1 1140 0
 1564 0052 B442     		cmp	r4, r6
 1565 0054 08D2     		bcs	.L195
 1566 0056 10E0     		b	.L188
 1567              	.LVL192:
 1568              	.L202:
 1569              		.loc 1 1143 0
 1570 0058 0128     		cmp	r0, #1
 1571 005a DCD9     		bls	.L199
 1572              		.loc 1 1143 0 is_stmt 0 discriminator 1
 1573 005c 2868     		ldr	r0, [r5, #0]
 1574              	.LVL193:
 1575 005e 4369     		ldr	r3, [r0, #20]
 1576 0060 9942     		cmp	r1, r3
 1577 0062 D8D2     		bcs	.L199
 1578              		.loc 1 1140 0 is_stmt 1
 1579 0064 A642     		cmp	r6, r4
 1580 0066 08D8     		bhi	.L188
 1581              	.L195:
 1582              		.loc 1 1141 0
 1583 0068 FFF7FEFF 		bl	get_fat
 1584              	.LVL194:
 1585              		.loc 1 1142 0
 1586 006c 431C     		adds	r3, r0, #1
 1587              		.loc 1 1141 0
 1588 006e 0146     		mov	r1, r0
 1589              	.LVL195:
 1590              		.loc 1 1145 0
ARM GAS  C:\Users\Elis\AppData\Local\Temp\ccSuWDYb.s 			page 29


 1591 0070 C6EB0404 		rsb	r4, r6, r4
 1592              	.LVL196:
 1593              		.loc 1 1142 0
 1594 0074 F0D1     		bne	.L202
 1595 0076 0120     		movs	r0, #1
 1596              	.LVL197:
 1597 0078 70BD     		pop	{r4, r5, r6, pc}
 1598              	.L188:
 1599              	.LVL198:
 1600              	.LBB157:
 1601              	.LBB158:
 1602              		.loc 1 852 0
 1603 007a 8A1E     		subs	r2, r1, #2
 1604              	.LVL199:
 1605              		.loc 1 853 0
 1606 007c 023B     		subs	r3, r3, #2
 1607 007e 9A42     		cmp	r2, r3
 1608 0080 04D2     		bcs	.L190
 1609              		.loc 1 854 0
 1610 0082 8678     		ldrb	r6, [r0, #2]	@ zero_extendqisi2
 1611              	.LVL200:
 1612 0084 836A     		ldr	r3, [r0, #40]
 1613 0086 06FB0233 		mla	r3, r6, r2, r3
 1614 008a CEE7     		b	.L187
 1615              	.LVL201:
 1616              	.L190:
 1617              	.LBE158:
 1618              	.LBE157:
 1619              		.loc 1 1149 0
 1620 008c E960     		str	r1, [r5, #12]
 1621 008e C2E7     		b	.L199
 1622              		.cfi_endproc
 1623              	.LFE130:
 1624              		.size	dir_sdi, .-dir_sdi
 1625              		.section	.text.put_fat,"ax",%progbits
 1626              		.align	2
 1627              		.p2align 4,,15
 1628              		.global	put_fat
 1629              		.thumb
 1630              		.thumb_func
 1631              		.type	put_fat, %function
 1632              	put_fat:
 1633              	.LFB127:
 1634              		.loc 1 916 0
 1635              		.cfi_startproc
 1636              		@ args = 0, pretend = 0, frame = 8
 1637              		@ frame_needed = 0, uses_anonymous_args = 0
 1638              	.LVL202:
 1639 0000 F0B5     		push	{r4, r5, r6, r7, lr}
 1640              	.LCFI11:
 1641              		.cfi_def_cfa_offset 20
 1642              		.cfi_offset 4, -20
 1643              		.cfi_offset 5, -16
 1644              		.cfi_offset 6, -12
 1645              		.cfi_offset 7, -8
 1646              		.cfi_offset 14, -4
 1647              		.loc 1 922 0
ARM GAS  C:\Users\Elis\AppData\Local\Temp\ccSuWDYb.s 			page 30


 1648 0002 0129     		cmp	r1, #1
 1649              		.loc 1 916 0
 1650 0004 83B0     		sub	sp, sp, #12
 1651              	.LCFI12:
 1652              		.cfi_def_cfa_offset 32
 1653              		.loc 1 916 0
 1654 0006 0C46     		mov	r4, r1
 1655 0008 0546     		mov	r5, r0
 1656              		.loc 1 922 0
 1657 000a 02D9     		bls	.L214
 1658              		.loc 1 922 0 is_stmt 0 discriminator 1
 1659 000c 4369     		ldr	r3, [r0, #20]
 1660 000e 9942     		cmp	r1, r3
 1661 0010 02D3     		bcc	.L217
 1662              	.L214:
 1663              		.loc 1 923 0 is_stmt 1
 1664 0012 0220     		movs	r0, #2
 1665              	.LVL203:
 1666              	.L204:
 1667              		.loc 1 963 0
 1668 0014 03B0     		add	sp, sp, #12
 1669 0016 F0BD     		pop	{r4, r5, r6, r7, pc}
 1670              	.LVL204:
 1671              	.L217:
 1672              	.LBB161:
 1673              	.LBB162:
 1674              		.loc 1 926 0
 1675 0018 0178     		ldrb	r1, [r0, #0]	@ zero_extendqisi2
 1676              	.LVL205:
 1677 001a 0229     		cmp	r1, #2
 1678 001c 25D0     		beq	.L207
 1679 001e 0329     		cmp	r1, #3
 1680 0020 05D0     		beq	.L208
 1681 0022 0129     		cmp	r1, #1
 1682 0024 35D0     		beq	.L218
 1683              		.loc 1 957 0
 1684 0026 0220     		movs	r0, #2
 1685              	.LVL206:
 1686              	.L205:
 1687              		.loc 1 959 0
 1688 0028 0122     		movs	r2, #1
 1689 002a 2A71     		strb	r2, [r5, #4]
 1690 002c F2E7     		b	.L204
 1691              	.LVL207:
 1692              	.L208:
 1693              		.loc 1 949 0
 1694 002e 036A     		ldr	r3, [r0, #32]
 1695 0030 0192     		str	r2, [sp, #4]
 1696 0032 03EBD411 		add	r1, r3, r4, lsr #7
 1697 0036 FFF7FEFF 		bl	move_window
 1698              	.LVL208:
 1699              		.loc 1 950 0
 1700 003a 019A     		ldr	r2, [sp, #4]
 1701 003c 0028     		cmp	r0, #0
 1702 003e F3D1     		bne	.L205
 1703              		.loc 1 951 0
 1704 0040 6406     		lsls	r4, r4, #25
ARM GAS  C:\Users\Elis\AppData\Local\Temp\ccSuWDYb.s 			page 31


 1705              	.LVL209:
 1706 0042 E70D     		lsrs	r7, r4, #23
 1707 0044 07F13006 		add	r6, r7, #48
 1708 0048 AB19     		adds	r3, r5, r6
 1709              	.LVL210:
 1710              		.loc 1 952 0
 1711 004a EC19     		adds	r4, r5, r7
 1712 004c D978     		ldrb	r1, [r3, #3]	@ zero_extendqisi2
 1713 004e 0F06     		lsls	r7, r1, #24
 1714 0050 07F07046 		and	r6, r7, #-268435456
 1715 0054 3243     		orrs	r2, r2, r6
 1716              	.LVL211:
 1717              		.loc 1 953 0
 1718 0056 C2F30727 		ubfx	r7, r2, #8, #8
 1719 005a 160C     		lsrs	r6, r2, #16
 1720 005c 110E     		lsrs	r1, r2, #24
 1721 005e 84F83020 		strb	r2, [r4, #48]
 1722 0062 5F70     		strb	r7, [r3, #1]
 1723 0064 9E70     		strb	r6, [r3, #2]
 1724 0066 D970     		strb	r1, [r3, #3]
 1725 0068 DEE7     		b	.L205
 1726              	.LVL212:
 1727              	.L207:
 1728              		.loc 1 942 0
 1729 006a 036A     		ldr	r3, [r0, #32]
 1730 006c 0192     		str	r2, [sp, #4]
 1731 006e 03EB1421 		add	r1, r3, r4, lsr #8
 1732 0072 FFF7FEFF 		bl	move_window
 1733              	.LVL213:
 1734              		.loc 1 943 0
 1735 0076 019A     		ldr	r2, [sp, #4]
 1736 0078 0028     		cmp	r0, #0
 1737 007a D5D1     		bne	.L205
 1738              		.loc 1 944 0
 1739 007c 2406     		lsls	r4, r4, #24
 1740              	.LVL214:
 1741 007e E10D     		lsrs	r1, r4, #23
 1742              	.LVL215:
 1743              		.loc 1 945 0
 1744 0080 6918     		adds	r1, r5, r1
 1745              	.LVL216:
 1746 0082 C2F30723 		ubfx	r3, r2, #8, #8
 1747 0086 0C46     		mov	r4, r1
 1748              	.LVL217:
 1749 0088 81F83020 		strb	r2, [r1, #48]
 1750 008c 81F83130 		strb	r3, [r1, #49]
 1751 0090 CAE7     		b	.L205
 1752              	.LVL218:
 1753              	.L218:
 1754              		.loc 1 929 0
 1755 0092 036A     		ldr	r3, [r0, #32]
 1756 0094 0192     		str	r2, [sp, #4]
 1757              		.loc 1 928 0
 1758 0096 04EB5406 		add	r6, r4, r4, lsr #1
 1759              	.LVL219:
 1760              		.loc 1 929 0
 1761 009a 03EB5621 		add	r1, r3, r6, lsr #9
ARM GAS  C:\Users\Elis\AppData\Local\Temp\ccSuWDYb.s 			page 32


 1762 009e FFF7FEFF 		bl	move_window
 1763              	.LVL220:
 1764              		.loc 1 930 0
 1765 00a2 019A     		ldr	r2, [sp, #4]
 1766 00a4 0028     		cmp	r0, #0
 1767 00a6 BFD1     		bne	.L205
 1768              		.loc 1 931 0
 1769 00a8 F005     		lsls	r0, r6, #23
 1770              	.LVL221:
 1771 00aa C10D     		lsrs	r1, r0, #23
 1772              	.LVL222:
 1773              		.loc 1 932 0
 1774 00ac 14F00104 		ands	r4, r4, #1
 1775              	.LVL223:
 1776 00b0 20D0     		beq	.L209
 1777 00b2 6B18     		adds	r3, r5, r1
 1778              	.LBE162:
 1779              		.file 2 "../../ugfx/src/gfile/gfile_fatfs_wrapper.c"
 1780              		.loc 2 80 0
 1781 00b4 D0B2     		uxtb	r0, r2
 1782              		.loc 1 932 0
 1783 00b6 93F83010 		ldrb	r1, [r3, #48]	@ zero_extendqisi2
 1784              	.LVL224:
 1785 00ba 01F00F01 		and	r1, r1, #15
 1786              	.LBB163:
 1787 00be 41EA0010 		orr	r0, r1, r0, lsl #4
 1788 00c2 C0B2     		uxtb	r0, r0
 1789              	.L210:
 1790              		.loc 1 935 0
 1791 00c4 296A     		ldr	r1, [r5, #32]
 1792              		.loc 1 932 0
 1793 00c6 83F83000 		strb	r0, [r3, #48]
 1794              		.loc 1 933 0
 1795 00ca 0136     		adds	r6, r6, #1
 1796              	.LVL225:
 1797              		.loc 1 934 0
 1798 00cc 0123     		movs	r3, #1
 1799 00ce 2B71     		strb	r3, [r5, #4]
 1800              		.loc 1 935 0
 1801 00d0 2846     		mov	r0, r5
 1802 00d2 01EB5621 		add	r1, r1, r6, lsr #9
 1803 00d6 0192     		str	r2, [sp, #4]
 1804 00d8 FFF7FEFF 		bl	move_window
 1805              	.LVL226:
 1806              		.loc 1 936 0
 1807 00dc 019A     		ldr	r2, [sp, #4]
 1808 00de 0028     		cmp	r0, #0
 1809 00e0 A2D1     		bne	.L205
 1810              		.loc 1 937 0
 1811 00e2 F605     		lsls	r6, r6, #23
 1812              	.LVL227:
 1813 00e4 F10D     		lsrs	r1, r6, #23
 1814              	.LVL228:
 1815              		.loc 1 938 0
 1816 00e6 44B1     		cbz	r4, .L211
 1817 00e8 C2F30712 		ubfx	r2, r2, #4, #8
 1818 00ec 6E18     		adds	r6, r5, r1
ARM GAS  C:\Users\Elis\AppData\Local\Temp\ccSuWDYb.s 			page 33


 1819              	.LVL229:
 1820              	.L212:
 1821 00ee 86F83020 		strb	r2, [r6, #48]
 1822 00f2 99E7     		b	.L205
 1823              	.LVL230:
 1824              	.L209:
 1825              		.loc 1 932 0
 1826 00f4 D0B2     		uxtb	r0, r2
 1827 00f6 6B18     		adds	r3, r5, r1
 1828 00f8 E4E7     		b	.L210
 1829              	.LVL231:
 1830              	.L211:
 1831              		.loc 1 938 0
 1832 00fa 6E18     		adds	r6, r5, r1
 1833              	.LBE163:
 1834 00fc C2F30322 		ubfx	r2, r2, #8, #4
 1835              	.LBB164:
 1836 0100 96F83030 		ldrb	r3, [r6, #48]	@ zero_extendqisi2
 1837 0104 23F00F01 		bic	r1, r3, #15
 1838              	.LVL232:
 1839 0108 0A43     		orrs	r2, r2, r1
 1840 010a F0E7     		b	.L212
 1841              	.LBE164:
 1842              	.LBE161:
 1843              		.cfi_endproc
 1844              	.LFE127:
 1845              		.size	put_fat, .-put_fat
 1846 010c AFF30080 		.section	.text.create_chain,"ax",%progbits
 1847              		.align	2
 1848              		.p2align 4,,15
 1849              		.thumb
 1850              		.thumb_func
 1851              		.type	create_chain, %function
 1852              	create_chain:
 1853              	.LFB129:
 1854              		.loc 1 1031 0
 1855              		.cfi_startproc
 1856              		@ args = 0, pretend = 0, frame = 0
 1857              		@ frame_needed = 0, uses_anonymous_args = 0
 1858              	.LVL233:
 1859 0000 F8B5     		push	{r3, r4, r5, r6, r7, lr}
 1860              	.LCFI13:
 1861              		.cfi_def_cfa_offset 24
 1862              		.cfi_offset 3, -24
 1863              		.cfi_offset 4, -20
 1864              		.cfi_offset 5, -16
 1865              		.cfi_offset 6, -12
 1866              		.cfi_offset 7, -8
 1867              		.cfi_offset 14, -4
 1868              		.loc 1 1031 0
 1869 0002 0546     		mov	r5, r0
 1870              		.loc 1 1036 0
 1871 0004 0F46     		mov	r7, r1
 1872 0006 01BB     		cbnz	r1, .L220
 1873              		.loc 1 1037 0
 1874 0008 C668     		ldr	r6, [r0, #12]
 1875              	.LVL234:
ARM GAS  C:\Users\Elis\AppData\Local\Temp\ccSuWDYb.s 			page 34


 1876 000a 4369     		ldr	r3, [r0, #20]
 1877              		.loc 1 1038 0
 1878 000c CEB1     		cbz	r6, .L252
 1879              		.loc 1 1038 0 is_stmt 0 discriminator 2
 1880 000e 9E42     		cmp	r6, r3
 1881 0010 28BF     		it	cs
 1882 0012 0126     		movcs	r6, #1
 1883              	.LVL235:
 1884              	.L222:
 1885              		.loc 1 1038 0
 1886 0014 3446     		mov	r4, r6
 1887              	.LVL236:
 1888              		.loc 1 1050 0 is_stmt 1
 1889 0016 0134     		adds	r4, r4, #1
 1890              	.LVL237:
 1891              		.loc 1 1051 0
 1892 0018 9C42     		cmp	r4, r3
 1893 001a 02D3     		bcc	.L226
 1894              	.L253:
 1895              		.loc 1 1053 0
 1896 001c 012E     		cmp	r6, #1
 1897 001e 12D9     		bls	.L230
 1898              		.loc 1 1052 0
 1899 0020 0224     		movs	r4, #2
 1900              	.LVL238:
 1901              	.L226:
 1902              		.loc 1 1055 0
 1903 0022 2846     		mov	r0, r5
 1904 0024 2146     		mov	r1, r4
 1905 0026 FFF7FEFF 		bl	get_fat
 1906              	.LVL239:
 1907              		.loc 1 1056 0
 1908 002a C8B1     		cbz	r0, .L227
 1909              		.loc 1 1057 0
 1910 002c 411C     		adds	r1, r0, #1
 1911 002e 20D0     		beq	.L228
 1912              		.loc 1 1057 0 is_stmt 0 discriminator 1
 1913 0030 0128     		cmp	r0, #1
 1914 0032 21D0     		beq	.L250
 1915              		.loc 1 1059 0 is_stmt 1
 1916 0034 B442     		cmp	r4, r6
 1917 0036 06D0     		beq	.L230
 1918 0038 6B69     		ldr	r3, [r5, #20]
 1919              	.LVL240:
 1920              		.loc 1 1050 0
 1921 003a 0134     		adds	r4, r4, #1
 1922              	.LVL241:
 1923              		.loc 1 1051 0
 1924 003c 9C42     		cmp	r4, r3
 1925 003e EDD2     		bcs	.L253
 1926 0040 EFE7     		b	.L226
 1927              	.LVL242:
 1928              	.L252:
 1929              		.loc 1 1038 0
 1930 0042 0126     		movs	r6, #1
 1931              	.LVL243:
 1932 0044 E6E7     		b	.L222
ARM GAS  C:\Users\Elis\AppData\Local\Temp\ccSuWDYb.s 			page 35


 1933              	.LVL244:
 1934              	.L230:
 1935              		.loc 1 1053 0
 1936 0046 0020     		movs	r0, #0
 1937 0048 F8BD     		pop	{r3, r4, r5, r6, r7, pc}
 1938              	.LVL245:
 1939              	.L220:
 1940              		.loc 1 1041 0
 1941 004a FFF7FEFF 		bl	get_fat
 1942              	.LVL246:
 1943              		.loc 1 1042 0
 1944 004e 0128     		cmp	r0, #1
 1945 0050 12D9     		bls	.L250
 1946              		.loc 1 1043 0
 1947 0052 431C     		adds	r3, r0, #1
 1948 0054 0DD0     		beq	.L228
 1949              		.loc 1 1044 0
 1950 0056 6B69     		ldr	r3, [r5, #20]
 1951 0058 9842     		cmp	r0, r3
 1952 005a 0ED3     		bcc	.L224
 1953 005c 3E46     		mov	r6, r7
 1954 005e D9E7     		b	.L222
 1955              	.LVL247:
 1956              	.L227:
 1957              		.loc 1 1062 0
 1958 0060 2846     		mov	r0, r5
 1959              	.LVL248:
 1960 0062 2146     		mov	r1, r4
 1961 0064 6FF07042 		mvn	r2, #-268435456
 1962 0068 FFF7FEFF 		bl	put_fat
 1963              	.LVL249:
 1964              		.loc 1 1063 0
 1965 006c 30B1     		cbz	r0, .L254
 1966              	.L232:
 1967              		.loc 1 1073 0
 1968 006e 0128     		cmp	r0, #1
 1969 0070 02D1     		bne	.L250
 1970              	.LVL250:
 1971              	.L228:
 1972              		.loc 1 1042 0
 1973 0072 4FF0FF30 		mov	r0, #-1
 1974 0076 F8BD     		pop	{r3, r4, r5, r6, r7, pc}
 1975              	.L250:
 1976              		.loc 1 1073 0
 1977 0078 0120     		movs	r0, #1
 1978              	.L224:
 1979              		.loc 1 1077 0
 1980 007a F8BD     		pop	{r3, r4, r5, r6, r7, pc}
 1981              	.LVL251:
 1982              	.L254:
 1983              		.loc 1 1063 0 discriminator 1
 1984 007c 5FB9     		cbnz	r7, .L233
 1985              	.L235:
 1986              		.loc 1 1068 0
 1987 007e 2869     		ldr	r0, [r5, #16]
 1988              	.LVL252:
 1989              		.loc 1 1067 0
ARM GAS  C:\Users\Elis\AppData\Local\Temp\ccSuWDYb.s 			page 36


 1990 0080 EC60     		str	r4, [r5, #12]
 1991              		.loc 1 1068 0
 1992 0082 421C     		adds	r2, r0, #1
 1993 0084 05D0     		beq	.L251
 1994              		.loc 1 1070 0
 1995 0086 6A79     		ldrb	r2, [r5, #5]	@ zero_extendqisi2
 1996              		.loc 1 1069 0
 1997 0088 411E     		subs	r1, r0, #1
 1998              		.loc 1 1070 0
 1999 008a 42F00103 		orr	r3, r2, #1
 2000              		.loc 1 1069 0
 2001 008e 2961     		str	r1, [r5, #16]
 2002              		.loc 1 1070 0
 2003 0090 6B71     		strb	r3, [r5, #5]
 2004              	.L251:
 2005 0092 2046     		mov	r0, r4
 2006 0094 F8BD     		pop	{r3, r4, r5, r6, r7, pc}
 2007              	.LVL253:
 2008              	.L233:
 2009              		.loc 1 1064 0
 2010 0096 2846     		mov	r0, r5
 2011              	.LVL254:
 2012 0098 3946     		mov	r1, r7
 2013 009a 2246     		mov	r2, r4
 2014 009c FFF7FEFF 		bl	put_fat
 2015              	.LVL255:
 2016              		.loc 1 1066 0
 2017 00a0 0028     		cmp	r0, #0
 2018 00a2 ECD0     		beq	.L235
 2019 00a4 E3E7     		b	.L232
 2020              		.cfi_endproc
 2021              	.LFE129:
 2022              		.size	create_chain, .-create_chain
 2023 00a6 00BFAFF3 		.section	.text.dir_next,"ax",%progbits
 2023      0080AFF3 
 2023      0080
 2024              		.align	2
 2025              		.p2align 4,,15
 2026              		.thumb
 2027              		.thumb_func
 2028              		.type	dir_next, %function
 2029              	dir_next:
 2030              	.LFB131:
 2031              		.loc 1 1169 0
 2032              		.cfi_startproc
 2033              		@ args = 0, pretend = 0, frame = 0
 2034              		@ frame_needed = 0, uses_anonymous_args = 0
 2035              	.LVL256:
 2036 0000 2DE9F047 		push	{r4, r5, r6, r7, r8, r9, sl, lr}
 2037              	.LCFI14:
 2038              		.cfi_def_cfa_offset 32
 2039              		.cfi_offset 4, -32
 2040              		.cfi_offset 5, -28
 2041              		.cfi_offset 6, -24
 2042              		.cfi_offset 7, -20
 2043              		.cfi_offset 8, -16
 2044              		.cfi_offset 9, -12
ARM GAS  C:\Users\Elis\AppData\Local\Temp\ccSuWDYb.s 			page 37


 2045              		.cfi_offset 10, -8
 2046              		.cfi_offset 14, -4
 2047              		.loc 1 1174 0
 2048 0004 C588     		ldrh	r5, [r0, #6]
 2049 0006 0135     		adds	r5, r5, #1
 2050              	.LVL257:
 2051              		.loc 1 1175 0
 2052 0008 ABB2     		uxth	r3, r5
 2053              		.loc 1 1169 0
 2054 000a 0446     		mov	r4, r0
 2055 000c 0E46     		mov	r6, r1
 2056              		.loc 1 1175 0
 2057 000e 13B9     		cbnz	r3, .L256
 2058              	.LVL258:
 2059              	.L258:
 2060              	.LBB165:
 2061              	.LBB166:
 2062              		.loc 1 1176 0
 2063 0010 0420     		movs	r0, #4
 2064 0012 BDE8F087 		pop	{r4, r5, r6, r7, r8, r9, sl, pc}
 2065              	.LVL259:
 2066              	.L256:
 2067              	.LBE166:
 2068              	.LBE165:
 2069              		.loc 1 1175 0 discriminator 1
 2070 0016 0069     		ldr	r0, [r0, #16]
 2071              	.LVL260:
 2072 0018 0028     		cmp	r0, #0
 2073 001a F9D0     		beq	.L258
 2074              		.loc 1 1178 0
 2075 001c 15F00F07 		ands	r7, r5, #15
 2076 0020 08D0     		beq	.L259
 2077 0022 2068     		ldr	r0, [r4, #0]
 2078              	.LVL261:
 2079              	.L260:
 2080              		.loc 1 1220 0
 2081 0024 00EB4712 		add	r2, r0, r7, lsl #5
 2082 0028 3032     		adds	r2, r2, #48
 2083              		.loc 1 1219 0
 2084 002a E580     		strh	r5, [r4, #6]	@ movhi
 2085              		.loc 1 1220 0
 2086 002c 6261     		str	r2, [r4, #20]
 2087              		.loc 1 1222 0
 2088 002e 0020     		movs	r0, #0
 2089 0030 BDE8F087 		pop	{r4, r5, r6, r7, r8, r9, sl, pc}
 2090              	.LVL262:
 2091              	.L259:
 2092              		.loc 1 1181 0
 2093 0034 E168     		ldr	r1, [r4, #12]
 2094              	.LVL263:
 2095              		.loc 1 1179 0
 2096 0036 421C     		adds	r2, r0, #1
 2097 0038 2261     		str	r2, [r4, #16]
 2098              		.loc 1 1182 0
 2099 003a 2068     		ldr	r0, [r4, #0]
 2100              		.loc 1 1181 0
 2101 003c F9B1     		cbz	r1, .L291
ARM GAS  C:\Users\Elis\AppData\Local\Temp\ccSuWDYb.s 			page 38


 2102              		.loc 1 1186 0
 2103 003e 8378     		ldrb	r3, [r0, #2]	@ zero_extendqisi2
 2104 0040 5A1E     		subs	r2, r3, #1
 2105 0042 12EA1512 		ands	r2, r2, r5, lsr #4
 2106 0046 EDD1     		bne	.L260
 2107              		.loc 1 1187 0
 2108 0048 FFF7FEFF 		bl	get_fat
 2109              	.LVL264:
 2110              		.loc 1 1188 0
 2111 004c 0128     		cmp	r0, #1
 2112              		.loc 1 1187 0
 2113 004e 8046     		mov	r8, r0
 2114              	.LVL265:
 2115              		.loc 1 1188 0
 2116 0050 19D9     		bls	.L265
 2117              		.loc 1 1189 0
 2118 0052 B0F1FF3F 		cmp	r0, #-1
 2119 0056 23D0     		beq	.L266
 2120              		.loc 1 1190 0
 2121 0058 2068     		ldr	r0, [r4, #0]
 2122              	.LVL266:
 2123 005a 4369     		ldr	r3, [r0, #20]
 2124 005c 9845     		cmp	r8, r3
 2125 005e 15D2     		bcs	.L290
 2126 0060 A8F10206 		sub	r6, r8, #2
 2127              	.LVL267:
 2128              	.L264:
 2129              	.LBB169:
 2130              	.LBB167:
 2131              		.loc 1 853 0
 2132 0064 4269     		ldr	r2, [r0, #20]
 2133              	.LBE167:
 2134              	.LBE169:
 2135              		.loc 1 1213 0
 2136 0066 C4F80C80 		str	r8, [r4, #12]
 2137              	.LVL268:
 2138              	.LBB170:
 2139              	.LBB168:
 2140              		.loc 1 853 0
 2141 006a 931E     		subs	r3, r2, #2
 2142 006c 9E42     		cmp	r6, r3
 2143              		.loc 1 854 0
 2144 006e 3DBF     		ittte	cc
 2145 0070 8178     		ldrbcc	r1, [r0, #2]	@ zero_extendqisi2
 2146 0072 836A     		ldrcc	r3, [r0, #40]
 2147 0074 01FB0636 		mlacc	r6, r1, r6, r3
 2148              	.LVL269:
 2149              		.loc 1 853 0
 2150 0078 0026     		movcs	r6, #0
 2151              	.LBE168:
 2152              	.LBE170:
 2153              		.loc 1 1214 0
 2154 007a 2661     		str	r6, [r4, #16]
 2155 007c D2E7     		b	.L260
 2156              	.LVL270:
 2157              	.L291:
 2158              		.loc 1 1182 0
ARM GAS  C:\Users\Elis\AppData\Local\Temp\ccSuWDYb.s 			page 39


 2159 007e 0389     		ldrh	r3, [r0, #8]
 2160 0080 9D42     		cmp	r5, r3
 2161 0082 C5D2     		bcs	.L258
 2162 0084 CEE7     		b	.L260
 2163              	.LVL271:
 2164              	.L265:
 2165              		.loc 1 1188 0
 2166 0086 0220     		movs	r0, #2
 2167              	.LVL272:
 2168 0088 BDE8F087 		pop	{r4, r5, r6, r7, r8, r9, sl, pc}
 2169              	.L290:
 2170              	.LBB171:
 2171              		.loc 1 1193 0
 2172 008c 002E     		cmp	r6, #0
 2173 008e BFD0     		beq	.L258
 2174              		.loc 1 1194 0
 2175 0090 E168     		ldr	r1, [r4, #12]
 2176 0092 FFF7FEFF 		bl	create_chain
 2177              	.LVL273:
 2178              		.loc 1 1195 0
 2179 0096 8046     		mov	r8, r0
 2180 0098 28B9     		cbnz	r0, .L292
 2181 009a 0720     		movs	r0, #7
 2182              	.LVL274:
 2183              	.LBE171:
 2184              		.loc 1 1223 0
 2185 009c BDE8F087 		pop	{r4, r5, r6, r7, r8, r9, sl, pc}
 2186              	.LVL275:
 2187              	.L266:
 2188              		.loc 1 1189 0
 2189 00a0 0120     		movs	r0, #1
 2190 00a2 BDE8F087 		pop	{r4, r5, r6, r7, r8, r9, sl, pc}
 2191              	.LVL276:
 2192              	.L292:
 2193              	.LBB178:
 2194              		.loc 1 1196 0
 2195 00a6 0128     		cmp	r0, #1
 2196 00a8 EDD0     		beq	.L265
 2197              		.loc 1 1197 0
 2198 00aa B0F1FF3F 		cmp	r0, #-1
 2199 00ae F7D0     		beq	.L266
 2200              		.loc 1 1199 0
 2201 00b0 2068     		ldr	r0, [r4, #0]
 2202              	.LVL277:
 2203 00b2 FFF7FEFF 		bl	sync_window
 2204              	.LVL278:
 2205 00b6 0028     		cmp	r0, #0
 2206 00b8 F2D1     		bne	.L266
 2207              		.loc 1 1200 0
 2208 00ba 2668     		ldr	r6, [r4, #0]
 2209              	.LVL279:
 2210              	.LBB172:
 2211              	.LBB173:
 2212              		.loc 1 583 0
 2213 00bc 0146     		mov	r1, r0
 2214              	.LBE173:
 2215              	.LBE172:
ARM GAS  C:\Users\Elis\AppData\Local\Temp\ccSuWDYb.s 			page 40


 2216              		.loc 1 1200 0
 2217 00be 06F13003 		add	r3, r6, #48
 2218              	.LVL280:
 2219              		.loc 1 1165 0
 2220 00c2 06F50C70 		add	r0, r6, #560
 2221              	.LVL281:
 2222              	.L267:
 2223              	.LBB175:
 2224              	.LBB174:
 2225              		.loc 1 583 0
 2226 00c6 1A46     		mov	r2, r3
 2227 00c8 02F8011B 		strb	r1, [r2], #1
 2228 00cc 5970     		strb	r1, [r3, #1]
 2229 00ce 531C     		adds	r3, r2, #1
 2230              	.LVL282:
 2231              		.loc 1 582 0
 2232 00d0 8342     		cmp	r3, r0
 2233 00d2 F8D1     		bne	.L267
 2234              	.LBE174:
 2235              	.LBE175:
 2236              		.loc 1 1201 0
 2237 00d4 2268     		ldr	r2, [r4, #0]
 2238              	.LVL283:
 2239              	.LBB176:
 2240              	.LBB177:
 2241              		.loc 1 853 0
 2242 00d6 5069     		ldr	r0, [r2, #20]
 2243              		.loc 1 852 0
 2244 00d8 A8F10206 		sub	r6, r8, #2
 2245              	.LVL284:
 2246              		.loc 1 853 0
 2247 00dc 831E     		subs	r3, r0, #2
 2248              	.LVL285:
 2249 00de 9E42     		cmp	r6, r3
 2250              		.loc 1 854 0
 2251 00e0 3DBF     		ittte	cc
 2252 00e2 936A     		ldrcc	r3, [r2, #40]
 2253 00e4 9178     		ldrbcc	r1, [r2, #2]	@ zero_extendqisi2
 2254 00e6 01FB0633 		mlacc	r3, r1, r6, r3
 2255              		.loc 1 853 0
 2256 00ea 0023     		movcs	r3, #0
 2257              	.LBE177:
 2258              	.LBE176:
 2259              		.loc 1 1201 0
 2260 00ec D362     		str	r3, [r2, #44]
 2261              	.LVL286:
 2262              		.loc 1 1202 0
 2263 00ee 4FF00009 		mov	r9, #0
 2264              		.loc 1 1203 0
 2265 00f2 4FF0010A 		mov	sl, #1
 2266              		.loc 1 1202 0
 2267 00f6 0CE0     		b	.L269
 2268              	.LVL287:
 2269              	.L270:
 2270              		.loc 1 1203 0
 2271 00f8 82F804A0 		strb	sl, [r2, #4]
 2272              		.loc 1 1204 0
ARM GAS  C:\Users\Elis\AppData\Local\Temp\ccSuWDYb.s 			page 41


 2273 00fc 2068     		ldr	r0, [r4, #0]
 2274 00fe FFF7FEFF 		bl	sync_window
 2275              	.LVL288:
 2276 0102 0028     		cmp	r0, #0
 2277 0104 CCD1     		bne	.L266
 2278              		.loc 1 1205 0
 2279 0106 2268     		ldr	r2, [r4, #0]
 2280 0108 D16A     		ldr	r1, [r2, #44]
 2281 010a 481C     		adds	r0, r1, #1
 2282 010c D062     		str	r0, [r2, #44]
 2283              		.loc 1 1202 0
 2284 010e 09F10109 		add	r9, r9, #1
 2285              	.LVL289:
 2286              	.L269:
 2287              		.loc 1 1202 0 is_stmt 0 discriminator 1
 2288 0112 9178     		ldrb	r1, [r2, #2]	@ zero_extendqisi2
 2289 0114 8945     		cmp	r9, r1
 2290 0116 1046     		mov	r0, r2
 2291 0118 EED3     		bcc	.L270
 2292              		.loc 1 1207 0 is_stmt 1
 2293 011a D26A     		ldr	r2, [r2, #44]
 2294 011c C9EB0203 		rsb	r3, r9, r2
 2295 0120 C362     		str	r3, [r0, #44]
 2296 0122 9FE7     		b	.L264
 2297              	.LBE178:
 2298              		.cfi_endproc
 2299              	.LFE131:
 2300              		.size	dir_next, .-dir_next
 2301 0124 AFF30080 		.section	.text.dir_remove,"ax",%progbits
 2301      AFF30080 
 2301      AFF30080 
 2302              		.align	2
 2303              		.p2align 4,,15
 2304              		.thumb
 2305              		.thumb_func
 2306              		.type	dir_remove, %function
 2307              	dir_remove:
 2308              	.LFB143:
 2309              		.loc 1 1691 0
 2310              		.cfi_startproc
 2311              		@ args = 0, pretend = 0, frame = 0
 2312              		@ frame_needed = 0, uses_anonymous_args = 0
 2313              	.LVL290:
 2314 0000 2DE9F041 		push	{r4, r5, r6, r7, r8, lr}
 2315              	.LCFI15:
 2316              		.cfi_def_cfa_offset 24
 2317              		.cfi_offset 4, -24
 2318              		.cfi_offset 5, -20
 2319              		.cfi_offset 6, -16
 2320              		.cfi_offset 7, -12
 2321              		.cfi_offset 8, -8
 2322              		.cfi_offset 14, -4
 2323              		.loc 1 1697 0
 2324 0004 018C     		ldrh	r1, [r0, #32]
 2325              		.loc 1 1696 0
 2326 0006 C688     		ldrh	r6, [r0, #6]
 2327              	.LVL291:
ARM GAS  C:\Users\Elis\AppData\Local\Temp\ccSuWDYb.s 			page 42


 2328              		.loc 1 1697 0
 2329 0008 4FF6FF73 		movw	r3, #65535
 2330 000c 9942     		cmp	r1, r3
 2331 000e 08BF     		it	eq
 2332 0010 3146     		moveq	r1, r6
 2333              		.loc 1 1691 0
 2334 0012 0546     		mov	r5, r0
 2335              		.loc 1 1697 0
 2336 0014 FFF7FEFF 		bl	dir_sdi
 2337              	.LVL292:
 2338              		.loc 1 1698 0
 2339 0018 18BB     		cbnz	r0, .L295
 2340              	.LBB179:
 2341              	.LBB180:
 2342              		.loc 1 583 0
 2343 001a 0446     		mov	r4, r0
 2344              	.LBE180:
 2345              	.LBE179:
 2346              		.loc 1 1703 0
 2347 001c 4FF0E508 		mov	r8, #229
 2348              		.loc 1 1704 0
 2349 0020 0127     		movs	r7, #1
 2350              	.L304:
 2351              		.loc 1 1700 0
 2352 0022 2868     		ldr	r0, [r5, #0]
 2353              	.LVL293:
 2354 0024 2969     		ldr	r1, [r5, #16]
 2355 0026 FFF7FEFF 		bl	move_window
 2356              	.LVL294:
 2357              		.loc 1 1701 0
 2358 002a B8B9     		cbnz	r0, .L296
 2359              		.loc 1 1702 0
 2360 002c 6B69     		ldr	r3, [r5, #20]
 2361              	.LVL295:
 2362              		.loc 1 1688 0
 2363 002e 03F12001 		add	r1, r3, #32
 2364              	.LVL296:
 2365              	.L297:
 2366              	.LBB182:
 2367              	.LBB181:
 2368              		.loc 1 583 0
 2369 0032 1A46     		mov	r2, r3
 2370 0034 02F8014B 		strb	r4, [r2], #1
 2371 0038 5C70     		strb	r4, [r3, #1]
 2372 003a 531C     		adds	r3, r2, #1
 2373              	.LVL297:
 2374              		.loc 1 582 0
 2375 003c 8B42     		cmp	r3, r1
 2376 003e F8D1     		bne	.L297
 2377              	.LBE181:
 2378              	.LBE182:
 2379              		.loc 1 1703 0
 2380 0040 6969     		ldr	r1, [r5, #20]
 2381 0042 81F80080 		strb	r8, [r1, #0]
 2382              		.loc 1 1704 0
 2383 0046 2A68     		ldr	r2, [r5, #0]
 2384 0048 1771     		strb	r7, [r2, #4]
ARM GAS  C:\Users\Elis\AppData\Local\Temp\ccSuWDYb.s 			page 43


 2385              		.loc 1 1705 0
 2386 004a EB88     		ldrh	r3, [r5, #6]
 2387              	.LVL298:
 2388 004c 9E42     		cmp	r6, r3
 2389 004e 08D9     		bls	.L295
 2390              		.loc 1 1706 0
 2391 0050 2846     		mov	r0, r5
 2392              	.LVL299:
 2393 0052 0021     		movs	r1, #0
 2394 0054 FFF7FEFF 		bl	dir_next
 2395              	.LVL300:
 2396              		.loc 1 1707 0
 2397 0058 0028     		cmp	r0, #0
 2398 005a E2D0     		beq	.L304
 2399              	.LVL301:
 2400              	.L296:
 2401              		.loc 1 1708 0
 2402 005c 0428     		cmp	r0, #4
 2403 005e 08BF     		it	eq
 2404 0060 0220     		moveq	r0, #2
 2405              	.LVL302:
 2406              	.L295:
 2407              		.loc 1 1724 0
 2408 0062 BDE8F081 		pop	{r4, r5, r6, r7, r8, pc}
 2409              		.cfi_endproc
 2410              	.LFE143:
 2411              		.size	dir_remove, .-dir_remove
 2412 0066 00BFAFF3 		.section	.text.dir_find.part.9,"ax",%progbits
 2412      0080AFF3 
 2412      0080
 2413              		.align	2
 2414              		.p2align 4,,15
 2415              		.thumb
 2416              		.thumb_func
 2417              		.type	dir_find.part.9, %function
 2418              	dir_find.part.9:
 2419              	.LFB187:
 2420              		.loc 1 1490 0
 2421              		.cfi_startproc
 2422              		@ args = 0, pretend = 0, frame = 16
 2423              		@ frame_needed = 0, uses_anonymous_args = 0
 2424              	.LVL303:
 2425 0000 2DE9F04F 		push	{r4, r5, r6, r7, r8, r9, sl, fp, lr}
 2426              	.LCFI16:
 2427              		.cfi_def_cfa_offset 36
 2428              		.cfi_offset 4, -36
 2429              		.cfi_offset 5, -32
 2430              		.cfi_offset 6, -28
 2431              		.cfi_offset 7, -24
 2432              		.cfi_offset 8, -20
 2433              		.cfi_offset 9, -16
 2434              		.cfi_offset 10, -12
 2435              		.cfi_offset 11, -8
 2436              		.cfi_offset 14, -4
 2437 0004 85B0     		sub	sp, sp, #20
 2438              	.LCFI17:
 2439              		.cfi_def_cfa_offset 56
ARM GAS  C:\Users\Elis\AppData\Local\Temp\ccSuWDYb.s 			page 44


 2440              		.loc 1 1504 0
 2441 0006 FF22     		movs	r2, #255
 2442 0008 4FF6FF73 		movw	r3, #65535
 2443              		.loc 1 1490 0
 2444 000c 8246     		mov	sl, r0
 2445              		.loc 1 1504 0
 2446 000e 0192     		str	r2, [sp, #4]
 2447 0010 0384     		strh	r3, [r0, #32]	@ movhi
 2448 0012 1446     		mov	r4, r2
 2449 0014 0EE0     		b	.L330
 2450              	.LVL304:
 2451              	.L373:
 2452              		.loc 1 1514 0
 2453 0016 0F29     		cmp	r1, #15
 2454 0018 00F0BC80 		beq	.L313
 2455              	.L311:
 2456              	.LVL305:
 2457              		.loc 1 1515 0
 2458 001c 4FF0FF32 		mov	r2, #-1	@ movhi
 2459 0020 AAF82020 		strh	r2, [sl, #32]	@ movhi
 2460 0024 FF24     		movs	r4, #255
 2461              	.LVL306:
 2462              	.L314:
 2463              		.loc 1 1537 0
 2464 0026 5046     		mov	r0, sl
 2465 0028 0021     		movs	r1, #0
 2466 002a FFF7FEFF 		bl	dir_next
 2467              	.LVL307:
 2468              		.loc 1 1538 0
 2469 002e 0028     		cmp	r0, #0
 2470 0030 40F0A580 		bne	.L370
 2471              	.LVL308:
 2472              	.L330:
 2473              		.loc 1 1507 0
 2474 0034 DAF80000 		ldr	r0, [sl, #0]
 2475 0038 DAF81010 		ldr	r1, [sl, #16]
 2476 003c FFF7FEFF 		bl	move_window
 2477              	.LVL309:
 2478              		.loc 1 1508 0
 2479 0040 0028     		cmp	r0, #0
 2480 0042 40F09C80 		bne	.L370
 2481              		.loc 1 1509 0
 2482 0046 DAF81430 		ldr	r3, [sl, #20]
 2483              	.LVL310:
 2484              		.loc 1 1510 0
 2485 004a 1A78     		ldrb	r2, [r3, #0]	@ zero_extendqisi2
 2486              	.LVL311:
 2487              		.loc 1 1511 0
 2488 004c 002A     		cmp	r2, #0
 2489 004e 00F0BC80 		beq	.L331
 2490              		.loc 1 1514 0
 2491 0052 E52A     		cmp	r2, #229
 2492              		.loc 1 1513 0
 2493 0054 D97A     		ldrb	r1, [r3, #11]	@ zero_extendqisi2
 2494              	.LVL312:
 2495              		.loc 1 1514 0
 2496 0056 E1D0     		beq	.L311
ARM GAS  C:\Users\Elis\AppData\Local\Temp\ccSuWDYb.s 			page 45


 2497 0058 01F00805 		and	r5, r1, #8
 2498 005c EDB2     		uxtb	r5, r5
 2499              		.loc 1 1513 0
 2500 005e 01F03F01 		and	r1, r1, #63
 2501              	.LVL313:
 2502              		.loc 1 1514 0
 2503 0062 002D     		cmp	r5, #0
 2504 0064 D7D1     		bne	.L373
 2505              		.loc 1 1517 0
 2506 0066 0F29     		cmp	r1, #15
 2507 0068 00F09480 		beq	.L313
 2508              		.loc 1 1528 0
 2509 006c 002C     		cmp	r4, #0
 2510 006e 56D1     		bne	.L328
 2511              	.LVL314:
 2512              	.LBB193:
 2513              	.LBB194:
 2514              		.loc 1 1477 0
 2515 0070 D101     		lsls	r1, r2, #7
 2516 0072 93F801B0 		ldrb	fp, [r3, #1]	@ zero_extendqisi2
 2517 0076 93F80290 		ldrb	r9, [r3, #2]	@ zero_extendqisi2
 2518 007a 93F80380 		ldrb	r8, [r3, #3]	@ zero_extendqisi2
 2519 007e 93F804C0 		ldrb	ip, [r3, #4]	@ zero_extendqisi2
 2520 0082 5F79     		ldrb	r7, [r3, #5]	@ zero_extendqisi2
 2521 0084 9C79     		ldrb	r4, [r3, #6]	@ zero_extendqisi2
 2522              	.LVL315:
 2523 0086 DE79     		ldrb	r6, [r3, #7]	@ zero_extendqisi2
 2524 0088 0294     		str	r4, [sp, #8]
 2525 008a 41EA5201 		orr	r1, r1, r2, lsr #1
 2526 008e 5944     		add	r1, r1, fp
 2527 0090 C9B2     		uxtb	r1, r1
 2528              	.LVL316:
 2529 0092 4FEAC11E 		lsl	lr, r1, #7
 2530 0096 4EEA5101 		orr	r1, lr, r1, lsr #1
 2531              	.LVL317:
 2532 009a 59FA81FB 		uxtab	fp, r9, r1
 2533              	.LVL318:
 2534 009e 5FFA8BF9 		uxtb	r9, fp
 2535              	.LVL319:
 2536 00a2 4FEAC911 		lsl	r1, r9, #7
 2537 00a6 41EA5909 		orr	r9, r1, r9, lsr #1
 2538 00aa 58FA89F8 		uxtab	r8, r8, r9
 2539 00ae 5FFA88FE 		uxtb	lr, r8
 2540              	.LVL320:
 2541 00b2 4FEACE11 		lsl	r1, lr, #7
 2542 00b6 41EA5E08 		orr	r8, r1, lr, lsr #1
 2543              	.LVL321:
 2544 00ba 5CFA88FC 		uxtab	ip, ip, r8
 2545 00be 5FFA8CFB 		uxtb	fp, ip
 2546              	.LVL322:
 2547 00c2 4FEACB11 		lsl	r1, fp, #7
 2548 00c6 41EA5B0E 		orr	lr, r1, fp, lsr #1
 2549 00ca 57FA8EF7 		uxtab	r7, r7, lr
 2550 00ce FFB2     		uxtb	r7, r7
 2551              	.LVL323:
 2552 00d0 F901     		lsls	r1, r7, #7
 2553 00d2 41EA5701 		orr	r1, r1, r7, lsr #1
ARM GAS  C:\Users\Elis\AppData\Local\Temp\ccSuWDYb.s 			page 46


 2554 00d6 029F     		ldr	r7, [sp, #8]
 2555              	.LVL324:
 2556 00d8 0396     		str	r6, [sp, #12]
 2557 00da 57FA81F1 		uxtab	r1, r7, r1
 2558 00de C9B2     		uxtb	r1, r1
 2559              	.LVL325:
 2560 00e0 CF01     		lsls	r7, r1, #7
 2561 00e2 47EA5101 		orr	r1, r7, r1, lsr #1
 2562              	.LVL326:
 2563 00e6 039F     		ldr	r7, [sp, #12]
 2564 00e8 1E7A     		ldrb	r6, [r3, #8]	@ zero_extendqisi2
 2565 00ea 5D7A     		ldrb	r5, [r3, #9]	@ zero_extendqisi2
 2566 00ec 9C7A     		ldrb	r4, [r3, #10]	@ zero_extendqisi2
 2567              	.LVL327:
 2568 00ee 57FA81F1 		uxtab	r1, r7, r1
 2569 00f2 C9B2     		uxtb	r1, r1
 2570              	.LVL328:
 2571 00f4 CF01     		lsls	r7, r1, #7
 2572 00f6 47EA5101 		orr	r1, r7, r1, lsr #1
 2573              	.LVL329:
 2574 00fa 56FA81F6 		uxtab	r6, r6, r1
 2575 00fe F7B2     		uxtb	r7, r6
 2576              	.LVL330:
 2577 0100 F901     		lsls	r1, r7, #7
 2578 0102 41EA5706 		orr	r6, r1, r7, lsr #1
 2579              	.LVL331:
 2580 0106 55FA86F5 		uxtab	r5, r5, r6
 2581 010a EFB2     		uxtb	r7, r5
 2582              	.LVL332:
 2583 010c F901     		lsls	r1, r7, #7
 2584 010e 41EA5705 		orr	r5, r1, r7, lsr #1
 2585              	.LVL333:
 2586 0112 54FA85F4 		uxtab	r4, r4, r5
 2587              	.LBE194:
 2588              	.LBE193:
 2589              		.loc 1 1528 0
 2590 0116 019F     		ldr	r7, [sp, #4]
 2591 0118 E4B2     		uxtb	r4, r4
 2592 011a BC42     		cmp	r4, r7
 2593 011c 2FD0     		beq	.L370
 2594              	.LVL334:
 2595              	.L328:
 2596              		.loc 1 1529 0
 2597 011e DAF81810 		ldr	r1, [sl, #24]
 2598 0122 CC7A     		ldrb	r4, [r1, #11]	@ zero_extendqisi2
 2599 0124 E407     		lsls	r4, r4, #31
 2600 0126 2FD4     		bmi	.L329
 2601              	.LVL335:
 2602              	.LBB195:
 2603              	.LBB196:
 2604              		.loc 1 592 0
 2605 0128 0C78     		ldrb	r4, [r1, #0]	@ zero_extendqisi2
 2606              	.LVL336:
 2607 012a 9442     		cmp	r4, r2
 2608 012c 2CD1     		bne	.L329
 2609              	.LVL337:
 2610 012e 5C78     		ldrb	r4, [r3, #1]	@ zero_extendqisi2
ARM GAS  C:\Users\Elis\AppData\Local\Temp\ccSuWDYb.s 			page 47


 2611              	.LVL338:
 2612 0130 4A78     		ldrb	r2, [r1, #1]	@ zero_extendqisi2
 2613              	.LVL339:
 2614 0132 9442     		cmp	r4, r2
 2615 0134 28D1     		bne	.L329
 2616              	.LVL340:
 2617 0136 9C78     		ldrb	r4, [r3, #2]	@ zero_extendqisi2
 2618              	.LVL341:
 2619 0138 8A78     		ldrb	r2, [r1, #2]	@ zero_extendqisi2
 2620              	.LVL342:
 2621 013a 9442     		cmp	r4, r2
 2622 013c 24D1     		bne	.L329
 2623              	.LVL343:
 2624 013e DC78     		ldrb	r4, [r3, #3]	@ zero_extendqisi2
 2625              	.LVL344:
 2626 0140 CA78     		ldrb	r2, [r1, #3]	@ zero_extendqisi2
 2627              	.LVL345:
 2628 0142 9442     		cmp	r4, r2
 2629 0144 20D1     		bne	.L329
 2630              	.LVL346:
 2631 0146 1C79     		ldrb	r4, [r3, #4]	@ zero_extendqisi2
 2632              	.LVL347:
 2633 0148 0A79     		ldrb	r2, [r1, #4]	@ zero_extendqisi2
 2634              	.LVL348:
 2635 014a 9442     		cmp	r4, r2
 2636 014c 1CD1     		bne	.L329
 2637              	.LVL349:
 2638 014e 5C79     		ldrb	r4, [r3, #5]	@ zero_extendqisi2
 2639              	.LVL350:
 2640 0150 4A79     		ldrb	r2, [r1, #5]	@ zero_extendqisi2
 2641              	.LVL351:
 2642 0152 9442     		cmp	r4, r2
 2643 0154 18D1     		bne	.L329
 2644              	.LVL352:
 2645 0156 9C79     		ldrb	r4, [r3, #6]	@ zero_extendqisi2
 2646              	.LVL353:
 2647 0158 8A79     		ldrb	r2, [r1, #6]	@ zero_extendqisi2
 2648              	.LVL354:
 2649 015a 9442     		cmp	r4, r2
 2650 015c 14D1     		bne	.L329
 2651              	.LVL355:
 2652 015e DC79     		ldrb	r4, [r3, #7]	@ zero_extendqisi2
 2653              	.LVL356:
 2654 0160 CA79     		ldrb	r2, [r1, #7]	@ zero_extendqisi2
 2655              	.LVL357:
 2656 0162 9442     		cmp	r4, r2
 2657 0164 10D1     		bne	.L329
 2658              	.LVL358:
 2659 0166 1C7A     		ldrb	r4, [r3, #8]	@ zero_extendqisi2
 2660              	.LVL359:
 2661 0168 0A7A     		ldrb	r2, [r1, #8]	@ zero_extendqisi2
 2662              	.LVL360:
 2663 016a 9442     		cmp	r4, r2
 2664 016c 0CD1     		bne	.L329
 2665              	.LVL361:
 2666 016e 5C7A     		ldrb	r4, [r3, #9]	@ zero_extendqisi2
 2667              	.LVL362:
ARM GAS  C:\Users\Elis\AppData\Local\Temp\ccSuWDYb.s 			page 48


 2668 0170 4A7A     		ldrb	r2, [r1, #9]	@ zero_extendqisi2
 2669              	.LVL363:
 2670 0172 9442     		cmp	r4, r2
 2671 0174 08D1     		bne	.L329
 2672              	.LVL364:
 2673 0176 897A     		ldrb	r1, [r1, #10]	@ zero_extendqisi2
 2674              	.LVL365:
 2675 0178 9B7A     		ldrb	r3, [r3, #10]	@ zero_extendqisi2
 2676              	.LVL366:
 2677 017a 9942     		cmp	r1, r3
 2678 017c 04D1     		bne	.L329
 2679              	.LVL367:
 2680              	.L370:
 2681 017e 8346     		mov	fp, r0
 2682              	.LVL368:
 2683              	.L348:
 2684              	.LBE196:
 2685              	.LBE195:
 2686              		.loc 1 1541 0
 2687 0180 5846     		mov	r0, fp
 2688 0182 05B0     		add	sp, sp, #20
 2689 0184 BDE8F08F 		pop	{r4, r5, r6, r7, r8, r9, sl, fp, pc}
 2690              	.LVL369:
 2691              	.L329:
 2692              		.loc 1 1530 0
 2693 0188 4FF0FF30 		mov	r0, #-1	@ movhi
 2694              	.LVL370:
 2695 018c AAF82000 		strh	r0, [sl, #32]	@ movhi
 2696 0190 FF24     		movs	r4, #255
 2697 0192 48E7     		b	.L314
 2698              	.LVL371:
 2699              	.L313:
 2700              		.loc 1 1518 0
 2701 0194 DAF81C50 		ldr	r5, [sl, #28]
 2702 0198 002D     		cmp	r5, #0
 2703 019a 3FF444AF 		beq	.L314
 2704              		.loc 1 1519 0
 2705 019e 02F04001 		and	r1, r2, #64
 2706 01a2 C8B2     		uxtb	r0, r1
 2707              	.LVL372:
 2708 01a4 68B1     		cbz	r0, .L316
 2709              		.loc 1 1520 0
 2710 01a6 5C7B     		ldrb	r4, [r3, #13]	@ zero_extendqisi2
 2711              	.LVL373:
 2712              		.loc 1 1522 0
 2713 01a8 BAF80670 		ldrh	r7, [sl, #6]
 2714              		.loc 1 1520 0
 2715 01ac 0194     		str	r4, [sp, #4]
 2716              		.loc 1 1522 0
 2717 01ae AAF82070 		strh	r7, [sl, #32]	@ movhi
 2718              		.loc 1 1521 0
 2719 01b2 02F0BF02 		and	r2, r2, #191
 2720              	.LVL374:
 2721              	.L317:
 2722              		.loc 1 1525 0
 2723 01b6 5F7B     		ldrb	r7, [r3, #13]	@ zero_extendqisi2
 2724 01b8 0199     		ldr	r1, [sp, #4]
ARM GAS  C:\Users\Elis\AppData\Local\Temp\ccSuWDYb.s 			page 49


 2725 01ba 8F42     		cmp	r7, r1
 2726 01bc 08D0     		beq	.L374
 2727              	.LBB197:
 2728              	.LBB198:
 2729 01be FF24     		movs	r4, #255
 2730 01c0 31E7     		b	.L314
 2731              	.LVL375:
 2732              	.L316:
 2733              	.LBE198:
 2734              	.LBE197:
 2735 01c2 A242     		cmp	r2, r4
 2736 01c4 F7D0     		beq	.L317
 2737              	.LBB214:
 2738              	.LBB209:
 2739 01c6 FF24     		movs	r4, #255
 2740              	.LVL376:
 2741 01c8 2DE7     		b	.L314
 2742              	.LVL377:
 2743              	.L331:
 2744              	.LBE209:
 2745              	.LBE214:
 2746              		.loc 1 1511 0
 2747 01ca 4FF0040B 		mov	fp, #4
 2748              	.LVL378:
 2749 01ce D7E7     		b	.L348
 2750              	.LVL379:
 2751              	.L374:
 2752              	.LBB215:
 2753              	.LBB210:
 2754              		.loc 1 1318 0
 2755 01d0 93F800C0 		ldrb	ip, [r3, #0]	@ zero_extendqisi2
 2756              		.loc 1 1490 0
 2757 01d4 314E     		ldr	r6, .L377
 2758              		.loc 1 1318 0
 2759 01d6 2CF04000 		bic	r0, ip, #64
 2760 01da 441E     		subs	r4, r0, #1
 2761 01dc 04EB4409 		add	r9, r4, r4, lsl #1
 2762              	.LBE210:
 2763              	.LBE215:
 2764              		.loc 1 1319 0
 2765 01e0 4FF00101 		mov	r1, #1
 2766              	.LBB216:
 2767              	.LBB211:
 2768              		.loc 1 1318 0
 2769 01e4 04EB890B 		add	fp, r4, r9, lsl #2
 2770              	.LVL380:
 2771              	.LBE211:
 2772              	.LBE216:
 2773              		.loc 1 1319 0
 2774 01e8 9146     		mov	r9, r2
 2775 01ea 0A46     		mov	r2, r1
 2776              	.LVL381:
 2777              	.L326:
 2778              	.LBB217:
 2779              	.LBB212:
 2780              		.loc 1 1321 0
 2781 01ec 16F8014F 		ldrb	r4, [r6, #1]!	@ zero_extendqisi2
ARM GAS  C:\Users\Elis\AppData\Local\Temp\ccSuWDYb.s 			page 50


 2782 01f0 1819     		adds	r0, r3, r4
 2783 01f2 195D     		ldrb	r1, [r3, r4]	@ zero_extendqisi2
 2784 01f4 90F80180 		ldrb	r8, [r0, #1]	@ zero_extendqisi2
 2785 01f8 41EA0828 		orr	r8, r1, r8, lsl #8
 2786              	.LVL382:
 2787              		.loc 1 1322 0
 2788 01fc 002A     		cmp	r2, #0
 2789 01fe 35D0     		beq	.L318
 2790              	.LVL383:
 2791              	.LBB199:
 2792              	.LBB200:
 2793              		.file 3 "../../ugfx/3rdparty/fatfs-0.10b/src/option/ccsbcs.c"
 2794              		.loc 3 537 0
 2795 0200 B8F1610F 		cmp	r8, #97
 2796 0204 39D0     		beq	.L334
 2797 0206 2649     		ldr	r1, .L377+4
 2798 0208 0020     		movs	r0, #0
 2799 020a 01E0     		b	.L321
 2800              	.LVL384:
 2801              	.L375:
 2802 020c 9045     		cmp	r8, r2
 2803 020e 35D0     		beq	.L319
 2804              	.LVL385:
 2805              	.L321:
 2806 0210 31F8022F 		ldrh	r2, [r1, #2]!
 2807 0214 0130     		adds	r0, r0, #1
 2808              	.LVL386:
 2809 0216 002A     		cmp	r2, #0
 2810 0218 F8D1     		bne	.L375
 2811 021a 4246     		mov	r2, r8
 2812              	.LVL387:
 2813              	.L320:
 2814              	.LBE200:
 2815              	.LBE199:
 2816              		.loc 1 1324 0
 2817 021c BBF1FE0F 		cmp	fp, #254
 2818 0220 28D8     		bhi	.L340
 2819 0222 35F81B80 		ldrh	r8, [r5, fp, lsl #1]
 2820              	.LVL388:
 2821              	.LBB202:
 2822              	.LBB203:
 2823              		.loc 3 537 0
 2824 0226 B8F1610F 		cmp	r8, #97
 2825              	.LBE203:
 2826              	.LBE202:
 2827              		.loc 1 1324 0
 2828 022a 0BF1010B 		add	fp, fp, #1
 2829              	.LVL389:
 2830              	.LBB206:
 2831              	.LBB204:
 2832              		.loc 3 537 0
 2833 022e 2CD0     		beq	.L337
 2834 0230 1B4C     		ldr	r4, .L377+4
 2835 0232 0020     		movs	r0, #0
 2836 0234 01E0     		b	.L324
 2837              	.LVL390:
 2838              	.L376:
ARM GAS  C:\Users\Elis\AppData\Local\Temp\ccSuWDYb.s 			page 51


 2839 0236 8845     		cmp	r8, r1
 2840 0238 28D0     		beq	.L322
 2841              	.LVL391:
 2842              	.L324:
 2843 023a 34F8021F 		ldrh	r1, [r4, #2]!
 2844 023e 0130     		adds	r0, r0, #1
 2845              	.LVL392:
 2846 0240 0029     		cmp	r1, #0
 2847 0242 F8D1     		bne	.L376
 2848              	.LVL393:
 2849              	.L323:
 2850              	.LBE204:
 2851              	.LBE206:
 2852              		.loc 1 1324 0
 2853 0244 4245     		cmp	r2, r8
 2854 0246 15D1     		bne	.L340
 2855              	.LVL394:
 2856              	.L325:
 2857              		.loc 1 1329 0
 2858 0248 1648     		ldr	r0, .L377+8
 2859 024a 8642     		cmp	r6, r0
 2860 024c CED1     		bne	.L326
 2861              		.loc 1 1331 0
 2862 024e 0CF04001 		and	r1, ip, #64
 2863 0252 1346     		mov	r3, r2
 2864              	.LVL395:
 2865 0254 CCB2     		uxtb	r4, r1
 2866 0256 4A46     		mov	r2, r9
 2867              	.LVL396:
 2868 0258 9946     		mov	r9, r3
 2869 025a 1CB1     		cbz	r4, .L327
 2870 025c 13B1     		cbz	r3, .L327
 2871 025e 35F81B00 		ldrh	r0, [r5, fp, lsl #1]
 2872 0262 38B9     		cbnz	r0, .L340
 2873              	.L327:
 2874              	.LBE212:
 2875              	.LBE217:
 2876              		.loc 1 1525 0
 2877 0264 531E     		subs	r3, r2, #1
 2878              	.LVL397:
 2879 0266 DCB2     		uxtb	r4, r3
 2880 0268 0197     		str	r7, [sp, #4]
 2881 026a DCE6     		b	.L314
 2882              	.LVL398:
 2883              	.L318:
 2884              	.LBB218:
 2885              	.LBB213:
 2886              		.loc 1 1327 0
 2887 026c 4FF6FF74 		movw	r4, #65535
 2888 0270 A045     		cmp	r8, r4
 2889 0272 E9D0     		beq	.L325
 2890              	.LVL399:
 2891              	.L340:
 2892              		.loc 1 1331 0
 2893 0274 0197     		str	r7, [sp, #4]
 2894              		.loc 1 1525 0
 2895 0276 FF24     		movs	r4, #255
ARM GAS  C:\Users\Elis\AppData\Local\Temp\ccSuWDYb.s 			page 52


 2896 0278 D5E6     		b	.L314
 2897              	.LVL400:
 2898              	.L334:
 2899              	.LBB207:
 2900              	.LBB201:
 2901              		.loc 3 537 0
 2902 027a 0020     		movs	r0, #0
 2903              	.LVL401:
 2904              	.L319:
 2905              		.loc 3 539 0
 2906 027c 40F20004 		movw	r4, #:lower16:.LANCHOR4
 2907 0280 C0F20004 		movt	r4, #:upper16:.LANCHOR4
 2908 0284 34F81020 		ldrh	r2, [r4, r0, lsl #1]
 2909 0288 C8E7     		b	.L320
 2910              	.LVL402:
 2911              	.L337:
 2912              	.LBE201:
 2913              	.LBE207:
 2914              	.LBB208:
 2915              	.LBB205:
 2916              		.loc 3 537 0
 2917 028a 0020     		movs	r0, #0
 2918              	.LVL403:
 2919              	.L322:
 2920              		.loc 3 539 0
 2921 028c 40F20004 		movw	r4, #:lower16:.LANCHOR4
 2922 0290 C0F20004 		movt	r4, #:upper16:.LANCHOR4
 2923 0294 34F81080 		ldrh	r8, [r4, r0, lsl #1]
 2924 0298 D4E7     		b	.L323
 2925              	.L378:
 2926 029a 00BF     		.align	2
 2927              	.L377:
 2928 029c FFFFFFFF 		.word	.LANCHOR2-1
 2929 02a0 00000000 		.word	.LANCHOR3
 2930 02a4 0C000000 		.word	.LANCHOR2+12
 2931              	.LBE205:
 2932              	.LBE208:
 2933              	.LBE213:
 2934              	.LBE218:
 2935              		.cfi_endproc
 2936              	.LFE187:
 2937              		.size	dir_find.part.9, .-dir_find.part.9
 2938 02a8 AFF30080 		.section	.text.dir_register,"ax",%progbits
 2938      AFF30080 
 2939              		.align	2
 2940              		.p2align 4,,15
 2941              		.thumb
 2942              		.thumb_func
 2943              		.type	dir_register, %function
 2944              	dir_register:
 2945              	.LFB142:
 2946              		.loc 1 1613 0
 2947              		.cfi_startproc
 2948              		@ args = 0, pretend = 0, frame = 80
 2949              		@ frame_needed = 0, uses_anonymous_args = 0
 2950              	.LVL404:
 2951 0000 2DE9F04F 		push	{r4, r5, r6, r7, r8, r9, sl, fp, lr}
ARM GAS  C:\Users\Elis\AppData\Local\Temp\ccSuWDYb.s 			page 53


 2952              	.LCFI18:
 2953              		.cfi_def_cfa_offset 36
 2954              		.cfi_offset 4, -36
 2955              		.cfi_offset 5, -32
 2956              		.cfi_offset 6, -28
 2957              		.cfi_offset 7, -24
 2958              		.cfi_offset 8, -20
 2959              		.cfi_offset 9, -16
 2960              		.cfi_offset 10, -12
 2961              		.cfi_offset 11, -8
 2962              		.cfi_offset 14, -4
 2963              		.loc 1 1621 0
 2964 0004 8469     		ldr	r4, [r0, #24]
 2965              	.LVL405:
 2966 0006 C269     		ldr	r2, [r0, #28]
 2967              	.LBB238:
 2968              	.LBB239:
 2969              		.loc 1 574 0
 2970 0008 94F80190 		ldrb	r9, [r4, #1]	@ zero_extendqisi2
 2971 000c E37A     		ldrb	r3, [r4, #11]	@ zero_extendqisi2
 2972 000e 94F802A0 		ldrb	sl, [r4, #2]	@ zero_extendqisi2
 2973 0012 94F804C0 		ldrb	ip, [r4, #4]	@ zero_extendqisi2
 2974 0016 94F805E0 		ldrb	lr, [r4, #5]	@ zero_extendqisi2
 2975 001a 617A     		ldrb	r1, [r4, #9]	@ zero_extendqisi2
 2976 001c 94F80380 		ldrb	r8, [r4, #3]	@ zero_extendqisi2
 2977 0020 A779     		ldrb	r7, [r4, #6]	@ zero_extendqisi2
 2978 0022 E579     		ldrb	r5, [r4, #7]	@ zero_extendqisi2
 2979              	.LBE239:
 2980              	.LBE238:
 2981              		.loc 1 1613 0
 2982 0024 95B0     		sub	sp, sp, #84
 2983              	.LCFI19:
 2984              		.cfi_def_cfa_offset 120
 2985              	.LBB246:
 2986              	.LBB240:
 2987              		.loc 1 574 0
 2988 0026 A346     		mov	fp, r4
 2989              	.LBE240:
 2990              	.LBE246:
 2991              		.loc 1 1613 0
 2992 0028 0646     		mov	r6, r0
 2993              	.LBB247:
 2994              	.LBB241:
 2995              		.loc 1 574 0
 2996 002a 207A     		ldrb	r0, [r4, #8]	@ zero_extendqisi2
 2997              	.LVL406:
 2998              	.LBE241:
 2999              	.LBE247:
 3000              		.loc 1 1621 0
 3001 002c 0C92     		str	r2, [sp, #48]
 3002              	.LVL407:
 3003              	.LBB248:
 3004              	.LBB242:
 3005              		.loc 1 574 0
 3006 002e 8DF84590 		strb	r9, [sp, #69]
 3007 0032 A27A     		ldrb	r2, [r4, #10]	@ zero_extendqisi2
 3008              	.LVL408:
ARM GAS  C:\Users\Elis\AppData\Local\Temp\ccSuWDYb.s 			page 54


 3009 0034 1BF8019B 		ldrb	r9, [fp], #1	@ zero_extendqisi2
 3010              	.LBE242:
 3011              	.LBE248:
 3012              		.loc 1 1627 0
 3013 0038 0D93     		str	r3, [sp, #52]
 3014              	.LBB249:
 3015              	.LBB243:
 3016              		.loc 1 574 0
 3017 003a 8DF846A0 		strb	sl, [sp, #70]
 3018 003e 8DF848C0 		strb	ip, [sp, #72]
 3019 0042 8DF84C00 		strb	r0, [sp, #76]
 3020 0046 8DF84F30 		strb	r3, [sp, #79]
 3021 004a 04F1020A 		add	sl, r4, #2
 3022 004e E31C     		adds	r3, r4, #3
 3023 0050 201D     		adds	r0, r4, #4
 3024 0052 04F1050C 		add	ip, r4, #5
 3025 0056 CDF808B0 		str	fp, [sp, #8]
 3026 005a 8DF84490 		strb	r9, [sp, #68]
 3027              	.LVL409:
 3028 005e 8DF849E0 		strb	lr, [sp, #73]
 3029 0062 8DF84D10 		strb	r1, [sp, #77]
 3030 0066 8DF84E20 		strb	r2, [sp, #78]
 3031 006a CDF80CA0 		str	sl, [sp, #12]
 3032              	.LVL410:
 3033 006e 8DF84780 		strb	r8, [sp, #71]
 3034 0072 8DF84A70 		strb	r7, [sp, #74]
 3035 0076 8DF84B50 		strb	r5, [sp, #75]
 3036 007a 0493     		str	r3, [sp, #16]
 3037              	.LVL411:
 3038 007c 0590     		str	r0, [sp, #20]
 3039              	.LVL412:
 3040 007e CDF818C0 		str	ip, [sp, #24]
 3041              	.LVL413:
 3042              	.LBE243:
 3043              	.LBE249:
 3044              		.loc 1 1627 0
 3045 0082 DDF834A0 		ldr	sl, [sp, #52]
 3046              	.LBB250:
 3047              	.LBB244:
 3048              		.loc 1 574 0
 3049 0086 04F1060E 		add	lr, r4, #6
 3050 008a 04F1070B 		add	fp, r4, #7
 3051 008e 04F10809 		add	r9, r4, #8
 3052 0092 04F10901 		add	r1, r4, #9
 3053 0096 04F10A02 		add	r2, r4, #10
 3054              	.LBE244:
 3055              	.LBE250:
 3056              		.loc 1 1627 0
 3057 009a 1AF0010F 		tst	sl, #1
 3058              	.LBB251:
 3059              	.LBB245:
 3060              		.loc 1 574 0
 3061 009e CDF81CE0 		str	lr, [sp, #28]
 3062              	.LVL414:
 3063 00a2 CDF820B0 		str	fp, [sp, #32]
 3064              	.LVL415:
 3065 00a6 CDF82490 		str	r9, [sp, #36]
ARM GAS  C:\Users\Elis\AppData\Local\Temp\ccSuWDYb.s 			page 55


 3066              	.LVL416:
 3067 00aa 0A91     		str	r1, [sp, #40]
 3068              	.LVL417:
 3069 00ac 0B92     		str	r2, [sp, #44]
 3070              	.LVL418:
 3071              	.LBE245:
 3072              	.LBE251:
 3073              		.loc 1 1627 0
 3074 00ae 00F0A281 		beq	.L380
 3075              		.loc 1 1628 0
 3076 00b2 0025     		movs	r5, #0
 3077 00b4 E572     		strb	r5, [r4, #11]
 3078              		.loc 1 1629 0
 3079 00b6 4FF00108 		mov	r8, #1
 3080              		.loc 1 1628 0
 3081 00ba F561     		str	r5, [r6, #28]
 3082              	.LVL419:
 3083 00bc 3746     		mov	r7, r6
 3084 00be 0FAD     		add	r5, sp, #60
 3085              	.LVL420:
 3086              	.L381:
 3087              	.LBB252:
 3088              	.LBB253:
 3089              	.LBB254:
 3090              	.LBB255:
 3091              		.loc 1 574 0
 3092 00c0 9DF844B0 		ldrb	fp, [sp, #68]	@ zero_extendqisi2
 3093 00c4 9DF84E30 		ldrb	r3, [sp, #78]	@ zero_extendqisi2
 3094 00c8 84F800B0 		strb	fp, [r4, #0]
 3095              	.LVL421:
 3096 00cc 9DF845A0 		ldrb	sl, [sp, #69]	@ zero_extendqisi2
 3097 00d0 9DF84690 		ldrb	r9, [sp, #70]	@ zero_extendqisi2
 3098 00d4 0093     		str	r3, [sp, #0]
 3099 00d6 DDF808B0 		ldr	fp, [sp, #8]
 3100 00da 039B     		ldr	r3, [sp, #12]
 3101 00dc 9DF84960 		ldrb	r6, [sp, #73]	@ zero_extendqisi2
 3102 00e0 8BF800A0 		strb	sl, [fp, #0]
 3103              	.LVL422:
 3104 00e4 9DF847C0 		ldrb	ip, [sp, #71]	@ zero_extendqisi2
 3105 00e8 83F80090 		strb	r9, [r3, #0]
 3106              	.LVL423:
 3107 00ec 9DF848E0 		ldrb	lr, [sp, #72]	@ zero_extendqisi2
 3108 00f0 DDF810A0 		ldr	sl, [sp, #16]
 3109 00f4 DDF81490 		ldr	r9, [sp, #20]
 3110 00f8 0196     		str	r6, [sp, #4]
 3111 00fa 8AF800C0 		strb	ip, [sl, #0]
 3112              	.LVL424:
 3113 00fe 9DF84A60 		ldrb	r6, [sp, #74]	@ zero_extendqisi2
 3114 0102 89F800E0 		strb	lr, [r9, #0]
 3115              	.LVL425:
 3116 0106 9DF84B00 		ldrb	r0, [sp, #75]	@ zero_extendqisi2
 3117 010a 019B     		ldr	r3, [sp, #4]
 3118 010c DDF818C0 		ldr	ip, [sp, #24]
 3119 0110 DDF81CE0 		ldr	lr, [sp, #28]
 3120 0114 DDF820B0 		ldr	fp, [sp, #32]
 3121 0118 8CF80030 		strb	r3, [ip, #0]
 3122              	.LVL426:
ARM GAS  C:\Users\Elis\AppData\Local\Temp\ccSuWDYb.s 			page 56


 3123 011c 9DF84C10 		ldrb	r1, [sp, #76]	@ zero_extendqisi2
 3124 0120 8EF80060 		strb	r6, [lr, #0]
 3125              	.LVL427:
 3126 0124 9DF84D20 		ldrb	r2, [sp, #77]	@ zero_extendqisi2
 3127 0128 8BF80000 		strb	r0, [fp, #0]
 3128              	.LVL428:
 3129 012c DDF824A0 		ldr	sl, [sp, #36]
 3130 0130 0A9E     		ldr	r6, [sp, #40]
 3131 0132 0098     		ldr	r0, [sp, #0]
 3132 0134 DDF82C90 		ldr	r9, [sp, #44]
 3133 0138 8AF80010 		strb	r1, [sl, #0]
 3134              	.LVL429:
 3135              	.LBE255:
 3136              	.LBE254:
 3137              		.loc 1 1424 0
 3138 013c B8F1050F 		cmp	r8, #5
 3139              	.LBB257:
 3140              	.LBB256:
 3141              		.loc 1 574 0
 3142 0140 3270     		strb	r2, [r6, #0]
 3143              	.LVL430:
 3144 0142 89F80000 		strb	r0, [r9, #0]
 3145              	.LVL431:
 3146              	.LBE256:
 3147              	.LBE257:
 3148              		.loc 1 1424 0
 3149 0146 00F28A80 		bhi	.L408
 3150 014a 4246     		mov	r2, r8
 3151              	.L409:
 3152 014c 0723     		movs	r3, #7
 3153              	.L401:
 3154              	.LVL432:
 3155              		.loc 1 1442 0
 3156 014e 02F00F06 		and	r6, r2, #15
 3157 0152 06F13000 		add	r0, r6, #48
 3158              	.LVL433:
 3159              		.loc 1 1443 0
 3160 0156 3928     		cmp	r0, #57
 3161 0158 88BF     		it	hi
 3162 015a 06F13700 		addhi	r0, r6, #55
 3163              	.LVL434:
 3164              		.loc 1 1444 0
 3165 015e E854     		strb	r0, [r5, r3]
 3166 0160 013B     		subs	r3, r3, #1
 3167              	.LVL435:
 3168              		.loc 1 1446 0
 3169 0162 1209     		lsrs	r2, r2, #4
 3170              	.LVL436:
 3171 0164 F3D1     		bne	.L401
 3172              		.loc 1 1447 0
 3173 0166 0DF1500A 		add	sl, sp, #80
 3174              	.LVL437:
 3175 016a 0AEB0301 		add	r1, sl, r3
 3176 016e 4FF07E0B 		mov	fp, #126
 3177 0172 01F814BC 		strb	fp, [r1, #-20]
 3178              	.LVL438:
 3179              		.loc 1 1450 0
ARM GAS  C:\Users\Elis\AppData\Local\Temp\ccSuWDYb.s 			page 57


 3180 0176 002B     		cmp	r3, #0
 3181 0178 00F0C181 		beq	.L462
 3182 017c 2678     		ldrb	r6, [r4, #0]	@ zero_extendqisi2
 3183 017e 202E     		cmp	r6, #32
 3184 0180 15D0     		beq	.L405
 3185 0182 D807     		lsls	r0, r3, #31
 3186              	.LVL439:
 3187 0184 2146     		mov	r1, r4
 3188 0186 0FD4     		bmi	.L403
 3189              	.LVL440:
 3190 0188 2146     		mov	r1, r4
 3191              	.LVL441:
 3192 018a 0122     		movs	r2, #1
 3193              	.LVL442:
 3194 018c 11F8010F 		ldrb	r0, [r1, #1]!	@ zero_extendqisi2
 3195 0190 2028     		cmp	r0, #32
 3196 0192 09D1     		bne	.L403
 3197 0194 0BE0     		b	.L405
 3198              	.L584:
 3199 0196 11F8016F 		ldrb	r6, [r1, #1]!	@ zero_extendqisi2
 3200 019a 202E     		cmp	r6, #32
 3201 019c 07D0     		beq	.L405
 3202 019e 11F8010F 		ldrb	r0, [r1, #1]!	@ zero_extendqisi2
 3203 01a2 0132     		adds	r2, r2, #1
 3204              	.LVL443:
 3205 01a4 2028     		cmp	r0, #32
 3206 01a6 02D0     		beq	.L405
 3207              	.LVL444:
 3208              	.L403:
 3209 01a8 0132     		adds	r2, r2, #1
 3210              	.LVL445:
 3211 01aa 9A42     		cmp	r2, r3
 3212 01ac F3D1     		bne	.L584
 3213              	.LVL446:
 3214              	.L405:
 3215 01ae C2F10701 		rsb	r1, r2, #7
 3216              		.loc 1 1457 0
 3217 01b2 072B     		cmp	r3, #7
 3218 01b4 01F00100 		and	r0, r1, #1
 3219              	.LVL447:
 3220 01b8 4FD8     		bhi	.L527
 3221 01ba 0DF1500C 		add	ip, sp, #80
 3222 01be 0CEB0306 		add	r6, ip, r3
 3223 01c2 0133     		adds	r3, r3, #1
 3224              	.LVL448:
 3225 01c4 16F8146C 		ldrb	r6, [r6, #-20]	@ zero_extendqisi2
 3226              	.L573:
 3227 01c8 511C     		adds	r1, r2, #1
 3228              		.loc 1 1458 0
 3229 01ca 0729     		cmp	r1, #7
 3230              		.loc 1 1457 0
 3231 01cc A654     		strb	r6, [r4, r2]
 3232              		.loc 1 1458 0
 3233 01ce 2FD8     		bhi	.L574
 3234 01d0 10B3     		cbz	r0, .L518
 3235              	.LVL449:
 3236              		.loc 1 1457 0
ARM GAS  C:\Users\Elis\AppData\Local\Temp\ccSuWDYb.s 			page 58


 3237 01d2 072B     		cmp	r3, #7
 3238 01d4 00F20581 		bhi	.L529
 3239 01d8 0DF1500E 		add	lr, sp, #80
 3240 01dc 0EEB0300 		add	r0, lr, r3
 3241 01e0 0133     		adds	r3, r3, #1
 3242              	.LVL450:
 3243 01e2 10F8142C 		ldrb	r2, [r0, #-20]	@ zero_extendqisi2
 3244              	.L575:
 3245 01e6 6254     		strb	r2, [r4, r1]
 3246 01e8 0131     		adds	r1, r1, #1
 3247              		.loc 1 1458 0
 3248 01ea 0729     		cmp	r1, #7
 3249 01ec 14D9     		bls	.L518
 3250 01ee 1FE0     		b	.L574
 3251              	.L585:
 3252              		.loc 1 1457 0
 3253 01f0 0DF1500C 		add	ip, sp, #80
 3254 01f4 0CEB0300 		add	r0, ip, r3
 3255 01f8 0133     		adds	r3, r3, #1
 3256              	.LVL451:
 3257 01fa 10F8142C 		ldrb	r2, [r0, #-20]	@ zero_extendqisi2
 3258 01fe 6254     		strb	r2, [r4, r1]
 3259 0200 4A1C     		adds	r2, r1, #1
 3260 0202 072B     		cmp	r3, #7
 3261 0204 0FD8     		bhi	.L532
 3262              	.L586:
 3263 0206 14A9     		add	r1, sp, #80
 3264 0208 C818     		adds	r0, r1, r3
 3265 020a 511C     		adds	r1, r2, #1
 3266 020c 10F8140C 		ldrb	r0, [r0, #-20]	@ zero_extendqisi2
 3267 0210 0133     		adds	r3, r3, #1
 3268              	.LVL452:
 3269              		.loc 1 1458 0
 3270 0212 0729     		cmp	r1, #7
 3271              		.loc 1 1457 0
 3272 0214 A054     		strb	r0, [r4, r2]
 3273              		.loc 1 1458 0
 3274 0216 0BD8     		bhi	.L574
 3275              	.L518:
 3276              		.loc 1 1457 0
 3277 0218 072B     		cmp	r3, #7
 3278 021a E9D9     		bls	.L585
 3279 021c 2022     		movs	r2, #32
 3280 021e 6254     		strb	r2, [r4, r1]
 3281 0220 4A1C     		adds	r2, r1, #1
 3282 0222 072B     		cmp	r3, #7
 3283 0224 EFD9     		bls	.L586
 3284              	.L532:
 3285 0226 511C     		adds	r1, r2, #1
 3286 0228 2020     		movs	r0, #32
 3287              		.loc 1 1458 0
 3288 022a 0729     		cmp	r1, #7
 3289              		.loc 1 1457 0
 3290 022c A054     		strb	r0, [r4, r2]
 3291              		.loc 1 1458 0
 3292 022e F3D9     		bls	.L518
 3293              	.L574:
ARM GAS  C:\Users\Elis\AppData\Local\Temp\ccSuWDYb.s 			page 59


 3294              	.LVL453:
 3295              	.LBE253:
 3296              	.LBE252:
 3297              	.LBB262:
 3298              	.LBB263:
 3299              		.loc 1 1500 0
 3300 0230 3846     		mov	r0, r7
 3301 0232 0021     		movs	r1, #0
 3302 0234 FFF7FEFF 		bl	dir_sdi
 3303              	.LVL454:
 3304              		.loc 1 1501 0
 3305 0238 0028     		cmp	r0, #0
 3306 023a 40F0D480 		bne	.L406
 3307 023e 3846     		mov	r0, r7
 3308              	.LVL455:
 3309 0240 FFF7FEFF 		bl	dir_find.part.9
 3310              	.LVL456:
 3311              	.LBE263:
 3312              	.LBE262:
 3313              		.loc 1 1632 0
 3314 0244 0028     		cmp	r0, #0
 3315 0246 40F0CE80 		bne	.L406
 3316              		.loc 1 1629 0
 3317 024a 08F10108 		add	r8, r8, #1
 3318              	.LVL457:
 3319 024e B8F1640F 		cmp	r8, #100
 3320 0252 7FF435AF 		bne	.L381
 3321              		.loc 1 1634 0
 3322 0256 0720     		movs	r0, #7
 3323 0258 4EE1     		b	.L494
 3324              	.LVL458:
 3325              	.L527:
 3326              	.LBB264:
 3327              	.LBB259:
 3328              		.loc 1 1457 0
 3329 025a 2026     		movs	r6, #32
 3330 025c B4E7     		b	.L573
 3331              	.LVL459:
 3332              	.L408:
 3333              	.LBE259:
 3334              	.LBE264:
 3335              		.loc 1 1610 0
 3336 025e 0C99     		ldr	r1, [sp, #48]
 3337 0260 4246     		mov	r2, r8
 3338 0262 0239     		subs	r1, r1, #2
 3339 0264 B7E0     		b	.L568
 3340              	.LVL460:
 3341              	.L399:
 3342              	.LBB265:
 3343              	.LBB260:
 3344              	.LBB258:
 3345              		.loc 1 1431 0
 3346 0266 03F00106 		and	r6, r3, #1
 3347 026a 06EB4202 		add	r2, r6, r2, lsl #1
 3348              	.LVL461:
 3349              		.loc 1 1432 0
 3350 026e 5808     		lsrs	r0, r3, #1
ARM GAS  C:\Users\Elis\AppData\Local\Temp\ccSuWDYb.s 			page 60


 3351              	.LVL462:
 3352              		.loc 1 1433 0
 3353 0270 D303     		lsls	r3, r2, #15
 3354 0272 48BF     		it	mi
 3355 0274 82F48832 		eormi	r2, r2, #69632
 3356              	.LVL463:
 3357              		.loc 1 1431 0
 3358 0278 00F00103 		and	r3, r0, #1
 3359              		.loc 1 1433 0
 3360 027c 48BF     		it	mi
 3361 027e 82F02102 		eormi	r2, r2, #33
 3362              	.LVL464:
 3363              		.loc 1 1431 0
 3364 0282 03EB4202 		add	r2, r3, r2, lsl #1
 3365              	.LVL465:
 3366              		.loc 1 1432 0
 3367 0286 4008     		lsrs	r0, r0, #1
 3368              	.LVL466:
 3369              		.loc 1 1433 0
 3370 0288 D603     		lsls	r6, r2, #15
 3371 028a 48BF     		it	mi
 3372 028c 82F48832 		eormi	r2, r2, #69632
 3373              	.LVL467:
 3374              		.loc 1 1431 0
 3375 0290 00F00106 		and	r6, r0, #1
 3376              		.loc 1 1433 0
 3377 0294 48BF     		it	mi
 3378 0296 82F02102 		eormi	r2, r2, #33
 3379              	.LVL468:
 3380              		.loc 1 1431 0
 3381 029a 06EB4202 		add	r2, r6, r2, lsl #1
 3382              	.LVL469:
 3383              		.loc 1 1432 0
 3384 029e 4008     		lsrs	r0, r0, #1
 3385              	.LVL470:
 3386              		.loc 1 1433 0
 3387 02a0 D303     		lsls	r3, r2, #15
 3388 02a2 44BF     		itt	mi
 3389 02a4 82F48832 		eormi	r2, r2, #69632
 3390              	.LVL471:
 3391 02a8 82F02102 		eormi	r2, r2, #33
 3392              	.LVL472:
 3393              		.loc 1 1431 0
 3394 02ac 00F00103 		and	r3, r0, #1
 3395 02b0 03EB4203 		add	r3, r3, r2, lsl #1
 3396              	.LVL473:
 3397              		.loc 1 1432 0
 3398 02b4 4208     		lsrs	r2, r0, #1
 3399              	.LVL474:
 3400              		.loc 1 1433 0
 3401 02b6 DE03     		lsls	r6, r3, #15
 3402 02b8 48BF     		it	mi
 3403 02ba 83F48833 		eormi	r3, r3, #69632
 3404              	.LVL475:
 3405              		.loc 1 1431 0
 3406 02be 02F00106 		and	r6, r2, #1
 3407              		.loc 1 1433 0
ARM GAS  C:\Users\Elis\AppData\Local\Temp\ccSuWDYb.s 			page 61


 3408 02c2 48BF     		it	mi
 3409 02c4 83F02103 		eormi	r3, r3, #33
 3410              	.LVL476:
 3411              		.loc 1 1431 0
 3412 02c8 06EB4303 		add	r3, r6, r3, lsl #1
 3413              	.LVL477:
 3414              		.loc 1 1432 0
 3415 02cc 5208     		lsrs	r2, r2, #1
 3416              	.LVL478:
 3417              		.loc 1 1433 0
 3418 02ce D803     		lsls	r0, r3, #15
 3419 02d0 48BF     		it	mi
 3420 02d2 83F48833 		eormi	r3, r3, #69632
 3421              	.LVL479:
 3422              		.loc 1 1431 0
 3423 02d6 02F00100 		and	r0, r2, #1
 3424              		.loc 1 1433 0
 3425 02da 48BF     		it	mi
 3426 02dc 83F02103 		eormi	r3, r3, #33
 3427              	.LVL480:
 3428              		.loc 1 1431 0
 3429 02e0 00EB4303 		add	r3, r0, r3, lsl #1
 3430              	.LVL481:
 3431              		.loc 1 1432 0
 3432 02e4 5208     		lsrs	r2, r2, #1
 3433              	.LVL482:
 3434              		.loc 1 1433 0
 3435 02e6 DE03     		lsls	r6, r3, #15
 3436 02e8 48BF     		it	mi
 3437 02ea 83F48833 		eormi	r3, r3, #69632
 3438              	.LVL483:
 3439              		.loc 1 1431 0
 3440 02ee 02F00106 		and	r6, r2, #1
 3441              		.loc 1 1433 0
 3442 02f2 48BF     		it	mi
 3443 02f4 83F02103 		eormi	r3, r3, #33
 3444              	.LVL484:
 3445              		.loc 1 1431 0
 3446 02f8 06EB4303 		add	r3, r6, r3, lsl #1
 3447              	.LVL485:
 3448              		.loc 1 1432 0
 3449 02fc 5208     		lsrs	r2, r2, #1
 3450              	.LVL486:
 3451              		.loc 1 1433 0
 3452 02fe D803     		lsls	r0, r3, #15
 3453 0300 48BF     		it	mi
 3454 0302 83F48833 		eormi	r3, r3, #69632
 3455              	.LVL487:
 3456              		.loc 1 1431 0
 3457 0306 02F00100 		and	r0, r2, #1
 3458              		.loc 1 1433 0
 3459 030a 48BF     		it	mi
 3460 030c 83F02103 		eormi	r3, r3, #33
 3461              	.LVL488:
 3462              		.loc 1 1431 0
 3463 0310 00EB4303 		add	r3, r0, r3, lsl #1
 3464              	.LVL489:
ARM GAS  C:\Users\Elis\AppData\Local\Temp\ccSuWDYb.s 			page 62


 3465              		.loc 1 1432 0
 3466 0314 5208     		lsrs	r2, r2, #1
 3467              	.LVL490:
 3468              		.loc 1 1433 0
 3469 0316 DE03     		lsls	r6, r3, #15
 3470 0318 48BF     		it	mi
 3471 031a 83F48833 		eormi	r3, r3, #69632
 3472              	.LVL491:
 3473              		.loc 1 1431 0
 3474 031e 02F00106 		and	r6, r2, #1
 3475              		.loc 1 1433 0
 3476 0322 48BF     		it	mi
 3477 0324 83F02103 		eormi	r3, r3, #33
 3478              	.LVL492:
 3479              		.loc 1 1431 0
 3480 0328 06EB4303 		add	r3, r6, r3, lsl #1
 3481              	.LVL493:
 3482              		.loc 1 1432 0
 3483 032c 5208     		lsrs	r2, r2, #1
 3484              	.LVL494:
 3485              		.loc 1 1433 0
 3486 032e D803     		lsls	r0, r3, #15
 3487 0330 48BF     		it	mi
 3488 0332 83F48833 		eormi	r3, r3, #69632
 3489              	.LVL495:
 3490              		.loc 1 1431 0
 3491 0336 02F00100 		and	r0, r2, #1
 3492              		.loc 1 1433 0
 3493 033a 48BF     		it	mi
 3494 033c 83F02103 		eormi	r3, r3, #33
 3495              	.LVL496:
 3496              		.loc 1 1431 0
 3497 0340 00EB4303 		add	r3, r0, r3, lsl #1
 3498              	.LVL497:
 3499              		.loc 1 1432 0
 3500 0344 5208     		lsrs	r2, r2, #1
 3501              	.LVL498:
 3502              		.loc 1 1433 0
 3503 0346 DE03     		lsls	r6, r3, #15
 3504 0348 48BF     		it	mi
 3505 034a 83F48833 		eormi	r3, r3, #69632
 3506              	.LVL499:
 3507              		.loc 1 1431 0
 3508 034e 02F00106 		and	r6, r2, #1
 3509              		.loc 1 1433 0
 3510 0352 48BF     		it	mi
 3511 0354 83F02103 		eormi	r3, r3, #33
 3512              	.LVL500:
 3513              		.loc 1 1431 0
 3514 0358 06EB4303 		add	r3, r6, r3, lsl #1
 3515              	.LVL501:
 3516              		.loc 1 1432 0
 3517 035c 5208     		lsrs	r2, r2, #1
 3518              	.LVL502:
 3519              		.loc 1 1433 0
 3520 035e D803     		lsls	r0, r3, #15
 3521 0360 48BF     		it	mi
ARM GAS  C:\Users\Elis\AppData\Local\Temp\ccSuWDYb.s 			page 63


 3522 0362 83F48833 		eormi	r3, r3, #69632
 3523              	.LVL503:
 3524              		.loc 1 1431 0
 3525 0366 02F00100 		and	r0, r2, #1
 3526              		.loc 1 1433 0
 3527 036a 48BF     		it	mi
 3528 036c 83F02103 		eormi	r3, r3, #33
 3529              	.LVL504:
 3530              		.loc 1 1431 0
 3531 0370 00EB4303 		add	r3, r0, r3, lsl #1
 3532              	.LVL505:
 3533              		.loc 1 1432 0
 3534 0374 5208     		lsrs	r2, r2, #1
 3535              	.LVL506:
 3536              		.loc 1 1433 0
 3537 0376 DE03     		lsls	r6, r3, #15
 3538 0378 48BF     		it	mi
 3539 037a 83F48833 		eormi	r3, r3, #69632
 3540              	.LVL507:
 3541              		.loc 1 1431 0
 3542 037e 02F00106 		and	r6, r2, #1
 3543              		.loc 1 1433 0
 3544 0382 48BF     		it	mi
 3545 0384 83F02103 		eormi	r3, r3, #33
 3546              	.LVL508:
 3547              		.loc 1 1431 0
 3548 0388 06EB4303 		add	r3, r6, r3, lsl #1
 3549              	.LVL509:
 3550              		.loc 1 1432 0
 3551 038c 5208     		lsrs	r2, r2, #1
 3552              	.LVL510:
 3553              		.loc 1 1433 0
 3554 038e D803     		lsls	r0, r3, #15
 3555 0390 44BF     		itt	mi
 3556 0392 83F48833 		eormi	r3, r3, #69632
 3557              	.LVL511:
 3558 0396 83F02103 		eormi	r3, r3, #33
 3559              	.LVL512:
 3560              		.loc 1 1431 0
 3561 039a 02F00100 		and	r0, r2, #1
 3562 039e 00EB4303 		add	r3, r0, r3, lsl #1
 3563              	.LVL513:
 3564              		.loc 1 1432 0
 3565 03a2 5208     		lsrs	r2, r2, #1
 3566              	.LVL514:
 3567              		.loc 1 1433 0
 3568 03a4 DE03     		lsls	r6, r3, #15
 3569 03a6 44BF     		itt	mi
 3570 03a8 83F48833 		eormi	r3, r3, #69632
 3571              	.LVL515:
 3572 03ac 83F02103 		eormi	r3, r3, #33
 3573              	.LVL516:
 3574              		.loc 1 1431 0
 3575 03b0 02F00106 		and	r6, r2, #1
 3576 03b4 06EB4303 		add	r3, r6, r3, lsl #1
 3577              	.LVL517:
 3578              		.loc 1 1432 0
ARM GAS  C:\Users\Elis\AppData\Local\Temp\ccSuWDYb.s 			page 64


 3579 03b8 5208     		lsrs	r2, r2, #1
 3580              	.LVL518:
 3581              		.loc 1 1433 0
 3582 03ba D803     		lsls	r0, r3, #15
 3583 03bc 44BF     		itt	mi
 3584 03be 83F48833 		eormi	r3, r3, #69632
 3585              	.LVL519:
 3586 03c2 83F02103 		eormi	r3, r3, #33
 3587              	.LVL520:
 3588              		.loc 1 1431 0
 3589 03c6 02EB4302 		add	r2, r2, r3, lsl #1
 3590              	.LVL521:
 3591              		.loc 1 1433 0
 3592 03ca D603     		lsls	r6, r2, #15
 3593 03cc 44BF     		itt	mi
 3594 03ce 82F48832 		eormi	r2, r2, #69632
 3595              	.LVL522:
 3596 03d2 82F02102 		eormi	r2, r2, #33
 3597              	.LVL523:
 3598              	.L568:
 3599              		.loc 1 1428 0
 3600 03d6 31F8023F 		ldrh	r3, [r1, #2]!
 3601 03da 002B     		cmp	r3, #0
 3602 03dc 7FF443AF 		bne	.L399
 3603 03e0 B4E6     		b	.L409
 3604              	.LVL524:
 3605              	.L529:
 3606              	.LBE258:
 3607              		.loc 1 1457 0
 3608 03e2 2022     		movs	r2, #32
 3609 03e4 FFE6     		b	.L575
 3610              	.LVL525:
 3611              	.L406:
 3612              	.LBE260:
 3613              	.LBE265:
 3614              		.loc 1 1635 0
 3615 03e6 0428     		cmp	r0, #4
 3616 03e8 3E46     		mov	r6, r7
 3617              	.LVL526:
 3618 03ea 40F08580 		bne	.L494
 3619              	.LVL527:
 3620              		.loc 1 1636 0
 3621 03ee 0D9B     		ldr	r3, [sp, #52]
 3622 03f0 0C9A     		ldr	r2, [sp, #48]
 3623 03f2 E372     		strb	r3, [r4, #11]
 3624 03f4 F261     		str	r2, [r6, #28]
 3625              	.LVL528:
 3626              	.L380:
 3627              		.loc 1 1639 0
 3628 03f6 DDF83490 		ldr	r9, [sp, #52]
 3629 03fa 09F00200 		and	r0, r9, #2
 3630 03fe C1B2     		uxtb	r1, r0
 3631 0400 0029     		cmp	r1, #0
 3632 0402 58D1     		bne	.L587
 3633              	.L466:
 3634              	.LBB266:
 3635              	.LBB267:
ARM GAS  C:\Users\Elis\AppData\Local\Temp\ccSuWDYb.s 			page 65


 3636              		.loc 1 1243 0
 3637 0404 3046     		mov	r0, r6
 3638 0406 0021     		movs	r1, #0
 3639 0408 FFF7FEFF 		bl	dir_sdi
 3640              	.LVL529:
 3641              	.LBE267:
 3642              	.LBE266:
 3643              		.loc 1 1643 0
 3644 040c 4FF0010A 		mov	sl, #1
 3645              	.LVL530:
 3646              	.LBB270:
 3647              	.LBB268:
 3648              		.loc 1 1244 0
 3649 0410 0346     		mov	r3, r0
 3650 0412 0028     		cmp	r0, #0
 3651 0414 6CD1     		bne	.L413
 3652              	.L589:
 3653 0416 0446     		mov	r4, r0
 3654              	.LVL531:
 3655 0418 05E0     		b	.L418
 3656              	.LVL532:
 3657              	.L468:
 3658              		.loc 1 1252 0
 3659 041a 1C46     		mov	r4, r3
 3660              	.LVL533:
 3661              	.L415:
 3662              		.loc 1 1254 0
 3663 041c FFF7FEFF 		bl	dir_next
 3664              	.LVL534:
 3665              		.loc 1 1255 0
 3666 0420 0346     		mov	r3, r0
 3667 0422 0028     		cmp	r0, #0
 3668 0424 64D1     		bne	.L413
 3669              	.LVL535:
 3670              	.L418:
 3671              		.loc 1 1247 0
 3672 0426 3169     		ldr	r1, [r6, #16]
 3673 0428 3068     		ldr	r0, [r6, #0]
 3674 042a FFF7FEFF 		bl	move_window
 3675              	.LVL536:
 3676              		.loc 1 1248 0
 3677 042e 0346     		mov	r3, r0
 3678              		.loc 1 1250 0
 3679 0430 0134     		adds	r4, r4, #1
 3680              	.LVL537:
 3681              		.loc 1 1254 0
 3682 0432 0121     		movs	r1, #1
 3683 0434 3046     		mov	r0, r6
 3684              		.loc 1 1248 0
 3685 0436 002B     		cmp	r3, #0
 3686 0438 5AD1     		bne	.L413
 3687              	.LVL538:
 3688              		.loc 1 1249 0
 3689 043a 7269     		ldr	r2, [r6, #20]
 3690 043c 1278     		ldrb	r2, [r2, #0]	@ zero_extendqisi2
 3691 043e E52A     		cmp	r2, #229
 3692 0440 01D0     		beq	.L414
ARM GAS  C:\Users\Elis\AppData\Local\Temp\ccSuWDYb.s 			page 66


 3693 0442 002A     		cmp	r2, #0
 3694 0444 E9D1     		bne	.L468
 3695              	.L414:
 3696              		.loc 1 1250 0
 3697 0446 A245     		cmp	sl, r4
 3698 0448 E8D1     		bne	.L415
 3699              	.LVL539:
 3700              	.LBE268:
 3701              	.LBE270:
 3702              		.loc 1 1647 0
 3703 044a BAF1010A 		subs	sl, sl, #1
 3704              	.LVL540:
 3705 044e 58D1     		bne	.L588
 3706              	.LVL541:
 3707              	.L417:
 3708              		.loc 1 1665 0
 3709 0450 3068     		ldr	r0, [r6, #0]
 3710 0452 3169     		ldr	r1, [r6, #16]
 3711 0454 FFF7FEFF 		bl	move_window
 3712              	.LVL542:
 3713              		.loc 1 1666 0
 3714 0458 0028     		cmp	r0, #0
 3715 045a 4DD1     		bne	.L494
 3716              		.loc 1 1667 0
 3717 045c 7369     		ldr	r3, [r6, #20]
 3718              	.LVL543:
 3719              	.LBB271:
 3720              	.LBB272:
 3721              		.loc 1 583 0
 3722 045e 0146     		mov	r1, r0
 3723              	.LBE272:
 3724              	.LBE271:
 3725              		.loc 1 1610 0
 3726 0460 03F12004 		add	r4, r3, #32
 3727              	.LVL544:
 3728              	.L458:
 3729              	.LBB274:
 3730              	.LBB273:
 3731              		.loc 1 583 0
 3732 0464 1A46     		mov	r2, r3
 3733 0466 02F8011B 		strb	r1, [r2], #1
 3734 046a 5970     		strb	r1, [r3, #1]
 3735 046c 531C     		adds	r3, r2, #1
 3736              	.LVL545:
 3737              		.loc 1 582 0
 3738 046e A342     		cmp	r3, r4
 3739 0470 F8D1     		bne	.L458
 3740              	.LBE273:
 3741              	.LBE274:
 3742              		.loc 1 1668 0
 3743 0472 B269     		ldr	r2, [r6, #24]
 3744 0474 7369     		ldr	r3, [r6, #20]
 3745              	.LVL546:
 3746              	.LBB275:
 3747              	.LBB276:
 3748              		.loc 1 574 0
 3749 0476 1178     		ldrb	r1, [r2, #0]	@ zero_extendqisi2
ARM GAS  C:\Users\Elis\AppData\Local\Temp\ccSuWDYb.s 			page 67


 3750 0478 1970     		strb	r1, [r3, #0]
 3751              	.LVL547:
 3752 047a 5178     		ldrb	r1, [r2, #1]	@ zero_extendqisi2
 3753 047c 5970     		strb	r1, [r3, #1]
 3754              	.LVL548:
 3755 047e 9178     		ldrb	r1, [r2, #2]	@ zero_extendqisi2
 3756 0480 9970     		strb	r1, [r3, #2]
 3757              	.LVL549:
 3758 0482 D178     		ldrb	r1, [r2, #3]	@ zero_extendqisi2
 3759 0484 D970     		strb	r1, [r3, #3]
 3760              	.LVL550:
 3761 0486 1179     		ldrb	r1, [r2, #4]	@ zero_extendqisi2
 3762 0488 1971     		strb	r1, [r3, #4]
 3763              	.LVL551:
 3764 048a 5179     		ldrb	r1, [r2, #5]	@ zero_extendqisi2
 3765 048c 5971     		strb	r1, [r3, #5]
 3766              	.LVL552:
 3767 048e 9179     		ldrb	r1, [r2, #6]	@ zero_extendqisi2
 3768 0490 9971     		strb	r1, [r3, #6]
 3769              	.LVL553:
 3770 0492 D179     		ldrb	r1, [r2, #7]	@ zero_extendqisi2
 3771 0494 D971     		strb	r1, [r3, #7]
 3772              	.LVL554:
 3773 0496 117A     		ldrb	r1, [r2, #8]	@ zero_extendqisi2
 3774 0498 1972     		strb	r1, [r3, #8]
 3775              	.LVL555:
 3776 049a 517A     		ldrb	r1, [r2, #9]	@ zero_extendqisi2
 3777 049c 5972     		strb	r1, [r3, #9]
 3778              	.LVL556:
 3779 049e 927A     		ldrb	r2, [r2, #10]	@ zero_extendqisi2
 3780              	.LVL557:
 3781 04a0 9A72     		strb	r2, [r3, #10]
 3782              	.LVL558:
 3783              	.LBE276:
 3784              	.LBE275:
 3785              		.loc 1 1670 0
 3786 04a2 B169     		ldr	r1, [r6, #24]
 3787 04a4 7369     		ldr	r3, [r6, #20]
 3788              	.LVL559:
 3789 04a6 CA7A     		ldrb	r2, [r1, #11]	@ zero_extendqisi2
 3790 04a8 02F01801 		and	r1, r2, #24
 3791 04ac 1973     		strb	r1, [r3, #12]
 3792              		.loc 1 1672 0
 3793 04ae 3368     		ldr	r3, [r6, #0]
 3794 04b0 0122     		movs	r2, #1
 3795 04b2 1A71     		strb	r2, [r3, #4]
 3796 04b4 20E0     		b	.L494
 3797              	.LVL560:
 3798              	.L587:
 3799              		.loc 1 1640 0 discriminator 1
 3800 04b6 DDF830A0 		ldr	sl, [sp, #48]
 3801 04ba BAF80030 		ldrh	r3, [sl, #0]
 3802 04be 002B     		cmp	r3, #0
 3803 04c0 A0D0     		beq	.L466
 3804 04c2 5246     		mov	r2, sl
 3805              		.loc 1 1640 0 is_stmt 0
 3806 04c4 0021     		movs	r1, #0
ARM GAS  C:\Users\Elis\AppData\Local\Temp\ccSuWDYb.s 			page 68


 3807              	.LVL561:
 3808              	.L412:
 3809              		.loc 1 1640 0 discriminator 2
 3810 04c6 32F8020F 		ldrh	r0, [r2, #2]!
 3811 04ca 0131     		adds	r1, r1, #1
 3812              	.LVL562:
 3813 04cc 0028     		cmp	r0, #0
 3814 04ce FAD1     		bne	.L412
 3815 04d0 4EF64F43 		movw	r3, #60495
 3816 04d4 C4F6C463 		movt	r3, 20164
 3817 04d8 1931     		adds	r1, r1, #25
 3818              	.LVL563:
 3819 04da A3FB01B2 		umull	fp, r2, r3, r1
 3820              	.LBB277:
 3821              	.LBB269:
 3822              		.loc 1 1243 0 is_stmt 1
 3823 04de 3046     		mov	r0, r6
 3824 04e0 0021     		movs	r1, #0
 3825              	.LVL564:
 3826 04e2 4FEA920A 		lsr	sl, r2, #2
 3827              	.LVL565:
 3828 04e6 FFF7FEFF 		bl	dir_sdi
 3829              	.LVL566:
 3830              		.loc 1 1244 0
 3831 04ea 0346     		mov	r3, r0
 3832 04ec 0028     		cmp	r0, #0
 3833 04ee 92D0     		beq	.L589
 3834              	.LVL567:
 3835              	.L413:
 3836              		.loc 1 1257 0
 3837 04f0 042B     		cmp	r3, #4
 3838 04f2 14BF     		ite	ne
 3839 04f4 1846     		movne	r0, r3
 3840 04f6 0720     		moveq	r0, #7
 3841              	.LVL568:
 3842              	.L494:
 3843              	.LBE269:
 3844              	.LBE277:
 3845              		.loc 1 1677 0
 3846 04f8 15B0     		add	sp, sp, #84
 3847 04fa BDE8F08F 		pop	{r4, r5, r6, r7, r8, r9, sl, fp, pc}
 3848              	.LVL569:
 3849              	.L462:
 3850              	.LBB278:
 3851              	.LBB261:
 3852              		.loc 1 1450 0
 3853 04fe 1A46     		mov	r2, r3
 3854              	.LVL570:
 3855 0500 55E6     		b	.L405
 3856              	.LVL571:
 3857              	.L588:
 3858              	.LBE261:
 3859              	.LBE278:
 3860              		.loc 1 1648 0
 3861 0502 F188     		ldrh	r1, [r6, #6]
 3862 0504 3046     		mov	r0, r6
 3863              	.LVL572:
ARM GAS  C:\Users\Elis\AppData\Local\Temp\ccSuWDYb.s 			page 69


 3864 0506 CAEB0101 		rsb	r1, sl, r1
 3865 050a FFF7FEFF 		bl	dir_sdi
 3866              	.LVL573:
 3867              		.loc 1 1649 0
 3868 050e 0028     		cmp	r0, #0
 3869 0510 F2D1     		bne	.L494
 3870              		.loc 1 1650 0
 3871 0512 B369     		ldr	r3, [r6, #24]
 3872              	.LVL574:
 3873              	.LBB279:
 3874              	.LBB280:
 3875              		.loc 1 1477 0
 3876 0514 1A78     		ldrb	r2, [r3, #0]	@ zero_extendqisi2
 3877 0516 93F80290 		ldrb	r9, [r3, #2]	@ zero_extendqisi2
 3878 051a 93F80380 		ldrb	r8, [r3, #3]	@ zero_extendqisi2
 3879 051e 93F801B0 		ldrb	fp, [r3, #1]	@ zero_extendqisi2
 3880 0522 93F804C0 		ldrb	ip, [r3, #4]	@ zero_extendqisi2
 3881 0526 93F805E0 		ldrb	lr, [r3, #5]	@ zero_extendqisi2
 3882 052a 9F79     		ldrb	r7, [r3, #6]	@ zero_extendqisi2
 3883 052c DD79     		ldrb	r5, [r3, #7]	@ zero_extendqisi2
 3884 052e 1C7A     		ldrb	r4, [r3, #8]	@ zero_extendqisi2
 3885              	.LVL575:
 3886 0530 587A     		ldrb	r0, [r3, #9]	@ zero_extendqisi2
 3887              	.LVL576:
 3888 0532 997A     		ldrb	r1, [r3, #10]	@ zero_extendqisi2
 3889 0534 D301     		lsls	r3, r2, #7
 3890              	.LVL577:
 3891 0536 43EA5202 		orr	r2, r3, r2, lsr #1
 3892 053a 02EB0B03 		add	r3, r2, fp
 3893 053e DBB2     		uxtb	r3, r3
 3894              	.LVL578:
 3895 0540 DA01     		lsls	r2, r3, #7
 3896 0542 42EA5303 		orr	r3, r2, r3, lsr #1
 3897              	.LVL579:
 3898 0546 59FA83F2 		uxtab	r2, r9, r3
 3899 054a D3B2     		uxtb	r3, r2
 3900              	.LVL580:
 3901 054c DA01     		lsls	r2, r3, #7
 3902              	.LVL581:
 3903 054e 42EA5303 		orr	r3, r2, r3, lsr #1
 3904              	.LVL582:
 3905 0552 58FA83F2 		uxtab	r2, r8, r3
 3906 0556 D3B2     		uxtb	r3, r2
 3907              	.LVL583:
 3908 0558 DA01     		lsls	r2, r3, #7
 3909              	.LVL584:
 3910 055a 42EA5303 		orr	r3, r2, r3, lsr #1
 3911              	.LVL585:
 3912 055e 5CFA83F2 		uxtab	r2, ip, r3
 3913 0562 D3B2     		uxtb	r3, r2
 3914              	.LVL586:
 3915 0564 DA01     		lsls	r2, r3, #7
 3916              	.LVL587:
 3917 0566 42EA5303 		orr	r3, r2, r3, lsr #1
 3918              	.LVL588:
 3919 056a 5EFA83F2 		uxtab	r2, lr, r3
 3920 056e D3B2     		uxtb	r3, r2
ARM GAS  C:\Users\Elis\AppData\Local\Temp\ccSuWDYb.s 			page 70


 3921              	.LVL589:
 3922 0570 DA01     		lsls	r2, r3, #7
 3923              	.LVL590:
 3924 0572 42EA5303 		orr	r3, r2, r3, lsr #1
 3925              	.LVL591:
 3926 0576 57FA83F7 		uxtab	r7, r7, r3
 3927 057a FBB2     		uxtb	r3, r7
 3928              	.LVL592:
 3929 057c DA01     		lsls	r2, r3, #7
 3930 057e 42EA5307 		orr	r7, r2, r3, lsr #1
 3931              	.LVL593:
 3932 0582 55FA87F5 		uxtab	r5, r5, r7
 3933 0586 EBB2     		uxtb	r3, r5
 3934              	.LVL594:
 3935 0588 DA01     		lsls	r2, r3, #7
 3936 058a 42EA5307 		orr	r7, r2, r3, lsr #1
 3937 058e 54FA87F4 		uxtab	r4, r4, r7
 3938 0592 E5B2     		uxtb	r5, r4
 3939              	.LVL595:
 3940 0594 EB01     		lsls	r3, r5, #7
 3941 0596 43EA5502 		orr	r2, r3, r5, lsr #1
 3942 059a 50FA82F0 		uxtab	r0, r0, r2
 3943 059e C7B2     		uxtb	r7, r0
 3944              	.LVL596:
 3945 05a0 FC01     		lsls	r4, r7, #7
 3946 05a2 44EA5705 		orr	r5, r4, r7, lsr #1
 3947 05a6 51FA85F9 		uxtab	r9, r1, r5
 3948 05aa 5FFA89F8 		uxtb	r8, r9
 3949              	.LVL597:
 3950              	.LBE280:
 3951              	.LBE279:
 3952              	.LBB281:
 3953              	.LBB282:
 3954              		.loc 1 1385 0
 3955 05ae 0F27     		movs	r7, #15
 3956              		.loc 1 1393 0
 3957 05b0 FF24     		movs	r4, #255
 3958 05b2 4FF6FF79 		movw	r9, #65535
 3959              	.LVL598:
 3960              	.LBE282:
 3961              	.LBE281:
 3962              		.loc 1 1655 0
 3963 05b6 0125     		movs	r5, #1
 3964 05b8 7EE0     		b	.L457
 3965              	.LVL599:
 3966              	.L420:
 3967              	.LBB286:
 3968              	.LBB283:
 3969              		.loc 1 1393 0
 3970 05ba DC70     		strb	r4, [r3, #3]
 3971 05bc 1C71     		strb	r4, [r3, #4]
 3972 05be 4FF6FF70 		movw	r0, #65535
 3973              	.LVL600:
 3974              	.L424:
 3975              		.loc 1 1392 0
 3976 05c2 4845     		cmp	r0, r9
 3977 05c4 00F0AB80 		beq	.L423
ARM GAS  C:\Users\Elis\AppData\Local\Temp\ccSuWDYb.s 			page 71


 3978 05c8 31F81200 		ldrh	r0, [r1, r2, lsl #1]
 3979              	.LVL601:
 3980              		.loc 1 1393 0
 3981 05cc 4FEA102C 		lsr	ip, r0, #8
 3982              		.loc 1 1392 0
 3983 05d0 0132     		adds	r2, r2, #1
 3984              	.LVL602:
 3985              		.loc 1 1393 0
 3986 05d2 5871     		strb	r0, [r3, #5]
 3987 05d4 83F806C0 		strb	ip, [r3, #6]
 3988              		.loc 1 1394 0
 3989 05d8 0028     		cmp	r0, #0
 3990 05da 40F0A480 		bne	.L427
 3991              	.LVL603:
 3992              	.L426:
 3993              		.loc 1 1393 0
 3994 05de DC71     		strb	r4, [r3, #7]
 3995 05e0 1C72     		strb	r4, [r3, #8]
 3996 05e2 4FF6FF70 		movw	r0, #65535
 3997              	.LVL604:
 3998              	.L430:
 3999              		.loc 1 1392 0
 4000 05e6 4845     		cmp	r0, r9
 4001 05e8 00F0AB80 		beq	.L429
 4002 05ec 31F81200 		ldrh	r0, [r1, r2, lsl #1]
 4003              	.LVL605:
 4004              		.loc 1 1393 0
 4005 05f0 4FEA102C 		lsr	ip, r0, #8
 4006              		.loc 1 1392 0
 4007 05f4 0132     		adds	r2, r2, #1
 4008              	.LVL606:
 4009              		.loc 1 1393 0
 4010 05f6 5872     		strb	r0, [r3, #9]
 4011 05f8 83F80AC0 		strb	ip, [r3, #10]
 4012              		.loc 1 1394 0
 4013 05fc 0028     		cmp	r0, #0
 4014 05fe 40F0A480 		bne	.L433
 4015              	.LVL607:
 4016              	.L432:
 4017              		.loc 1 1393 0
 4018 0602 9C73     		strb	r4, [r3, #14]
 4019 0604 DC73     		strb	r4, [r3, #15]
 4020 0606 4FF6FF70 		movw	r0, #65535
 4021              	.LVL608:
 4022              	.L436:
 4023              		.loc 1 1392 0
 4024 060a 4845     		cmp	r0, r9
 4025 060c 00F0AB80 		beq	.L435
 4026 0610 31F81200 		ldrh	r0, [r1, r2, lsl #1]
 4027              	.LVL609:
 4028              		.loc 1 1393 0
 4029 0614 4FEA102C 		lsr	ip, r0, #8
 4030              		.loc 1 1392 0
 4031 0618 0132     		adds	r2, r2, #1
 4032              	.LVL610:
 4033              		.loc 1 1393 0
 4034 061a 1874     		strb	r0, [r3, #16]
ARM GAS  C:\Users\Elis\AppData\Local\Temp\ccSuWDYb.s 			page 72


 4035 061c 83F811C0 		strb	ip, [r3, #17]
 4036              		.loc 1 1394 0
 4037 0620 0028     		cmp	r0, #0
 4038 0622 40F0A480 		bne	.L439
 4039              	.LVL611:
 4040              	.L438:
 4041              		.loc 1 1393 0
 4042 0626 9C74     		strb	r4, [r3, #18]
 4043 0628 DC74     		strb	r4, [r3, #19]
 4044 062a 4FF6FF70 		movw	r0, #65535
 4045              	.LVL612:
 4046              	.L442:
 4047              		.loc 1 1392 0
 4048 062e 4845     		cmp	r0, r9
 4049 0630 00F0AB80 		beq	.L441
 4050 0634 31F81200 		ldrh	r0, [r1, r2, lsl #1]
 4051              	.LVL613:
 4052              		.loc 1 1393 0
 4053 0638 4FEA102C 		lsr	ip, r0, #8
 4054              		.loc 1 1392 0
 4055 063c 0132     		adds	r2, r2, #1
 4056              	.LVL614:
 4057              		.loc 1 1393 0
 4058 063e 1875     		strb	r0, [r3, #20]
 4059 0640 83F815C0 		strb	ip, [r3, #21]
 4060              		.loc 1 1394 0
 4061 0644 0028     		cmp	r0, #0
 4062 0646 40F0A480 		bne	.L445
 4063              	.LVL615:
 4064              	.L444:
 4065              		.loc 1 1393 0
 4066 064a 9C75     		strb	r4, [r3, #22]
 4067 064c DC75     		strb	r4, [r3, #23]
 4068 064e 4FF6FF70 		movw	r0, #65535
 4069              	.LVL616:
 4070              	.L448:
 4071              		.loc 1 1392 0
 4072 0652 4845     		cmp	r0, r9
 4073 0654 00F0AB80 		beq	.L447
 4074 0658 31F81200 		ldrh	r0, [r1, r2, lsl #1]
 4075              	.LVL617:
 4076              		.loc 1 1393 0
 4077 065c 4FEA102C 		lsr	ip, r0, #8
 4078              		.loc 1 1392 0
 4079 0660 0132     		adds	r2, r2, #1
 4080              	.LVL618:
 4081              		.loc 1 1393 0
 4082 0662 1876     		strb	r0, [r3, #24]
 4083 0664 83F819C0 		strb	ip, [r3, #25]
 4084              		.loc 1 1394 0
 4085 0668 0028     		cmp	r0, #0
 4086 066a 40F0A480 		bne	.L451
 4087              	.LVL619:
 4088              	.L450:
 4089              		.loc 1 1393 0
 4090 066e 1C77     		strb	r4, [r3, #28]
 4091 0670 5C77     		strb	r4, [r3, #29]
ARM GAS  C:\Users\Elis\AppData\Local\Temp\ccSuWDYb.s 			page 73


 4092 0672 4FF6FF70 		movw	r0, #65535
 4093              	.LVL620:
 4094              	.L454:
 4095              		.loc 1 1392 0
 4096 0676 4845     		cmp	r0, r9
 4097 0678 00F0AB80 		beq	.L453
 4098 067c 31F81200 		ldrh	r0, [r1, r2, lsl #1]
 4099              	.LVL621:
 4100              		.loc 1 1393 0
 4101 0680 4FEA102C 		lsr	ip, r0, #8
 4102              		.loc 1 1392 0
 4103 0684 0132     		adds	r2, r2, #1
 4104              	.LVL622:
 4105              		.loc 1 1393 0
 4106 0686 9877     		strb	r0, [r3, #30]
 4107 0688 83F81FC0 		strb	ip, [r3, #31]
 4108              		.loc 1 1394 0
 4109 068c 0028     		cmp	r0, #0
 4110 068e 40F0A480 		bne	.L460
 4111              	.LVL623:
 4112              	.L455:
 4113              		.loc 1 1396 0
 4114 0692 4AF0400E 		orr	lr, sl, #64
 4115 0696 5FFA8EFE 		uxtb	lr, lr
 4116              	.LVL624:
 4117              	.L456:
 4118              		.loc 1 1397 0
 4119 069a 83F800E0 		strb	lr, [r3, #0]
 4120              	.LBE283:
 4121              	.LBE286:
 4122              		.loc 1 1655 0
 4123 069e 3368     		ldr	r3, [r6, #0]
 4124              	.LVL625:
 4125              		.loc 1 1656 0
 4126 06a0 3046     		mov	r0, r6
 4127              		.loc 1 1655 0
 4128 06a2 1D71     		strb	r5, [r3, #4]
 4129              		.loc 1 1656 0
 4130 06a4 0021     		movs	r1, #0
 4131 06a6 FFF7FEFF 		bl	dir_next
 4132              	.LVL626:
 4133              		.loc 1 1657 0
 4134 06aa 0028     		cmp	r0, #0
 4135 06ac 7FF424AF 		bne	.L494
 4136              	.LVL627:
 4137              		.loc 1 1657 0 is_stmt 0 discriminator 1
 4138 06b0 BAF1010A 		subs	sl, sl, #1
 4139              	.LVL628:
 4140 06b4 3FF4CCAE 		beq	.L417
 4141              	.LVL629:
 4142              	.L457:
 4143              		.loc 1 1652 0 is_stmt 1
 4144 06b8 3068     		ldr	r0, [r6, #0]
 4145 06ba 3169     		ldr	r1, [r6, #16]
 4146 06bc FFF7FEFF 		bl	move_window
 4147              	.LVL630:
 4148 06c0 0246     		mov	r2, r0
ARM GAS  C:\Users\Elis\AppData\Local\Temp\ccSuWDYb.s 			page 74


 4149              	.LVL631:
 4150              		.loc 1 1653 0
 4151 06c2 002A     		cmp	r2, #0
 4152 06c4 7FF418AF 		bne	.L494
 4153              	.LBB287:
 4154              	.LBB284:
 4155              		.loc 1 1610 0
 4156 06c8 5FFA8AFE 		uxtb	lr, sl
 4157              		.loc 1 1389 0
 4158 06cc 0EF1FF30 		add	r0, lr, #-1
 4159              	.LVL632:
 4160              	.LBE284:
 4161              	.LBE287:
 4162              		.loc 1 1654 0
 4163 06d0 7369     		ldr	r3, [r6, #20]
 4164 06d2 F169     		ldr	r1, [r6, #28]
 4165              	.LVL633:
 4166              	.LBB288:
 4167              	.LBB285:
 4168              		.loc 1 1386 0
 4169 06d4 1A73     		strb	r2, [r3, #12]
 4170              		.loc 1 1389 0
 4171 06d6 00EB400B 		add	fp, r0, r0, lsl #1
 4172 06da 00EB8B0C 		add	ip, r0, fp, lsl #2
 4173              	.LVL634:
 4174              		.loc 1 1387 0
 4175 06de 9A76     		strb	r2, [r3, #26]
 4176 06e0 DA76     		strb	r2, [r3, #27]
 4177              		.loc 1 1384 0
 4178 06e2 83F80D80 		strb	r8, [r3, #13]
 4179              		.loc 1 1385 0
 4180 06e6 DF72     		strb	r7, [r3, #11]
 4181              		.loc 1 1392 0
 4182 06e8 31F81C00 		ldrh	r0, [r1, ip, lsl #1]
 4183              	.LVL635:
 4184              		.loc 1 1393 0
 4185 06ec 4FEA102B 		lsr	fp, r0, #8
 4186              		.loc 1 1392 0
 4187 06f0 0CF10102 		add	r2, ip, #1
 4188              	.LVL636:
 4189              		.loc 1 1393 0
 4190 06f4 5870     		strb	r0, [r3, #1]
 4191 06f6 83F802B0 		strb	fp, [r3, #2]
 4192              		.loc 1 1394 0
 4193 06fa 0028     		cmp	r0, #0
 4194 06fc 3FF45DAF 		beq	.L420
 4195              	.LVL637:
 4196              		.loc 1 1392 0
 4197 0700 4845     		cmp	r0, r9
 4198 0702 3FF45AAF 		beq	.L420
 4199 0706 31F81200 		ldrh	r0, [r1, r2, lsl #1]
 4200              	.LVL638:
 4201              		.loc 1 1393 0
 4202 070a 4FEA102B 		lsr	fp, r0, #8
 4203              		.loc 1 1392 0
 4204 070e 0CF10202 		add	r2, ip, #2
 4205              	.LVL639:
ARM GAS  C:\Users\Elis\AppData\Local\Temp\ccSuWDYb.s 			page 75


 4206              		.loc 1 1393 0
 4207 0712 D870     		strb	r0, [r3, #3]
 4208 0714 83F804B0 		strb	fp, [r3, #4]
 4209              		.loc 1 1394 0
 4210 0718 0028     		cmp	r0, #0
 4211 071a 7FF452AF 		bne	.L424
 4212              	.LVL640:
 4213              	.L423:
 4214              		.loc 1 1393 0
 4215 071e 5C71     		strb	r4, [r3, #5]
 4216 0720 9C71     		strb	r4, [r3, #6]
 4217 0722 4FF6FF70 		movw	r0, #65535
 4218              	.LVL641:
 4219              	.L427:
 4220              		.loc 1 1392 0
 4221 0726 4845     		cmp	r0, r9
 4222 0728 3FF459AF 		beq	.L426
 4223 072c 31F81200 		ldrh	r0, [r1, r2, lsl #1]
 4224              	.LVL642:
 4225              		.loc 1 1393 0
 4226 0730 4FEA102C 		lsr	ip, r0, #8
 4227              		.loc 1 1392 0
 4228 0734 0132     		adds	r2, r2, #1
 4229              	.LVL643:
 4230              		.loc 1 1393 0
 4231 0736 D871     		strb	r0, [r3, #7]
 4232 0738 83F808C0 		strb	ip, [r3, #8]
 4233              		.loc 1 1394 0
 4234 073c 0028     		cmp	r0, #0
 4235 073e 7FF452AF 		bne	.L430
 4236              	.LVL644:
 4237              	.L429:
 4238              		.loc 1 1393 0
 4239 0742 5C72     		strb	r4, [r3, #9]
 4240 0744 9C72     		strb	r4, [r3, #10]
 4241 0746 4FF6FF70 		movw	r0, #65535
 4242              	.LVL645:
 4243              	.L433:
 4244              		.loc 1 1392 0
 4245 074a 4845     		cmp	r0, r9
 4246 074c 3FF459AF 		beq	.L432
 4247 0750 31F81200 		ldrh	r0, [r1, r2, lsl #1]
 4248              	.LVL646:
 4249              		.loc 1 1393 0
 4250 0754 4FEA102C 		lsr	ip, r0, #8
 4251              		.loc 1 1392 0
 4252 0758 0132     		adds	r2, r2, #1
 4253              	.LVL647:
 4254              		.loc 1 1393 0
 4255 075a 9873     		strb	r0, [r3, #14]
 4256 075c 83F80FC0 		strb	ip, [r3, #15]
 4257              		.loc 1 1394 0
 4258 0760 0028     		cmp	r0, #0
 4259 0762 7FF452AF 		bne	.L436
 4260              	.LVL648:
 4261              	.L435:
 4262              		.loc 1 1393 0
ARM GAS  C:\Users\Elis\AppData\Local\Temp\ccSuWDYb.s 			page 76


 4263 0766 1C74     		strb	r4, [r3, #16]
 4264 0768 5C74     		strb	r4, [r3, #17]
 4265 076a 4FF6FF70 		movw	r0, #65535
 4266              	.LVL649:
 4267              	.L439:
 4268              		.loc 1 1392 0
 4269 076e 4845     		cmp	r0, r9
 4270 0770 3FF459AF 		beq	.L438
 4271 0774 31F81200 		ldrh	r0, [r1, r2, lsl #1]
 4272              	.LVL650:
 4273              		.loc 1 1393 0
 4274 0778 4FEA102C 		lsr	ip, r0, #8
 4275              		.loc 1 1392 0
 4276 077c 0132     		adds	r2, r2, #1
 4277              	.LVL651:
 4278              		.loc 1 1393 0
 4279 077e 9874     		strb	r0, [r3, #18]
 4280 0780 83F813C0 		strb	ip, [r3, #19]
 4281              		.loc 1 1394 0
 4282 0784 0028     		cmp	r0, #0
 4283 0786 7FF452AF 		bne	.L442
 4284              	.LVL652:
 4285              	.L441:
 4286              		.loc 1 1393 0
 4287 078a 1C75     		strb	r4, [r3, #20]
 4288 078c 5C75     		strb	r4, [r3, #21]
 4289 078e 4FF6FF70 		movw	r0, #65535
 4290              	.LVL653:
 4291              	.L445:
 4292              		.loc 1 1392 0
 4293 0792 4845     		cmp	r0, r9
 4294 0794 3FF459AF 		beq	.L444
 4295 0798 31F81200 		ldrh	r0, [r1, r2, lsl #1]
 4296              	.LVL654:
 4297              		.loc 1 1393 0
 4298 079c 4FEA102C 		lsr	ip, r0, #8
 4299              		.loc 1 1392 0
 4300 07a0 0132     		adds	r2, r2, #1
 4301              	.LVL655:
 4302              		.loc 1 1393 0
 4303 07a2 9875     		strb	r0, [r3, #22]
 4304 07a4 83F817C0 		strb	ip, [r3, #23]
 4305              		.loc 1 1394 0
 4306 07a8 0028     		cmp	r0, #0
 4307 07aa 7FF452AF 		bne	.L448
 4308              	.LVL656:
 4309              	.L447:
 4310              		.loc 1 1393 0
 4311 07ae 1C76     		strb	r4, [r3, #24]
 4312 07b0 5C76     		strb	r4, [r3, #25]
 4313 07b2 4FF6FF70 		movw	r0, #65535
 4314              	.LVL657:
 4315              	.L451:
 4316              		.loc 1 1392 0
 4317 07b6 4845     		cmp	r0, r9
 4318 07b8 3FF459AF 		beq	.L450
 4319 07bc 31F81200 		ldrh	r0, [r1, r2, lsl #1]
ARM GAS  C:\Users\Elis\AppData\Local\Temp\ccSuWDYb.s 			page 77


 4320              	.LVL658:
 4321              		.loc 1 1393 0
 4322 07c0 4FEA102C 		lsr	ip, r0, #8
 4323              		.loc 1 1392 0
 4324 07c4 0132     		adds	r2, r2, #1
 4325              	.LVL659:
 4326              		.loc 1 1393 0
 4327 07c6 1877     		strb	r0, [r3, #28]
 4328 07c8 83F81DC0 		strb	ip, [r3, #29]
 4329              		.loc 1 1394 0
 4330 07cc 0028     		cmp	r0, #0
 4331 07ce 7FF452AF 		bne	.L454
 4332              	.LVL660:
 4333              	.L453:
 4334              		.loc 1 1393 0
 4335 07d2 9C77     		strb	r4, [r3, #30]
 4336 07d4 DC77     		strb	r4, [r3, #31]
 4337 07d6 4FF6FF70 		movw	r0, #65535
 4338              	.LVL661:
 4339              	.L460:
 4340              		.loc 1 1396 0
 4341 07da 4845     		cmp	r0, r9
 4342 07dc 3FF459AF 		beq	.L455
 4343 07e0 31F81210 		ldrh	r1, [r1, r2, lsl #1]
 4344              	.LVL662:
 4345 07e4 0029     		cmp	r1, #0
 4346 07e6 3FF454AF 		beq	.L455
 4347 07ea 56E7     		b	.L456
 4348              	.LBE285:
 4349              	.LBE288:
 4350              		.cfi_endproc
 4351              	.LFE142:
 4352              		.size	dir_register, .-dir_register
 4353 07ec AFF30080 		.section	.text.dir_read.constprop.10,"ax",%progbits
 4354              		.align	2
 4355              		.p2align 4,,15
 4356              		.thumb
 4357              		.thumb_func
 4358              		.type	dir_read.constprop.10, %function
 4359              	dir_read.constprop.10:
 4360              	.LFB188:
 4361              		.loc 1 1551 0
 4362              		.cfi_startproc
 4363              		@ args = 0, pretend = 0, frame = 8
 4364              		@ frame_needed = 0, uses_anonymous_args = 0
 4365              	.LVL663:
 4366 0000 2DE9F04F 		push	{r4, r5, r6, r7, r8, r9, sl, fp, lr}
 4367              	.LCFI20:
 4368              		.cfi_def_cfa_offset 36
 4369              		.cfi_offset 4, -36
 4370              		.cfi_offset 5, -32
 4371              		.cfi_offset 6, -28
 4372              		.cfi_offset 7, -24
 4373              		.cfi_offset 8, -20
 4374              		.cfi_offset 9, -16
 4375              		.cfi_offset 10, -12
 4376              		.cfi_offset 11, -8
ARM GAS  C:\Users\Elis\AppData\Local\Temp\ccSuWDYb.s 			page 78


 4377              		.cfi_offset 14, -4
 4378              		.loc 1 1559 0
 4379 0004 FF25     		movs	r5, #255
 4380              		.loc 1 1551 0
 4381 0006 0446     		mov	r4, r0
 4382 0008 83B0     		sub	sp, sp, #12
 4383              	.LCFI21:
 4384              		.cfi_def_cfa_offset 48
 4385              		.loc 1 1559 0
 4386 000a 2E46     		mov	r6, r5
 4387              		.loc 1 1562 0
 4388 000c 0420     		movs	r0, #4
 4389              	.LVL664:
 4390              	.LBB293:
 4391              	.LBB294:
 4392              		.loc 1 1364 0
 4393 000e 4FF00008 		mov	r8, #0
 4394              		.loc 1 1358 0
 4395 0012 4FF6FF77 		movw	r7, #65535
 4396              	.L591:
 4397              	.LVL665:
 4398              	.LBE294:
 4399              	.LBE293:
 4400              		.loc 1 1563 0
 4401 0016 2169     		ldr	r1, [r4, #16]
 4402 0018 0029     		cmp	r1, #0
 4403 001a 00F0E780 		beq	.L682
 4404              		.loc 1 1564 0
 4405 001e 2068     		ldr	r0, [r4, #0]
 4406 0020 FFF7FEFF 		bl	move_window
 4407              	.LVL666:
 4408              		.loc 1 1565 0
 4409 0024 A0B9     		cbnz	r0, .L627
 4410              		.loc 1 1566 0
 4411 0026 6269     		ldr	r2, [r4, #20]
 4412              	.LVL667:
 4413              		.loc 1 1567 0
 4414 0028 1378     		ldrb	r3, [r2, #0]	@ zero_extendqisi2
 4415              	.LVL668:
 4416              		.loc 1 1568 0
 4417 002a 002B     		cmp	r3, #0
 4418 002c 00F0E280 		beq	.L628
 4419              		.loc 1 1571 0
 4420 0030 E52B     		cmp	r3, #229
 4421              		.loc 1 1569 0
 4422 0032 D17A     		ldrb	r1, [r2, #11]	@ zero_extendqisi2
 4423              	.LVL669:
 4424              		.loc 1 1571 0
 4425 0034 05D0     		beq	.L633
 4426 0036 2E2B     		cmp	r3, #46
 4427 0038 03D0     		beq	.L633
 4428              		.loc 1 1569 0
 4429 003a 01F03F01 		and	r1, r1, #63
 4430              	.LVL670:
 4431              		.loc 1 1571 0
 4432 003e 0829     		cmp	r1, #8
 4433 0040 0BD1     		bne	.L683
ARM GAS  C:\Users\Elis\AppData\Local\Temp\ccSuWDYb.s 			page 79


 4434              	.LVL671:
 4435              	.L633:
 4436              		.loc 1 1581 0
 4437 0042 FF26     		movs	r6, #255
 4438              	.LVL672:
 4439              	.L593:
 4440              		.loc 1 1592 0
 4441 0044 2046     		mov	r0, r4
 4442 0046 0021     		movs	r1, #0
 4443 0048 FFF7FEFF 		bl	dir_next
 4444              	.LVL673:
 4445              		.loc 1 1593 0
 4446 004c 0028     		cmp	r0, #0
 4447 004e E2D0     		beq	.L591
 4448              	.LVL674:
 4449              	.L627:
 4450              		.loc 1 1596 0
 4451 0050 0021     		movs	r1, #0
 4452 0052 2161     		str	r1, [r4, #16]
 4453              	.L649:
 4454              		.loc 1 1599 0
 4455 0054 03B0     		add	sp, sp, #12
 4456 0056 BDE8F08F 		pop	{r4, r5, r6, r7, r8, r9, sl, fp, pc}
 4457              	.LVL675:
 4458              	.L683:
 4459              		.loc 1 1574 0
 4460 005a 0F29     		cmp	r1, #15
 4461 005c 40F0CC80 		bne	.L594
 4462              		.loc 1 1575 0
 4463 0060 03F04000 		and	r0, r3, #64
 4464              	.LVL676:
 4465 0064 C1B2     		uxtb	r1, r0
 4466 0066 0029     		cmp	r1, #0
 4467 0068 00F0BC80 		beq	.L595
 4468              		.loc 1 1578 0
 4469 006c E688     		ldrh	r6, [r4, #6]
 4470              	.LVL677:
 4471              		.loc 1 1576 0
 4472 006e 557B     		ldrb	r5, [r2, #13]	@ zero_extendqisi2
 4473              	.LVL678:
 4474              		.loc 1 1578 0
 4475 0070 2684     		strh	r6, [r4, #32]	@ movhi
 4476              		.loc 1 1577 0
 4477 0072 03F0BF03 		and	r3, r3, #191
 4478              	.LVL679:
 4479              	.L596:
 4480              		.loc 1 1581 0
 4481 0076 507B     		ldrb	r0, [r2, #13]	@ zero_extendqisi2
 4482 0078 A842     		cmp	r0, r5
 4483 007a E2D1     		bne	.L633
 4484              	.LBB300:
 4485              		.loc 1 1349 0
 4486 007c 1178     		ldrb	r1, [r2, #0]	@ zero_extendqisi2
 4487              	.LBB295:
 4488              		.loc 1 1353 0
 4489 007e 92F802C0 		ldrb	ip, [r2, #2]	@ zero_extendqisi2
 4490 0082 5578     		ldrb	r5, [r2, #1]	@ zero_extendqisi2
ARM GAS  C:\Users\Elis\AppData\Local\Temp\ccSuWDYb.s 			page 80


 4491              	.LBE295:
 4492              	.LBE300:
 4493              		.loc 1 1581 0
 4494 0084 E669     		ldr	r6, [r4, #28]
 4495              	.LVL680:
 4496              	.LBB301:
 4497              	.LBB296:
 4498              		.loc 1 1349 0
 4499 0086 01F03F01 		and	r1, r1, #63
 4500 008a 0139     		subs	r1, r1, #1
 4501 008c 01EB410E 		add	lr, r1, r1, lsl #1
 4502 0090 01EB8E0E 		add	lr, r1, lr, lsl #2
 4503              	.LVL681:
 4504              		.loc 1 1355 0
 4505 0094 BEF1FE0F 		cmp	lr, #254
 4506              		.loc 1 1353 0
 4507 0098 45EA0C25 		orr	r5, r5, ip, lsl #8
 4508              	.LVL682:
 4509              		.loc 1 1355 0
 4510 009c 00F21181 		bhi	.L597
 4511              	.LVL683:
 4512              		.loc 1 1356 0
 4513 00a0 26F81E50 		strh	r5, [r6, lr, lsl #1]	@ movhi
 4514              		.loc 1 1353 0
 4515 00a4 92F80490 		ldrb	r9, [r2, #4]	@ zero_extendqisi2
 4516 00a8 92F803C0 		ldrb	ip, [r2, #3]	@ zero_extendqisi2
 4517              		.loc 1 1356 0
 4518 00ac 0EF10101 		add	r1, lr, #1
 4519              	.LVL684:
 4520              		.loc 1 1353 0
 4521 00b0 4CEA092C 		orr	ip, ip, r9, lsl #8
 4522              	.LVL685:
 4523              		.loc 1 1354 0
 4524 00b4 002D     		cmp	r5, #0
 4525 00b6 40F0FA80 		bne	.L598
 4526              		.loc 1 1358 0
 4527 00ba BC45     		cmp	ip, r7
 4528 00bc 40F00181 		bne	.L597
 4529              	.LVL686:
 4530              	.L599:
 4531              		.loc 1 1353 0
 4532 00c0 92F806C0 		ldrb	ip, [r2, #6]	@ zero_extendqisi2
 4533              	.LVL687:
 4534 00c4 92F805E0 		ldrb	lr, [r2, #5]	@ zero_extendqisi2
 4535 00c8 4EEA0C2C 		orr	ip, lr, ip, lsl #8
 4536              	.LVL688:
 4537              		.loc 1 1354 0
 4538 00cc 002D     		cmp	r5, #0
 4539 00ce 40F0FB80 		bne	.L600
 4540              		.loc 1 1358 0
 4541 00d2 BC45     		cmp	ip, r7
 4542 00d4 40F0F580 		bne	.L597
 4543              	.LVL689:
 4544              	.L601:
 4545              		.loc 1 1353 0
 4546 00d8 92F808C0 		ldrb	ip, [r2, #8]	@ zero_extendqisi2
 4547              	.LVL690:
ARM GAS  C:\Users\Elis\AppData\Local\Temp\ccSuWDYb.s 			page 81


 4548 00dc 92F807E0 		ldrb	lr, [r2, #7]	@ zero_extendqisi2
 4549              	.LVL691:
 4550 00e0 4EEA0C2C 		orr	ip, lr, ip, lsl #8
 4551              	.LVL692:
 4552              		.loc 1 1354 0
 4553 00e4 002D     		cmp	r5, #0
 4554 00e6 40F0F680 		bne	.L602
 4555              		.loc 1 1358 0
 4556 00ea BC45     		cmp	ip, r7
 4557 00ec 40F0E980 		bne	.L597
 4558              	.LVL693:
 4559              	.L603:
 4560              		.loc 1 1353 0
 4561 00f0 92F80AC0 		ldrb	ip, [r2, #10]	@ zero_extendqisi2
 4562              	.LVL694:
 4563 00f4 92F809E0 		ldrb	lr, [r2, #9]	@ zero_extendqisi2
 4564              	.LVL695:
 4565 00f8 4EEA0C2C 		orr	ip, lr, ip, lsl #8
 4566              	.LVL696:
 4567              		.loc 1 1354 0
 4568 00fc 002D     		cmp	r5, #0
 4569 00fe 40F0F180 		bne	.L604
 4570              		.loc 1 1358 0
 4571 0102 BC45     		cmp	ip, r7
 4572 0104 40F0DD80 		bne	.L597
 4573              	.LVL697:
 4574              	.L605:
 4575              		.loc 1 1353 0
 4576 0108 92F80FC0 		ldrb	ip, [r2, #15]	@ zero_extendqisi2
 4577              	.LVL698:
 4578 010c 92F80EE0 		ldrb	lr, [r2, #14]	@ zero_extendqisi2
 4579              	.LVL699:
 4580 0110 4EEA0C2C 		orr	ip, lr, ip, lsl #8
 4581              	.LVL700:
 4582              		.loc 1 1354 0
 4583 0114 002D     		cmp	r5, #0
 4584 0116 40F0F380 		bne	.L606
 4585              		.loc 1 1358 0
 4586 011a BC45     		cmp	ip, r7
 4587 011c 40F0D180 		bne	.L597
 4588              	.LVL701:
 4589              	.L607:
 4590              		.loc 1 1353 0
 4591 0120 92F811C0 		ldrb	ip, [r2, #17]	@ zero_extendqisi2
 4592              	.LVL702:
 4593 0124 92F810E0 		ldrb	lr, [r2, #16]	@ zero_extendqisi2
 4594              	.LVL703:
 4595 0128 4EEA0C2C 		orr	ip, lr, ip, lsl #8
 4596              	.LVL704:
 4597              		.loc 1 1354 0
 4598 012c 002D     		cmp	r5, #0
 4599 012e 40F0E080 		bne	.L608
 4600              		.loc 1 1358 0
 4601 0132 BC45     		cmp	ip, r7
 4602 0134 40F0C580 		bne	.L597
 4603              	.LVL705:
 4604              	.L609:
ARM GAS  C:\Users\Elis\AppData\Local\Temp\ccSuWDYb.s 			page 82


 4605              		.loc 1 1353 0
 4606 0138 92F813C0 		ldrb	ip, [r2, #19]	@ zero_extendqisi2
 4607              	.LVL706:
 4608 013c 92F812E0 		ldrb	lr, [r2, #18]	@ zero_extendqisi2
 4609              	.LVL707:
 4610 0140 4EEA0C2C 		orr	ip, lr, ip, lsl #8
 4611              	.LVL708:
 4612              		.loc 1 1354 0
 4613 0144 002D     		cmp	r5, #0
 4614 0146 40F0E280 		bne	.L610
 4615              		.loc 1 1358 0
 4616 014a BC45     		cmp	ip, r7
 4617 014c 40F0B980 		bne	.L597
 4618              	.LVL709:
 4619              	.L611:
 4620              		.loc 1 1353 0
 4621 0150 92F815C0 		ldrb	ip, [r2, #21]	@ zero_extendqisi2
 4622              	.LVL710:
 4623 0154 92F814E0 		ldrb	lr, [r2, #20]	@ zero_extendqisi2
 4624              	.LVL711:
 4625 0158 4EEA0C2C 		orr	ip, lr, ip, lsl #8
 4626              	.LVL712:
 4627              		.loc 1 1354 0
 4628 015c 002D     		cmp	r5, #0
 4629 015e 40F0DD80 		bne	.L612
 4630              		.loc 1 1358 0
 4631 0162 BC45     		cmp	ip, r7
 4632 0164 40F0AD80 		bne	.L597
 4633              	.LVL713:
 4634              	.L613:
 4635              		.loc 1 1353 0
 4636 0168 92F817C0 		ldrb	ip, [r2, #23]	@ zero_extendqisi2
 4637              	.LVL714:
 4638 016c 92F816E0 		ldrb	lr, [r2, #22]	@ zero_extendqisi2
 4639              	.LVL715:
 4640 0170 4EEA0C2C 		orr	ip, lr, ip, lsl #8
 4641              	.LVL716:
 4642              		.loc 1 1354 0
 4643 0174 002D     		cmp	r5, #0
 4644 0176 40F0D880 		bne	.L614
 4645              		.loc 1 1358 0
 4646 017a BC45     		cmp	ip, r7
 4647 017c 40F0A180 		bne	.L597
 4648              	.LVL717:
 4649              	.L615:
 4650              		.loc 1 1353 0
 4651 0180 92F819C0 		ldrb	ip, [r2, #25]	@ zero_extendqisi2
 4652              	.LVL718:
 4653 0184 92F818E0 		ldrb	lr, [r2, #24]	@ zero_extendqisi2
 4654              	.LVL719:
 4655 0188 4EEA0C2C 		orr	ip, lr, ip, lsl #8
 4656              	.LVL720:
 4657              		.loc 1 1354 0
 4658 018c 002D     		cmp	r5, #0
 4659 018e 40F0D380 		bne	.L616
 4660              		.loc 1 1358 0
 4661 0192 BC45     		cmp	ip, r7
ARM GAS  C:\Users\Elis\AppData\Local\Temp\ccSuWDYb.s 			page 83


 4662 0194 40F09580 		bne	.L597
 4663              	.LVL721:
 4664              	.L617:
 4665              		.loc 1 1353 0
 4666 0198 92F81DC0 		ldrb	ip, [r2, #29]	@ zero_extendqisi2
 4667              	.LVL722:
 4668 019c 92F81CE0 		ldrb	lr, [r2, #28]	@ zero_extendqisi2
 4669              	.LVL723:
 4670 01a0 4EEA0C2C 		orr	ip, lr, ip, lsl #8
 4671              	.LVL724:
 4672              		.loc 1 1354 0
 4673 01a4 002D     		cmp	r5, #0
 4674 01a6 40F0CE80 		bne	.L618
 4675              		.loc 1 1358 0
 4676 01aa BC45     		cmp	ip, r7
 4677 01ac 40F08980 		bne	.L597
 4678              	.LVL725:
 4679              	.L619:
 4680              		.loc 1 1353 0
 4681 01b0 92F81FC0 		ldrb	ip, [r2, #31]	@ zero_extendqisi2
 4682              	.LVL726:
 4683 01b4 92F81EE0 		ldrb	lr, [r2, #30]	@ zero_extendqisi2
 4684              	.LVL727:
 4685 01b8 4EEA0C2C 		orr	ip, lr, ip, lsl #8
 4686              	.LVL728:
 4687              		.loc 1 1354 0
 4688 01bc 002D     		cmp	r5, #0
 4689 01be 7ED0     		beq	.L620
 4690              		.loc 1 1355 0
 4691 01c0 FF29     		cmp	r1, #255
 4692 01c2 7ED0     		beq	.L597
 4693              	.LVL729:
 4694              		.loc 1 1356 0
 4695 01c4 26F811C0 		strh	ip, [r6, r1, lsl #1]	@ movhi
 4696 01c8 0131     		adds	r1, r1, #1
 4697              	.LVL730:
 4698              	.L621:
 4699              	.LBE296:
 4700              		.loc 1 1362 0
 4701 01ca 1278     		ldrb	r2, [r2, #0]	@ zero_extendqisi2
 4702              	.LVL731:
 4703              	.LBB297:
 4704 01cc 02F04005 		and	r5, r2, #64
 4705 01d0 EAB2     		uxtb	r2, r5
 4706 01d2 1AB1     		cbz	r2, .L622
 4707              		.loc 1 1363 0
 4708 01d4 FF29     		cmp	r1, #255
 4709 01d6 74D0     		beq	.L597
 4710              		.loc 1 1364 0
 4711 01d8 26F81180 		strh	r8, [r6, r1, lsl #1]	@ movhi
 4712              	.L622:
 4713              	.LBE297:
 4714              	.LBE301:
 4715              		.loc 1 1581 0
 4716 01dc 013B     		subs	r3, r3, #1
 4717 01de DEB2     		uxtb	r6, r3
 4718              	.LVL732:
ARM GAS  C:\Users\Elis\AppData\Local\Temp\ccSuWDYb.s 			page 84


 4719 01e0 0546     		mov	r5, r0
 4720 01e2 2FE7     		b	.L593
 4721              	.LVL733:
 4722              	.L595:
 4723 01e4 B342     		cmp	r3, r6
 4724 01e6 7FF42CAF 		bne	.L633
 4725 01ea 44E7     		b	.L596
 4726              	.LVL734:
 4727              	.L682:
 4728              		.loc 1 1596 0
 4729 01ec 0028     		cmp	r0, #0
 4730 01ee 3FF431AF 		beq	.L649
 4731 01f2 2DE7     		b	.L627
 4732              	.LVL735:
 4733              	.L628:
 4734              		.loc 1 1568 0
 4735 01f4 0420     		movs	r0, #4
 4736              	.LVL736:
 4737 01f6 2BE7     		b	.L627
 4738              	.LVL737:
 4739              	.L594:
 4740              		.loc 1 1583 0
 4741 01f8 002E     		cmp	r6, #0
 4742 01fa 54D1     		bne	.L623
 4743              	.LVL738:
 4744              	.LBB302:
 4745              	.LBB303:
 4746              		.loc 1 1477 0
 4747 01fc 92F801A0 		ldrb	sl, [r2, #1]	@ zero_extendqisi2
 4748 0200 92F80290 		ldrb	r9, [r2, #2]	@ zero_extendqisi2
 4749 0204 92F80380 		ldrb	r8, [r2, #3]	@ zero_extendqisi2
 4750 0208 92F804C0 		ldrb	ip, [r2, #4]	@ zero_extendqisi2
 4751 020c 5779     		ldrb	r7, [r2, #5]	@ zero_extendqisi2
 4752 020e 9679     		ldrb	r6, [r2, #6]	@ zero_extendqisi2
 4753              	.LVL739:
 4754 0210 D179     		ldrb	r1, [r2, #7]	@ zero_extendqisi2
 4755 0212 4FEAC31B 		lsl	fp, r3, #7
 4756 0216 4BEA5303 		orr	r3, fp, r3, lsr #1
 4757              	.LVL740:
 4758 021a 5344     		add	r3, r3, sl
 4759 021c DBB2     		uxtb	r3, r3
 4760 021e 4FEAC31A 		lsl	sl, r3, #7
 4761 0222 4AEA5303 		orr	r3, sl, r3, lsr #1
 4762 0226 59FA83F3 		uxtab	r3, r9, r3
 4763 022a DBB2     		uxtb	r3, r3
 4764 022c 4FEAC319 		lsl	r9, r3, #7
 4765 0230 49EA5303 		orr	r3, r9, r3, lsr #1
 4766 0234 58FA83F3 		uxtab	r3, r8, r3
 4767 0238 DBB2     		uxtb	r3, r3
 4768 023a 4FEAC318 		lsl	r8, r3, #7
 4769 023e 48EA5303 		orr	r3, r8, r3, lsr #1
 4770 0242 5CFA83F3 		uxtab	r3, ip, r3
 4771 0246 DBB2     		uxtb	r3, r3
 4772 0248 4FEAC31E 		lsl	lr, r3, #7
 4773 024c 4EEA5303 		orr	r3, lr, r3, lsr #1
 4774 0250 57FA83F7 		uxtab	r7, r7, r3
 4775 0254 FBB2     		uxtb	r3, r7
ARM GAS  C:\Users\Elis\AppData\Local\Temp\ccSuWDYb.s 			page 85


 4776 0256 DF01     		lsls	r7, r3, #7
 4777 0258 47EA5303 		orr	r3, r7, r3, lsr #1
 4778 025c 56FA83F6 		uxtab	r6, r6, r3
 4779 0260 F3B2     		uxtb	r3, r6
 4780 0262 DE01     		lsls	r6, r3, #7
 4781 0264 0091     		str	r1, [sp, #0]
 4782 0266 46EA5303 		orr	r3, r6, r3, lsr #1
 4783 026a 009E     		ldr	r6, [sp, #0]
 4784 026c 117A     		ldrb	r1, [r2, #8]	@ zero_extendqisi2
 4785 026e 56FA83F3 		uxtab	r3, r6, r3
 4786 0272 DBB2     		uxtb	r3, r3
 4787 0274 DE01     		lsls	r6, r3, #7
 4788 0276 0191     		str	r1, [sp, #4]
 4789 0278 46EA5303 		orr	r3, r6, r3, lsr #1
 4790 027c 019E     		ldr	r6, [sp, #4]
 4791 027e 517A     		ldrb	r1, [r2, #9]	@ zero_extendqisi2
 4792              	.LVL741:
 4793 0280 927A     		ldrb	r2, [r2, #10]	@ zero_extendqisi2
 4794              	.LVL742:
 4795 0282 56FA83F3 		uxtab	r3, r6, r3
 4796 0286 DBB2     		uxtb	r3, r3
 4797              	.LVL743:
 4798 0288 DE01     		lsls	r6, r3, #7
 4799 028a 46EA5303 		orr	r3, r6, r3, lsr #1
 4800              	.LVL744:
 4801 028e 51FA83F1 		uxtab	r1, r1, r3
 4802 0292 CBB2     		uxtb	r3, r1
 4803              	.LVL745:
 4804 0294 D901     		lsls	r1, r3, #7
 4805              	.LVL746:
 4806 0296 41EA5303 		orr	r3, r1, r3, lsr #1
 4807              	.LVL747:
 4808 029a 52FA83F2 		uxtab	r2, r2, r3
 4809              	.LBE303:
 4810              	.LBE302:
 4811              		.loc 1 1583 0
 4812 029e D1B2     		uxtb	r1, r2
 4813 02a0 A942     		cmp	r1, r5
 4814 02a2 3FF4D7AE 		beq	.L649
 4815              	.LVL748:
 4816              	.L623:
 4817              		.loc 1 1584 0
 4818 02a6 4FF6FF73 		movw	r3, #65535
 4819 02aa 2384     		strh	r3, [r4, #32]	@ movhi
 4820              	.LVL749:
 4821 02ac D2E6     		b	.L649
 4822              	.LVL750:
 4823              	.L598:
 4824              	.LBB304:
 4825              	.LBB298:
 4826              		.loc 1 1355 0
 4827 02ae FF29     		cmp	r1, #255
 4828 02b0 07D0     		beq	.L597
 4829              	.LVL751:
 4830              		.loc 1 1356 0
 4831 02b2 26F811C0 		strh	ip, [r6, r1, lsl #1]	@ movhi
 4832              		.loc 1 1353 0
ARM GAS  C:\Users\Elis\AppData\Local\Temp\ccSuWDYb.s 			page 86


 4833 02b6 6546     		mov	r5, ip
 4834              		.loc 1 1356 0
 4835 02b8 0EF10201 		add	r1, lr, #2
 4836              	.LVL752:
 4837 02bc 00E7     		b	.L599
 4838              	.LVL753:
 4839              	.L620:
 4840              		.loc 1 1358 0
 4841 02be BC45     		cmp	ip, r7
 4842 02c0 83D0     		beq	.L621
 4843              	.LVL754:
 4844              	.L597:
 4845              	.LBE298:
 4846              	.LBE304:
 4847              		.loc 1 1581 0
 4848 02c2 0546     		mov	r5, r0
 4849 02c4 FF26     		movs	r6, #255
 4850              	.LVL755:
 4851 02c6 BDE6     		b	.L593
 4852              	.LVL756:
 4853              	.L600:
 4854              	.LBB305:
 4855              	.LBB299:
 4856              		.loc 1 1355 0
 4857 02c8 FF29     		cmp	r1, #255
 4858 02ca FAD0     		beq	.L597
 4859              	.LVL757:
 4860              		.loc 1 1356 0
 4861 02cc 26F811C0 		strh	ip, [r6, r1, lsl #1]	@ movhi
 4862              		.loc 1 1353 0
 4863 02d0 6546     		mov	r5, ip
 4864              		.loc 1 1356 0
 4865 02d2 0131     		adds	r1, r1, #1
 4866              	.LVL758:
 4867 02d4 00E7     		b	.L601
 4868              	.LVL759:
 4869              	.L602:
 4870              		.loc 1 1355 0
 4871 02d6 FF29     		cmp	r1, #255
 4872 02d8 F3D0     		beq	.L597
 4873              	.LVL760:
 4874              		.loc 1 1356 0
 4875 02da 26F811C0 		strh	ip, [r6, r1, lsl #1]	@ movhi
 4876              		.loc 1 1353 0
 4877 02de 6546     		mov	r5, ip
 4878              		.loc 1 1356 0
 4879 02e0 0131     		adds	r1, r1, #1
 4880              	.LVL761:
 4881 02e2 05E7     		b	.L603
 4882              	.LVL762:
 4883              	.L604:
 4884              		.loc 1 1355 0
 4885 02e4 FF29     		cmp	r1, #255
 4886 02e6 ECD0     		beq	.L597
 4887              	.LVL763:
 4888              		.loc 1 1356 0
 4889 02e8 26F811C0 		strh	ip, [r6, r1, lsl #1]	@ movhi
ARM GAS  C:\Users\Elis\AppData\Local\Temp\ccSuWDYb.s 			page 87


 4890              		.loc 1 1353 0
 4891 02ec 6546     		mov	r5, ip
 4892              		.loc 1 1356 0
 4893 02ee 0131     		adds	r1, r1, #1
 4894              	.LVL764:
 4895 02f0 0AE7     		b	.L605
 4896              	.LVL765:
 4897              	.L608:
 4898              		.loc 1 1355 0
 4899 02f2 FF29     		cmp	r1, #255
 4900 02f4 E5D0     		beq	.L597
 4901              	.LVL766:
 4902              		.loc 1 1356 0
 4903 02f6 26F811C0 		strh	ip, [r6, r1, lsl #1]	@ movhi
 4904              		.loc 1 1353 0
 4905 02fa 6546     		mov	r5, ip
 4906              		.loc 1 1356 0
 4907 02fc 0131     		adds	r1, r1, #1
 4908              	.LVL767:
 4909 02fe 1BE7     		b	.L609
 4910              	.LVL768:
 4911              	.L606:
 4912              		.loc 1 1355 0
 4913 0300 FF29     		cmp	r1, #255
 4914 0302 DED0     		beq	.L597
 4915              	.LVL769:
 4916              		.loc 1 1356 0
 4917 0304 26F811C0 		strh	ip, [r6, r1, lsl #1]	@ movhi
 4918              		.loc 1 1353 0
 4919 0308 6546     		mov	r5, ip
 4920              		.loc 1 1356 0
 4921 030a 0131     		adds	r1, r1, #1
 4922              	.LVL770:
 4923 030c 08E7     		b	.L607
 4924              	.LVL771:
 4925              	.L610:
 4926              		.loc 1 1355 0
 4927 030e FF29     		cmp	r1, #255
 4928 0310 D7D0     		beq	.L597
 4929              	.LVL772:
 4930              		.loc 1 1356 0
 4931 0312 26F811C0 		strh	ip, [r6, r1, lsl #1]	@ movhi
 4932              		.loc 1 1353 0
 4933 0316 6546     		mov	r5, ip
 4934              		.loc 1 1356 0
 4935 0318 0131     		adds	r1, r1, #1
 4936              	.LVL773:
 4937 031a 19E7     		b	.L611
 4938              	.LVL774:
 4939              	.L612:
 4940              		.loc 1 1355 0
 4941 031c FF29     		cmp	r1, #255
 4942 031e D0D0     		beq	.L597
 4943              	.LVL775:
 4944              		.loc 1 1356 0
 4945 0320 26F811C0 		strh	ip, [r6, r1, lsl #1]	@ movhi
 4946              		.loc 1 1353 0
ARM GAS  C:\Users\Elis\AppData\Local\Temp\ccSuWDYb.s 			page 88


 4947 0324 6546     		mov	r5, ip
 4948              		.loc 1 1356 0
 4949 0326 0131     		adds	r1, r1, #1
 4950              	.LVL776:
 4951 0328 1EE7     		b	.L613
 4952              	.LVL777:
 4953              	.L614:
 4954              		.loc 1 1355 0
 4955 032a FF29     		cmp	r1, #255
 4956 032c C9D0     		beq	.L597
 4957              	.LVL778:
 4958              		.loc 1 1356 0
 4959 032e 26F811C0 		strh	ip, [r6, r1, lsl #1]	@ movhi
 4960              		.loc 1 1353 0
 4961 0332 6546     		mov	r5, ip
 4962              		.loc 1 1356 0
 4963 0334 0131     		adds	r1, r1, #1
 4964              	.LVL779:
 4965 0336 23E7     		b	.L615
 4966              	.LVL780:
 4967              	.L616:
 4968              		.loc 1 1355 0
 4969 0338 FF29     		cmp	r1, #255
 4970 033a C2D0     		beq	.L597
 4971              	.LVL781:
 4972              		.loc 1 1356 0
 4973 033c 26F811C0 		strh	ip, [r6, r1, lsl #1]	@ movhi
 4974              		.loc 1 1353 0
 4975 0340 6546     		mov	r5, ip
 4976              		.loc 1 1356 0
 4977 0342 0131     		adds	r1, r1, #1
 4978              	.LVL782:
 4979 0344 28E7     		b	.L617
 4980              	.LVL783:
 4981              	.L618:
 4982              		.loc 1 1355 0
 4983 0346 FF29     		cmp	r1, #255
 4984 0348 BBD0     		beq	.L597
 4985              	.LVL784:
 4986              		.loc 1 1356 0
 4987 034a 26F811C0 		strh	ip, [r6, r1, lsl #1]	@ movhi
 4988              		.loc 1 1353 0
 4989 034e 6546     		mov	r5, ip
 4990              		.loc 1 1356 0
 4991 0350 0131     		adds	r1, r1, #1
 4992              	.LVL785:
 4993 0352 2DE7     		b	.L619
 4994              	.LBE299:
 4995              	.LBE305:
 4996              		.cfi_endproc
 4997              	.LFE188:
 4998              		.size	dir_read.constprop.10, .-dir_read.constprop.10
 4999 0354 AFF30080 		.section	.text.remove_chain,"ax",%progbits
 4999      AFF30080 
 4999      AFF30080 
 5000              		.align	2
 5001              		.p2align 4,,15
ARM GAS  C:\Users\Elis\AppData\Local\Temp\ccSuWDYb.s 			page 89


 5002              		.thumb
 5003              		.thumb_func
 5004              		.type	remove_chain, %function
 5005              	remove_chain:
 5006              	.LFB128:
 5007              		.loc 1 978 0
 5008              		.cfi_startproc
 5009              		@ args = 0, pretend = 0, frame = 0
 5010              		@ frame_needed = 0, uses_anonymous_args = 0
 5011              	.LVL786:
 5012              		.loc 1 985 0
 5013 0000 0129     		cmp	r1, #1
 5014              		.loc 1 978 0
 5015 0002 38B5     		push	{r3, r4, r5, lr}
 5016              	.LCFI22:
 5017              		.cfi_def_cfa_offset 16
 5018              		.cfi_offset 3, -16
 5019              		.cfi_offset 4, -12
 5020              		.cfi_offset 5, -8
 5021              		.cfi_offset 14, -4
 5022              		.loc 1 978 0
 5023 0004 0D46     		mov	r5, r1
 5024 0006 0446     		mov	r4, r0
 5025              		.loc 1 985 0
 5026 0008 02D9     		bls	.L692
 5027              		.loc 1 985 0 is_stmt 0 discriminator 1
 5028 000a 4369     		ldr	r3, [r0, #20]
 5029 000c 9942     		cmp	r1, r3
 5030 000e 01D3     		bcc	.L697
 5031              	.LVL787:
 5032              	.L692:
 5033              		.loc 1 986 0 is_stmt 1
 5034 0010 0220     		movs	r0, #2
 5035              	.LVL788:
 5036              	.L685:
 5037              		.loc 1 1016 0
 5038 0012 38BD     		pop	{r3, r4, r5, pc}
 5039              	.LVL789:
 5040              	.L697:
 5041              	.LBB308:
 5042              	.LBB309:
 5043              		.loc 1 991 0
 5044 0014 2946     		mov	r1, r5
 5045 0016 2046     		mov	r0, r4
 5046 0018 FFF7FEFF 		bl	get_fat
 5047              	.LVL790:
 5048              		.loc 1 992 0
 5049 001c 0346     		mov	r3, r0
 5050              		.loc 1 995 0
 5051 001e 2946     		mov	r1, r5
 5052 0020 0022     		movs	r2, #0
 5053 0022 0546     		mov	r5, r0
 5054 0024 2046     		mov	r0, r4
 5055              	.LVL791:
 5056              		.loc 1 992 0
 5057 0026 9BB1     		cbz	r3, .L690
 5058              	.LVL792:
ARM GAS  C:\Users\Elis\AppData\Local\Temp\ccSuWDYb.s 			page 90


 5059              		.loc 1 993 0
 5060 0028 012B     		cmp	r3, #1
 5061 002a F1D0     		beq	.L692
 5062              		.loc 1 994 0
 5063 002c 0133     		adds	r3, r3, #1
 5064              	.LVL793:
 5065 002e 11D0     		beq	.L694
 5066              		.loc 1 995 0
 5067 0030 FFF7FEFF 		bl	put_fat
 5068              	.LVL794:
 5069              		.loc 1 996 0
 5070 0034 0028     		cmp	r0, #0
 5071 0036 ECD1     		bne	.L685
 5072              		.loc 1 997 0
 5073 0038 2069     		ldr	r0, [r4, #16]
 5074 003a 421C     		adds	r2, r0, #1
 5075 003c 05D0     		beq	.L688
 5076              		.loc 1 999 0
 5077 003e 6279     		ldrb	r2, [r4, #5]	@ zero_extendqisi2
 5078              		.loc 1 998 0
 5079 0040 411C     		adds	r1, r0, #1
 5080              		.loc 1 999 0
 5081 0042 42F00103 		orr	r3, r2, #1
 5082              		.loc 1 998 0
 5083 0046 2161     		str	r1, [r4, #16]
 5084              		.loc 1 999 0
 5085 0048 6371     		strb	r3, [r4, #5]
 5086              	.L688:
 5087              		.loc 1 990 0
 5088 004a 6069     		ldr	r0, [r4, #20]
 5089 004c 8542     		cmp	r5, r0
 5090 004e E1D3     		bcc	.L697
 5091              	.LVL795:
 5092              	.L690:
 5093              	.LBE309:
 5094              	.LBE308:
 5095              		.loc 1 978 0
 5096 0050 0020     		movs	r0, #0
 5097 0052 38BD     		pop	{r3, r4, r5, pc}
 5098              	.LVL796:
 5099              	.L694:
 5100              	.LBB311:
 5101              	.LBB310:
 5102              		.loc 1 994 0
 5103 0054 0120     		movs	r0, #1
 5104              	.LVL797:
 5105 0056 38BD     		pop	{r3, r4, r5, pc}
 5106              	.LBE310:
 5107              	.LBE311:
 5108              		.cfi_endproc
 5109              	.LFE128:
 5110              		.size	remove_chain, .-remove_chain
 5111 0058 AFF30080 		.section	.text.f_mount,"ax",%progbits
 5111      AFF30080 
 5112              		.align	2
 5113              		.p2align 4,,15
 5114              		.global	f_mount
ARM GAS  C:\Users\Elis\AppData\Local\Temp\ccSuWDYb.s 			page 91


 5115              		.thumb
 5116              		.thumb_func
 5117              		.type	f_mount, %function
 5118              	f_mount:
 5119              	.LFB151:
 5120              		.loc 1 2373 0
 5121              		.cfi_startproc
 5122              		@ args = 0, pretend = 0, frame = 16
 5123              		@ frame_needed = 0, uses_anonymous_args = 0
 5124              	.LVL798:
 5125 0000 30B5     		push	{r4, r5, lr}
 5126              	.LCFI23:
 5127              		.cfi_def_cfa_offset 12
 5128              		.cfi_offset 4, -12
 5129              		.cfi_offset 5, -8
 5130              		.cfi_offset 14, -4
 5131 0002 85B0     		sub	sp, sp, #20
 5132              	.LCFI24:
 5133              		.cfi_def_cfa_offset 32
 5134              		.loc 1 2377 0
 5135 0004 04AB     		add	r3, sp, #16
 5136              		.loc 1 2373 0
 5137 0006 0190     		str	r0, [sp, #4]
 5138              		.loc 1 2377 0
 5139 0008 43F8041D 		str	r1, [r3, #-4]!
 5140              	.LVL799:
 5141              		.loc 1 2380 0
 5142 000c 1846     		mov	r0, r3
 5143              	.LVL800:
 5144              		.loc 1 2373 0
 5145 000e 0091     		str	r1, [sp, #0]
 5146 0010 1546     		mov	r5, r2
 5147              		.loc 1 2380 0
 5148 0012 FFF7FEFF 		bl	get_ldnumber
 5149              	.LVL801:
 5150              		.loc 1 2381 0
 5151 0016 0028     		cmp	r0, #0
 5152 0018 10DB     		blt	.L704
 5153              		.loc 1 2382 0
 5154 001a 0E4C     		ldr	r4, .L711
 5155 001c 54F82010 		ldr	r1, [r4, r0, lsl #2]
 5156              	.LVL802:
 5157              		.loc 1 2384 0
 5158 0020 09B1     		cbz	r1, .L702
 5159              		.loc 1 2391 0
 5160 0022 0022     		movs	r2, #0
 5161 0024 0A70     		strb	r2, [r1, #0]
 5162              	.L702:
 5163              		.loc 1 2394 0
 5164 0026 019B     		ldr	r3, [sp, #4]
 5165 0028 53B1     		cbz	r3, .L703
 5166              		.loc 1 2395 0
 5167 002a 0022     		movs	r2, #0
 5168              		.loc 1 2402 0
 5169 002c 012D     		cmp	r5, #1
 5170              		.loc 1 2395 0
 5171 002e 1A70     		strb	r2, [r3, #0]
ARM GAS  C:\Users\Elis\AppData\Local\Temp\ccSuWDYb.s 			page 92


 5172              		.loc 1 2400 0
 5173 0030 44F82030 		str	r3, [r4, r0, lsl #2]
 5174              		.loc 1 2402 0
 5175 0034 08D0     		beq	.L710
 5176 0036 1046     		mov	r0, r2
 5177              	.LVL803:
 5178              	.L709:
 5179              		.loc 1 2406 0
 5180 0038 05B0     		add	sp, sp, #20
 5181 003a 30BD     		pop	{r4, r5, pc}
 5182              	.LVL804:
 5183              	.L704:
 5184              		.loc 1 2381 0
 5185 003c 0B20     		movs	r0, #11
 5186              	.LVL805:
 5187 003e FBE7     		b	.L709
 5188              	.LVL806:
 5189              	.L703:
 5190              		.loc 1 2400 0
 5191 0040 44F82030 		str	r3, [r4, r0, lsl #2]
 5192              		.loc 1 2402 0
 5193 0044 1846     		mov	r0, r3
 5194              	.LVL807:
 5195 0046 F7E7     		b	.L709
 5196              	.LVL808:
 5197              	.L710:
 5198              		.loc 1 2404 0
 5199 0048 01A8     		add	r0, sp, #4
 5200              	.LVL809:
 5201 004a 6946     		mov	r1, sp
 5202              	.LVL810:
 5203 004c FFF7FEFF 		bl	find_volume
 5204              	.LVL811:
 5205 0050 F2E7     		b	.L709
 5206              	.L712:
 5207 0052 00BF     		.align	2
 5208              	.L711:
 5209 0054 00000000 		.word	.LANCHOR0
 5210              		.cfi_endproc
 5211              	.LFE151:
 5212              		.size	f_mount, .-f_mount
 5213 0058 AFF30080 		.section	.text.f_read,"ax",%progbits
 5213      AFF30080 
 5214              		.align	2
 5215              		.p2align 4,,15
 5216              		.global	f_read
 5217              		.thumb
 5218              		.thumb_func
 5219              		.type	f_read, %function
 5220              	f_read:
 5221              	.LFB153:
 5222              		.loc 1 2556 0
 5223              		.cfi_startproc
 5224              		@ args = 0, pretend = 0, frame = 8
 5225              		@ frame_needed = 0, uses_anonymous_args = 0
 5226              	.LVL812:
 5227 0000 2DE9F04F 		push	{r4, r5, r6, r7, r8, r9, sl, fp, lr}
ARM GAS  C:\Users\Elis\AppData\Local\Temp\ccSuWDYb.s 			page 93


 5228              	.LCFI25:
 5229              		.cfi_def_cfa_offset 36
 5230              		.cfi_offset 4, -36
 5231              		.cfi_offset 5, -32
 5232              		.cfi_offset 6, -28
 5233              		.cfi_offset 7, -24
 5234              		.cfi_offset 8, -20
 5235              		.cfi_offset 9, -16
 5236              		.cfi_offset 10, -12
 5237              		.cfi_offset 11, -8
 5238              		.cfi_offset 14, -4
 5239 0004 9B46     		mov	fp, r3
 5240              		.loc 1 2563 0
 5241 0006 0023     		movs	r3, #0
 5242              	.LVL813:
 5243              		.loc 1 2556 0
 5244 0008 83B0     		sub	sp, sp, #12
 5245              	.LCFI26:
 5246              		.cfi_def_cfa_offset 48
 5247              		.loc 1 2563 0
 5248 000a CBF80030 		str	r3, [fp, #0]
 5249              		.loc 1 2556 0
 5250 000e 0746     		mov	r7, r0
 5251 0010 0D46     		mov	r5, r1
 5252              	.LVL814:
 5253 0012 1646     		mov	r6, r2
 5254              		.loc 1 2565 0
 5255 0014 FFF7FEFF 		bl	validate
 5256              	.LVL815:
 5257              		.loc 1 2566 0
 5258 0018 8146     		mov	r9, r0
 5259 001a 30B9     		cbnz	r0, .L714
 5260              		.loc 1 2567 0
 5261 001c F879     		ldrb	r0, [r7, #7]	@ zero_extendqisi2
 5262              	.LVL816:
 5263 001e 40B9     		cbnz	r0, .L738
 5264              		.loc 1 2569 0
 5265 0020 B979     		ldrb	r1, [r7, #6]	@ zero_extendqisi2
 5266 0022 CA07     		lsls	r2, r1, #31
 5267 0024 07D4     		bmi	.L760
 5268              		.loc 1 2570 0
 5269 0026 4FF00709 		mov	r9, #7
 5270              	.LVL817:
 5271              	.L714:
 5272              		.loc 1 2641 0
 5273 002a 4846     		mov	r0, r9
 5274 002c 03B0     		add	sp, sp, #12
 5275 002e BDE8F08F 		pop	{r4, r5, r6, r7, r8, r9, sl, fp, pc}
 5276              	.LVL818:
 5277              	.L738:
 5278              		.loc 1 2567 0
 5279 0032 8146     		mov	r9, r0
 5280 0034 F9E7     		b	.L714
 5281              	.L760:
 5282              		.loc 1 2571 0
 5283 0036 BC68     		ldr	r4, [r7, #8]
 5284              	.LVL819:
ARM GAS  C:\Users\Elis\AppData\Local\Temp\ccSuWDYb.s 			page 94


 5285 0038 FA68     		ldr	r2, [r7, #12]
 5286 003a 131B     		subs	r3, r2, r4
 5287              	.LVL820:
 5288 003c 9E42     		cmp	r6, r3
 5289 003e 34BF     		ite	cc
 5290 0040 B046     		movcc	r8, r6
 5291 0042 9846     		movcs	r8, r3
 5292              	.LVL821:
 5293              		.loc 1 2574 0
 5294 0044 B8F1000F 		cmp	r8, #0
 5295 0048 EFD0     		beq	.L714
 5296              		.loc 1 2618 0
 5297 004a 07F1240A 		add	sl, r7, #36
 5298              	.LVL822:
 5299              	.L736:
 5300              		.loc 1 2576 0
 5301 004e E005     		lsls	r0, r4, #23
 5302 0050 C20D     		lsrs	r2, r0, #23
 5303 0052 002A     		cmp	r2, #0
 5304 0054 33D1     		bne	.L716
 5305              		.loc 1 2577 0
 5306 0056 3B68     		ldr	r3, [r7, #0]
 5307 0058 9978     		ldrb	r1, [r3, #2]	@ zero_extendqisi2
 5308 005a 4A1E     		subs	r2, r1, #1
 5309 005c 02EA5420 		and	r0, r2, r4, lsr #9
 5310              	.LVL823:
 5311              		.loc 1 2578 0
 5312 0060 10F0FF02 		ands	r2, r0, #255
 5313 0064 5ED0     		beq	.L717
 5314 0066 7869     		ldr	r0, [r7, #20]
 5315              	.LVL824:
 5316              	.LBB312:
 5317              	.LBB313:
 5318              		.loc 1 853 0
 5319 0068 5969     		ldr	r1, [r3, #20]
 5320              	.LVL825:
 5321              		.loc 1 852 0
 5322 006a 0238     		subs	r0, r0, #2
 5323              	.LVL826:
 5324              		.loc 1 853 0
 5325 006c 0239     		subs	r1, r1, #2
 5326 006e 8842     		cmp	r0, r1
 5327 0070 66D3     		bcc	.L761
 5328              	.LVL827:
 5329              	.L723:
 5330              	.LBE313:
 5331              	.LBE312:
 5332              		.loc 1 2594 0 discriminator 1
 5333 0072 4FF00209 		mov	r9, #2
 5334 0076 87F80790 		strb	r9, [r7, #7]
 5335 007a D6E7     		b	.L714
 5336              	.LVL828:
 5337              	.L725:
 5338              		.loc 1 2615 0
 5339 007c BA69     		ldr	r2, [r7, #24]
 5340 007e B242     		cmp	r2, r6
 5341 0080 19D0     		beq	.L732
ARM GAS  C:\Users\Elis\AppData\Local\Temp\ccSuWDYb.s 			page 95


 5342              		.loc 1 2617 0
 5343 0082 B879     		ldrb	r0, [r7, #6]	@ zero_extendqisi2
 5344              	.LVL829:
 5345 0084 00F04001 		and	r1, r0, #64
 5346 0088 C8B2     		uxtb	r0, r1
 5347 008a 60B1     		cbz	r0, .L733
 5348              		.loc 1 2618 0
 5349 008c 5878     		ldrb	r0, [r3, #1]	@ zero_extendqisi2
 5350 008e 5146     		mov	r1, sl
 5351 0090 0123     		movs	r3, #1
 5352              	.LVL830:
 5353 0092 FFF7FEFF 		bl	disk_write
 5354              	.LVL831:
 5355 0096 0028     		cmp	r0, #0
 5356 0098 40F08580 		bne	.L759
 5357              		.loc 1 2620 0
 5358 009c BA79     		ldrb	r2, [r7, #6]	@ zero_extendqisi2
 5359 009e 3B68     		ldr	r3, [r7, #0]
 5360 00a0 22F04001 		bic	r1, r2, #64
 5361 00a4 B971     		strb	r1, [r7, #6]
 5362              	.L733:
 5363              		.loc 1 2623 0
 5364 00a6 5878     		ldrb	r0, [r3, #1]	@ zero_extendqisi2
 5365 00a8 5146     		mov	r1, sl
 5366 00aa 3246     		mov	r2, r6
 5367 00ac 0123     		movs	r3, #1
 5368 00ae FFF7FEFF 		bl	disk_read
 5369              	.LVL832:
 5370 00b2 0028     		cmp	r0, #0
 5371 00b4 77D1     		bne	.L759
 5372              	.L732:
 5373 00b6 BC68     		ldr	r4, [r7, #8]
 5374              	.LVL833:
 5375              		.loc 1 2627 0
 5376 00b8 BE61     		str	r6, [r7, #24]
 5377 00ba E005     		lsls	r0, r4, #23
 5378 00bc C20D     		lsrs	r2, r0, #23
 5379              	.LVL834:
 5380              	.L716:
 5381              		.loc 1 2629 0
 5382 00be C2F50071 		rsb	r1, r2, #512
 5383              	.LVL835:
 5384 00c2 4145     		cmp	r1, r8
 5385 00c4 28BF     		it	cs
 5386 00c6 4146     		movcs	r1, r8
 5387              	.LVL836:
 5388              		.loc 1 2636 0
 5389 00c8 2032     		adds	r2, r2, #32
 5390 00ca BA18     		adds	r2, r7, r2
 5391              	.LVL837:
 5392 00cc 2B46     		mov	r3, r5
 5393              	.LBB315:
 5394              	.LBB316:
 5395              		.loc 1 573 0
 5396 00ce E9B1     		cbz	r1, .L729
 5397              	.LVL838:
 5398              		.loc 1 574 0
ARM GAS  C:\Users\Elis\AppData\Local\Temp\ccSuWDYb.s 			page 96


 5399 00d0 2C46     		mov	r4, r5
 5400 00d2 1679     		ldrb	r6, [r2, #4]	@ zero_extendqisi2
 5401 00d4 04F8016B 		strb	r6, [r4], #1
 5402              	.LVL839:
 5403              		.loc 1 2550 0
 5404 00d8 6B18     		adds	r3, r5, r1
 5405              	.LVL840:
 5406 00da ED43     		mvns	r5, r5
 5407              	.LVL841:
 5408 00dc 5819     		adds	r0, r3, r5
 5409 00de 161D     		adds	r6, r2, #4
 5410              		.loc 1 573 0
 5411 00e0 9C42     		cmp	r4, r3
 5412 00e2 00F00105 		and	r5, r0, #1
 5413              	.LVL842:
 5414 00e6 10D0     		beq	.L758
 5415 00e8 2DB1     		cbz	r5, .L735
 5416              		.loc 1 574 0
 5417 00ea 5679     		ldrb	r6, [r2, #5]	@ zero_extendqisi2
 5418 00ec 04F8016B 		strb	r6, [r4], #1
 5419              	.LVL843:
 5420 00f0 561D     		adds	r6, r2, #5
 5421              		.loc 1 573 0
 5422 00f2 9C42     		cmp	r4, r3
 5423 00f4 09D0     		beq	.L758
 5424              	.LVL844:
 5425              	.L735:
 5426              		.loc 1 574 0
 5427 00f6 7278     		ldrb	r2, [r6, #1]	@ zero_extendqisi2
 5428 00f8 2046     		mov	r0, r4
 5429 00fa 00F8012B 		strb	r2, [r0], #1
 5430 00fe B578     		ldrb	r5, [r6, #2]	@ zero_extendqisi2
 5431 0100 6570     		strb	r5, [r4, #1]
 5432 0102 441C     		adds	r4, r0, #1
 5433 0104 0236     		adds	r6, r6, #2
 5434              		.loc 1 573 0
 5435 0106 9C42     		cmp	r4, r3
 5436 0108 F5D1     		bne	.L735
 5437              	.L758:
 5438 010a BC68     		ldr	r4, [r7, #8]
 5439              	.L729:
 5440              	.LBE316:
 5441              	.LBE315:
 5442              		.loc 1 2575 0
 5443 010c DBF80050 		ldr	r5, [fp, #0]
 5444 0110 6418     		adds	r4, r4, r1
 5445 0112 6818     		adds	r0, r5, r1
 5446              		.loc 1 2574 0
 5447 0114 B8EB0108 		subs	r8, r8, r1
 5448              		.loc 1 2575 0
 5449 0118 BC60     		str	r4, [r7, #8]
 5450 011a 1D46     		mov	r5, r3
 5451              	.LVL845:
 5452 011c CBF80000 		str	r0, [fp, #0]
 5453              		.loc 1 2574 0
 5454 0120 95D1     		bne	.L736
 5455 0122 82E7     		b	.L714
ARM GAS  C:\Users\Elis\AppData\Local\Temp\ccSuWDYb.s 			page 97


 5456              	.LVL846:
 5457              	.L717:
 5458              		.loc 1 2579 0
 5459 0124 002C     		cmp	r4, #0
 5460 0126 43D1     		bne	.L719
 5461              		.loc 1 2580 0
 5462 0128 3869     		ldr	r0, [r7, #16]
 5463              	.LVL847:
 5464              	.L720:
 5465              		.loc 1 2589 0
 5466 012a 0128     		cmp	r0, #1
 5467 012c A1D9     		bls	.L723
 5468              		.loc 1 2590 0
 5469 012e 431C     		adds	r3, r0, #1
 5470 0130 39D0     		beq	.L759
 5471 0132 3B68     		ldr	r3, [r7, #0]
 5472              		.loc 1 2591 0
 5473 0134 7861     		str	r0, [r7, #20]
 5474              	.LVL848:
 5475              	.LBB317:
 5476              	.LBB314:
 5477              		.loc 1 853 0
 5478 0136 5969     		ldr	r1, [r3, #20]
 5479              		.loc 1 852 0
 5480 0138 0238     		subs	r0, r0, #2
 5481              	.LVL849:
 5482              		.loc 1 853 0
 5483 013a 0239     		subs	r1, r1, #2
 5484 013c 8842     		cmp	r0, r1
 5485 013e 98D2     		bcs	.L723
 5486              	.LVL850:
 5487              	.L761:
 5488              		.loc 1 854 0
 5489 0140 9978     		ldrb	r1, [r3, #2]	@ zero_extendqisi2
 5490 0142 9E6A     		ldr	r6, [r3, #40]
 5491 0144 01FB0066 		mla	r6, r1, r0, r6
 5492              	.LBE314:
 5493              	.LBE317:
 5494              		.loc 1 2594 0
 5495 0148 002E     		cmp	r6, #0
 5496 014a 92D0     		beq	.L723
 5497              		.loc 1 2597 0
 5498 014c 5FEA5824 		lsrs	r4, r8, #9
 5499              		.loc 1 2595 0
 5500 0150 1644     		add	r6, r6, r2
 5501              	.LVL851:
 5502              		.loc 1 2597 0
 5503 0152 93D0     		beq	.L725
 5504              		.loc 1 2598 0
 5505 0154 1019     		adds	r0, r2, r4
 5506              	.LVL852:
 5507 0156 8842     		cmp	r0, r1
 5508              		.loc 1 2599 0
 5509 0158 88BF     		it	hi
 5510 015a C2EB0104 		rsbhi	r4, r2, r1
 5511              	.LVL853:
 5512              		.loc 1 2600 0
ARM GAS  C:\Users\Elis\AppData\Local\Temp\ccSuWDYb.s 			page 98


 5513 015e 5878     		ldrb	r0, [r3, #1]	@ zero_extendqisi2
 5514 0160 2946     		mov	r1, r5
 5515 0162 3246     		mov	r2, r6
 5516 0164 2346     		mov	r3, r4
 5517              	.LVL854:
 5518 0166 FFF7FEFF 		bl	disk_read
 5519              	.LVL855:
 5520 016a E0B9     		cbnz	r0, .L759
 5521              		.loc 1 2607 0
 5522 016c B979     		ldrb	r1, [r7, #6]	@ zero_extendqisi2
 5523 016e 01F04003 		and	r3, r1, #64
 5524 0172 DAB2     		uxtb	r2, r3
 5525 0174 9AB1     		cbz	r2, .L730
 5526              		.loc 1 2607 0 is_stmt 0 discriminator 1
 5527 0176 B869     		ldr	r0, [r7, #24]
 5528 0178 811B     		subs	r1, r0, r6
 5529 017a 8C42     		cmp	r4, r1
 5530 017c 0FD9     		bls	.L730
 5531              		.loc 1 2608 0 is_stmt 1
 5532 017e 05EB4122 		add	r2, r5, r1, lsl #9
 5533              	.LVL856:
 5534              		.loc 1 2550 0
 5535 0182 07F12303 		add	r3, r7, #35
 5536 0186 02F50076 		add	r6, r2, #512
 5537              	.LVL857:
 5538              	.L731:
 5539              	.LBB318:
 5540              	.LBB319:
 5541              		.loc 1 574 0
 5542 018a 5978     		ldrb	r1, [r3, #1]	@ zero_extendqisi2
 5543 018c 1046     		mov	r0, r2
 5544 018e 00F8011B 		strb	r1, [r0], #1
 5545 0192 9978     		ldrb	r1, [r3, #2]	@ zero_extendqisi2
 5546 0194 5170     		strb	r1, [r2, #1]
 5547 0196 421C     		adds	r2, r0, #1
 5548              	.LVL858:
 5549 0198 0233     		adds	r3, r3, #2
 5550              		.loc 1 573 0
 5551 019a B242     		cmp	r2, r6
 5552 019c F5D1     		bne	.L731
 5553              	.LVL859:
 5554              	.L730:
 5555              	.LBE319:
 5556              	.LBE318:
 5557              		.loc 1 2611 0
 5558 019e 6102     		lsls	r1, r4, #9
 5559              	.LVL860:
 5560 01a0 6B18     		adds	r3, r5, r1
 5561 01a2 BC68     		ldr	r4, [r7, #8]
 5562              	.LVL861:
 5563              		.loc 1 2612 0
 5564 01a4 B2E7     		b	.L729
 5565              	.LVL862:
 5566              	.L759:
 5567              		.loc 1 2624 0
 5568 01a6 4FF00109 		mov	r9, #1
 5569 01aa 87F80790 		strb	r9, [r7, #7]
ARM GAS  C:\Users\Elis\AppData\Local\Temp\ccSuWDYb.s 			page 99


 5570 01ae 3CE7     		b	.L714
 5571              	.LVL863:
 5572              	.L719:
 5573              		.loc 1 2587 0
 5574 01b0 7969     		ldr	r1, [r7, #20]
 5575 01b2 0192     		str	r2, [sp, #4]
 5576 01b4 1846     		mov	r0, r3
 5577              	.LVL864:
 5578 01b6 FFF7FEFF 		bl	get_fat
 5579              	.LVL865:
 5580 01ba 019A     		ldr	r2, [sp, #4]
 5581 01bc B5E7     		b	.L720
 5582              		.cfi_endproc
 5583              	.LFE153:
 5584              		.size	f_read, .-f_read
 5585 01be 00BF     		.section	.text.f_write,"ax",%progbits
 5586              		.align	2
 5587              		.p2align 4,,15
 5588              		.global	f_write
 5589              		.thumb
 5590              		.thumb_func
 5591              		.type	f_write, %function
 5592              	f_write:
 5593              	.LFB154:
 5594              		.loc 1 2657 0
 5595              		.cfi_startproc
 5596              		@ args = 0, pretend = 0, frame = 8
 5597              		@ frame_needed = 0, uses_anonymous_args = 0
 5598              	.LVL866:
 5599 0000 2DE9F04F 		push	{r4, r5, r6, r7, r8, r9, sl, fp, lr}
 5600              	.LCFI27:
 5601              		.cfi_def_cfa_offset 36
 5602              		.cfi_offset 4, -36
 5603              		.cfi_offset 5, -32
 5604              		.cfi_offset 6, -28
 5605              		.cfi_offset 7, -24
 5606              		.cfi_offset 8, -20
 5607              		.cfi_offset 9, -16
 5608              		.cfi_offset 10, -12
 5609              		.cfi_offset 11, -8
 5610              		.cfi_offset 14, -4
 5611 0004 9946     		mov	r9, r3
 5612              		.loc 1 2665 0
 5613 0006 0023     		movs	r3, #0
 5614              	.LVL867:
 5615              		.loc 1 2657 0
 5616 0008 83B0     		sub	sp, sp, #12
 5617              	.LCFI28:
 5618              		.cfi_def_cfa_offset 48
 5619              		.loc 1 2665 0
 5620 000a C9F80030 		str	r3, [r9, #0]
 5621              		.loc 1 2657 0
 5622 000e 0546     		mov	r5, r0
 5623 0010 8A46     		mov	sl, r1
 5624              	.LVL868:
 5625 0012 1746     		mov	r7, r2
 5626              		.loc 1 2667 0
ARM GAS  C:\Users\Elis\AppData\Local\Temp\ccSuWDYb.s 			page 100


 5627 0014 FFF7FEFF 		bl	validate
 5628              	.LVL869:
 5629              		.loc 1 2668 0
 5630 0018 8046     		mov	r8, r0
 5631 001a 40B9     		cbnz	r0, .L763
 5632              		.loc 1 2669 0
 5633 001c E879     		ldrb	r0, [r5, #7]	@ zero_extendqisi2
 5634              	.LVL870:
 5635 001e 50B9     		cbnz	r0, .L791
 5636              		.loc 1 2671 0
 5637 0020 A879     		ldrb	r0, [r5, #6]	@ zero_extendqisi2
 5638 0022 00F00202 		and	r2, r0, #2
 5639 0026 D1B2     		uxtb	r1, r2
 5640 0028 39B9     		cbnz	r1, .L824
 5641              		.loc 1 2672 0
 5642 002a 4FF00708 		mov	r8, #7
 5643              	.LVL871:
 5644              	.L763:
 5645              		.loc 1 2764 0
 5646 002e 4046     		mov	r0, r8
 5647 0030 03B0     		add	sp, sp, #12
 5648 0032 BDE8F08F 		pop	{r4, r5, r6, r7, r8, r9, sl, fp, pc}
 5649              	.LVL872:
 5650              	.L791:
 5651              		.loc 1 2669 0
 5652 0036 8046     		mov	r8, r0
 5653 0038 F9E7     		b	.L763
 5654              	.L824:
 5655              	.LVL873:
 5656              	.LBB328:
 5657              	.LBB329:
 5658              		.loc 1 2673 0
 5659 003a AA68     		ldr	r2, [r5, #8]
 5660 003c D742     		cmn	r7, r2
 5661 003e 07D3     		bcc	.L825
 5662              	.LVL874:
 5663              	.L764:
 5664              		.loc 1 2760 0
 5665 0040 E968     		ldr	r1, [r5, #12]
 5666 0042 9142     		cmp	r1, r2
 5667 0044 38BF     		it	cc
 5668 0046 EA60     		strcc	r2, [r5, #12]
 5669              		.loc 1 2761 0
 5670 0048 40F02002 		orr	r2, r0, #32
 5671 004c AA71     		strb	r2, [r5, #6]
 5672 004e EEE7     		b	.L763
 5673              	.LVL875:
 5674              	.L825:
 5675              		.loc 1 2675 0
 5676 0050 002F     		cmp	r7, #0
 5677 0052 F5D0     		beq	.L764
 5678              		.loc 1 2741 0
 5679 0054 05F12404 		add	r4, r5, #36
 5680 0058 0094     		str	r4, [sp, #0]
 5681              		.loc 1 2651 0
 5682 005a 05F5097B 		add	fp, r5, #548
 5683 005e CDF80480 		str	r8, [sp, #4]
ARM GAS  C:\Users\Elis\AppData\Local\Temp\ccSuWDYb.s 			page 101


 5684              	.LVL876:
 5685              	.L799:
 5686              		.loc 1 2677 0
 5687 0062 D305     		lsls	r3, r2, #23
 5688 0064 D90D     		lsrs	r1, r3, #23
 5689 0066 0029     		cmp	r1, #0
 5690 0068 36D1     		bne	.L765
 5691              		.loc 1 2678 0
 5692 006a 2B68     		ldr	r3, [r5, #0]
 5693 006c 9C78     		ldrb	r4, [r3, #2]	@ zero_extendqisi2
 5694 006e 601E     		subs	r0, r4, #1
 5695 0070 00EA5221 		and	r1, r0, r2, lsr #9
 5696              	.LVL877:
 5697              		.loc 1 2679 0
 5698 0074 11F0FF04 		ands	r4, r1, #255
 5699 0078 11D1     		bne	.L766
 5700              		.loc 1 2680 0
 5701 007a 002A     		cmp	r2, #0
 5702 007c 40F0C380 		bne	.L767
 5703              		.loc 1 2681 0
 5704 0080 2869     		ldr	r0, [r5, #16]
 5705              	.LVL878:
 5706              		.loc 1 2682 0
 5707 0082 0028     		cmp	r0, #0
 5708 0084 00F0CB80 		beq	.L826
 5709              	.LVL879:
 5710              	.L768:
 5711              		.loc 1 2693 0
 5712 0088 0128     		cmp	r0, #1
 5713 008a 15D0     		beq	.L776
 5714              		.loc 1 2694 0
 5715 008c 431C     		adds	r3, r0, #1
 5716 008e 00F0B580 		beq	.L786
 5717              		.loc 1 2696 0
 5718 0092 2A69     		ldr	r2, [r5, #16]
 5719              		.loc 1 2695 0
 5720 0094 6861     		str	r0, [r5, #20]
 5721              		.loc 1 2696 0
 5722 0096 002A     		cmp	r2, #0
 5723 0098 00F0AD80 		beq	.L773
 5724 009c 2B68     		ldr	r3, [r5, #0]
 5725              	.LVL880:
 5726              	.L766:
 5727              	.LBE329:
 5728              		.loc 1 2702 0
 5729 009e A879     		ldrb	r0, [r5, #6]	@ zero_extendqisi2
 5730              	.LBB338:
 5731 00a0 00F04001 		and	r1, r0, #64
 5732 00a4 CAB2     		uxtb	r2, r1
 5733 00a6 002A     		cmp	r2, #0
 5734 00a8 40F09880 		bne	.L827
 5735              	.L774:
 5736              	.LVL881:
 5737              	.LBB330:
 5738              	.LBB331:
 5739              		.loc 1 852 0
 5740 00ac 6A69     		ldr	r2, [r5, #20]
ARM GAS  C:\Users\Elis\AppData\Local\Temp\ccSuWDYb.s 			page 102


 5741              		.loc 1 853 0
 5742 00ae 5869     		ldr	r0, [r3, #20]
 5743              		.loc 1 852 0
 5744 00b0 023A     		subs	r2, r2, #2
 5745              	.LVL882:
 5746              		.loc 1 853 0
 5747 00b2 811E     		subs	r1, r0, #2
 5748 00b4 8A42     		cmp	r2, r1
 5749 00b6 4DD3     		bcc	.L828
 5750              	.LVL883:
 5751              	.L776:
 5752              	.LBE331:
 5753              	.LBE330:
 5754              		.loc 1 2709 0
 5755 00b8 4FF00208 		mov	r8, #2
 5756 00bc 85F80780 		strb	r8, [r5, #7]
 5757 00c0 B5E7     		b	.L763
 5758              	.LVL884:
 5759              	.L778:
 5760              		.loc 1 2739 0
 5761 00c2 AA69     		ldr	r2, [r5, #24]
 5762              	.LVL885:
 5763 00c4 9642     		cmp	r6, r2
 5764              		.loc 1 2740 0
 5765 00c6 AA68     		ldr	r2, [r5, #8]
 5766              		.loc 1 2739 0
 5767 00c8 03D0     		beq	.L785
 5768              		.loc 1 2740 0
 5769 00ca E968     		ldr	r1, [r5, #12]
 5770 00cc 8A42     		cmp	r2, r1
 5771 00ce C0F0AE80 		bcc	.L829
 5772              	.LVL886:
 5773              	.L785:
 5774 00d2 D305     		lsls	r3, r2, #23
 5775              		.loc 1 2745 0
 5776 00d4 AE61     		str	r6, [r5, #24]
 5777 00d6 D90D     		lsrs	r1, r3, #23
 5778              	.LVL887:
 5779              	.L765:
 5780              		.loc 1 2747 0
 5781 00d8 C1F50070 		rsb	r0, r1, #512
 5782              	.LVL888:
 5783              		.loc 1 2755 0
 5784 00dc 2031     		adds	r1, r1, #32
 5785 00de 6918     		adds	r1, r5, r1
 5786 00e0 B842     		cmp	r0, r7
 5787 00e2 28BF     		it	cs
 5788 00e4 3846     		movcs	r0, r7
 5789              	.LVL889:
 5790 00e6 0E1D     		adds	r6, r1, #4
 5791              	.LVL890:
 5792              	.LBB333:
 5793              	.LBB334:
 5794              		.loc 1 573 0
 5795 00e8 10B3     		cbz	r0, .L787
 5796              		.loc 1 2651 0
 5797 00ea 5446     		mov	r4, sl
ARM GAS  C:\Users\Elis\AppData\Local\Temp\ccSuWDYb.s 			page 103


 5798 00ec 3218     		adds	r2, r6, r0
 5799              		.loc 1 574 0
 5800 00ee 14F801CB 		ldrb	ip, [r4], #1	@ zero_extendqisi2
 5801 00f2 F643     		mvns	r6, r6
 5802              	.LVL891:
 5803 00f4 4B1D     		adds	r3, r1, #5
 5804              	.LVL892:
 5805 00f6 9619     		adds	r6, r2, r6
 5806              	.LVL893:
 5807 00f8 0134     		adds	r4, r4, #1
 5808              		.loc 1 573 0
 5809 00fa 9342     		cmp	r3, r2
 5810              		.loc 1 574 0
 5811 00fc 81F804C0 		strb	ip, [r1, #4]
 5812 0100 06F00106 		and	r6, r6, #1
 5813              		.loc 1 573 0
 5814 0104 13D0     		beq	.L819
 5815 0106 36B1     		cbz	r6, .L788
 5816              		.loc 1 574 0
 5817 0108 14F8016C 		ldrb	r6, [r4, #-1]	@ zero_extendqisi2
 5818 010c 8B1D     		adds	r3, r1, #6
 5819              	.LVL894:
 5820 010e 0134     		adds	r4, r4, #1
 5821              		.loc 1 573 0
 5822 0110 9342     		cmp	r3, r2
 5823              		.loc 1 574 0
 5824 0112 4E71     		strb	r6, [r1, #5]
 5825              		.loc 1 573 0
 5826 0114 0BD0     		beq	.L819
 5827              	.LVL895:
 5828              	.L788:
 5829              		.loc 1 574 0
 5830 0116 14F8016C 		ldrb	r6, [r4, #-1]	@ zero_extendqisi2
 5831 011a 1946     		mov	r1, r3
 5832 011c 01F8016B 		strb	r6, [r1], #1
 5833 0120 14F8016B 		ldrb	r6, [r4], #1	@ zero_extendqisi2
 5834 0124 5E70     		strb	r6, [r3, #1]
 5835 0126 4B1C     		adds	r3, r1, #1
 5836 0128 0134     		adds	r4, r4, #1
 5837              		.loc 1 573 0
 5838 012a 9342     		cmp	r3, r2
 5839 012c F3D1     		bne	.L788
 5840              	.L819:
 5841 012e AA68     		ldr	r2, [r5, #8]
 5842              	.L787:
 5843              	.LBE334:
 5844              	.LBE333:
 5845              		.loc 1 2756 0
 5846 0130 AB79     		ldrb	r3, [r5, #6]	@ zero_extendqisi2
 5847 0132 43F04001 		orr	r1, r3, #64
 5848 0136 A971     		strb	r1, [r5, #6]
 5849              	.LVL896:
 5850              	.L783:
 5851              		.loc 1 2676 0
 5852 0138 D9F80010 		ldr	r1, [r9, #0]
 5853 013c 1218     		adds	r2, r2, r0
 5854 013e 0B18     		adds	r3, r1, r0
ARM GAS  C:\Users\Elis\AppData\Local\Temp\ccSuWDYb.s 			page 104


 5855              		.loc 1 2675 0
 5856 0140 3F1A     		subs	r7, r7, r0
 5857              		.loc 1 2676 0
 5858 0142 AA60     		str	r2, [r5, #8]
 5859 0144 8244     		add	sl, sl, r0
 5860              	.LVL897:
 5861 0146 C9F80030 		str	r3, [r9, #0]
 5862              		.loc 1 2675 0
 5863 014a 8AD1     		bne	.L799
 5864 014c DDF80480 		ldr	r8, [sp, #4]
 5865 0150 A879     		ldrb	r0, [r5, #6]	@ zero_extendqisi2
 5866              	.LVL898:
 5867 0152 75E7     		b	.L764
 5868              	.LVL899:
 5869              	.L828:
 5870              	.LBB335:
 5871              	.LBB332:
 5872              		.loc 1 854 0
 5873 0154 9878     		ldrb	r0, [r3, #2]	@ zero_extendqisi2
 5874 0156 9E6A     		ldr	r6, [r3, #40]
 5875 0158 02FB0066 		mla	r6, r2, r0, r6
 5876              	.LBE332:
 5877              	.LBE335:
 5878              		.loc 1 2709 0
 5879 015c 002E     		cmp	r6, #0
 5880 015e ABD0     		beq	.L776
 5881              		.loc 1 2712 0
 5882 0160 5FEA5728 		lsrs	r8, r7, #9
 5883              		.loc 1 2710 0
 5884 0164 2644     		add	r6, r4, r6
 5885              	.LVL900:
 5886              		.loc 1 2712 0
 5887 0166 ACD0     		beq	.L778
 5888              		.loc 1 2713 0
 5889 0168 04EB0802 		add	r2, r4, r8
 5890              	.LVL901:
 5891 016c 9042     		cmp	r0, r2
 5892              		.loc 1 2714 0
 5893 016e 38BF     		it	cc
 5894 0170 C4EB0008 		rsbcc	r8, r4, r0
 5895              	.LVL902:
 5896              		.loc 1 2715 0
 5897 0174 5146     		mov	r1, sl
 5898 0176 5878     		ldrb	r0, [r3, #1]	@ zero_extendqisi2
 5899 0178 3246     		mov	r2, r6
 5900 017a 4346     		mov	r3, r8
 5901              	.LVL903:
 5902 017c FFF7FEFF 		bl	disk_write
 5903              	.LVL904:
 5904 0180 0028     		cmp	r0, #0
 5905 0182 3BD1     		bne	.L786
 5906              		.loc 1 2724 0
 5907 0184 A869     		ldr	r0, [r5, #24]
 5908 0186 861B     		subs	r6, r0, r6
 5909              	.LVL905:
 5910 0188 B045     		cmp	r8, r6
 5911 018a 23D9     		bls	.L781
ARM GAS  C:\Users\Elis\AppData\Local\Temp\ccSuWDYb.s 			page 105


 5912              	.LVL906:
 5913              		.loc 1 2725 0
 5914 018c 7102     		lsls	r1, r6, #9
 5915              	.LBB336:
 5916              	.LBB337:
 5917              		.loc 1 574 0
 5918 018e 009B     		ldr	r3, [sp, #0]
 5919 0190 1AF80100 		ldrb	r0, [sl, r1]	@ zero_extendqisi2
 5920 0194 DA43     		mvns	r2, r3
 5921 0196 03F8010B 		strb	r0, [r3], #1
 5922              	.LVL907:
 5923 019a 0BEB0200 		add	r0, fp, r2
 5924              		.loc 1 573 0
 5925 019e 5B45     		cmp	r3, fp
 5926 01a0 00F00102 		and	r2, r0, #1
 5927 01a4 5144     		add	r1, sl, r1
 5928              	.LVL908:
 5929 01a6 11D0     		beq	.L818
 5930 01a8 32B1     		cbz	r2, .L782
 5931              		.loc 1 574 0
 5932 01aa 11F8010F 		ldrb	r0, [r1, #1]!	@ zero_extendqisi2
 5933              	.LVL909:
 5934 01ae 009C     		ldr	r4, [sp, #0]
 5935 01b0 0133     		adds	r3, r3, #1
 5936              	.LVL910:
 5937              		.loc 1 573 0
 5938 01b2 5B45     		cmp	r3, fp
 5939              		.loc 1 574 0
 5940 01b4 6070     		strb	r0, [r4, #1]
 5941              		.loc 1 573 0
 5942 01b6 09D0     		beq	.L818
 5943              	.LVL911:
 5944              	.L782:
 5945              		.loc 1 574 0
 5946 01b8 4878     		ldrb	r0, [r1, #1]	@ zero_extendqisi2
 5947 01ba 1A46     		mov	r2, r3
 5948 01bc 02F8010B 		strb	r0, [r2], #1
 5949 01c0 8878     		ldrb	r0, [r1, #2]	@ zero_extendqisi2
 5950 01c2 5870     		strb	r0, [r3, #1]
 5951 01c4 531C     		adds	r3, r2, #1
 5952 01c6 0231     		adds	r1, r1, #2
 5953              		.loc 1 573 0
 5954 01c8 5B45     		cmp	r3, fp
 5955 01ca F5D1     		bne	.L782
 5956              	.L818:
 5957              	.LBE337:
 5958              	.LBE336:
 5959              		.loc 1 2726 0
 5960 01cc A979     		ldrb	r1, [r5, #6]	@ zero_extendqisi2
 5961 01ce 21F04003 		bic	r3, r1, #64
 5962 01d2 AB71     		strb	r3, [r5, #6]
 5963              	.LVL912:
 5964              	.L781:
 5965              		.loc 1 2730 0
 5966 01d4 4FEA4820 		lsl	r0, r8, #9
 5967              	.LVL913:
 5968 01d8 AA68     		ldr	r2, [r5, #8]
ARM GAS  C:\Users\Elis\AppData\Local\Temp\ccSuWDYb.s 			page 106


 5969 01da ADE7     		b	.L783
 5970              	.LVL914:
 5971              	.L827:
 5972              		.loc 1 2703 0
 5973 01dc 5878     		ldrb	r0, [r3, #1]	@ zero_extendqisi2
 5974 01de AA69     		ldr	r2, [r5, #24]
 5975 01e0 0099     		ldr	r1, [sp, #0]
 5976 01e2 0123     		movs	r3, #1
 5977 01e4 FFF7FEFF 		bl	disk_write
 5978              	.LVL915:
 5979 01e8 40B9     		cbnz	r0, .L786
 5980              		.loc 1 2705 0
 5981 01ea A879     		ldrb	r0, [r5, #6]	@ zero_extendqisi2
 5982 01ec 2B68     		ldr	r3, [r5, #0]
 5983 01ee 20F04001 		bic	r1, r0, #64
 5984 01f2 A971     		strb	r1, [r5, #6]
 5985 01f4 5AE7     		b	.L774
 5986              	.LVL916:
 5987              	.L773:
 5988 01f6 2B68     		ldr	r3, [r5, #0]
 5989              		.loc 1 2696 0
 5990 01f8 2861     		str	r0, [r5, #16]
 5991 01fa 50E7     		b	.L766
 5992              	.LVL917:
 5993              	.L786:
 5994              		.loc 1 2742 0
 5995 01fc 4FF00108 		mov	r8, #1
 5996 0200 85F80780 		strb	r8, [r5, #7]
 5997 0204 13E7     		b	.L763
 5998              	.LVL918:
 5999              	.L767:
 6000              		.loc 1 2690 0
 6001 0206 1846     		mov	r0, r3
 6002 0208 6969     		ldr	r1, [r5, #20]
 6003              	.LVL919:
 6004 020a FFF7FEFF 		bl	create_chain
 6005              	.LVL920:
 6006              		.loc 1 2692 0
 6007 020e 0028     		cmp	r0, #0
 6008 0210 7FF43AAF 		bne	.L768
 6009              	.L830:
 6010 0214 DDF80480 		ldr	r8, [sp, #4]
 6011 0218 AA68     		ldr	r2, [r5, #8]
 6012 021a A879     		ldrb	r0, [r5, #6]	@ zero_extendqisi2
 6013              	.LVL921:
 6014 021c 10E7     		b	.L764
 6015              	.LVL922:
 6016              	.L826:
 6017              		.loc 1 2683 0
 6018 021e 1846     		mov	r0, r3
 6019              	.LVL923:
 6020 0220 2146     		mov	r1, r4
 6021              	.LVL924:
 6022 0222 FFF7FEFF 		bl	create_chain
 6023              	.LVL925:
 6024              		.loc 1 2692 0
 6025 0226 0028     		cmp	r0, #0
ARM GAS  C:\Users\Elis\AppData\Local\Temp\ccSuWDYb.s 			page 107


 6026 0228 7FF42EAF 		bne	.L768
 6027 022c F2E7     		b	.L830
 6028              	.LVL926:
 6029              	.L829:
 6030              		.loc 1 2741 0
 6031 022e 5878     		ldrb	r0, [r3, #1]	@ zero_extendqisi2
 6032 0230 0099     		ldr	r1, [sp, #0]
 6033 0232 3246     		mov	r2, r6
 6034 0234 0123     		movs	r3, #1
 6035              	.LVL927:
 6036 0236 FFF7FEFF 		bl	disk_read
 6037              	.LVL928:
 6038              		.loc 1 2740 0
 6039 023a 0028     		cmp	r0, #0
 6040 023c DED1     		bne	.L786
 6041 023e AA68     		ldr	r2, [r5, #8]
 6042 0240 47E7     		b	.L785
 6043              	.LBE338:
 6044              	.LBE328:
 6045              		.cfi_endproc
 6046              	.LFE154:
 6047              		.size	f_write, .-f_write
 6048 0242 00BFAFF3 		.section	.text.putc_bfd,"ax",%progbits
 6048      0080AFF3 
 6048      0080AFF3 
 6048      0080
 6049              		.align	2
 6050              		.p2align 4,,15
 6051              		.thumb
 6052              		.thumb_func
 6053              		.type	putc_bfd, %function
 6054              	putc_bfd:
 6055              	.LFB170:
 6056              		.loc 1 4384 0
 6057              		.cfi_startproc
 6058              		@ args = 0, pretend = 0, frame = 8
 6059              		@ frame_needed = 0, uses_anonymous_args = 0
 6060              	.LVL929:
 6061 0000 30B5     		push	{r4, r5, lr}
 6062              	.LCFI29:
 6063              		.cfi_def_cfa_offset 12
 6064              		.cfi_offset 4, -12
 6065              		.cfi_offset 5, -8
 6066              		.cfi_offset 14, -4
 6067              		.loc 1 4392 0
 6068 0002 4268     		ldr	r2, [r0, #4]
 6069              	.LVL930:
 6070              		.loc 1 4393 0
 6071 0004 002A     		cmp	r2, #0
 6072              		.loc 1 4384 0
 6073 0006 83B0     		sub	sp, sp, #12
 6074              	.LCFI30:
 6075              		.cfi_def_cfa_offset 24
 6076              		.loc 1 4384 0
 6077 0008 0446     		mov	r4, r0
 6078              		.loc 1 4393 0
 6079 000a 08DB     		blt	.L831
ARM GAS  C:\Users\Elis\AppData\Local\Temp\ccSuWDYb.s 			page 108


 6080              		.loc 1 4422 0
 6081 000c 8318     		adds	r3, r0, r2
 6082 000e 551C     		adds	r5, r2, #1
 6083              	.LVL931:
 6084              		.loc 1 4425 0
 6085 0010 3C2D     		cmp	r5, #60
 6086              		.loc 1 4422 0
 6087 0012 1973     		strb	r1, [r3, #12]
 6088              		.loc 1 4425 0
 6089 0014 05DC     		bgt	.L836
 6090              	.LVL932:
 6091              	.L833:
 6092              		.loc 1 4430 0
 6093 0016 A168     		ldr	r1, [r4, #8]
 6094              		.loc 1 4429 0
 6095 0018 6560     		str	r5, [r4, #4]
 6096              		.loc 1 4430 0
 6097 001a 4A1C     		adds	r2, r1, #1
 6098 001c A260     		str	r2, [r4, #8]
 6099              	.LVL933:
 6100              	.L831:
 6101              		.loc 1 4431 0
 6102 001e 03B0     		add	sp, sp, #12
 6103 0020 30BD     		pop	{r4, r5, pc}
 6104              	.LVL934:
 6105              	.L836:
 6106              		.loc 1 4426 0
 6107 0022 0146     		mov	r1, r0
 6108              	.LVL935:
 6109 0024 2A46     		mov	r2, r5
 6110 0026 51F80C0B 		ldr	r0, [r1], #12
 6111              	.LVL936:
 6112 002a 01AB     		add	r3, sp, #4
 6113              	.LVL937:
 6114 002c FFF7FEFF 		bl	f_write
 6115              	.LVL938:
 6116              		.loc 1 4427 0
 6117 0030 0198     		ldr	r0, [sp, #4]
 6118 0032 8542     		cmp	r5, r0
 6119 0034 14BF     		ite	ne
 6120 0036 4FF0FF35 		movne	r5, #-1
 6121 003a 0025     		moveq	r5, #0
 6122              	.LVL939:
 6123 003c EBE7     		b	.L833
 6124              		.cfi_endproc
 6125              	.LFE170:
 6126              		.size	putc_bfd, .-putc_bfd
 6127 003e 00BF     		.section	.text.f_sync,"ax",%progbits
 6128              		.align	2
 6129              		.p2align 4,,15
 6130              		.global	f_sync
 6131              		.thumb
 6132              		.thumb_func
 6133              		.type	f_sync, %function
 6134              	f_sync:
 6135              	.LFB155:
 6136              		.loc 1 2776 0
ARM GAS  C:\Users\Elis\AppData\Local\Temp\ccSuWDYb.s 			page 109


 6137              		.cfi_startproc
 6138              		@ args = 0, pretend = 0, frame = 0
 6139              		@ frame_needed = 0, uses_anonymous_args = 0
 6140              	.LVL940:
 6141 0000 70B5     		push	{r4, r5, r6, lr}
 6142              	.LCFI31:
 6143              		.cfi_def_cfa_offset 16
 6144              		.cfi_offset 4, -16
 6145              		.cfi_offset 5, -12
 6146              		.cfi_offset 6, -8
 6147              		.cfi_offset 14, -4
 6148              		.loc 1 2776 0
 6149 0002 0446     		mov	r4, r0
 6150              		.loc 1 2782 0
 6151 0004 FFF7FEFF 		bl	validate
 6152              	.LVL941:
 6153              		.loc 1 2783 0
 6154 0008 E0B9     		cbnz	r0, .L838
 6155              		.loc 1 2784 0
 6156 000a A379     		ldrb	r3, [r4, #6]	@ zero_extendqisi2
 6157 000c 03F02002 		and	r2, r3, #32
 6158 0010 D1B2     		uxtb	r1, r2
 6159 0012 B9B1     		cbz	r1, .L838
 6160              		.loc 1 2787 0
 6161 0014 03F04000 		and	r0, r3, #64
 6162              	.LVL942:
 6163 0018 C3B2     		uxtb	r3, r0
 6164 001a 6BB1     		cbz	r3, .L839
 6165              		.loc 1 2788 0
 6166 001c 2146     		mov	r1, r4
 6167 001e A269     		ldr	r2, [r4, #24]
 6168 0020 51F8240B 		ldr	r0, [r1], #36
 6169 0024 0123     		movs	r3, #1
 6170 0026 4078     		ldrb	r0, [r0, #1]	@ zero_extendqisi2
 6171 0028 FFF7FEFF 		bl	disk_write
 6172              	.LVL943:
 6173 002c 0028     		cmp	r0, #0
 6174 002e 39D1     		bne	.L840
 6175              		.loc 1 2790 0
 6176 0030 A679     		ldrb	r6, [r4, #6]	@ zero_extendqisi2
 6177 0032 26F04002 		bic	r2, r6, #64
 6178 0036 A271     		strb	r2, [r4, #6]
 6179              	.L839:
 6180              		.loc 1 2794 0
 6181 0038 2068     		ldr	r0, [r4, #0]
 6182 003a E169     		ldr	r1, [r4, #28]
 6183 003c FFF7FEFF 		bl	move_window
 6184              	.LVL944:
 6185 0040 0646     		mov	r6, r0
 6186              	.LVL945:
 6187              		.loc 1 2795 0
 6188 0042 06B1     		cbz	r6, .L847
 6189              	.LVL946:
 6190              	.L838:
 6191              		.loc 1 2811 0
 6192 0044 70BD     		pop	{r4, r5, r6, pc}
 6193              	.LVL947:
ARM GAS  C:\Users\Elis\AppData\Local\Temp\ccSuWDYb.s 			page 110


 6194              	.L847:
 6195              		.loc 1 2796 0
 6196 0046 256A     		ldr	r5, [r4, #32]
 6197              	.LVL948:
 6198              		.loc 1 2797 0
 6199 0048 E97A     		ldrb	r1, [r5, #11]	@ zero_extendqisi2
 6200 004a 41F02003 		orr	r3, r1, #32
 6201 004e EB72     		strb	r3, [r5, #11]
 6202              		.loc 1 2798 0
 6203 0050 E068     		ldr	r0, [r4, #12]
 6204              	.LVL949:
 6205 0052 2877     		strb	r0, [r5, #28]
 6206 0054 A289     		ldrh	r2, [r4, #12]
 6207 0056 110A     		lsrs	r1, r2, #8
 6208 0058 6977     		strb	r1, [r5, #29]
 6209 005a E389     		ldrh	r3, [r4, #14]
 6210 005c AB77     		strb	r3, [r5, #30]
 6211 005e E07B     		ldrb	r0, [r4, #15]	@ zero_extendqisi2
 6212 0060 E877     		strb	r0, [r5, #31]
 6213              		.loc 1 2799 0
 6214 0062 2369     		ldr	r3, [r4, #16]
 6215              	.LVL950:
 6216              	.LBB339:
 6217              	.LBB340:
 6218              		.loc 1 1293 0
 6219 0064 1A0C     		lsrs	r2, r3, #16
 6220 0066 110A     		lsrs	r1, r2, #8
 6221              		.loc 1 1292 0
 6222 0068 C3F30720 		ubfx	r0, r3, #8, #8
 6223 006c AB76     		strb	r3, [r5, #26]
 6224              		.loc 1 1293 0
 6225 006e 2A75     		strb	r2, [r5, #20]
 6226 0070 6975     		strb	r1, [r5, #21]
 6227              		.loc 1 1292 0
 6228 0072 E876     		strb	r0, [r5, #27]
 6229              	.LBE340:
 6230              	.LBE339:
 6231              		.loc 1 2800 0
 6232 0074 FFF7FEFF 		bl	get_fattime
 6233              	.LVL951:
 6234              		.loc 1 2801 0
 6235 0078 020C     		lsrs	r2, r0, #16
 6236 007a 030E     		lsrs	r3, r0, #24
 6237 007c C0F30721 		ubfx	r1, r0, #8, #8
 6238 0080 2A76     		strb	r2, [r5, #24]
 6239 0082 6B76     		strb	r3, [r5, #25]
 6240 0084 A875     		strb	r0, [r5, #22]
 6241 0086 E975     		strb	r1, [r5, #23]
 6242              		.loc 1 2802 0
 6243 0088 AE74     		strb	r6, [r5, #18]
 6244 008a EE74     		strb	r6, [r5, #19]
 6245              		.loc 1 2803 0
 6246 008c A079     		ldrb	r0, [r4, #6]	@ zero_extendqisi2
 6247              	.LVL952:
 6248              		.loc 1 2804 0
 6249 008e 2168     		ldr	r1, [r4, #0]
 6250              		.loc 1 2803 0
ARM GAS  C:\Users\Elis\AppData\Local\Temp\ccSuWDYb.s 			page 111


 6251 0090 20F02002 		bic	r2, r0, #32
 6252              		.loc 1 2804 0
 6253 0094 0123     		movs	r3, #1
 6254              		.loc 1 2803 0
 6255 0096 A271     		strb	r2, [r4, #6]
 6256              		.loc 1 2804 0
 6257 0098 0B71     		strb	r3, [r1, #4]
 6258              		.loc 1 2805 0
 6259 009a 2068     		ldr	r0, [r4, #0]
 6260              		.loc 1 2811 0
 6261 009c BDE87040 		pop	{r4, r5, r6, lr}
 6262              		.loc 1 2805 0
 6263 00a0 FFF7FEBF 		b	sync_fs
 6264              	.LVL953:
 6265              	.L840:
 6266              		.loc 1 2789 0
 6267 00a4 0120     		movs	r0, #1
 6268 00a6 CDE7     		b	.L838
 6269              		.cfi_endproc
 6270              	.LFE155:
 6271              		.size	f_sync, .-f_sync
 6272 00a8 AFF30080 		.section	.text.f_close,"ax",%progbits
 6272      AFF30080 
 6273              		.align	2
 6274              		.p2align 4,,15
 6275              		.global	f_close
 6276              		.thumb
 6277              		.thumb_func
 6278              		.type	f_close, %function
 6279              	f_close:
 6280              	.LFB156:
 6281              		.loc 1 2825 0
 6282              		.cfi_startproc
 6283              		@ args = 0, pretend = 0, frame = 0
 6284              		@ frame_needed = 0, uses_anonymous_args = 0
 6285              	.LVL954:
 6286 0000 10B5     		push	{r4, lr}
 6287              	.LCFI32:
 6288              		.cfi_def_cfa_offset 8
 6289              		.cfi_offset 4, -8
 6290              		.cfi_offset 14, -4
 6291              		.loc 1 2825 0
 6292 0002 0446     		mov	r4, r0
 6293              		.loc 1 2830 0
 6294 0004 FFF7FEFF 		bl	f_sync
 6295              	.LVL955:
 6296              		.loc 1 2831 0
 6297 0008 00B1     		cbz	r0, .L850
 6298              	.L849:
 6299              		.loc 1 2850 0
 6300 000a 10BD     		pop	{r4, pc}
 6301              	.L850:
 6302              		.loc 1 2834 0
 6303 000c 2046     		mov	r0, r4
 6304              	.LVL956:
 6305 000e FFF7FEFF 		bl	validate
 6306              	.LVL957:
ARM GAS  C:\Users\Elis\AppData\Local\Temp\ccSuWDYb.s 			page 112


 6307              		.loc 1 2835 0
 6308 0012 0028     		cmp	r0, #0
 6309 0014 F9D1     		bne	.L849
 6310              		.loc 1 2843 0
 6311 0016 2060     		str	r0, [r4, #0]
 6312              		.loc 1 2850 0
 6313 0018 10BD     		pop	{r4, pc}
 6314              		.cfi_endproc
 6315              	.LFE156:
 6316              		.size	f_close, .-f_close
 6317 001a 00BFAFF3 		.section	.text.f_lseek,"ax",%progbits
 6317      0080
 6318              		.align	2
 6319              		.p2align 4,,15
 6320              		.global	f_lseek
 6321              		.thumb
 6322              		.thumb_func
 6323              		.type	f_lseek, %function
 6324              	f_lseek:
 6325              	.LFB157:
 6326              		.loc 1 2998 0
 6327              		.cfi_startproc
 6328              		@ args = 0, pretend = 0, frame = 0
 6329              		@ frame_needed = 0, uses_anonymous_args = 0
 6330              	.LVL958:
 6331 0000 F8B5     		push	{r3, r4, r5, r6, r7, lr}
 6332              	.LCFI33:
 6333              		.cfi_def_cfa_offset 24
 6334              		.cfi_offset 3, -24
 6335              		.cfi_offset 4, -20
 6336              		.cfi_offset 5, -16
 6337              		.cfi_offset 6, -12
 6338              		.cfi_offset 7, -8
 6339              		.cfi_offset 14, -4
 6340              		.loc 1 2998 0
 6341 0002 0446     		mov	r4, r0
 6342 0004 0D46     		mov	r5, r1
 6343              		.loc 1 3002 0
 6344 0006 FFF7FEFF 		bl	validate
 6345              	.LVL959:
 6346              		.loc 1 3003 0
 6347 000a 0646     		mov	r6, r0
 6348 000c 0028     		cmp	r0, #0
 6349 000e 47D1     		bne	.L852
 6350              		.loc 1 3004 0
 6351 0010 E379     		ldrb	r3, [r4, #7]	@ zero_extendqisi2
 6352 0012 002B     		cmp	r3, #0
 6353 0014 46D1     		bne	.L879
 6354              	.LBB341:
 6355              		.loc 1 3068 0
 6356 0016 E068     		ldr	r0, [r4, #12]
 6357              	.LVL960:
 6358 0018 A842     		cmp	r0, r5
 6359 001a 06D2     		bcs	.L854
 6360              		.loc 1 3070 0
 6361 001c A279     		ldrb	r2, [r4, #6]	@ zero_extendqisi2
 6362 001e 02F00201 		and	r1, r2, #2
ARM GAS  C:\Users\Elis\AppData\Local\Temp\ccSuWDYb.s 			page 113


 6363 0022 CBB2     		uxtb	r3, r1
 6364 0024 002B     		cmp	r3, #0
 6365 0026 08BF     		it	eq
 6366 0028 0546     		moveq	r5, r0
 6367              	.LVL961:
 6368              	.L854:
 6369              		.loc 1 3075 0
 6370 002a 0020     		movs	r0, #0
 6371              		.loc 1 3074 0
 6372 002c A268     		ldr	r2, [r4, #8]
 6373              	.LVL962:
 6374              		.loc 1 3075 0
 6375 002e A060     		str	r0, [r4, #8]
 6376              		.loc 1 3076 0
 6377 0030 002D     		cmp	r5, #0
 6378 0032 35D0     		beq	.L852
 6379              		.loc 1 3077 0
 6380 0034 2068     		ldr	r0, [r4, #0]
 6381 0036 8778     		ldrb	r7, [r0, #2]	@ zero_extendqisi2
 6382 0038 7F02     		lsls	r7, r7, #9
 6383              	.LVL963:
 6384              		.loc 1 3078 0
 6385 003a 3AB1     		cbz	r2, .L856
 6386              		.loc 1 3079 0 discriminator 1
 6387 003c 013A     		subs	r2, r2, #1
 6388              	.LVL964:
 6389 003e 691E     		subs	r1, r5, #1
 6390 0040 B1FBF7F1 		udiv	r1, r1, r7
 6391 0044 B2FBF7F3 		udiv	r3, r2, r7
 6392              		.loc 1 3078 0 discriminator 1
 6393 0048 9942     		cmp	r1, r3
 6394 004a 66D2     		bcs	.L893
 6395              	.L856:
 6396              		.loc 1 3084 0
 6397 004c 2269     		ldr	r2, [r4, #16]
 6398              	.LVL965:
 6399              		.loc 1 3086 0
 6400 004e 002A     		cmp	r2, #0
 6401 0050 6ED0     		beq	.L894
 6402              	.LVL966:
 6403              	.L858:
 6404              		.loc 1 3093 0
 6405 0052 6261     		str	r2, [r4, #20]
 6406              	.L857:
 6407              		.loc 1 3095 0
 6408 0054 002A     		cmp	r2, #0
 6409 0056 28D1     		bne	.L861
 6410 0058 A168     		ldr	r1, [r4, #8]
 6411              		.loc 1 3075 0
 6412 005a 1546     		mov	r5, r2
 6413              	.LVL967:
 6414              	.L862:
 6415              		.loc 1 3120 0
 6416 005c C805     		lsls	r0, r1, #23
 6417 005e C30D     		lsrs	r3, r0, #23
 6418 0060 002B     		cmp	r3, #0
 6419 0062 6FD0     		beq	.L891
ARM GAS  C:\Users\Elis\AppData\Local\Temp\ccSuWDYb.s 			page 114


 6420              		.loc 1 3120 0 is_stmt 0 discriminator 1
 6421 0064 A269     		ldr	r2, [r4, #24]
 6422 0066 AA42     		cmp	r2, r5
 6423 0068 6CD0     		beq	.L891
 6424              		.loc 1 3123 0 is_stmt 1
 6425 006a A779     		ldrb	r7, [r4, #6]	@ zero_extendqisi2
 6426              	.LVL968:
 6427 006c 07F04001 		and	r1, r7, #64
 6428 0070 C8B2     		uxtb	r0, r1
 6429 0072 0028     		cmp	r0, #0
 6430 0074 42D1     		bne	.L890
 6431 0076 04F12407 		add	r7, r4, #36
 6432              	.L876:
 6433              		.loc 1 3129 0
 6434 007a 2068     		ldr	r0, [r4, #0]
 6435 007c 3946     		mov	r1, r7
 6436 007e 4078     		ldrb	r0, [r0, #1]	@ zero_extendqisi2
 6437 0080 2A46     		mov	r2, r5
 6438 0082 0123     		movs	r3, #1
 6439 0084 FFF7FEFF 		bl	disk_read
 6440              	.LVL969:
 6441 0088 0028     		cmp	r0, #0
 6442 008a 40D1     		bne	.L892
 6443 008c A168     		ldr	r1, [r4, #8]
 6444 008e E268     		ldr	r2, [r4, #12]
 6445              		.loc 1 3132 0
 6446 0090 A561     		str	r5, [r4, #24]
 6447              	.L874:
 6448              		.loc 1 3135 0
 6449 0092 8A42     		cmp	r2, r1
 6450 0094 04D2     		bcs	.L852
 6451              		.loc 1 3137 0
 6452 0096 A379     		ldrb	r3, [r4, #6]	@ zero_extendqisi2
 6453              		.loc 1 3136 0
 6454 0098 E160     		str	r1, [r4, #12]
 6455              		.loc 1 3137 0
 6456 009a 43F02000 		orr	r0, r3, #32
 6457 009e A071     		strb	r0, [r4, #6]
 6458              	.LVL970:
 6459              	.L852:
 6460              	.LBE341:
 6461              		.loc 1 3143 0
 6462 00a0 3046     		mov	r0, r6
 6463 00a2 F8BD     		pop	{r3, r4, r5, r6, r7, pc}
 6464              	.LVL971:
 6465              	.L879:
 6466              		.loc 1 3004 0
 6467 00a4 1E46     		mov	r6, r3
 6468              		.loc 1 3143 0
 6469 00a6 3046     		mov	r0, r6
 6470              	.LVL972:
 6471 00a8 F8BD     		pop	{r3, r4, r5, r6, r7, pc}
 6472              	.LVL973:
 6473              	.L861:
 6474              	.LBB344:
 6475              		.loc 1 3096 0 discriminator 1
 6476 00aa BD42     		cmp	r5, r7
ARM GAS  C:\Users\Elis\AppData\Local\Temp\ccSuWDYb.s 			page 115


 6477 00ac 4CD9     		bls	.L895
 6478 00ae 2368     		ldr	r3, [r4, #0]
 6479 00b0 12E0     		b	.L870
 6480              	.LVL974:
 6481              	.L897:
 6482              		.loc 1 3099 0
 6483 00b2 FFF7FEFF 		bl	create_chain
 6484              	.LVL975:
 6485              		.loc 1 3100 0
 6486 00b6 0246     		mov	r2, r0
 6487 00b8 0028     		cmp	r0, #0
 6488 00ba 5CD0     		beq	.L896
 6489              	.L866:
 6490              	.LVL976:
 6491              		.loc 1 3106 0
 6492 00bc 531C     		adds	r3, r2, #1
 6493 00be 26D0     		beq	.L892
 6494              		.loc 1 3107 0
 6495 00c0 012A     		cmp	r2, #1
 6496 00c2 27D9     		bls	.L871
 6497              		.loc 1 3107 0 is_stmt 0 discriminator 2
 6498 00c4 2368     		ldr	r3, [r4, #0]
 6499 00c6 5969     		ldr	r1, [r3, #20]
 6500 00c8 8A42     		cmp	r2, r1
 6501 00ca 23D2     		bcs	.L871
 6502              		.loc 1 3109 0 is_stmt 1
 6503 00cc A068     		ldr	r0, [r4, #8]
 6504              	.LVL977:
 6505              		.loc 1 3108 0
 6506 00ce 6261     		str	r2, [r4, #20]
 6507              		.loc 1 3109 0
 6508 00d0 3918     		adds	r1, r7, r0
 6509              		.loc 1 3096 0
 6510 00d2 AF42     		cmp	r7, r5
 6511              		.loc 1 3109 0
 6512 00d4 A160     		str	r1, [r4, #8]
 6513              		.loc 1 3096 0
 6514 00d6 38D2     		bcs	.L864
 6515              	.L870:
 6516              		.loc 1 3098 0
 6517 00d8 94F806E0 		ldrb	lr, [r4, #6]	@ zero_extendqisi2
 6518 00dc 0EF0020C 		and	ip, lr, #2
 6519 00e0 5FFA8CFE 		uxtb	lr, ip
 6520              		.loc 1 3110 0
 6521 00e4 ED1B     		subs	r5, r5, r7
 6522              	.LVL978:
 6523              		.loc 1 3099 0
 6524 00e6 1846     		mov	r0, r3
 6525 00e8 1146     		mov	r1, r2
 6526              		.loc 1 3098 0
 6527 00ea BEF1000F 		cmp	lr, #0
 6528 00ee E0D1     		bne	.L897
 6529              	.LVL979:
 6530              		.loc 1 3105 0
 6531 00f0 1146     		mov	r1, r2
 6532 00f2 1846     		mov	r0, r3
 6533 00f4 FFF7FEFF 		bl	get_fat
ARM GAS  C:\Users\Elis\AppData\Local\Temp\ccSuWDYb.s 			page 116


 6534              	.LVL980:
 6535 00f8 0246     		mov	r2, r0
 6536              	.LVL981:
 6537 00fa DFE7     		b	.L866
 6538              	.LVL982:
 6539              	.L890:
 6540              		.loc 1 3124 0
 6541 00fc 2746     		mov	r7, r4
 6542 00fe 0123     		movs	r3, #1
 6543 0100 57F8241B 		ldr	r1, [r7], #36
 6544 0104 4878     		ldrb	r0, [r1, #1]	@ zero_extendqisi2
 6545 0106 3946     		mov	r1, r7
 6546 0108 FFF7FEFF 		bl	disk_write
 6547              	.LVL983:
 6548 010c 58B1     		cbz	r0, .L877
 6549              	.LVL984:
 6550              	.L892:
 6551              		.loc 1 3130 0
 6552 010e 0126     		movs	r6, #1
 6553 0110 E671     		strb	r6, [r4, #7]
 6554 0112 C5E7     		b	.L852
 6555              	.LVL985:
 6556              	.L871:
 6557              		.loc 1 3115 0 discriminator 1
 6558 0114 0226     		movs	r6, #2
 6559 0116 E671     		strb	r6, [r4, #7]
 6560 0118 C2E7     		b	.L852
 6561              	.LVL986:
 6562              	.L893:
 6563              		.loc 1 3080 0
 6564 011a 7842     		negs	r0, r7
 6565 011c 0240     		ands	r2, r2, r0
 6566 011e A260     		str	r2, [r4, #8]
 6567              		.loc 1 3081 0
 6568 0120 AD1A     		subs	r5, r5, r2
 6569              	.LVL987:
 6570              		.loc 1 3082 0
 6571 0122 6269     		ldr	r2, [r4, #20]
 6572              	.LVL988:
 6573 0124 96E7     		b	.L857
 6574              	.LVL989:
 6575              	.L877:
 6576              		.loc 1 3126 0
 6577 0126 A279     		ldrb	r2, [r4, #6]	@ zero_extendqisi2
 6578 0128 22F04003 		bic	r3, r2, #64
 6579 012c A371     		strb	r3, [r4, #6]
 6580 012e A4E7     		b	.L876
 6581              	.LVL990:
 6582              	.L894:
 6583              		.loc 1 3087 0
 6584 0130 1146     		mov	r1, r2
 6585 0132 FFF7FEFF 		bl	create_chain
 6586              	.LVL991:
 6587              		.loc 1 3088 0
 6588 0136 0128     		cmp	r0, #1
 6589              		.loc 1 3087 0
 6590 0138 0246     		mov	r2, r0
ARM GAS  C:\Users\Elis\AppData\Local\Temp\ccSuWDYb.s 			page 117


 6591              	.LVL992:
 6592              		.loc 1 3088 0
 6593 013a EBD0     		beq	.L871
 6594              		.loc 1 3089 0
 6595 013c 411C     		adds	r1, r0, #1
 6596 013e E6D0     		beq	.L892
 6597              		.loc 1 3090 0
 6598 0140 2061     		str	r0, [r4, #16]
 6599 0142 86E7     		b	.L858
 6600              	.LVL993:
 6601              	.L891:
 6602 0144 E268     		ldr	r2, [r4, #12]
 6603 0146 A4E7     		b	.L874
 6604              	.LVL994:
 6605              	.L895:
 6606 0148 A168     		ldr	r1, [r4, #8]
 6607              	.LVL995:
 6608              	.L864:
 6609              		.loc 1 3113 0
 6610 014a EB05     		lsls	r3, r5, #23
 6611              		.loc 1 3112 0
 6612 014c 4919     		adds	r1, r1, r5
 6613              		.loc 1 3113 0
 6614 014e D80D     		lsrs	r0, r3, #23
 6615              		.loc 1 3112 0
 6616 0150 A160     		str	r1, [r4, #8]
 6617              		.loc 1 3113 0
 6618 0152 70B1     		cbz	r0, .L880
 6619              		.loc 1 3114 0
 6620 0154 2368     		ldr	r3, [r4, #0]
 6621              	.LVL996:
 6622              	.LBB342:
 6623              	.LBB343:
 6624              		.loc 1 853 0
 6625 0156 5869     		ldr	r0, [r3, #20]
 6626              		.loc 1 852 0
 6627 0158 023A     		subs	r2, r2, #2
 6628              	.LVL997:
 6629              		.loc 1 853 0
 6630 015a 0238     		subs	r0, r0, #2
 6631 015c 8242     		cmp	r2, r0
 6632 015e D9D2     		bcs	.L871
 6633              		.loc 1 854 0
 6634 0160 9878     		ldrb	r0, [r3, #2]	@ zero_extendqisi2
 6635 0162 9B6A     		ldr	r3, [r3, #40]
 6636              	.LVL998:
 6637 0164 00FB0232 		mla	r2, r0, r2, r3
 6638              	.LVL999:
 6639              	.LBE343:
 6640              	.LBE342:
 6641              		.loc 1 3115 0
 6642 0168 002A     		cmp	r2, #0
 6643 016a D3D0     		beq	.L871
 6644              		.loc 1 3116 0
 6645 016c 02EB5525 		add	r5, r2, r5, lsr #9
 6646              	.LVL1000:
 6647 0170 74E7     		b	.L862
ARM GAS  C:\Users\Elis\AppData\Local\Temp\ccSuWDYb.s 			page 118


 6648              	.LVL1001:
 6649              	.L880:
 6650              		.loc 1 3075 0
 6651 0172 0546     		mov	r5, r0
 6652              	.LVL1002:
 6653 0174 72E7     		b	.L862
 6654              	.LVL1003:
 6655              	.L896:
 6656 0176 A168     		ldr	r1, [r4, #8]
 6657              		.loc 1 3100 0
 6658 0178 3D46     		mov	r5, r7
 6659 017a E6E7     		b	.L864
 6660              	.LBE344:
 6661              		.cfi_endproc
 6662              	.LFE157:
 6663              		.size	f_lseek, .-f_lseek
 6664 017c AFF30080 		.section	.text.f_closedir,"ax",%progbits
 6665              		.align	2
 6666              		.p2align 4,,15
 6667              		.global	f_closedir
 6668              		.thumb
 6669              		.thumb_func
 6670              		.type	f_closedir, %function
 6671              	f_closedir:
 6672              	.LFB159:
 6673              		.loc 1 3211 0
 6674              		.cfi_startproc
 6675              		@ args = 0, pretend = 0, frame = 0
 6676              		@ frame_needed = 0, uses_anonymous_args = 0
 6677              	.LVL1004:
 6678 0000 10B5     		push	{r4, lr}
 6679              	.LCFI34:
 6680              		.cfi_def_cfa_offset 8
 6681              		.cfi_offset 4, -8
 6682              		.cfi_offset 14, -4
 6683              		.loc 1 3211 0
 6684 0002 0446     		mov	r4, r0
 6685              		.loc 1 3215 0
 6686 0004 FFF7FEFF 		bl	validate
 6687              	.LVL1005:
 6688              		.loc 1 3216 0
 6689 0008 00B9     		cbnz	r0, .L899
 6690              		.loc 1 3225 0
 6691 000a 2060     		str	r0, [r4, #0]
 6692              	.L899:
 6693              		.loc 1 3231 0
 6694 000c 10BD     		pop	{r4, pc}
 6695              		.cfi_endproc
 6696              	.LFE159:
 6697              		.size	f_closedir, .-f_closedir
 6698 000e 00BF     		.section	.text.f_getfree,"ax",%progbits
 6699              		.align	2
 6700              		.p2align 4,,15
 6701              		.global	f_getfree
 6702              		.thumb
 6703              		.thumb_func
 6704              		.type	f_getfree, %function
ARM GAS  C:\Users\Elis\AppData\Local\Temp\ccSuWDYb.s 			page 119


 6705              	f_getfree:
 6706              	.LFB162:
 6707              		.loc 1 3322 0
 6708              		.cfi_startproc
 6709              		@ args = 0, pretend = 0, frame = 16
 6710              		@ frame_needed = 0, uses_anonymous_args = 0
 6711              	.LVL1006:
 6712 0000 2DE9F04F 		push	{r4, r5, r6, r7, r8, r9, sl, fp, lr}
 6713              	.LCFI35:
 6714              		.cfi_def_cfa_offset 36
 6715              		.cfi_offset 4, -36
 6716              		.cfi_offset 5, -32
 6717              		.cfi_offset 6, -28
 6718              		.cfi_offset 7, -24
 6719              		.cfi_offset 8, -20
 6720              		.cfi_offset 9, -16
 6721              		.cfi_offset 10, -12
 6722              		.cfi_offset 11, -8
 6723              		.cfi_offset 14, -4
 6724 0004 85B0     		sub	sp, sp, #20
 6725              	.LCFI36:
 6726              		.cfi_def_cfa_offset 56
 6727              		.loc 1 3322 0
 6728 0006 04AB     		add	r3, sp, #16
 6729 0008 1446     		mov	r4, r2
 6730 000a 43F8040D 		str	r0, [r3, #-4]!
 6731 000e 8846     		mov	r8, r1
 6732              		.loc 1 3331 0
 6733 0010 1046     		mov	r0, r2
 6734              	.LVL1007:
 6735 0012 1946     		mov	r1, r3
 6736              	.LVL1008:
 6737 0014 0022     		movs	r2, #0
 6738              	.LVL1009:
 6739 0016 FFF7FEFF 		bl	find_volume
 6740              	.LVL1010:
 6741              		.loc 1 3332 0
 6742 001a 2468     		ldr	r4, [r4, #0]
 6743              	.LVL1011:
 6744              		.loc 1 3333 0
 6745 001c 0646     		mov	r6, r0
 6746 001e 0028     		cmp	r0, #0
 6747 0020 40F09980 		bne	.L901
 6748              		.loc 1 3335 0
 6749 0024 D4F814B0 		ldr	fp, [r4, #20]
 6750 0028 2069     		ldr	r0, [r4, #16]
 6751              	.LVL1012:
 6752 002a ABF10202 		sub	r2, fp, #2
 6753 002e 9042     		cmp	r0, r2
 6754 0030 40F29580 		bls	.L957
 6755              		.loc 1 3339 0
 6756 0034 2778     		ldrb	r7, [r4, #0]	@ zero_extendqisi2
 6757              	.LVL1013:
 6758              		.loc 1 3341 0
 6759 0036 012F     		cmp	r7, #1
 6760 0038 00F0B680 		beq	.L958
 6761              	.LVL1014:
ARM GAS  C:\Users\Elis\AppData\Local\Temp\ccSuWDYb.s 			page 120


 6762              		.loc 1 3351 0
 6763 003c 256A     		ldr	r5, [r4, #32]
 6764              	.LVL1015:
 6765              		.loc 1 3355 0
 6766 003e 2046     		mov	r0, r4
 6767 0040 2946     		mov	r1, r5
 6768 0042 FFF7FEFF 		bl	move_window
 6769              	.LVL1016:
 6770 0046 0BF1FF39 		add	r9, fp, #-1
