ARM GAS  C:\Users\Elis\AppData\Local\Temp\cc4MMQQn.s 			page 1


   1              		.syntax unified
   2              		.cpu cortex-m4
   3              		.fpu softvfp
   4              		.eabi_attribute 20, 1
   5              		.eabi_attribute 21, 1
   6              		.eabi_attribute 23, 3
   7              		.eabi_attribute 24, 1
   8              		.eabi_attribute 25, 1
   9              		.eabi_attribute 26, 1
  10              		.eabi_attribute 30, 2
  11              		.eabi_attribute 34, 1
  12              		.eabi_attribute 18, 4
  13              		.thumb
  14              		.file	"gfile_fs_fatfs.c"
  15              		.text
  16              	.Ltext0:
  17              		.cfi_sections	.debug_frame
  18              		.section	.text.fatfsGetSize,"ax",%progbits
  19              		.align	2
  20              		.p2align 4,,15
  21              		.thumb
  22              		.thumb_func
  23              		.type	fatfsGetSize, %function
  24              	fatfsGetSize:
  25              	.LFB128:
  26              		.file 1 "../../ugfx/src/gfile/gfile_fs_fatfs.c"
  27              		.loc 1 216 0
  28              		.cfi_startproc
  29              		@ args = 0, pretend = 0, frame = 0
  30              		@ frame_needed = 0, uses_anonymous_args = 0
  31              		@ link register save eliminated.
  32              	.LVL0:
  33              		.loc 1 217 0
  34 0000 8368     		ldr	r3, [r0, #8]
  35              		.loc 1 218 0
  36 0002 D868     		ldr	r0, [r3, #12]
  37              	.LVL1:
  38 0004 7047     		bx	lr
  39              		.cfi_endproc
  40              	.LFE128:
  41              		.size	fatfsGetSize, .-fatfsGetSize
  42 0006 00BFAFF3 		.section	.text.fatfsEOF,"ax",%progbits
  42      0080AFF3 
  42      0080
  43              		.align	2
  44              		.p2align 4,,15
  45              		.thumb
  46              		.thumb_func
  47              		.type	fatfsEOF, %function
  48              	fatfsEOF:
  49              	.LFB129:
  50              		.loc 1 221 0
  51              		.cfi_startproc
  52              		@ args = 0, pretend = 0, frame = 0
  53              		@ frame_needed = 0, uses_anonymous_args = 0
  54              		@ link register save eliminated.
  55              	.LVL2:
ARM GAS  C:\Users\Elis\AppData\Local\Temp\cc4MMQQn.s 			page 2


  56              		.loc 1 222 0
  57 0000 8368     		ldr	r3, [r0, #8]
  58 0002 9868     		ldr	r0, [r3, #8]
  59              	.LVL3:
  60 0004 D968     		ldr	r1, [r3, #12]
  61              		.loc 1 226 0
  62 0006 421A     		subs	r2, r0, r1
  63 0008 5342     		rsbs	r3, r2, #0
  64 000a 53EB0200 		adcs	r0, r3, r2
  65 000e 7047     		bx	lr
  66              		.cfi_endproc
  67              	.LFE129:
  68              		.size	fatfsEOF, .-fatfsEOF
  69              		.section	.text.fatfsUnmount,"ax",%progbits
  70              		.align	2
  71              		.p2align 4,,15
  72              		.thumb
  73              		.thumb_func
  74              		.type	fatfsUnmount, %function
  75              	fatfsUnmount:
  76              	.LFB131:
  77              		.loc 1 244 0
  78              		.cfi_startproc
  79              		@ args = 0, pretend = 0, frame = 0
  80              		@ frame_needed = 0, uses_anonymous_args = 0
  81              		@ link register save eliminated.
  82              	.LVL4:
  83              		.loc 1 247 0
  84 0000 034B     		ldr	r3, .L7
  85 0002 1878     		ldrb	r0, [r3, #0]	@ zero_extendqisi2
  86              	.LVL5:
  87 0004 10B1     		cbz	r0, .L4
  88              		.loc 1 249 0
  89 0006 0022     		movs	r2, #0
  90 0008 1A70     		strb	r2, [r3, #0]
  91              		.loc 1 250 0
  92 000a 0120     		movs	r0, #1
  93              	.L4:
  94              		.loc 1 254 0
  95 000c 7047     		bx	lr
  96              	.L8:
  97 000e 00BF     		.align	2
  98              	.L7:
  99 0010 00000000 		.word	.LANCHOR0
 100              		.cfi_endproc
 101              	.LFE131:
 102              		.size	fatfsUnmount, .-fatfsUnmount
 103 0014 AFF30080 		.section	.text.fatfsFlClose,"ax",%progbits
 103      AFF30080 
 103      AFF30080 
 104              		.align	2
 105              		.p2align 4,,15
 106              		.thumb
 107              		.thumb_func
 108              		.type	fatfsFlClose, %function
 109              	fatfsFlClose:
 110              	.LFB135:
ARM GAS  C:\Users\Elis\AppData\Local\Temp\cc4MMQQn.s 			page 3


 111              		.loc 1 317 0
 112              		.cfi_startproc
 113              		@ args = 0, pretend = 0, frame = 0
 114              		@ frame_needed = 0, uses_anonymous_args = 0
 115              	.LVL6:
 116 0000 10B5     		push	{r4, lr}
 117              	.LCFI0:
 118              		.cfi_def_cfa_offset 8
 119              		.cfi_offset 4, -8
 120              		.cfi_offset 14, -4
 121              		.loc 1 317 0
 122 0002 0446     		mov	r4, r0
 123              		.loc 1 318 0
 124 0004 00F10800 		add	r0, r0, #8
 125              	.LVL7:
 126 0008 FFF7FEFF 		bl	f_closedir
 127              	.LVL8:
 128              		.loc 1 319 0
 129 000c 2046     		mov	r0, r4
 130              		.loc 1 320 0
 131 000e BDE81040 		pop	{r4, lr}
 132              		.loc 1 319 0
 133 0012 FFF7FEBF 		b	chHeapFree
 134              	.LVL9:
 135              		.cfi_endproc
 136              	.LFE135:
 137              		.size	fatfsFlClose, .-fatfsFlClose
 138 0016 00BFAFF3 		.section	.text.fatfsFlOpen,"ax",%progbits
 138      0080AFF3 
 138      0080
 139              		.align	2
 140              		.p2align 4,,15
 141              		.thumb
 142              		.thumb_func
 143              		.type	fatfsFlOpen, %function
 144              	fatfsFlOpen:
 145              	.LFB133:
 146              		.loc 1 269 0
 147              		.cfi_startproc
 148              		@ args = 0, pretend = 0, frame = 0
 149              		@ frame_needed = 0, uses_anonymous_args = 0
 150              	.LVL10:
 151 0000 38B5     		push	{r3, r4, r5, lr}
 152              	.LCFI1:
 153              		.cfi_def_cfa_offset 16
 154              		.cfi_offset 3, -16
 155              		.cfi_offset 4, -12
 156              		.cfi_offset 5, -8
 157              		.cfi_offset 14, -4
 158              		.loc 1 273 0
 159 0002 4FF4A671 		mov	r1, #332
 160              	.LVL11:
 161              		.loc 1 269 0
 162 0006 0546     		mov	r5, r0
 163              		.loc 1 273 0
 164 0008 0020     		movs	r0, #0
 165              	.LVL12:
ARM GAS  C:\Users\Elis\AppData\Local\Temp\cc4MMQQn.s 			page 4


 166 000a FFF7FEFF 		bl	chHeapAlloc
 167              	.LVL13:
 168 000e 0446     		mov	r4, r0
 169 0010 50B1     		cbz	r0, .L14
 170              		.loc 1 276 0
 171 0012 00F10800 		add	r0, r0, #8
 172              	.LVL14:
 173 0016 2946     		mov	r1, r5
 174 0018 FFF7FEFF 		bl	f_opendir
 175              	.LVL15:
 176 001c 08B9     		cbnz	r0, .L15
 177              		.loc 1 280 0
 178 001e 2046     		mov	r0, r4
 179 0020 38BD     		pop	{r3, r4, r5, pc}
 180              	.L15:
 181              		.loc 1 277 0
 182 0022 2046     		mov	r0, r4
 183 0024 FFF7FEFF 		bl	chHeapFree
 184              	.LVL16:
 185              	.L14:
 186              		.loc 1 278 0
 187 0028 0020     		movs	r0, #0
 188 002a 38BD     		pop	{r3, r4, r5, pc}
 189              		.cfi_endproc
 190              	.LFE133:
 191              		.size	fatfsFlOpen, .-fatfsFlOpen
 192 002c AFF30080 		.section	.text.fatfsSync,"ax",%progbits
 193              		.align	2
 194              		.p2align 4,,15
 195              		.thumb
 196              		.thumb_func
 197              		.type	fatfsSync, %function
 198              	fatfsSync:
 199              	.LFB132:
 200              		.loc 1 257 0
 201              		.cfi_startproc
 202              		@ args = 0, pretend = 0, frame = 0
 203              		@ frame_needed = 0, uses_anonymous_args = 0
 204              	.LVL17:
 205 0000 08B5     		push	{r3, lr}
 206              	.LCFI2:
 207              		.cfi_def_cfa_offset 8
 208              		.cfi_offset 3, -8
 209              		.cfi_offset 14, -4
 210              		.loc 1 260 0
 211 0002 8068     		ldr	r0, [r0, #8]
 212              	.LVL18:
 213 0004 FFF7FEFF 		bl	f_sync
 214              	.LVL19:
 215              		.loc 1 266 0
 216 0008 D0F10100 		rsbs	r0, r0, #1
 217              	.LVL20:
 218 000c 38BF     		it	cc
 219 000e 0020     		movcc	r0, #0
 220 0010 08BD     		pop	{r3, pc}
 221              		.cfi_endproc
 222              	.LFE132:
ARM GAS  C:\Users\Elis\AppData\Local\Temp\cc4MMQQn.s 			page 5


 223              		.size	fatfsSync, .-fatfsSync
 224 0012 00BFAFF3 		.section	.text.fatfsSetPos,"ax",%progbits
 224      0080AFF3 
 224      0080AFF3 
 224      0080
 225              		.align	2
 226              		.p2align 4,,15
 227              		.thumb
 228              		.thumb_func
 229              		.type	fatfsSetPos, %function
 230              	fatfsSetPos:
 231              	.LFB127:
 232              		.loc 1 205 0
 233              		.cfi_startproc
 234              		@ args = 0, pretend = 0, frame = 0
 235              		@ frame_needed = 0, uses_anonymous_args = 0
 236              	.LVL21:
 237 0000 08B5     		push	{r3, lr}
 238              	.LCFI3:
 239              		.cfi_def_cfa_offset 8
 240              		.cfi_offset 3, -8
 241              		.cfi_offset 14, -4
 242              		.loc 1 208 0
 243 0002 8068     		ldr	r0, [r0, #8]
 244              	.LVL22:
 245 0004 FFF7FEFF 		bl	f_lseek
 246              	.LVL23:
 247              		.loc 1 213 0
 248 0008 D0F10100 		rsbs	r0, r0, #1
 249              	.LVL24:
 250 000c 38BF     		it	cc
 251 000e 0020     		movcc	r0, #0
 252 0010 08BD     		pop	{r3, pc}
 253              		.cfi_endproc
 254              	.LFE127:
 255              		.size	fatfsSetPos, .-fatfsSetPos
 256 0012 00BFAFF3 		.section	.text.fatfsWrite,"ax",%progbits
 256      0080AFF3 
 256      0080AFF3 
 256      0080
 257              		.align	2
 258              		.p2align 4,,15
 259              		.thumb
 260              		.thumb_func
 261              		.type	fatfsWrite, %function
 262              	fatfsWrite:
 263              	.LFB126:
 264              		.loc 1 193 0
 265              		.cfi_startproc
 266              		@ args = 0, pretend = 0, frame = 8
 267              		@ frame_needed = 0, uses_anonymous_args = 0
 268              	.LVL25:
 269 0000 10B5     		push	{r4, lr}
 270              	.LCFI4:
 271              		.cfi_def_cfa_offset 8
 272              		.cfi_offset 4, -8
 273              		.cfi_offset 14, -4
ARM GAS  C:\Users\Elis\AppData\Local\Temp\cc4MMQQn.s 			page 6


 274 0002 0446     		mov	r4, r0
 275 0004 82B0     		sub	sp, sp, #8
 276              	.LCFI5:
 277              		.cfi_def_cfa_offset 16
 278              		.loc 1 196 0
 279 0006 01AB     		add	r3, sp, #4
 280 0008 8068     		ldr	r0, [r0, #8]
 281              	.LVL26:
 282 000a FFF7FEFF 		bl	f_write
 283              	.LVL27:
 284              		.loc 1 198 0
 285 000e A068     		ldr	r0, [r4, #8]
 286 0010 FFF7FEFF 		bl	f_sync
 287              	.LVL28:
 288              		.loc 1 202 0
 289 0014 0198     		ldr	r0, [sp, #4]
 290 0016 02B0     		add	sp, sp, #8
 291 0018 10BD     		pop	{r4, pc}
 292              		.cfi_endproc
 293              	.LFE126:
 294              		.size	fatfsWrite, .-fatfsWrite
 295 001a 00BFAFF3 		.section	.text.fatfsRead,"ax",%progbits
 295      0080
 296              		.align	2
 297              		.p2align 4,,15
 298              		.thumb
 299              		.thumb_func
 300              		.type	fatfsRead, %function
 301              	fatfsRead:
 302              	.LFB125:
 303              		.loc 1 184 0
 304              		.cfi_startproc
 305              		@ args = 0, pretend = 0, frame = 8
 306              		@ frame_needed = 0, uses_anonymous_args = 0
 307              	.LVL29:
 308 0000 00B5     		push	{lr}
 309              	.LCFI6:
 310              		.cfi_def_cfa_offset 4
 311              		.cfi_offset 14, -4
 312 0002 83B0     		sub	sp, sp, #12
 313              	.LCFI7:
 314              		.cfi_def_cfa_offset 16
 315              		.loc 1 187 0
 316 0004 01AB     		add	r3, sp, #4
 317 0006 8068     		ldr	r0, [r0, #8]
 318              	.LVL30:
 319 0008 FFF7FEFF 		bl	f_read
 320              	.LVL31:
 321              		.loc 1 190 0
 322 000c 0198     		ldr	r0, [sp, #4]
 323 000e 03B0     		add	sp, sp, #12
 324 0010 00BD     		pop	{pc}
 325              		.cfi_endproc
 326              	.LFE125:
 327              		.size	fatfsRead, .-fatfsRead
 328 0012 00BFAFF3 		.section	.text.fatfsClose,"ax",%progbits
 328      0080AFF3 
ARM GAS  C:\Users\Elis\AppData\Local\Temp\cc4MMQQn.s 			page 7


 328      0080AFF3 
 328      0080
 329              		.align	2
 330              		.p2align 4,,15
 331              		.thumb
 332              		.thumb_func
 333              		.type	fatfsClose, %function
 334              	fatfsClose:
 335              	.LFB124:
 336              		.loc 1 176 0
 337              		.cfi_startproc
 338              		@ args = 0, pretend = 0, frame = 0
 339              		@ frame_needed = 0, uses_anonymous_args = 0
 340              	.LVL32:
 341 0000 10B5     		push	{r4, lr}
 342              	.LCFI8:
 343              		.cfi_def_cfa_offset 8
 344              		.cfi_offset 4, -8
 345              		.cfi_offset 14, -4
 346              		.loc 1 176 0
 347 0002 0446     		mov	r4, r0
 348              		.loc 1 177 0
 349 0004 8068     		ldr	r0, [r0, #8]
 350              	.LVL33:
 351 0006 30B1     		cbz	r0, .L20
 352              		.loc 1 178 0
 353 0008 FFF7FEFF 		bl	f_close
 354              	.LVL34:
 355              		.loc 1 179 0
 356 000c A068     		ldr	r0, [r4, #8]
 357              		.loc 1 181 0
 358 000e BDE81040 		pop	{r4, lr}
 359              		.loc 1 179 0
 360 0012 FFF7FEBF 		b	chHeapFree
 361              	.LVL35:
 362              	.L20:
 363 0016 10BD     		pop	{r4, pc}
 364              		.cfi_endproc
 365              	.LFE124:
 366              		.size	fatfsClose, .-fatfsClose
 367 0018 AFF30080 		.section	.text.fatfsRename,"ax",%progbits
 367      AFF30080 
 368              		.align	2
 369              		.p2align 4,,15
 370              		.thumb
 371              		.thumb_func
 372              		.type	fatfsRename, %function
 373              	fatfsRename:
 374              	.LFB122:
 375              		.loc 1 134 0
 376              		.cfi_startproc
 377              		@ args = 0, pretend = 0, frame = 0
 378              		@ frame_needed = 0, uses_anonymous_args = 0
 379              	.LVL36:
 380 0000 08B5     		push	{r3, lr}
 381              	.LCFI9:
 382              		.cfi_def_cfa_offset 8
ARM GAS  C:\Users\Elis\AppData\Local\Temp\cc4MMQQn.s 			page 8


 383              		.cfi_offset 3, -8
 384              		.cfi_offset 14, -4
 385              		.loc 1 137 0
 386 0002 FFF7FEFF 		bl	f_rename
 387              	.LVL37:
 388              		.loc 1 142 0
 389 0006 D0F10100 		rsbs	r0, r0, #1
 390              	.LVL38:
 391 000a 38BF     		it	cc
 392 000c 0020     		movcc	r0, #0
 393 000e 08BD     		pop	{r3, pc}
 394              		.cfi_endproc
 395              	.LFE122:
 396              		.size	fatfsRename, .-fatfsRename
 397              		.section	.text.fatfsFileSize,"ax",%progbits
 398              		.align	2
 399              		.p2align 4,,15
 400              		.thumb
 401              		.thumb_func
 402              		.type	fatfsFileSize, %function
 403              	fatfsFileSize:
 404              	.LFB121:
 405              		.loc 1 122 0
 406              		.cfi_startproc
 407              		@ args = 0, pretend = 0, frame = 32
 408              		@ frame_needed = 0, uses_anonymous_args = 0
 409              	.LVL39:
 410 0000 00B5     		push	{lr}
 411              	.LCFI10:
 412              		.cfi_def_cfa_offset 4
 413              		.cfi_offset 14, -4
 414 0002 89B0     		sub	sp, sp, #36
 415              	.LCFI11:
 416              		.cfi_def_cfa_offset 40
 417              		.loc 1 126 0
 418 0004 6946     		mov	r1, sp
 419 0006 FFF7FEFF 		bl	f_stat
 420              	.LVL40:
 421              		.loc 1 127 0
 422 000a 10B9     		cbnz	r0, .L25
 423              		.loc 1 130 0
 424 000c 0098     		ldr	r0, [sp, #0]
 425              	.LVL41:
 426              	.L24:
 427              		.loc 1 131 0
 428 000e 09B0     		add	sp, sp, #36
 429 0010 00BD     		pop	{pc}
 430              	.LVL42:
 431              	.L25:
 432              		.loc 1 128 0
 433 0012 0020     		movs	r0, #0
 434              	.LVL43:
 435 0014 FBE7     		b	.L24
 436              		.cfi_endproc
 437              	.LFE121:
 438              		.size	fatfsFileSize, .-fatfsFileSize
 439 0016 00BFAFF3 		.section	.text.fatfsExists,"ax",%progbits
ARM GAS  C:\Users\Elis\AppData\Local\Temp\cc4MMQQn.s 			page 9


 439      0080AFF3 
 439      0080
 440              		.align	2
 441              		.p2align 4,,15
 442              		.thumb
 443              		.thumb_func
 444              		.type	fatfsExists, %function
 445              	fatfsExists:
 446              	.LFB120:
 447              		.loc 1 110 0
 448              		.cfi_startproc
 449              		@ args = 0, pretend = 0, frame = 32
 450              		@ frame_needed = 0, uses_anonymous_args = 0
 451              	.LVL44:
 452 0000 00B5     		push	{lr}
 453              	.LCFI12:
 454              		.cfi_def_cfa_offset 4
 455              		.cfi_offset 14, -4
 456 0002 89B0     		sub	sp, sp, #36
 457              	.LCFI13:
 458              		.cfi_def_cfa_offset 40
 459              		.loc 1 114 0
 460 0004 6946     		mov	r1, sp
 461 0006 FFF7FEFF 		bl	f_stat
 462              	.LVL45:
 463              		.loc 1 119 0
 464 000a D0F10100 		rsbs	r0, r0, #1
 465              	.LVL46:
 466 000e 38BF     		it	cc
 467 0010 0020     		movcc	r0, #0
 468 0012 09B0     		add	sp, sp, #36
 469 0014 00BD     		pop	{pc}
 470              		.cfi_endproc
 471              	.LFE120:
 472              		.size	fatfsExists, .-fatfsExists
 473 0016 00BFAFF3 		.section	.text.fatfsDel,"ax",%progbits
 473      0080AFF3 
 473      0080
 474              		.align	2
 475              		.p2align 4,,15
 476              		.thumb
 477              		.thumb_func
 478              		.type	fatfsDel, %function
 479              	fatfsDel:
 480              	.LFB119:
 481              		.loc 1 99 0
 482              		.cfi_startproc
 483              		@ args = 0, pretend = 0, frame = 0
 484              		@ frame_needed = 0, uses_anonymous_args = 0
 485              	.LVL47:
 486 0000 08B5     		push	{r3, lr}
 487              	.LCFI14:
 488              		.cfi_def_cfa_offset 8
 489              		.cfi_offset 3, -8
 490              		.cfi_offset 14, -4
 491              		.loc 1 102 0
 492 0002 FFF7FEFF 		bl	f_unlink
ARM GAS  C:\Users\Elis\AppData\Local\Temp\cc4MMQQn.s 			page 10


 493              	.LVL48:
 494              		.loc 1 107 0
 495 0006 D0F10100 		rsbs	r0, r0, #1
 496              	.LVL49:
 497 000a 38BF     		it	cc
 498 000c 0020     		movcc	r0, #0
 499 000e 08BD     		pop	{r3, pc}
 500              		.cfi_endproc
 501              	.LFE119:
 502              		.size	fatfsDel, .-fatfsDel
 503              		.section	.text.fatfsFlRead,"ax",%progbits
 504              		.align	2
 505              		.p2align 4,,15
 506              		.thumb
 507              		.thumb_func
 508              		.type	fatfsFlRead, %function
 509              	fatfsFlRead:
 510              	.LFB134:
 511              		.loc 1 283 0
 512              		.cfi_startproc
 513              		@ args = 0, pretend = 0, frame = 0
 514              		@ frame_needed = 0, uses_anonymous_args = 0
 515              	.LVL50:
 516 0000 2DE9F041 		push	{r4, r5, r6, r7, r8, lr}
 517              	.LCFI15:
 518              		.cfi_def_cfa_offset 24
 519              		.cfi_offset 4, -24
 520              		.cfi_offset 5, -20
 521              		.cfi_offset 6, -16
 522              		.cfi_offset 7, -12
 523              		.cfi_offset 8, -8
 524              		.cfi_offset 14, -4
 525              		.loc 1 283 0
 526 0004 0446     		mov	r4, r0
 527 0006 00F14C08 		add	r8, r0, #76
 528 000a 00F10807 		add	r7, r0, #8
 529 000e 00F12C06 		add	r6, r0, #44
 530              		.loc 1 289 0
 531 0012 4FF48075 		mov	r5, #256
 532              	.LVL51:
 533              	.L41:
 534              		.loc 1 288 0
 535 0016 C4F84480 		str	r8, [r4, #68]
 536              		.loc 1 289 0
 537 001a A564     		str	r5, [r4, #72]
 538              		.loc 1 293 0
 539 001c 3846     		mov	r0, r7
 540 001e 3146     		mov	r1, r6
 541 0020 FFF7FEFF 		bl	f_readdir
 542              	.LVL52:
 543 0024 D0B9     		cbnz	r0, .L34
 544              		.loc 1 293 0 is_stmt 0 discriminator 1
 545 0026 94F83530 		ldrb	r3, [r4, #53]	@ zero_extendqisi2
 546 002a D3B1     		cbz	r3, .L35
 547              		.loc 1 297 0 is_stmt 1
 548 002c 2E2B     		cmp	r3, #46
 549 002e F2D0     		beq	.L41
ARM GAS  C:\Users\Elis\AppData\Local\Temp\cc4MMQQn.s 			page 11


 550              		.loc 1 300 0
 551 0030 2079     		ldrb	r0, [r4, #4]	@ zero_extendqisi2
 552 0032 58B1     		cbz	r0, .L31
 553              		.loc 1 301 0
 554 0034 94F83400 		ldrb	r0, [r4, #52]	@ zero_extendqisi2
 555 0038 00F01001 		and	r1, r0, #16
 556 003c CAB2     		uxtb	r2, r1
 557 003e 002A     		cmp	r2, #0
 558 0040 E9D0     		beq	.L41
 559              	.L32:
 560              	.LVL53:
 561              	.LBB6:
 562              	.LBB7:
 563              		.loc 1 310 0
 564 0042 606C     		ldr	r0, [r4, #68]
 565 0044 0378     		ldrb	r3, [r0, #0]	@ zero_extendqisi2
 566 0046 7BB1     		cbz	r3, .L42
 567              	.LBE7:
 568              	.LBE6:
 569              		.loc 1 315 0
 570 0048 BDE8F081 		pop	{r4, r5, r6, r7, r8, pc}
 571              	.LVL54:
 572              	.L31:
 573              		.loc 1 304 0
 574 004c 94F83410 		ldrb	r1, [r4, #52]	@ zero_extendqisi2
 575 0050 01F01002 		and	r2, r1, #16
 576 0054 D3B2     		uxtb	r3, r2
 577 0056 002B     		cmp	r3, #0
 578 0058 DDD1     		bne	.L41
 579 005a F2E7     		b	.L32
 580              	.L34:
 581              		.loc 1 294 0
 582 005c 0020     		movs	r0, #0
 583 005e BDE8F081 		pop	{r4, r5, r6, r7, r8, pc}
 584              	.L35:
 585 0062 1846     		mov	r0, r3
 586              		.loc 1 315 0
 587 0064 BDE8F081 		pop	{r4, r5, r6, r7, r8, pc}
 588              	.LVL55:
 589              	.L42:
 590              	.LBB9:
 591              	.LBB8:
 592              		.loc 1 310 0
 593 0068 04F13500 		add	r0, r4, #53
 594 006c BDE8F081 		pop	{r4, r5, r6, r7, r8, pc}
 595              	.LBE8:
 596              	.LBE9:
 597              		.cfi_endproc
 598              	.LFE134:
 599              		.size	fatfsFlRead, .-fatfsFlRead
 600              		.section	.text.fatfsMount,"ax",%progbits
 601              		.align	2
 602              		.p2align 4,,15
 603              		.thumb
 604              		.thumb_func
 605              		.type	fatfsMount, %function
 606              	fatfsMount:
ARM GAS  C:\Users\Elis\AppData\Local\Temp\cc4MMQQn.s 			page 12


 607              	.LFB130:
 608              		.loc 1 229 0
 609              		.cfi_startproc
 610              		@ args = 0, pretend = 0, frame = 0
 611              		@ frame_needed = 0, uses_anonymous_args = 0
 612              	.LVL56:
 613 0000 38B5     		push	{r3, r4, r5, lr}
 614              	.LCFI16:
 615              		.cfi_def_cfa_offset 16
 616              		.cfi_offset 3, -16
 617              		.cfi_offset 4, -12
 618              		.cfi_offset 5, -8
 619              		.cfi_offset 14, -4
 620              		.loc 1 232 0
 621 0002 074C     		ldr	r4, .L49
 622 0004 2578     		ldrb	r5, [r4, #0]	@ zero_extendqisi2
 623              		.loc 1 229 0
 624 0006 0146     		mov	r1, r0
 625              		.loc 1 232 0
 626 0008 0DB1     		cbz	r5, .L48
 627              	.LVL57:
 628              	.L46:
 629              		.loc 1 240 0
 630 000a 0020     		movs	r0, #0
 631              		.loc 1 241 0
 632 000c 38BD     		pop	{r3, r4, r5, pc}
 633              	.LVL58:
 634              	.L48:
 635              	.LBB12:
 636              	.LBB13:
 637              		.loc 1 233 0
 638 000e 0548     		ldr	r0, .L49+4
 639              	.LVL59:
 640 0010 0122     		movs	r2, #1
 641 0012 FFF7FEFF 		bl	f_mount
 642              	.LVL60:
 643              		.loc 1 234 0
 644 0016 0028     		cmp	r0, #0
 645 0018 F7D1     		bne	.L46
 646              		.loc 1 236 0
 647 001a 0120     		movs	r0, #1
 648              	.LVL61:
 649 001c 2070     		strb	r0, [r4, #0]
 650 001e 38BD     		pop	{r3, r4, r5, pc}
 651              	.L50:
 652              		.align	2
 653              	.L49:
 654 0020 00000000 		.word	.LANCHOR0
 655 0024 00000000 		.word	.LANCHOR1
 656              	.LBE13:
 657              	.LBE12:
 658              		.cfi_endproc
 659              	.LFE130:
 660              		.size	fatfsMount, .-fatfsMount
 661 0028 AFF30080 		.section	.text.fatfsOpen,"ax",%progbits
 661      AFF30080 
 662              		.align	2
ARM GAS  C:\Users\Elis\AppData\Local\Temp\cc4MMQQn.s 			page 13


 663              		.p2align 4,,15
 664              		.thumb
 665              		.thumb_func
 666              		.type	fatfsOpen, %function
 667              	fatfsOpen:
 668              	.LFB123:
 669              		.loc 1 145 0
 670              		.cfi_startproc
 671              		@ args = 0, pretend = 0, frame = 0
 672              		@ frame_needed = 0, uses_anonymous_args = 0
 673              	.LVL62:
 674              		.loc 1 149 0
 675 0000 214B     		ldr	r3, .L74
 676 0002 1A78     		ldrb	r2, [r3, #0]	@ zero_extendqisi2
 677              		.loc 1 145 0
 678 0004 70B5     		push	{r4, r5, r6, lr}
 679              	.LCFI17:
 680              		.cfi_def_cfa_offset 16
 681              		.cfi_offset 4, -16
 682              		.cfi_offset 5, -12
 683              		.cfi_offset 6, -8
 684              		.cfi_offset 14, -4
 685              		.loc 1 145 0
 686 0006 0546     		mov	r5, r0
 687 0008 0E46     		mov	r6, r1
 688              		.loc 1 149 0
 689 000a 22B9     		cbnz	r2, .L55
 690              		.loc 1 149 0 is_stmt 0 discriminator 1
 691 000c 1F48     		ldr	r0, .L74+4
 692              	.LVL63:
 693 000e FFF7FEFF 		bl	fatfsMount
 694              	.LVL64:
 695 0012 0028     		cmp	r0, #0
 696 0014 35D0     		beq	.L53
 697              	.L55:
 698              		.loc 1 153 0 is_stmt 1
 699 0016 0020     		movs	r0, #0
 700 0018 4FF40971 		mov	r1, #548
 701 001c FFF7FEFF 		bl	chHeapAlloc
 702              	.LVL65:
 703 0020 0446     		mov	r4, r0
 704 0022 0028     		cmp	r0, #0
 705 0024 2DD0     		beq	.L53
 706              	.LVL66:
 707              	.LBB14:
 708              	.LBB15:
 709              		.loc 1 85 0
 710 0026 A888     		ldrh	r0, [r5, #4]
 711              	.LVL67:
 712              		.loc 1 87 0
 713 0028 00F00401 		and	r1, r0, #4
 714 002c 8BB2     		uxth	r3, r1
 715              		.loc 1 83 0
 716 002e C0F34002 		ubfx	r2, r0, #1, #1
 717              	.LVL68:
 718              		.loc 1 87 0
 719 0032 13B1     		cbz	r3, .L57
ARM GAS  C:\Users\Elis\AppData\Local\Temp\cc4MMQQn.s 			page 14


 720              		.loc 1 88 0
 721 0034 42F00202 		orr	r2, r2, #2
 722              	.LVL69:
 723 0038 D2B2     		uxtb	r2, r2
 724              	.LVL70:
 725              	.L57:
 726              		.loc 1 91 0
 727 003a 00F48060 		and	r0, r0, #1024
 728 003e 81B2     		uxth	r1, r0
 729 0040 61B9     		cbnz	r1, .L71
 730              	.LBE15:
 731              	.LBE14:
 732              		.loc 1 156 0
 733 0042 2046     		mov	r0, r4
 734 0044 3146     		mov	r1, r6
 735 0046 FFF7FEFF 		bl	f_open
 736              	.LVL71:
 737 004a 78B9     		cbnz	r0, .L72
 738              	.L59:
 739              		.loc 1 167 0
 740 004c AB88     		ldrh	r3, [r5, #4]
 741              		.loc 1 163 0
 742 004e AC60     		str	r4, [r5, #8]
 743              		.loc 1 167 0
 744 0050 03F00402 		and	r2, r3, #4
 745 0054 90B2     		uxth	r0, r2
 746 0056 78B9     		cbnz	r0, .L73
 747              		.loc 1 172 0
 748 0058 0120     		movs	r0, #1
 749              		.loc 1 173 0
 750 005a 70BD     		pop	{r4, r5, r6, pc}
 751              	.LVL72:
 752              	.L71:
 753              	.LBB17:
 754              	.LBB16:
 755              		.loc 1 92 0
 756 005c 42F00802 		orr	r2, r2, #8
 757              	.LVL73:
 758              	.LBE16:
 759              	.LBE17:
 760              		.loc 1 156 0
 761 0060 2046     		mov	r0, r4
 762 0062 3146     		mov	r1, r6
 763 0064 FFF7FEFF 		bl	f_open
 764              	.LVL74:
 765 0068 0028     		cmp	r0, #0
 766 006a EFD0     		beq	.L59
 767              	.L72:
 768              		.loc 1 157 0
 769 006c 2046     		mov	r0, r4
 770 006e FFF7FEFF 		bl	chHeapFree
 771              	.LVL75:
 772              		.loc 1 158 0
 773 0072 0020     		movs	r0, #0
 774 0074 A860     		str	r0, [r5, #8]
 775              		.loc 1 160 0
 776 0076 70BD     		pop	{r4, r5, r6, pc}
ARM GAS  C:\Users\Elis\AppData\Local\Temp\cc4MMQQn.s 			page 15


 777              	.L73:
 778              		.loc 1 168 0
 779 0078 2046     		mov	r0, r4
 780 007a FFF7FEFF 		bl	f_sync
 781              	.LVL76:
 782              		.loc 1 172 0
 783 007e 0120     		movs	r0, #1
 784 0080 70BD     		pop	{r4, r5, r6, pc}
 785              	.LVL77:
 786              	.L53:
 787              		.loc 1 150 0
 788 0082 0020     		movs	r0, #0
 789 0084 70BD     		pop	{r4, r5, r6, pc}
 790              	.L75:
 791 0086 00BF     		.align	2
 792              	.L74:
 793 0088 00000000 		.word	.LANCHOR0
 794 008c 00000000 		.word	.LC0
 795              		.cfi_endproc
 796              	.LFE123:
 797              		.size	fatfsOpen, .-fatfsOpen
 798              		.global	FsFatFSVMT
 799              		.section	.bss.fatfs_mounted,"aw",%nobits
 800              		.set	.LANCHOR0,. + 0
 801              		.type	fatfs_mounted, %object
 802              		.size	fatfs_mounted, 1
 803              	fatfs_mounted:
 804 0000 00       		.space	1
 805              		.section	.rodata.FsFatFSVMT,"a",%progbits
 806              		.align	2
 807              		.type	FsFatFSVMT, %object
 808              		.size	FsFatFSVMT, 72
 809              	FsFatFSVMT:
 810 0000 05       		.byte	5
 811 0001 46       		.byte	70
 812 0002 0000     		.space	2
 813 0004 00000000 		.word	fatfsDel
 814 0008 00000000 		.word	fatfsExists
 815 000c 00000000 		.word	fatfsFileSize
 816 0010 00000000 		.word	fatfsRename
 817 0014 00000000 		.word	fatfsOpen
 818 0018 00000000 		.word	fatfsClose
 819 001c 00000000 		.word	fatfsRead
 820 0020 00000000 		.word	fatfsWrite
 821 0024 00000000 		.word	fatfsSetPos
 822 0028 00000000 		.word	fatfsGetSize
 823 002c 00000000 		.word	fatfsEOF
 824 0030 00000000 		.word	fatfsMount
 825 0034 00000000 		.word	fatfsUnmount
 826 0038 00000000 		.word	fatfsSync
 827 003c 00000000 		.word	fatfsFlOpen
 828 0040 00000000 		.word	fatfsFlRead
 829 0044 00000000 		.word	fatfsFlClose
 830              		.section	.rodata.str1.4,"aMS",%progbits,1
 831              		.align	2
 832              	.LC0:
 833 0000 00       		.ascii	"\000"
ARM GAS  C:\Users\Elis\AppData\Local\Temp\cc4MMQQn.s 			page 16


 834 0001 000000   		.section	.bss.fatfs_fs,"aw",%nobits
 835              		.align	2
 836              		.set	.LANCHOR1,. + 0
 837              		.type	fatfs_fs, %object
 838              		.size	fatfs_fs, 560
 839              	fatfs_fs:
 840 0000 00000000 		.space	560
 840      00000000 
 840      00000000 
 840      00000000 
 840      00000000 
 841              		.text
 842              	.Letext0:
 843              		.file 2 "c:\\chibistudio\\tools\\gnu tools arm embedded\\4.7 2014q2\\bin\\../lib/gcc/arm-none-eabi
 844              		.file 3 "c:\\chibistudio\\tools\\gnu tools arm embedded\\4.7 2014q2\\bin\\../lib/gcc/arm-none-eabi
 845              		.file 4 "../../chibios/os/ports/GCC/ARMCMx/chtypes.h"
 846              		.file 5 "../../chibios/os/kernel/include/chlists.h"
 847              		.file 6 "../../chibios/os/kernel/include/chthreads.h"
 848              		.file 7 "../../chibios/os/ports/GCC/ARMCMx/chcore_v7m.h"
 849              		.file 8 "../../chibios/os/kernel/include/chmtx.h"
 850              		.file 9 "../../chibios/os/kernel/include/chmemcore.h"
 851              		.file 10 "../../chibios/os/kernel/include/chheap.h"
 852              		.file 11 "../../ugfx/src/gfile/gfile.h"
 853              		.file 12 "../../ugfx/src/gfile/gfile_fs.h"
 854              		.file 13 "../../ugfx/3rdparty/fatfs-0.10b/src/integer.h"
 855              		.file 14 "../../ugfx/3rdparty/fatfs-0.10b/src/ff.h"
 856              		.file 15 "../../chibios/os/ports/common/ARMCMx/CMSIS/include/core_cm4.h"