ARM GAS  C:\Users\Elis\AppData\Local\Temp\ccI10hpc.s 			page 1


   1              		.syntax unified
   2              		.cpu cortex-m4
   3              		.fpu softvfp
   4              		.eabi_attribute 20, 1
   5              		.eabi_attribute 21, 1
   6              		.eabi_attribute 23, 3
   7              		.eabi_attribute 24, 1
   8              		.eabi_attribute 25, 1
   9              		.eabi_attribute 26, 1
  10              		.eabi_attribute 30, 2
  11              		.eabi_attribute 34, 1
  12              		.eabi_attribute 18, 4
  13              		.thumb
  14              		.file	"gfile_fatfs_diskio_chibios.c"
  15              		.text
  16              	.Ltext0:
  17              		.cfi_sections	.debug_frame
  18              		.section	.text.disk_initialize,"ax",%progbits
  19              		.align	2
  20              		.p2align 4,,15
  21              		.global	disk_initialize
  22              		.thumb
  23              		.thumb_func
  24              		.type	disk_initialize, %function
  25              	disk_initialize:
  26              	.LFB118:
  27              		.file 1 "../../ugfx/src/gfile/gfile_fatfs_diskio_chibios.c"
  28              		.loc 1 43 0
  29              		.cfi_startproc
  30              		@ args = 0, pretend = 0, frame = 0
  31              		@ frame_needed = 0, uses_anonymous_args = 0
  32              	.LVL0:
  33 0000 10B5     		push	{r4, lr}
  34              	.LCFI0:
  35              		.cfi_def_cfa_offset 8
  36              		.cfi_offset 4, -8
  37              		.cfi_offset 14, -4
  38              		.loc 1 46 0
  39 0002 60B9     		cbnz	r0, .L8
  40              	.LVL1:
  41              		.loc 1 60 0
  42 0004 0748     		ldr	r0, .L10
  43              	.LVL2:
  44 0006 0479     		ldrb	r4, [r0, #4]	@ zero_extendqisi2
  45              		.loc 1 58 0
  46 0008 053C     		subs	r4, r4, #5
  47 000a 18BF     		it	ne
  48 000c 0124     		movne	r4, #1
  49              	.LVL3:
  50              		.loc 1 62 0
  51 000e FFF7FEFF 		bl	sdc_lld_is_write_protected
  52              	.LVL4:
  53 0012 10B1     		cbz	r0, .L2
  54              		.loc 1 63 0
  55 0014 44F00400 		orr	r0, r4, #4
  56 0018 C4B2     		uxtb	r4, r0
  57              	.LVL5:
ARM GAS  C:\Users\Elis\AppData\Local\Temp\ccI10hpc.s 			page 2


  58              	.L2:
  59              		.loc 1 68 0
  60 001a 2046     		mov	r0, r4
  61 001c 10BD     		pop	{r4, pc}
  62              	.LVL6:
  63              	.L8:
  64              		.loc 1 67 0
  65 001e 0224     		movs	r4, #2
  66              		.loc 1 68 0
  67 0020 2046     		mov	r0, r4
  68              	.LVL7:
  69 0022 10BD     		pop	{r4, pc}
  70              	.L11:
  71              		.align	2
  72              	.L10:
  73 0024 00000000 		.word	SDCD1
  74              		.cfi_endproc
  75              	.LFE118:
  76              		.size	disk_initialize, .-disk_initialize
  77 0028 AFF30080 		.section	.text.disk_status,"ax",%progbits
  77      AFF30080 
  78              		.align	2
  79              		.p2align 4,,15
  80              		.global	disk_status
  81              		.thumb
  82              		.thumb_func
  83              		.type	disk_status, %function
  84              	disk_status:
  85              	.LFB119:
  86              		.loc 1 78 0
  87              		.cfi_startproc
  88              		@ args = 0, pretend = 0, frame = 0
  89              		@ frame_needed = 0, uses_anonymous_args = 0
  90              	.LVL8:
  91 0000 10B5     		push	{r4, lr}
  92              	.LCFI1:
  93              		.cfi_def_cfa_offset 8
  94              		.cfi_offset 4, -8
  95              		.cfi_offset 14, -4
  96              		.loc 1 81 0
  97 0002 60B9     		cbnz	r0, .L19
  98              	.LVL9:
  99              		.loc 1 95 0
 100 0004 0748     		ldr	r0, .L20
 101              	.LVL10:
 102 0006 0479     		ldrb	r4, [r0, #4]	@ zero_extendqisi2
 103              		.loc 1 93 0
 104 0008 053C     		subs	r4, r4, #5
 105 000a 18BF     		it	ne
 106 000c 0124     		movne	r4, #1
 107              	.LVL11:
 108              		.loc 1 97 0
 109 000e FFF7FEFF 		bl	sdc_lld_is_write_protected
 110              	.LVL12:
 111 0012 10B1     		cbz	r0, .L13
 112              		.loc 1 98 0
 113 0014 44F00400 		orr	r0, r4, #4
ARM GAS  C:\Users\Elis\AppData\Local\Temp\ccI10hpc.s 			page 3


 114 0018 C4B2     		uxtb	r4, r0
 115              	.LVL13:
 116              	.L13:
 117              		.loc 1 103 0
 118 001a 2046     		mov	r0, r4
 119 001c 10BD     		pop	{r4, pc}
 120              	.LVL14:
 121              	.L19:
 122              		.loc 1 102 0
 123 001e 0224     		movs	r4, #2
 124              		.loc 1 103 0
 125 0020 2046     		mov	r0, r4
 126              	.LVL15:
 127 0022 10BD     		pop	{r4, pc}
 128              	.L21:
 129              		.align	2
 130              	.L20:
 131 0024 00000000 		.word	SDCD1
 132              		.cfi_endproc
 133              	.LFE119:
 134              		.size	disk_status, .-disk_status
 135 0028 AFF30080 		.section	.text.disk_read,"ax",%progbits
 135      AFF30080 
 136              		.align	2
 137              		.p2align 4,,15
 138              		.global	disk_read
 139              		.thumb
 140              		.thumb_func
 141              		.type	disk_read, %function
 142              	disk_read:
 143              	.LFB120:
 144              		.loc 1 116 0
 145              		.cfi_startproc
 146              		@ args = 0, pretend = 0, frame = 0
 147              		@ frame_needed = 0, uses_anonymous_args = 0
 148              		@ link register save eliminated.
 149              	.LVL16:
 150 0000 10B4     		push	{r4}
 151              	.LCFI2:
 152              		.cfi_def_cfa_offset 4
 153              		.cfi_offset 4, -4
 154              		.loc 1 116 0
 155 0002 0C46     		mov	r4, r1
 156              		.loc 1 117 0
 157 0004 28B9     		cbnz	r0, .L27
 158              		.loc 1 135 0
 159 0006 0748     		ldr	r0, .L29
 160              	.LVL17:
 161 0008 0179     		ldrb	r1, [r0, #4]	@ zero_extendqisi2
 162              	.LVL18:
 163 000a 0529     		cmp	r1, #5
 164 000c 04D0     		beq	.L28
 165              		.loc 1 136 0
 166 000e 0320     		movs	r0, #3
 167 0010 00E0     		b	.L23
 168              	.LVL19:
 169              	.L27:
ARM GAS  C:\Users\Elis\AppData\Local\Temp\ccI10hpc.s 			page 4


 170              		.loc 1 142 0
 171 0012 0420     		movs	r0, #4
 172              	.LVL20:
 173              	.L23:
 174              		.loc 1 143 0
 175 0014 10BC     		pop	{r4}
 176 0016 7047     		bx	lr
 177              	.L28:
 178              		.loc 1 137 0
 179 0018 1146     		mov	r1, r2
 180 001a 2246     		mov	r2, r4
 181              	.LVL21:
 182              		.loc 1 143 0
 183 001c 10BC     		pop	{r4}
 184              		.loc 1 137 0
 185 001e FFF7FEBF 		b	sdcRead
 186              	.LVL22:
 187              	.L30:
 188 0022 00BF     		.align	2
 189              	.L29:
 190 0024 00000000 		.word	SDCD1
 191              		.cfi_endproc
 192              	.LFE120:
 193              		.size	disk_read, .-disk_read
 194 0028 AFF30080 		.section	.text.disk_write,"ax",%progbits
 194      AFF30080 
 195              		.align	2
 196              		.p2align 4,,15
 197              		.global	disk_write
 198              		.thumb
 199              		.thumb_func
 200              		.type	disk_write, %function
 201              	disk_write:
 202              	.LFB121:
 203              		.loc 1 157 0
 204              		.cfi_startproc
 205              		@ args = 0, pretend = 0, frame = 0
 206              		@ frame_needed = 0, uses_anonymous_args = 0
 207              		@ link register save eliminated.
 208              	.LVL23:
 209 0000 10B4     		push	{r4}
 210              	.LCFI3:
 211              		.cfi_def_cfa_offset 4
 212              		.cfi_offset 4, -4
 213              		.loc 1 157 0
 214 0002 0C46     		mov	r4, r1
 215              		.loc 1 158 0
 216 0004 28B9     		cbnz	r0, .L36
 217              		.loc 1 178 0
 218 0006 0748     		ldr	r0, .L38
 219              	.LVL24:
 220 0008 0179     		ldrb	r1, [r0, #4]	@ zero_extendqisi2
 221              	.LVL25:
 222 000a 0529     		cmp	r1, #5
 223 000c 04D0     		beq	.L37
 224              		.loc 1 179 0
 225 000e 0320     		movs	r0, #3
ARM GAS  C:\Users\Elis\AppData\Local\Temp\ccI10hpc.s 			page 5


 226 0010 00E0     		b	.L32
 227              	.LVL26:
 228              	.L36:
 229              		.loc 1 185 0
 230 0012 0420     		movs	r0, #4
 231              	.LVL27:
 232              	.L32:
 233              		.loc 1 186 0
 234 0014 10BC     		pop	{r4}
 235 0016 7047     		bx	lr
 236              	.L37:
 237              		.loc 1 180 0
 238 0018 1146     		mov	r1, r2
 239 001a 2246     		mov	r2, r4
 240              	.LVL28:
 241              		.loc 1 186 0
 242 001c 10BC     		pop	{r4}
 243              		.loc 1 180 0
 244 001e FFF7FEBF 		b	sdcWrite
 245              	.LVL29:
 246              	.L39:
 247 0022 00BF     		.align	2
 248              	.L38:
 249 0024 00000000 		.word	SDCD1
 250              		.cfi_endproc
 251              	.LFE121:
 252              		.size	disk_write, .-disk_write
 253 0028 AFF30080 		.section	.text.disk_ioctl,"ax",%progbits
 253      AFF30080 
 254              		.align	2
 255              		.p2align 4,,15
 256              		.global	disk_ioctl
 257              		.thumb
 258              		.thumb_func
 259              		.type	disk_ioctl, %function
 260              	disk_ioctl:
 261              	.LFB122:
 262              		.loc 1 199 0
 263              		.cfi_startproc
 264              		@ args = 0, pretend = 0, frame = 0
 265              		@ frame_needed = 0, uses_anonymous_args = 0
 266              		@ link register save eliminated.
 267              	.LVL30:
 268              		.loc 1 200 0
 269 0000 28B9     		cbnz	r0, .L49
 270              		.loc 1 219 0
 271 0002 0329     		cmp	r1, #3
 272 0004 03D8     		bhi	.L49
 273 0006 DFE801F0 		tbb	[pc, r1]
 274              	.L47:
 275 000a 07       		.byte	(.L51-.L47)/2
 276 000b 09       		.byte	(.L44-.L47)/2
 277 000c 0E       		.byte	(.L45-.L47)/2
 278 000d 04       		.byte	(.L46-.L47)/2
 279              		.align	1
 280              	.L49:
 281              		.loc 1 237 0
ARM GAS  C:\Users\Elis\AppData\Local\Temp\ccI10hpc.s 			page 6


 282 000e 0420     		movs	r0, #4
 283              	.LVL31:
 284              		.loc 1 242 0
 285 0010 7047     		bx	lr
 286              	.LVL32:
 287              	.L46:
 288              		.loc 1 229 0
 289 0012 4FF48073 		mov	r3, #256
 290 0016 1360     		str	r3, [r2, #0]
 291              	.L51:
 292              		.loc 1 230 0
 293 0018 0020     		movs	r0, #0
 294              	.LVL33:
 295 001a 7047     		bx	lr
 296              	.LVL34:
 297              	.L44:
 298              		.loc 1 223 0
 299 001c 0449     		ldr	r1, .L52
 300              	.LVL35:
 301 001e 8B6A     		ldr	r3, [r1, #40]
 302              		.loc 1 224 0
 303 0020 0020     		movs	r0, #0
 304              	.LVL36:
 305              		.loc 1 223 0
 306 0022 1360     		str	r3, [r2, #0]
 307              		.loc 1 224 0
 308 0024 7047     		bx	lr
 309              	.LVL37:
 310              	.L45:
 311              		.loc 1 226 0
 312 0026 4FF40070 		mov	r0, #512
 313              	.LVL38:
 314 002a 1080     		strh	r0, [r2, #0]	@ movhi
 315              		.loc 1 227 0
 316 002c 0020     		movs	r0, #0
 317 002e 7047     		bx	lr
 318              	.L53:
 319              		.align	2
 320              	.L52:
 321 0030 00000000 		.word	SDCD1
 322              		.cfi_endproc
 323              	.LFE122:
 324              		.size	disk_ioctl, .-disk_ioctl
 325 0034 AFF30080 		.section	.text.get_fattime,"ax",%progbits
 325      AFF30080 
 325      AFF30080 
 326              		.align	2
 327              		.p2align 4,,15
 328              		.global	get_fattime
 329              		.thumb
 330              		.thumb_func
 331              		.type	get_fattime, %function
 332              	get_fattime:
 333              	.LFB123:
 334              		.loc 1 244 0
 335              		.cfi_startproc
 336              		@ args = 0, pretend = 0, frame = 0
ARM GAS  C:\Users\Elis\AppData\Local\Temp\ccI10hpc.s 			page 7


 337              		@ frame_needed = 0, uses_anonymous_args = 0
 338              		@ link register save eliminated.
 339              		.loc 1 250 0
 340 0000 4FF40410 		mov	r0, #2162688
 341 0004 7047     		bx	lr
 342              		.cfi_endproc
 343              	.LFE123:
 344              		.size	get_fattime, .-get_fattime
 345 0006 00BFAFF3 		.text
 345      0080AFF3 
 345      0080
 346              	.Letext0:
 347              		.file 2 "c:\\chibistudio\\tools\\gnu tools arm embedded\\4.7 2014q2\\bin\\../lib/gcc/arm-none-eabi
 348              		.file 3 "../../chibios/os/ports/GCC/ARMCMx/chtypes.h"
 349              		.file 4 "../../chibios/os/kernel/include/chlists.h"
 350              		.file 5 "../../chibios/os/kernel/include/chthreads.h"
 351              		.file 6 "../../chibios/os/ports/GCC/ARMCMx/chcore_v7m.h"
 352              		.file 7 "../../chibios/os/kernel/include/chmtx.h"
 353              		.file 8 "../../chibios/os/hal/platforms/STM32F4xx/stm32f4xx.h"
 354              		.file 9 "../../chibios/os/hal/platforms/STM32F4xx/stm32_dma.h"
 355              		.file 10 "../../chibios/os/hal/include/io_block.h"
 356              		.file 11 "../../chibios/os/hal/platforms/STM32/sdc_lld.h"
 357              		.file 12 "../../ugfx/3rdparty/fatfs-0.10b/src/integer.h"
 358              		.file 13 "../../ugfx/3rdparty/fatfs-0.10b/src/diskio.h"
 359              		.file 14 "../../chibios/os/ports/common/ARMCMx/CMSIS/include/core_cm4.h"
 360              		.file 15 "../../chibios/os/hal/include/sdc.h"
 361              		.section	.debug_info,"",%progbits
 362              	.Ldebug_info0:
 363 0000 430A0000 		.4byte	0xa43
 364 0004 0200     		.2byte	0x2
 365 0006 00000000 		.4byte	.Ldebug_abbrev0
 366 000a 04       		.byte	0x4
 367 000b 01       		.uleb128 0x1
 368 000c 29000000 		.4byte	.LASF126
 369 0010 01       		.byte	0x1
 370 0011 CA040000 		.4byte	.LASF127
 371 0015 3C010000 		.4byte	.LASF128
 372 0019 00000000 		.4byte	.Ldebug_ranges0+0
 373 001d 00000000 		.4byte	0
 374 0021 00000000 		.4byte	0
 375 0025 00000000 		.4byte	.Ldebug_line0
 376 0029 02       		.uleb128 0x2
 377 002a 04       		.byte	0x4
 378 002b 05       		.byte	0x5
 379 002c 696E7400 		.ascii	"int\000"
 380 0030 03       		.uleb128 0x3
 381 0031 04       		.byte	0x4
 382 0032 07       		.byte	0x7
 383 0033 11020000 		.4byte	.LASF0
 384 0037 03       		.uleb128 0x3
 385 0038 01       		.byte	0x1
 386 0039 06       		.byte	0x6
 387 003a 14010000 		.4byte	.LASF1
 388 003e 04       		.uleb128 0x4
 389 003f 06050000 		.4byte	.LASF5
 390 0043 02       		.byte	0x2
 391 0044 2A       		.byte	0x2a
ARM GAS  C:\Users\Elis\AppData\Local\Temp\ccI10hpc.s 			page 8


 392 0045 49000000 		.4byte	0x49
 393 0049 03       		.uleb128 0x3
 394 004a 01       		.byte	0x1
 395 004b 08       		.byte	0x8
 396 004c 74030000 		.4byte	.LASF2
 397 0050 03       		.uleb128 0x3
 398 0051 02       		.byte	0x2
 399 0052 05       		.byte	0x5
 400 0053 9C030000 		.4byte	.LASF3
 401 0057 03       		.uleb128 0x3
 402 0058 02       		.byte	0x2
 403 0059 07       		.byte	0x7
 404 005a 4E020000 		.4byte	.LASF4
 405 005e 04       		.uleb128 0x4
 406 005f 6C030000 		.4byte	.LASF6
 407 0063 02       		.byte	0x2
 408 0064 4F       		.byte	0x4f
 409 0065 69000000 		.4byte	0x69
 410 0069 03       		.uleb128 0x3
 411 006a 04       		.byte	0x4
 412 006b 05       		.byte	0x5
 413 006c 96010000 		.4byte	.LASF7
 414 0070 04       		.uleb128 0x4
 415 0071 FE030000 		.4byte	.LASF8
 416 0075 02       		.byte	0x2
 417 0076 50       		.byte	0x50
 418 0077 7B000000 		.4byte	0x7b
 419 007b 03       		.uleb128 0x3
 420 007c 04       		.byte	0x4
 421 007d 07       		.byte	0x7
 422 007e 0F040000 		.4byte	.LASF9
 423 0082 03       		.uleb128 0x3
 424 0083 08       		.byte	0x8
 425 0084 05       		.byte	0x5
 426 0085 06010000 		.4byte	.LASF10
 427 0089 03       		.uleb128 0x3
 428 008a 08       		.byte	0x8
 429 008b 07       		.byte	0x7
 430 008c B2000000 		.4byte	.LASF11
 431 0090 04       		.uleb128 0x4
 432 0091 2D010000 		.4byte	.LASF12
 433 0095 03       		.byte	0x3
 434 0096 2B       		.byte	0x2b
 435 0097 9B000000 		.4byte	0x9b
 436 009b 03       		.uleb128 0x3
 437 009c 01       		.byte	0x1
 438 009d 02       		.byte	0x2
 439 009e 66030000 		.4byte	.LASF13
 440 00a2 04       		.uleb128 0x4
 441 00a3 9C020000 		.4byte	.LASF14
 442 00a7 03       		.byte	0x3
 443 00a8 2C       		.byte	0x2c
 444 00a9 3E000000 		.4byte	0x3e
 445 00ad 04       		.uleb128 0x4
 446 00ae A4010000 		.4byte	.LASF15
 447 00b2 03       		.byte	0x3
 448 00b3 2D       		.byte	0x2d
ARM GAS  C:\Users\Elis\AppData\Local\Temp\ccI10hpc.s 			page 9


 449 00b4 3E000000 		.4byte	0x3e
 450 00b8 04       		.uleb128 0x4
 451 00b9 35030000 		.4byte	.LASF16
 452 00bd 03       		.byte	0x3
 453 00be 2E       		.byte	0x2e
 454 00bf 3E000000 		.4byte	0x3e
 455 00c3 04       		.uleb128 0x4
 456 00c4 6F010000 		.4byte	.LASF17
 457 00c8 03       		.byte	0x3
 458 00c9 2F       		.byte	0x2f
 459 00ca 3E000000 		.4byte	0x3e
 460 00ce 04       		.uleb128 0x4
 461 00cf 57030000 		.4byte	.LASF18
 462 00d3 03       		.byte	0x3
 463 00d4 30       		.byte	0x30
 464 00d5 70000000 		.4byte	0x70
 465 00d9 04       		.uleb128 0x4
 466 00da 87020000 		.4byte	.LASF19
 467 00de 03       		.byte	0x3
 468 00df 31       		.byte	0x31
 469 00e0 5E000000 		.4byte	0x5e
 470 00e4 04       		.uleb128 0x4
 471 00e5 B7020000 		.4byte	.LASF20
 472 00e9 03       		.byte	0x3
 473 00ea 33       		.byte	0x33
 474 00eb 70000000 		.4byte	0x70
 475 00ef 04       		.uleb128 0x4
 476 00f0 4B040000 		.4byte	.LASF21
 477 00f4 03       		.byte	0x3
 478 00f5 35       		.byte	0x35
 479 00f6 70000000 		.4byte	0x70
 480 00fa 04       		.uleb128 0x4
 481 00fb DF030000 		.4byte	.LASF22
 482 00ff 04       		.byte	0x4
 483 0100 2A       		.byte	0x2a
 484 0101 05010000 		.4byte	0x105
 485 0105 05       		.uleb128 0x5
 486 0106 DF030000 		.4byte	.LASF22
 487 010a 48       		.byte	0x48
 488 010b 05       		.byte	0x5
 489 010c 5E       		.byte	0x5e
 490 010d 2A020000 		.4byte	0x22a
 491 0111 06       		.uleb128 0x6
 492 0112 CB030000 		.4byte	.LASF23
 493 0116 05       		.byte	0x5
 494 0117 5F       		.byte	0x5f
 495 0118 4F020000 		.4byte	0x24f
 496 011c 02       		.byte	0x2
 497 011d 23       		.byte	0x23
 498 011e 00       		.uleb128 0
 499 011f 06       		.uleb128 0x6
 500 0120 3D030000 		.4byte	.LASF24
 501 0124 05       		.byte	0x5
 502 0125 61       		.byte	0x61
 503 0126 4F020000 		.4byte	0x24f
 504 012a 02       		.byte	0x2
 505 012b 23       		.byte	0x23
ARM GAS  C:\Users\Elis\AppData\Local\Temp\ccI10hpc.s 			page 10


 506 012c 04       		.uleb128 0x4
 507 012d 06       		.uleb128 0x6
 508 012e FA000000 		.4byte	.LASF25
 509 0132 05       		.byte	0x5
 510 0133 63       		.byte	0x63
 511 0134 CE000000 		.4byte	0xce
 512 0138 02       		.byte	0x2
 513 0139 23       		.byte	0x23
 514 013a 08       		.uleb128 0x8
 515 013b 06       		.uleb128 0x6
 516 013c 44050000 		.4byte	.LASF26
 517 0140 05       		.byte	0x5
 518 0141 64       		.byte	0x64
 519 0142 1D030000 		.4byte	0x31d
 520 0146 02       		.byte	0x2
 521 0147 23       		.byte	0x23
 522 0148 0C       		.uleb128 0xc
 523 0149 06       		.uleb128 0x6
 524 014a C7010000 		.4byte	.LASF27
 525 014e 05       		.byte	0x5
 526 014f 66       		.byte	0x66
 527 0150 4F020000 		.4byte	0x24f
 528 0154 02       		.byte	0x2
 529 0155 23       		.byte	0x23
 530 0156 10       		.uleb128 0x10
 531 0157 06       		.uleb128 0x6
 532 0158 05030000 		.4byte	.LASF28
 533 015c 05       		.byte	0x5
 534 015d 67       		.byte	0x67
 535 015e 4F020000 		.4byte	0x24f
 536 0162 02       		.byte	0x2
 537 0163 23       		.byte	0x23
 538 0164 14       		.uleb128 0x14
 539 0165 06       		.uleb128 0x6
 540 0166 B0040000 		.4byte	.LASF29
 541 016a 05       		.byte	0x5
 542 016b 6E       		.byte	0x6e
 543 016c CE030000 		.4byte	0x3ce
 544 0170 02       		.byte	0x2
 545 0171 23       		.byte	0x23
 546 0172 18       		.uleb128 0x18
 547 0173 06       		.uleb128 0x6
 548 0174 A6030000 		.4byte	.LASF30
 549 0178 05       		.byte	0x5
 550 0179 79       		.byte	0x79
 551 017a AD000000 		.4byte	0xad
 552 017e 02       		.byte	0x2
 553 017f 23       		.byte	0x23
 554 0180 1C       		.uleb128 0x1c
 555 0181 06       		.uleb128 0x6
 556 0182 09020000 		.4byte	.LASF31
 557 0186 05       		.byte	0x5
 558 0187 7D       		.byte	0x7d
 559 0188 A2000000 		.4byte	0xa2
 560 018c 02       		.byte	0x2
 561 018d 23       		.byte	0x23
 562 018e 1D       		.uleb128 0x1d
ARM GAS  C:\Users\Elis\AppData\Local\Temp\ccI10hpc.s 			page 11


 563 018f 06       		.uleb128 0x6
 564 0190 B7040000 		.4byte	.LASF32
 565 0194 05       		.byte	0x5
 566 0195 82       		.byte	0x82
 567 0196 B8000000 		.4byte	0xb8
 568 019a 02       		.byte	0x2
 569 019b 23       		.byte	0x23
 570 019c 1E       		.uleb128 0x1e
 571 019d 06       		.uleb128 0x6
 572 019e BA030000 		.4byte	.LASF33
 573 01a2 05       		.byte	0x5
 574 01a3 88       		.byte	0x88
 575 01a4 C3000000 		.4byte	0xc3
 576 01a8 02       		.byte	0x2
 577 01a9 23       		.byte	0x23
 578 01aa 1F       		.uleb128 0x1f
 579 01ab 06       		.uleb128 0x6
 580 01ac 77000000 		.4byte	.LASF34
 581 01b0 05       		.byte	0x5
 582 01b1 8F       		.byte	0x8f
 583 01b2 4C030000 		.4byte	0x34c
 584 01b6 02       		.byte	0x2
 585 01b7 23       		.byte	0x23
 586 01b8 20       		.uleb128 0x20
 587 01b9 07       		.uleb128 0x7
 588 01ba 705F7500 		.ascii	"p_u\000"
 589 01be 05       		.byte	0x5
 590 01bf B4       		.byte	0xb4
 591 01c0 99030000 		.4byte	0x399
 592 01c4 02       		.byte	0x2
 593 01c5 23       		.byte	0x23
 594 01c6 24       		.uleb128 0x24
 595 01c7 06       		.uleb128 0x6
 596 01c8 4A050000 		.4byte	.LASF35
 597 01cc 05       		.byte	0x5
 598 01cd B9       		.byte	0xb9
 599 01ce 77020000 		.4byte	0x277
 600 01d2 02       		.byte	0x2
 601 01d3 23       		.byte	0x23
 602 01d4 28       		.uleb128 0x28
 603 01d5 06       		.uleb128 0x6
 604 01d6 30020000 		.4byte	.LASF36
 605 01da 05       		.byte	0x5
 606 01db BF       		.byte	0xbf
 607 01dc 55020000 		.4byte	0x255
 608 01e0 02       		.byte	0x2
 609 01e1 23       		.byte	0x23
 610 01e2 2C       		.uleb128 0x2c
 611 01e3 06       		.uleb128 0x6
 612 01e4 2C050000 		.4byte	.LASF37
 613 01e8 05       		.byte	0x5
 614 01e9 C3       		.byte	0xc3
 615 01ea D9000000 		.4byte	0xd9
 616 01ee 02       		.byte	0x2
 617 01ef 23       		.byte	0x23
 618 01f0 34       		.uleb128 0x34
 619 01f1 06       		.uleb128 0x6
ARM GAS  C:\Users\Elis\AppData\Local\Temp\ccI10hpc.s 			page 12


 620 01f2 EE030000 		.4byte	.LASF38
 621 01f6 05       		.byte	0x5
 622 01f7 C9       		.byte	0xc9
 623 01f8 E4000000 		.4byte	0xe4
 624 01fc 02       		.byte	0x2
 625 01fd 23       		.byte	0x23
 626 01fe 38       		.uleb128 0x38
 627 01ff 06       		.uleb128 0x6
 628 0200 92030000 		.4byte	.LASF39
 629 0204 05       		.byte	0x5
 630 0205 D0       		.byte	0xd0
 631 0206 E0030000 		.4byte	0x3e0
 632 020a 02       		.byte	0x2
 633 020b 23       		.byte	0x23
 634 020c 3C       		.uleb128 0x3c
 635 020d 06       		.uleb128 0x6
 636 020e 55040000 		.4byte	.LASF40
 637 0212 05       		.byte	0x5
 638 0213 D4       		.byte	0xd4
 639 0214 CE000000 		.4byte	0xce
 640 0218 02       		.byte	0x2
 641 0219 23       		.byte	0x23
 642 021a 40       		.uleb128 0x40
 643 021b 06       		.uleb128 0x6
 644 021c 25010000 		.4byte	.LASF41
 645 0220 05       		.byte	0x5
 646 0221 DA       		.byte	0xda
 647 0222 8D020000 		.4byte	0x28d
 648 0226 02       		.byte	0x2
 649 0227 23       		.byte	0x23
 650 0228 44       		.uleb128 0x44
 651 0229 00       		.byte	0
 652 022a 08       		.uleb128 0x8
 653 022b 08       		.byte	0x8
 654 022c 04       		.byte	0x4
 655 022d 61       		.byte	0x61
 656 022e 4F020000 		.4byte	0x24f
 657 0232 06       		.uleb128 0x6
 658 0233 CB030000 		.4byte	.LASF23
 659 0237 04       		.byte	0x4
 660 0238 62       		.byte	0x62
 661 0239 4F020000 		.4byte	0x24f
 662 023d 02       		.byte	0x2
 663 023e 23       		.byte	0x23
 664 023f 00       		.uleb128 0
 665 0240 06       		.uleb128 0x6
 666 0241 3D030000 		.4byte	.LASF24
 667 0245 04       		.byte	0x4
 668 0246 64       		.byte	0x64
 669 0247 4F020000 		.4byte	0x24f
 670 024b 02       		.byte	0x2
 671 024c 23       		.byte	0x23
 672 024d 04       		.uleb128 0x4
 673 024e 00       		.byte	0
 674 024f 09       		.uleb128 0x9
 675 0250 04       		.byte	0x4
 676 0251 FA000000 		.4byte	0xfa
ARM GAS  C:\Users\Elis\AppData\Local\Temp\ccI10hpc.s 			page 13


 677 0255 04       		.uleb128 0x4
 678 0256 20030000 		.4byte	.LASF42
 679 025a 04       		.byte	0x4
 680 025b 66       		.byte	0x66
 681 025c 2A020000 		.4byte	0x22a
 682 0260 08       		.uleb128 0x8
 683 0261 04       		.byte	0x4
 684 0262 04       		.byte	0x4
 685 0263 6B       		.byte	0x6b
 686 0264 77020000 		.4byte	0x277
 687 0268 06       		.uleb128 0x6
 688 0269 CB030000 		.4byte	.LASF23
 689 026d 04       		.byte	0x4
 690 026e 6D       		.byte	0x6d
 691 026f 4F020000 		.4byte	0x24f
 692 0273 02       		.byte	0x2
 693 0274 23       		.byte	0x23
 694 0275 00       		.uleb128 0
 695 0276 00       		.byte	0
 696 0277 04       		.uleb128 0x4
 697 0278 AB020000 		.4byte	.LASF43
 698 027c 04       		.byte	0x4
 699 027d 70       		.byte	0x70
 700 027e 60020000 		.4byte	0x260
 701 0282 04       		.uleb128 0x4
 702 0283 D8010000 		.4byte	.LASF44
 703 0287 06       		.byte	0x6
 704 0288 E5       		.byte	0xe5
 705 0289 8D020000 		.4byte	0x28d
 706 028d 0A       		.uleb128 0xa
 707 028e 04       		.byte	0x4
 708 028f 0B       		.uleb128 0xb
 709 0290 98040000 		.4byte	.LASF45
 710 0294 24       		.byte	0x24
 711 0295 06       		.byte	0x6
 712 0296 0C01     		.2byte	0x10c
 713 0298 1D030000 		.4byte	0x31d
 714 029c 0C       		.uleb128 0xc
 715 029d 723400   		.ascii	"r4\000"
 716 02a0 06       		.byte	0x6
 717 02a1 1F01     		.2byte	0x11f
 718 02a3 82020000 		.4byte	0x282
 719 02a7 02       		.byte	0x2
 720 02a8 23       		.byte	0x23
 721 02a9 00       		.uleb128 0
 722 02aa 0C       		.uleb128 0xc
 723 02ab 723500   		.ascii	"r5\000"
 724 02ae 06       		.byte	0x6
 725 02af 2001     		.2byte	0x120
 726 02b1 82020000 		.4byte	0x282
 727 02b5 02       		.byte	0x2
 728 02b6 23       		.byte	0x23
 729 02b7 04       		.uleb128 0x4
 730 02b8 0C       		.uleb128 0xc
 731 02b9 723600   		.ascii	"r6\000"
 732 02bc 06       		.byte	0x6
 733 02bd 2101     		.2byte	0x121
ARM GAS  C:\Users\Elis\AppData\Local\Temp\ccI10hpc.s 			page 14


 734 02bf 82020000 		.4byte	0x282
 735 02c3 02       		.byte	0x2
 736 02c4 23       		.byte	0x23
 737 02c5 08       		.uleb128 0x8
 738 02c6 0C       		.uleb128 0xc
 739 02c7 723700   		.ascii	"r7\000"
 740 02ca 06       		.byte	0x6
 741 02cb 2201     		.2byte	0x122
 742 02cd 82020000 		.4byte	0x282
 743 02d1 02       		.byte	0x2
 744 02d2 23       		.byte	0x23
 745 02d3 0C       		.uleb128 0xc
 746 02d4 0C       		.uleb128 0xc
 747 02d5 723800   		.ascii	"r8\000"
 748 02d8 06       		.byte	0x6
 749 02d9 2301     		.2byte	0x123
 750 02db 82020000 		.4byte	0x282
 751 02df 02       		.byte	0x2
 752 02e0 23       		.byte	0x23
 753 02e1 10       		.uleb128 0x10
 754 02e2 0C       		.uleb128 0xc
 755 02e3 723900   		.ascii	"r9\000"
 756 02e6 06       		.byte	0x6
 757 02e7 2401     		.2byte	0x124
 758 02e9 82020000 		.4byte	0x282
 759 02ed 02       		.byte	0x2
 760 02ee 23       		.byte	0x23
 761 02ef 14       		.uleb128 0x14
 762 02f0 0C       		.uleb128 0xc
 763 02f1 72313000 		.ascii	"r10\000"
 764 02f5 06       		.byte	0x6
 765 02f6 2501     		.2byte	0x125
 766 02f8 82020000 		.4byte	0x282
 767 02fc 02       		.byte	0x2
 768 02fd 23       		.byte	0x23
 769 02fe 18       		.uleb128 0x18
 770 02ff 0C       		.uleb128 0xc
 771 0300 72313100 		.ascii	"r11\000"
 772 0304 06       		.byte	0x6
 773 0305 2601     		.2byte	0x126
 774 0307 82020000 		.4byte	0x282
 775 030b 02       		.byte	0x2
 776 030c 23       		.byte	0x23
 777 030d 1C       		.uleb128 0x1c
 778 030e 0C       		.uleb128 0xc
 779 030f 6C7200   		.ascii	"lr\000"
 780 0312 06       		.byte	0x6
 781 0313 2701     		.2byte	0x127
 782 0315 82020000 		.4byte	0x282
 783 0319 02       		.byte	0x2
 784 031a 23       		.byte	0x23
 785 031b 20       		.uleb128 0x20
 786 031c 00       		.byte	0
 787 031d 0B       		.uleb128 0xb
 788 031e 85040000 		.4byte	.LASF46
 789 0322 04       		.byte	0x4
 790 0323 06       		.byte	0x6
ARM GAS  C:\Users\Elis\AppData\Local\Temp\ccI10hpc.s 			page 15


 791 0324 3101     		.2byte	0x131
 792 0326 3A030000 		.4byte	0x33a
 793 032a 0C       		.uleb128 0xc
 794 032b 72313300 		.ascii	"r13\000"
 795 032f 06       		.byte	0x6
 796 0330 3201     		.2byte	0x132
 797 0332 3A030000 		.4byte	0x33a
 798 0336 02       		.byte	0x2
 799 0337 23       		.byte	0x23
 800 0338 00       		.uleb128 0
 801 0339 00       		.byte	0
 802 033a 09       		.uleb128 0x9
 803 033b 04       		.byte	0x4
 804 033c 8F020000 		.4byte	0x28f
 805 0340 0D       		.uleb128 0xd
 806 0341 70000000 		.4byte	0x70
 807 0345 03       		.uleb128 0x3
 808 0346 04       		.byte	0x4
 809 0347 07       		.byte	0x7
 810 0348 EA020000 		.4byte	.LASF47
 811 034c 0D       		.uleb128 0xd
 812 034d EF000000 		.4byte	0xef
 813 0351 05       		.uleb128 0x5
 814 0352 F3020000 		.4byte	.LASF48
 815 0356 10       		.byte	0x10
 816 0357 07       		.byte	0x7
 817 0358 2C       		.byte	0x2c
 818 0359 88030000 		.4byte	0x388
 819 035d 06       		.uleb128 0x6
 820 035e 34010000 		.4byte	.LASF49
 821 0362 07       		.byte	0x7
 822 0363 2D       		.byte	0x2d
 823 0364 55020000 		.4byte	0x255
 824 0368 02       		.byte	0x2
 825 0369 23       		.byte	0x23
 826 036a 00       		.uleb128 0
 827 036b 06       		.uleb128 0x6
 828 036c 32050000 		.4byte	.LASF50
 829 0370 07       		.byte	0x7
 830 0371 2F       		.byte	0x2f
 831 0372 4F020000 		.4byte	0x24f
 832 0376 02       		.byte	0x2
 833 0377 23       		.byte	0x23
 834 0378 08       		.uleb128 0x8
 835 0379 06       		.uleb128 0x6
 836 037a 44040000 		.4byte	.LASF51
 837 037e 07       		.byte	0x7
 838 037f 31       		.byte	0x31
 839 0380 88030000 		.4byte	0x388
 840 0384 02       		.byte	0x2
 841 0385 23       		.byte	0x23
 842 0386 0C       		.uleb128 0xc
 843 0387 00       		.byte	0
 844 0388 09       		.uleb128 0x9
 845 0389 04       		.byte	0x4
 846 038a 51030000 		.4byte	0x351
 847 038e 04       		.uleb128 0x4
ARM GAS  C:\Users\Elis\AppData\Local\Temp\ccI10hpc.s 			page 16


 848 038f F3020000 		.4byte	.LASF48
 849 0393 07       		.byte	0x7
 850 0394 33       		.byte	0x33
 851 0395 51030000 		.4byte	0x351
 852 0399 0E       		.uleb128 0xe
 853 039a 04       		.byte	0x4
 854 039b 05       		.byte	0x5
 855 039c 96       		.byte	0x96
 856 039d CE030000 		.4byte	0x3ce
 857 03a1 0F       		.uleb128 0xf
 858 03a2 86000000 		.4byte	.LASF52
 859 03a6 05       		.byte	0x5
 860 03a7 9D       		.byte	0x9d
 861 03a8 D9000000 		.4byte	0xd9
 862 03ac 0F       		.uleb128 0xf
 863 03ad C9000000 		.4byte	.LASF53
 864 03b1 05       		.byte	0x5
 865 03b2 A4       		.byte	0xa4
 866 03b3 D9000000 		.4byte	0xd9
 867 03b7 0F       		.uleb128 0xf
 868 03b8 1B050000 		.4byte	.LASF54
 869 03bc 05       		.byte	0x5
 870 03bd AB       		.byte	0xab
 871 03be 8D020000 		.4byte	0x28d
 872 03c2 0F       		.uleb128 0xf
 873 03c3 C4030000 		.4byte	.LASF55
 874 03c7 05       		.byte	0x5
 875 03c8 B2       		.byte	0xb2
 876 03c9 E4000000 		.4byte	0xe4
 877 03cd 00       		.byte	0
 878 03ce 09       		.uleb128 0x9
 879 03cf 04       		.byte	0x4
 880 03d0 D4030000 		.4byte	0x3d4
 881 03d4 10       		.uleb128 0x10
 882 03d5 D9030000 		.4byte	0x3d9
 883 03d9 03       		.uleb128 0x3
 884 03da 01       		.byte	0x1
 885 03db 08       		.byte	0x8
 886 03dc 26040000 		.4byte	.LASF56
 887 03e0 09       		.uleb128 0x9
 888 03e1 04       		.byte	0x4
 889 03e2 8E030000 		.4byte	0x38e
 890 03e6 09       		.uleb128 0x9
 891 03e7 04       		.byte	0x4
 892 03e8 3E000000 		.4byte	0x3e
 893 03ec 09       		.uleb128 0x9
 894 03ed 04       		.byte	0x4
 895 03ee F2030000 		.4byte	0x3f2
 896 03f2 10       		.uleb128 0x10
 897 03f3 3E000000 		.4byte	0x3e
 898 03f7 11       		.uleb128 0x11
 899 03f8 70000000 		.4byte	0x70
 900 03fc 07040000 		.4byte	0x407
 901 0400 12       		.uleb128 0x12
 902 0401 45030000 		.4byte	0x345
 903 0405 03       		.byte	0x3
 904 0406 00       		.byte	0
ARM GAS  C:\Users\Elis\AppData\Local\Temp\ccI10hpc.s 			page 17


 905 0407 0D       		.uleb128 0xd
 906 0408 5E000000 		.4byte	0x5e
 907 040c 13       		.uleb128 0x13
 908 040d 18       		.byte	0x18
 909 040e 08       		.byte	0x8
 910 040f B102     		.2byte	0x2b1
 911 0411 6F040000 		.4byte	0x46f
 912 0415 0C       		.uleb128 0xc
 913 0416 435200   		.ascii	"CR\000"
 914 0419 08       		.byte	0x8
 915 041a B302     		.2byte	0x2b3
 916 041c 40030000 		.4byte	0x340
 917 0420 02       		.byte	0x2
 918 0421 23       		.byte	0x23
 919 0422 00       		.uleb128 0
 920 0423 14       		.uleb128 0x14
 921 0424 68040000 		.4byte	.LASF57
 922 0428 08       		.byte	0x8
 923 0429 B402     		.2byte	0x2b4
 924 042b 40030000 		.4byte	0x340
 925 042f 02       		.byte	0x2
 926 0430 23       		.byte	0x23
 927 0431 04       		.uleb128 0x4
 928 0432 0C       		.uleb128 0xc
 929 0433 50415200 		.ascii	"PAR\000"
 930 0437 08       		.byte	0x8
 931 0438 B502     		.2byte	0x2b5
 932 043a 40030000 		.4byte	0x340
 933 043e 02       		.byte	0x2
 934 043f 23       		.byte	0x23
 935 0440 08       		.uleb128 0x8
 936 0441 14       		.uleb128 0x14
 937 0442 72000000 		.4byte	.LASF58
 938 0446 08       		.byte	0x8
 939 0447 B602     		.2byte	0x2b6
 940 0449 40030000 		.4byte	0x340
 941 044d 02       		.byte	0x2
 942 044e 23       		.byte	0x23
 943 044f 0C       		.uleb128 0xc
 944 0450 14       		.uleb128 0x14
 945 0451 AB040000 		.4byte	.LASF59
 946 0455 08       		.byte	0x8
 947 0456 B702     		.2byte	0x2b7
 948 0458 40030000 		.4byte	0x340
 949 045c 02       		.byte	0x2
 950 045d 23       		.byte	0x23
 951 045e 10       		.uleb128 0x10
 952 045f 0C       		.uleb128 0xc
 953 0460 46435200 		.ascii	"FCR\000"
 954 0464 08       		.byte	0x8
 955 0465 B802     		.2byte	0x2b8
 956 0467 40030000 		.4byte	0x340
 957 046b 02       		.byte	0x2
 958 046c 23       		.byte	0x23
 959 046d 14       		.uleb128 0x14
 960 046e 00       		.byte	0
 961 046f 15       		.uleb128 0x15
ARM GAS  C:\Users\Elis\AppData\Local\Temp\ccI10hpc.s 			page 18


 962 0470 6D040000 		.4byte	.LASF60
 963 0474 08       		.byte	0x8
 964 0475 B902     		.2byte	0x2b9
 965 0477 0C040000 		.4byte	0x40c
 966 047b 08       		.uleb128 0x8
 967 047c 0C       		.byte	0xc
 968 047d 09       		.byte	0x9
 969 047e DA       		.byte	0xda
 970 047f CA040000 		.4byte	0x4ca
 971 0483 06       		.uleb128 0x6
 972 0484 AB000000 		.4byte	.LASF61
 973 0488 09       		.byte	0x9
 974 0489 DB       		.byte	0xdb
 975 048a CA040000 		.4byte	0x4ca
 976 048e 02       		.byte	0x2
 977 048f 23       		.byte	0x23
 978 0490 00       		.uleb128 0
 979 0491 06       		.uleb128 0x6
 980 0492 F9030000 		.4byte	.LASF62
 981 0496 09       		.byte	0x9
 982 0497 DC       		.byte	0xdc
 983 0498 D0040000 		.4byte	0x4d0
 984 049c 02       		.byte	0x2
 985 049d 23       		.byte	0x23
 986 049e 04       		.uleb128 0x4
 987 049f 06       		.uleb128 0x6
 988 04a0 47020000 		.4byte	.LASF63
 989 04a4 09       		.byte	0x9
 990 04a5 DD       		.byte	0xdd
 991 04a6 3E000000 		.4byte	0x3e
 992 04aa 02       		.byte	0x2
 993 04ab 23       		.byte	0x23
 994 04ac 08       		.uleb128 0x8
 995 04ad 06       		.uleb128 0x6
 996 04ae E1010000 		.4byte	.LASF64
 997 04b2 09       		.byte	0x9
 998 04b3 DF       		.byte	0xdf
 999 04b4 3E000000 		.4byte	0x3e
 1000 04b8 02       		.byte	0x2
 1001 04b9 23       		.byte	0x23
 1002 04ba 09       		.uleb128 0x9
 1003 04bb 06       		.uleb128 0x6
 1004 04bc D2000000 		.4byte	.LASF65
 1005 04c0 09       		.byte	0x9
 1006 04c1 E0       		.byte	0xe0
 1007 04c2 3E000000 		.4byte	0x3e
 1008 04c6 02       		.byte	0x2
 1009 04c7 23       		.byte	0x23
 1010 04c8 0A       		.uleb128 0xa
 1011 04c9 00       		.byte	0
 1012 04ca 09       		.uleb128 0x9
 1013 04cb 04       		.byte	0x4
 1014 04cc 6F040000 		.4byte	0x46f
 1015 04d0 09       		.uleb128 0x9
 1016 04d1 04       		.byte	0x4
 1017 04d2 40030000 		.4byte	0x340
 1018 04d6 04       		.uleb128 0x4
ARM GAS  C:\Users\Elis\AppData\Local\Temp\ccI10hpc.s 			page 19


 1019 04d7 44030000 		.4byte	.LASF66
 1020 04db 09       		.byte	0x9
 1021 04dc E1       		.byte	0xe1
 1022 04dd 7B040000 		.4byte	0x47b
 1023 04e1 16       		.uleb128 0x16
 1024 04e2 01       		.byte	0x1
 1025 04e3 0A       		.byte	0xa
 1026 04e4 33       		.byte	0x33
 1027 04e5 20050000 		.4byte	0x520
 1028 04e9 17       		.uleb128 0x17
 1029 04ea 85010000 		.4byte	.LASF67
 1030 04ee 00       		.sleb128 0
 1031 04ef 17       		.uleb128 0x17
 1032 04f0 B8010000 		.4byte	.LASF68
 1033 04f4 01       		.sleb128 1
 1034 04f5 17       		.uleb128 0x17
 1035 04f6 61020000 		.4byte	.LASF69
 1036 04fa 02       		.sleb128 2
 1037 04fb 17       		.uleb128 0x17
 1038 04fc 8D020000 		.4byte	.LASF70
 1039 0500 03       		.sleb128 3
 1040 0501 17       		.uleb128 0x17
 1041 0502 2B040000 		.4byte	.LASF71
 1042 0506 04       		.sleb128 4
 1043 0507 17       		.uleb128 0x17
 1044 0508 16030000 		.4byte	.LASF72
 1045 050c 05       		.sleb128 5
 1046 050d 17       		.uleb128 0x17
 1047 050e DE020000 		.4byte	.LASF73
 1048 0512 06       		.sleb128 6
 1049 0513 17       		.uleb128 0x17
 1050 0514 AE030000 		.4byte	.LASF74
 1051 0518 07       		.sleb128 7
 1052 0519 17       		.uleb128 0x17
 1053 051a BE040000 		.4byte	.LASF75
 1054 051e 08       		.sleb128 8
 1055 051f 00       		.byte	0
 1056 0520 04       		.uleb128 0x4
 1057 0521 EF000000 		.4byte	.LASF76
 1058 0525 0A       		.byte	0xa
 1059 0526 3D       		.byte	0x3d
 1060 0527 E1040000 		.4byte	0x4e1
 1061 052b 08       		.uleb128 0x8
 1062 052c 08       		.byte	0x8
 1063 052d 0A       		.byte	0xa
 1064 052e 42       		.byte	0x42
 1065 052f 50050000 		.4byte	0x550
 1066 0533 06       		.uleb128 0x6
 1067 0534 F1010000 		.4byte	.LASF77
 1068 0538 0A       		.byte	0xa
 1069 0539 43       		.byte	0x43
 1070 053a 70000000 		.4byte	0x70
 1071 053e 02       		.byte	0x2
 1072 053f 23       		.byte	0x23
 1073 0540 00       		.uleb128 0
 1074 0541 06       		.uleb128 0x6
 1075 0542 7E000000 		.4byte	.LASF78
ARM GAS  C:\Users\Elis\AppData\Local\Temp\ccI10hpc.s 			page 20


 1076 0546 0A       		.byte	0xa
 1077 0547 44       		.byte	0x44
 1078 0548 70000000 		.4byte	0x70
 1079 054c 02       		.byte	0x2
 1080 054d 23       		.byte	0x23
 1081 054e 04       		.uleb128 0x4
 1082 054f 00       		.byte	0
 1083 0550 04       		.uleb128 0x4
 1084 0551 00000000 		.4byte	.LASF79
 1085 0555 0A       		.byte	0xa
 1086 0556 45       		.byte	0x45
 1087 0557 2B050000 		.4byte	0x52b
 1088 055b 18       		.uleb128 0x18
 1089 055c 01       		.byte	0x1
 1090 055d 90000000 		.4byte	0x90
 1091 0561 6B050000 		.4byte	0x56b
 1092 0565 19       		.uleb128 0x19
 1093 0566 8D020000 		.4byte	0x28d
 1094 056a 00       		.byte	0
 1095 056b 09       		.uleb128 0x9
 1096 056c 04       		.byte	0x4
 1097 056d 5B050000 		.4byte	0x55b
 1098 0571 18       		.uleb128 0x18
 1099 0572 01       		.byte	0x1
 1100 0573 90000000 		.4byte	0x90
 1101 0577 90050000 		.4byte	0x590
 1102 057b 19       		.uleb128 0x19
 1103 057c 8D020000 		.4byte	0x28d
 1104 0580 19       		.uleb128 0x19
 1105 0581 70000000 		.4byte	0x70
 1106 0585 19       		.uleb128 0x19
 1107 0586 E6030000 		.4byte	0x3e6
 1108 058a 19       		.uleb128 0x19
 1109 058b 70000000 		.4byte	0x70
 1110 058f 00       		.byte	0
 1111 0590 09       		.uleb128 0x9
 1112 0591 04       		.byte	0x4
 1113 0592 71050000 		.4byte	0x571
 1114 0596 18       		.uleb128 0x18
 1115 0597 01       		.byte	0x1
 1116 0598 90000000 		.4byte	0x90
 1117 059c B5050000 		.4byte	0x5b5
 1118 05a0 19       		.uleb128 0x19
 1119 05a1 8D020000 		.4byte	0x28d
 1120 05a5 19       		.uleb128 0x19
 1121 05a6 70000000 		.4byte	0x70
 1122 05aa 19       		.uleb128 0x19
 1123 05ab EC030000 		.4byte	0x3ec
 1124 05af 19       		.uleb128 0x19
 1125 05b0 70000000 		.4byte	0x70
 1126 05b4 00       		.byte	0
 1127 05b5 09       		.uleb128 0x9
 1128 05b6 04       		.byte	0x4
 1129 05b7 96050000 		.4byte	0x596
 1130 05bb 18       		.uleb128 0x18
 1131 05bc 01       		.byte	0x1
 1132 05bd 90000000 		.4byte	0x90
ARM GAS  C:\Users\Elis\AppData\Local\Temp\ccI10hpc.s 			page 21


 1133 05c1 D0050000 		.4byte	0x5d0
 1134 05c5 19       		.uleb128 0x19
 1135 05c6 8D020000 		.4byte	0x28d
 1136 05ca 19       		.uleb128 0x19
 1137 05cb D0050000 		.4byte	0x5d0
 1138 05cf 00       		.byte	0
 1139 05d0 09       		.uleb128 0x9
 1140 05d1 04       		.byte	0x4
 1141 05d2 50050000 		.4byte	0x550
 1142 05d6 09       		.uleb128 0x9
 1143 05d7 04       		.byte	0x4
 1144 05d8 BB050000 		.4byte	0x5bb
 1145 05dc 04       		.uleb128 0x4
 1146 05dd FF010000 		.4byte	.LASF80
 1147 05e1 0B       		.byte	0xb
 1148 05e2 BF       		.byte	0xbf
 1149 05e3 70000000 		.4byte	0x70
 1150 05e7 04       		.uleb128 0x4
 1151 05e8 25020000 		.4byte	.LASF81
 1152 05ec 0B       		.byte	0xb
 1153 05ed C4       		.byte	0xc4
 1154 05ee 70000000 		.4byte	0x70
 1155 05f2 04       		.uleb128 0x4
 1156 05f3 3A050000 		.4byte	.LASF82
 1157 05f7 0B       		.byte	0xb
 1158 05f8 C9       		.byte	0xc9
 1159 05f9 FD050000 		.4byte	0x5fd
 1160 05fd 05       		.uleb128 0x5
 1161 05fe 3A050000 		.4byte	.LASF82
 1162 0602 48       		.byte	0x48
 1163 0603 0B       		.byte	0xb
 1164 0604 E5       		.byte	0xe5
 1165 0605 B4060000 		.4byte	0x6b4
 1166 0609 07       		.uleb128 0x7
 1167 060a 766D7400 		.ascii	"vmt\000"
 1168 060e 0B       		.byte	0xb
 1169 060f E9       		.byte	0xe9
 1170 0610 53070000 		.4byte	0x753
 1171 0614 02       		.byte	0x2
 1172 0615 23       		.byte	0x23
 1173 0616 00       		.uleb128 0
 1174 0617 06       		.uleb128 0x6
 1175 0618 90010000 		.4byte	.LASF83
 1176 061c 0B       		.byte	0xb
 1177 061d EA       		.byte	0xea
 1178 061e 20050000 		.4byte	0x520
 1179 0622 02       		.byte	0x2
 1180 0623 23       		.byte	0x23
 1181 0624 04       		.uleb128 0x4
 1182 0625 07       		.uleb128 0x7
 1183 0626 63696400 		.ascii	"cid\000"
 1184 062a 0B       		.byte	0xb
 1185 062b EA       		.byte	0xea
 1186 062c F7030000 		.4byte	0x3f7
 1187 0630 02       		.byte	0x2
 1188 0631 23       		.byte	0x23
 1189 0632 08       		.uleb128 0x8
ARM GAS  C:\Users\Elis\AppData\Local\Temp\ccI10hpc.s 			page 22


 1190 0633 07       		.uleb128 0x7
 1191 0634 63736400 		.ascii	"csd\000"
 1192 0638 0B       		.byte	0xb
 1193 0639 EA       		.byte	0xea
 1194 063a F7030000 		.4byte	0x3f7
 1195 063e 02       		.byte	0x2
 1196 063f 23       		.byte	0x23
 1197 0640 18       		.uleb128 0x18
 1198 0641 06       		.uleb128 0x6
 1199 0642 16000000 		.4byte	.LASF84
 1200 0646 0B       		.byte	0xb
 1201 0647 EA       		.byte	0xea
 1202 0648 70000000 		.4byte	0x70
 1203 064c 02       		.byte	0x2
 1204 064d 23       		.byte	0x23
 1205 064e 28       		.uleb128 0x28
 1206 064f 06       		.uleb128 0x6
 1207 0650 3D040000 		.4byte	.LASF85
 1208 0654 0B       		.byte	0xb
 1209 0655 EE       		.byte	0xee
 1210 0656 5E070000 		.4byte	0x75e
 1211 065a 02       		.byte	0x2
 1212 065b 23       		.byte	0x23
 1213 065c 2C       		.uleb128 0x2c
 1214 065d 06       		.uleb128 0x6
 1215 065e D9000000 		.4byte	.LASF86
 1216 0662 0B       		.byte	0xb
 1217 0663 F2       		.byte	0xf2
 1218 0664 DC050000 		.4byte	0x5dc
 1219 0668 02       		.byte	0x2
 1220 0669 23       		.byte	0x23
 1221 066a 30       		.uleb128 0x30
 1222 066b 06       		.uleb128 0x6
 1223 066c 1E020000 		.4byte	.LASF87
 1224 0670 0B       		.byte	0xb
 1225 0671 F6       		.byte	0xf6
 1226 0672 E7050000 		.4byte	0x5e7
 1227 0676 02       		.byte	0x2
 1228 0677 23       		.byte	0x23
 1229 0678 34       		.uleb128 0x34
 1230 0679 07       		.uleb128 0x7
 1231 067a 72636100 		.ascii	"rca\000"
 1232 067e 0B       		.byte	0xb
 1233 067f FA       		.byte	0xfa
 1234 0680 70000000 		.4byte	0x70
 1235 0684 02       		.byte	0x2
 1236 0685 23       		.byte	0x23
 1237 0686 38       		.uleb128 0x38
 1238 0687 06       		.uleb128 0x6
 1239 0688 5F030000 		.4byte	.LASF88
 1240 068c 0B       		.byte	0xb
 1241 068d FF       		.byte	0xff
 1242 068e 4F020000 		.4byte	0x24f
 1243 0692 02       		.byte	0x2
 1244 0693 23       		.byte	0x23
 1245 0694 3C       		.uleb128 0x3c
 1246 0695 14       		.uleb128 0x14
ARM GAS  C:\Users\Elis\AppData\Local\Temp\ccI10hpc.s 			page 23


 1247 0696 13050000 		.4byte	.LASF89
 1248 069a 0B       		.byte	0xb
 1249 069b 0301     		.2byte	0x103
 1250 069d 70000000 		.4byte	0x70
 1251 06a1 02       		.byte	0x2
 1252 06a2 23       		.byte	0x23
 1253 06a3 40       		.uleb128 0x40
 1254 06a4 0C       		.uleb128 0xc
 1255 06a5 646D6100 		.ascii	"dma\000"
 1256 06a9 0B       		.byte	0xb
 1257 06aa 0701     		.2byte	0x107
 1258 06ac 69070000 		.4byte	0x769
 1259 06b0 02       		.byte	0x2
 1260 06b1 23       		.byte	0x23
 1261 06b2 44       		.uleb128 0x44
 1262 06b3 00       		.byte	0
 1263 06b4 08       		.uleb128 0x8
 1264 06b5 04       		.byte	0x4
 1265 06b6 0B       		.byte	0xb
 1266 06b7 CF       		.byte	0xcf
 1267 06b8 CB060000 		.4byte	0x6cb
 1268 06bc 06       		.uleb128 0x6
 1269 06bd EB010000 		.4byte	.LASF90
 1270 06c1 0B       		.byte	0xb
 1271 06c2 D0       		.byte	0xd0
 1272 06c3 70000000 		.4byte	0x70
 1273 06c7 02       		.byte	0x2
 1274 06c8 23       		.byte	0x23
 1275 06c9 00       		.uleb128 0
 1276 06ca 00       		.byte	0
 1277 06cb 04       		.uleb128 0x4
 1278 06cc FC040000 		.4byte	.LASF91
 1279 06d0 0B       		.byte	0xb
 1280 06d1 D1       		.byte	0xd1
 1281 06d2 B4060000 		.4byte	0x6b4
 1282 06d6 05       		.uleb128 0x5
 1283 06d7 D2030000 		.4byte	.LASF92
 1284 06db 20       		.byte	0x20
 1285 06dc 0B       		.byte	0xb
 1286 06dd DE       		.byte	0xde
 1287 06de 53070000 		.4byte	0x753
 1288 06e2 06       		.uleb128 0x6
 1289 06e3 9F040000 		.4byte	.LASF93
 1290 06e7 0B       		.byte	0xb
 1291 06e8 DF       		.byte	0xdf
 1292 06e9 6B050000 		.4byte	0x56b
 1293 06ed 02       		.byte	0x2
 1294 06ee 23       		.byte	0x23
 1295 06ef 00       		.uleb128 0
 1296 06f0 06       		.uleb128 0x6
 1297 06f1 8D000000 		.4byte	.LASF94
 1298 06f5 0B       		.byte	0xb
 1299 06f6 DF       		.byte	0xdf
 1300 06f7 6B050000 		.4byte	0x56b
 1301 06fb 02       		.byte	0x2
 1302 06fc 23       		.byte	0x23
 1303 06fd 04       		.uleb128 0x4
ARM GAS  C:\Users\Elis\AppData\Local\Temp\ccI10hpc.s 			page 24


 1304 06fe 06       		.uleb128 0x6
 1305 06ff E6030000 		.4byte	.LASF95
 1306 0703 0B       		.byte	0xb
 1307 0704 DF       		.byte	0xdf
 1308 0705 6B050000 		.4byte	0x56b
 1309 0709 02       		.byte	0x2
 1310 070a 23       		.byte	0x23
 1311 070b 08       		.uleb128 0x8
 1312 070c 06       		.uleb128 0x6
 1313 070d 64010000 		.4byte	.LASF96
 1314 0711 0B       		.byte	0xb
 1315 0712 DF       		.byte	0xdf
 1316 0713 6B050000 		.4byte	0x56b
 1317 0717 02       		.byte	0x2
 1318 0718 23       		.byte	0x23
 1319 0719 0C       		.uleb128 0xc
 1320 071a 06       		.uleb128 0x6
 1321 071b 21040000 		.4byte	.LASF97
 1322 071f 0B       		.byte	0xb
 1323 0720 DF       		.byte	0xdf
 1324 0721 90050000 		.4byte	0x590
 1325 0725 02       		.byte	0x2
 1326 0726 23       		.byte	0x23
 1327 0727 10       		.uleb128 0x10
 1328 0728 06       		.uleb128 0x6
 1329 0729 CE020000 		.4byte	.LASF98
 1330 072d 0B       		.byte	0xb
 1331 072e DF       		.byte	0xdf
 1332 072f B5050000 		.4byte	0x5b5
 1333 0733 02       		.byte	0x2
 1334 0734 23       		.byte	0x23
 1335 0735 14       		.uleb128 0x14
 1336 0736 06       		.uleb128 0x6
 1337 0737 0E050000 		.4byte	.LASF99
 1338 073b 0B       		.byte	0xb
 1339 073c DF       		.byte	0xdf
 1340 073d 6B050000 		.4byte	0x56b
 1341 0741 02       		.byte	0x2
 1342 0742 23       		.byte	0x23
 1343 0743 18       		.uleb128 0x18
 1344 0744 06       		.uleb128 0x6
 1345 0745 CF010000 		.4byte	.LASF100
 1346 0749 0B       		.byte	0xb
 1347 074a DF       		.byte	0xdf
 1348 074b D6050000 		.4byte	0x5d6
 1349 074f 02       		.byte	0x2
 1350 0750 23       		.byte	0x23
 1351 0751 1C       		.uleb128 0x1c
 1352 0752 00       		.byte	0
 1353 0753 09       		.uleb128 0x9
 1354 0754 04       		.byte	0x4
 1355 0755 59070000 		.4byte	0x759
 1356 0759 10       		.uleb128 0x10
 1357 075a D6060000 		.4byte	0x6d6
 1358 075e 09       		.uleb128 0x9
 1359 075f 04       		.byte	0x4
 1360 0760 64070000 		.4byte	0x764
ARM GAS  C:\Users\Elis\AppData\Local\Temp\ccI10hpc.s 			page 25


 1361 0764 10       		.uleb128 0x10
 1362 0765 CB060000 		.4byte	0x6cb
 1363 0769 09       		.uleb128 0x9
 1364 076a 04       		.byte	0x4
 1365 076b 6F070000 		.4byte	0x76f
 1366 076f 10       		.uleb128 0x10
 1367 0770 D6040000 		.4byte	0x4d6
 1368 0774 04       		.uleb128 0x4
 1369 0775 FA010000 		.4byte	.LASF101
 1370 0779 0C       		.byte	0xc
 1371 077a 10       		.byte	0x10
 1372 077b 49000000 		.4byte	0x49
 1373 077f 04       		.uleb128 0x4
 1374 0780 F9020000 		.4byte	.LASF102
 1375 0784 0C       		.byte	0xc
 1376 0785 14       		.byte	0x14
 1377 0786 57000000 		.4byte	0x57
 1378 078a 04       		.uleb128 0x4
 1379 078b 9F010000 		.4byte	.LASF103
 1380 078f 0C       		.byte	0xc
 1381 0790 19       		.byte	0x19
 1382 0791 30000000 		.4byte	0x30
 1383 0795 04       		.uleb128 0x4
 1384 0796 C1010000 		.4byte	.LASF104
 1385 079a 0C       		.byte	0xc
 1386 079b 1D       		.byte	0x1d
 1387 079c 7B000000 		.4byte	0x7b
 1388 07a0 09       		.uleb128 0x9
 1389 07a1 04       		.byte	0x4
 1390 07a2 74070000 		.4byte	0x774
 1391 07a6 04       		.uleb128 0x4
 1392 07a7 60040000 		.4byte	.LASF105
 1393 07ab 0D       		.byte	0xd
 1394 07ac 13       		.byte	0x13
 1395 07ad 74070000 		.4byte	0x774
 1396 07b1 16       		.uleb128 0x16
 1397 07b2 01       		.byte	0x1
 1398 07b3 0D       		.byte	0xd
 1399 07b4 16       		.byte	0x16
 1400 07b5 D8070000 		.4byte	0x7d8
 1401 07b9 17       		.uleb128 0x17
 1402 07ba FE020000 		.4byte	.LASF106
 1403 07be 00       		.sleb128 0
 1404 07bf 17       		.uleb128 0x17
 1405 07c0 22050000 		.4byte	.LASF107
 1406 07c4 01       		.sleb128 1
 1407 07c5 17       		.uleb128 0x17
 1408 07c6 1F000000 		.4byte	.LASF108
 1409 07ca 02       		.sleb128 2
 1410 07cb 17       		.uleb128 0x17
 1411 07cc A0000000 		.4byte	.LASF109
 1412 07d0 03       		.sleb128 3
 1413 07d1 17       		.uleb128 0x17
 1414 07d2 AD010000 		.4byte	.LASF110
 1415 07d6 04       		.sleb128 4
 1416 07d7 00       		.byte	0
 1417 07d8 04       		.uleb128 0x4
ARM GAS  C:\Users\Elis\AppData\Local\Temp\ccI10hpc.s 			page 26


 1418 07d9 07040000 		.4byte	.LASF111
 1419 07dd 0D       		.byte	0xd
 1420 07de 1C       		.byte	0x1c
 1421 07df B1070000 		.4byte	0x7b1
 1422 07e3 1A       		.uleb128 0x1a
 1423 07e4 01       		.byte	0x1
 1424 07e5 82030000 		.4byte	.LASF112
 1425 07e9 01       		.byte	0x1
 1426 07ea 28       		.byte	0x28
 1427 07eb 01       		.byte	0x1
 1428 07ec A6070000 		.4byte	0x7a6
 1429 07f0 00000000 		.4byte	.LFB118
 1430 07f4 28000000 		.4byte	.LFE118
 1431 07f8 00000000 		.4byte	.LLST0
 1432 07fc 01       		.byte	0x1
 1433 07fd 29080000 		.4byte	0x829
 1434 0801 1B       		.uleb128 0x1b
 1435 0802 64727600 		.ascii	"drv\000"
 1436 0806 01       		.byte	0x1
 1437 0807 29       		.byte	0x29
 1438 0808 74070000 		.4byte	0x774
 1439 080c 20000000 		.4byte	.LLST1
 1440 0810 1C       		.uleb128 0x1c
 1441 0811 01010000 		.4byte	.LASF114
 1442 0815 01       		.byte	0x1
 1443 0816 2C       		.byte	0x2c
 1444 0817 A6070000 		.4byte	0x7a6
 1445 081b 5A000000 		.4byte	.LLST2
 1446 081f 1D       		.uleb128 0x1d
 1447 0820 12000000 		.4byte	.LVL4
 1448 0824 DD090000 		.4byte	0x9dd
 1449 0828 00       		.byte	0
 1450 0829 1A       		.uleb128 0x1a
 1451 082a 01       		.byte	0x1
 1452 082b 3B020000 		.4byte	.LASF113
 1453 082f 01       		.byte	0x1
 1454 0830 4B       		.byte	0x4b
 1455 0831 01       		.byte	0x1
 1456 0832 A6070000 		.4byte	0x7a6
 1457 0836 00000000 		.4byte	.LFB119
 1458 083a 28000000 		.4byte	.LFE119
 1459 083e 82000000 		.4byte	.LLST3
 1460 0842 01       		.byte	0x1
 1461 0843 6F080000 		.4byte	0x86f
 1462 0847 1B       		.uleb128 0x1b
 1463 0848 64727600 		.ascii	"drv\000"
 1464 084c 01       		.byte	0x1
 1465 084d 4C       		.byte	0x4c
 1466 084e 74070000 		.4byte	0x774
 1467 0852 A2000000 		.4byte	.LLST4
 1468 0856 1C       		.uleb128 0x1c
 1469 0857 01010000 		.4byte	.LASF114
 1470 085b 01       		.byte	0x1
 1471 085c 4F       		.byte	0x4f
 1472 085d A6070000 		.4byte	0x7a6
 1473 0861 DC000000 		.4byte	.LLST5
 1474 0865 1D       		.uleb128 0x1d
ARM GAS  C:\Users\Elis\AppData\Local\Temp\ccI10hpc.s 			page 27


 1475 0866 12000000 		.4byte	.LVL12
 1476 086a DD090000 		.4byte	0x9dd
 1477 086e 00       		.byte	0
 1478 086f 1A       		.uleb128 0x1a
 1479 0870 01       		.byte	0x1
 1480 0871 D4020000 		.4byte	.LASF115
 1481 0875 01       		.byte	0x1
 1482 0876 6E       		.byte	0x6e
 1483 0877 01       		.byte	0x1
 1484 0878 D8070000 		.4byte	0x7d8
 1485 087c 00000000 		.4byte	.LFB120
 1486 0880 28000000 		.4byte	.LFE120
 1487 0884 04010000 		.4byte	.LLST6
 1488 0888 01       		.byte	0x1
 1489 0889 E2080000 		.4byte	0x8e2
 1490 088d 1B       		.uleb128 0x1b
 1491 088e 64727600 		.ascii	"drv\000"
 1492 0892 01       		.byte	0x1
 1493 0893 6F       		.byte	0x6f
 1494 0894 74070000 		.4byte	0x774
 1495 0898 24010000 		.4byte	.LLST7
 1496 089c 1E       		.uleb128 0x1e
 1497 089d 20010000 		.4byte	.LASF116
 1498 08a1 01       		.byte	0x1
 1499 08a2 70       		.byte	0x70
 1500 08a3 A0070000 		.4byte	0x7a0
 1501 08a7 5E010000 		.4byte	.LLST8
 1502 08ab 1E       		.uleb128 0x1e
 1503 08ac A4020000 		.4byte	.LASF117
 1504 08b0 01       		.byte	0x1
 1505 08b1 71       		.byte	0x71
 1506 08b2 95070000 		.4byte	0x795
 1507 08b6 92010000 		.4byte	.LLST9
 1508 08ba 1E       		.uleb128 0x1e
 1509 08bb 10000000 		.4byte	.LASF118
 1510 08bf 01       		.byte	0x1
 1511 08c0 72       		.byte	0x72
 1512 08c1 8A070000 		.4byte	0x78a
 1513 08c5 BE010000 		.4byte	.LLST10
 1514 08c9 1F       		.uleb128 0x1f
 1515 08ca 22000000 		.4byte	.LVL22
 1516 08ce 01       		.byte	0x1
 1517 08cf FC090000 		.4byte	0x9fc
 1518 08d3 20       		.uleb128 0x20
 1519 08d4 01       		.byte	0x1
 1520 08d5 52       		.byte	0x52
 1521 08d6 02       		.byte	0x2
 1522 08d7 74       		.byte	0x74
 1523 08d8 00       		.sleb128 0
 1524 08d9 20       		.uleb128 0x20
 1525 08da 01       		.byte	0x1
 1526 08db 51       		.byte	0x51
 1527 08dc 03       		.byte	0x3
 1528 08dd F3       		.byte	0xf3
 1529 08de 01       		.uleb128 0x1
 1530 08df 52       		.byte	0x52
 1531 08e0 00       		.byte	0
ARM GAS  C:\Users\Elis\AppData\Local\Temp\ccI10hpc.s 			page 28


 1532 08e1 00       		.byte	0
 1533 08e2 1A       		.uleb128 0x1a
 1534 08e3 01       		.byte	0x1
 1535 08e4 8D040000 		.4byte	.LASF119
 1536 08e8 01       		.byte	0x1
 1537 08e9 97       		.byte	0x97
 1538 08ea 01       		.byte	0x1
 1539 08eb D8070000 		.4byte	0x7d8
 1540 08ef 00000000 		.4byte	.LFB121
 1541 08f3 28000000 		.4byte	.LFE121
 1542 08f7 DF010000 		.4byte	.LLST11
 1543 08fb 01       		.byte	0x1
 1544 08fc 55090000 		.4byte	0x955
 1545 0900 1B       		.uleb128 0x1b
 1546 0901 64727600 		.ascii	"drv\000"
 1547 0905 01       		.byte	0x1
 1548 0906 98       		.byte	0x98
 1549 0907 74070000 		.4byte	0x774
 1550 090b FF010000 		.4byte	.LLST12
 1551 090f 1E       		.uleb128 0x1e
 1552 0910 20010000 		.4byte	.LASF116
 1553 0914 01       		.byte	0x1
 1554 0915 99       		.byte	0x99
 1555 0916 55090000 		.4byte	0x955
 1556 091a 39020000 		.4byte	.LLST13
 1557 091e 1E       		.uleb128 0x1e
 1558 091f A4020000 		.4byte	.LASF117
 1559 0923 01       		.byte	0x1
 1560 0924 9A       		.byte	0x9a
 1561 0925 95070000 		.4byte	0x795
 1562 0929 6D020000 		.4byte	.LLST14
 1563 092d 1E       		.uleb128 0x1e
 1564 092e 10000000 		.4byte	.LASF118
 1565 0932 01       		.byte	0x1
 1566 0933 9B       		.byte	0x9b
 1567 0934 8A070000 		.4byte	0x78a
 1568 0938 99020000 		.4byte	.LLST15
 1569 093c 1F       		.uleb128 0x1f
 1570 093d 22000000 		.4byte	.LVL29
 1571 0941 01       		.byte	0x1
 1572 0942 230A0000 		.4byte	0xa23
 1573 0946 20       		.uleb128 0x20
 1574 0947 01       		.byte	0x1
 1575 0948 52       		.byte	0x52
 1576 0949 02       		.byte	0x2
 1577 094a 74       		.byte	0x74
 1578 094b 00       		.sleb128 0
 1579 094c 20       		.uleb128 0x20
 1580 094d 01       		.byte	0x1
 1581 094e 51       		.byte	0x51
 1582 094f 03       		.byte	0x3
 1583 0950 F3       		.byte	0xf3
 1584 0951 01       		.uleb128 0x1
 1585 0952 52       		.byte	0x52
 1586 0953 00       		.byte	0
 1587 0954 00       		.byte	0
 1588 0955 09       		.uleb128 0x9
ARM GAS  C:\Users\Elis\AppData\Local\Temp\ccI10hpc.s 			page 29


 1589 0956 04       		.byte	0x4
 1590 0957 5B090000 		.4byte	0x95b
 1591 095b 10       		.uleb128 0x10
 1592 095c 74070000 		.4byte	0x774
 1593 0960 21       		.uleb128 0x21
 1594 0961 01       		.byte	0x1
 1595 0962 C3020000 		.4byte	.LASF120
 1596 0966 01       		.byte	0x1
 1597 0967 C2       		.byte	0xc2
 1598 0968 01       		.byte	0x1
 1599 0969 D8070000 		.4byte	0x7d8
 1600 096d 00000000 		.4byte	.LFB122
 1601 0971 34000000 		.4byte	.LFE122
 1602 0975 02       		.byte	0x2
 1603 0976 7D       		.byte	0x7d
 1604 0977 00       		.sleb128 0
 1605 0978 01       		.byte	0x1
 1606 0979 A9090000 		.4byte	0x9a9
 1607 097d 1B       		.uleb128 0x1b
 1608 097e 64727600 		.ascii	"drv\000"
 1609 0982 01       		.byte	0x1
 1610 0983 C3       		.byte	0xc3
 1611 0984 74070000 		.4byte	0x774
 1612 0988 BA020000 		.4byte	.LLST16
 1613 098c 1E       		.uleb128 0x1e
 1614 098d 80040000 		.4byte	.LASF121
 1615 0991 01       		.byte	0x1
 1616 0992 C4       		.byte	0xc4
 1617 0993 74070000 		.4byte	0x774
 1618 0997 26030000 		.4byte	.LLST17
 1619 099b 22       		.uleb128 0x22
 1620 099c 20010000 		.4byte	.LASF116
 1621 09a0 01       		.byte	0x1
 1622 09a1 C5       		.byte	0xc5
 1623 09a2 8D020000 		.4byte	0x28d
 1624 09a6 01       		.byte	0x1
 1625 09a7 52       		.byte	0x52
 1626 09a8 00       		.byte	0
 1627 09a9 23       		.uleb128 0x23
 1628 09aa 01       		.byte	0x1
 1629 09ab 79010000 		.4byte	.LASF129
 1630 09af 01       		.byte	0x1
 1631 09b0 F4       		.byte	0xf4
 1632 09b1 01       		.byte	0x1
 1633 09b2 95070000 		.4byte	0x795
 1634 09b6 00000000 		.4byte	.LFB123
 1635 09ba 06000000 		.4byte	.LFE123
 1636 09be 02       		.byte	0x2
 1637 09bf 7D       		.byte	0x7d
 1638 09c0 00       		.sleb128 0
 1639 09c1 01       		.byte	0x1
 1640 09c2 24       		.uleb128 0x24
 1641 09c3 E2000000 		.4byte	.LASF122
 1642 09c7 0E       		.byte	0xe
 1643 09c8 9806     		.2byte	0x698
 1644 09ca 07040000 		.4byte	0x407
 1645 09ce 01       		.byte	0x1
ARM GAS  C:\Users\Elis\AppData\Local\Temp\ccI10hpc.s 			page 30


 1646 09cf 01       		.byte	0x1
 1647 09d0 25       		.uleb128 0x25
 1648 09d1 9A000000 		.4byte	.LASF123
 1649 09d5 01       		.byte	0x1
 1650 09d6 15       		.byte	0x15
 1651 09d7 F2050000 		.4byte	0x5f2
 1652 09db 01       		.byte	0x1
 1653 09dc 01       		.byte	0x1
 1654 09dd 26       		.uleb128 0x26
 1655 09de 01       		.byte	0x1
 1656 09df 6C020000 		.4byte	.LASF124
 1657 09e3 0B       		.byte	0xb
 1658 09e4 3401     		.2byte	0x134
 1659 09e6 01       		.byte	0x1
 1660 09e7 90000000 		.4byte	0x90
 1661 09eb 01       		.byte	0x1
 1662 09ec F6090000 		.4byte	0x9f6
 1663 09f0 19       		.uleb128 0x19
 1664 09f1 F6090000 		.4byte	0x9f6
 1665 09f5 00       		.byte	0
 1666 09f6 09       		.uleb128 0x9
 1667 09f7 04       		.byte	0x4
 1668 09f8 F2050000 		.4byte	0x5f2
 1669 09fc 27       		.uleb128 0x27
 1670 09fd 01       		.byte	0x1
 1671 09fe 2D030000 		.4byte	.LASF125
 1672 0a02 0F       		.byte	0xf
 1673 0a03 AC       		.byte	0xac
 1674 0a04 01       		.byte	0x1
 1675 0a05 90000000 		.4byte	0x90
 1676 0a09 01       		.byte	0x1
 1677 0a0a 230A0000 		.4byte	0xa23
 1678 0a0e 19       		.uleb128 0x19
 1679 0a0f F6090000 		.4byte	0x9f6
 1680 0a13 19       		.uleb128 0x19
 1681 0a14 70000000 		.4byte	0x70
 1682 0a18 19       		.uleb128 0x19
 1683 0a19 E6030000 		.4byte	0x3e6
 1684 0a1d 19       		.uleb128 0x19
 1685 0a1e 70000000 		.4byte	0x70
 1686 0a22 00       		.byte	0
 1687 0a23 28       		.uleb128 0x28
 1688 0a24 01       		.byte	0x1
 1689 0a25 0D030000 		.4byte	.LASF130
 1690 0a29 0F       		.byte	0xf
 1691 0a2a AE       		.byte	0xae
 1692 0a2b 01       		.byte	0x1
 1693 0a2c 90000000 		.4byte	0x90
 1694 0a30 01       		.byte	0x1
 1695 0a31 19       		.uleb128 0x19
 1696 0a32 F6090000 		.4byte	0x9f6
 1697 0a36 19       		.uleb128 0x19
 1698 0a37 70000000 		.4byte	0x70
 1699 0a3b 19       		.uleb128 0x19
 1700 0a3c EC030000 		.4byte	0x3ec
 1701 0a40 19       		.uleb128 0x19
 1702 0a41 70000000 		.4byte	0x70
ARM GAS  C:\Users\Elis\AppData\Local\Temp\ccI10hpc.s 			page 31


 1703 0a45 00       		.byte	0
 1704 0a46 00       		.byte	0
 1705              		.section	.debug_abbrev,"",%progbits
 1706              	.Ldebug_abbrev0:
 1707 0000 01       		.uleb128 0x1
 1708 0001 11       		.uleb128 0x11
 1709 0002 01       		.byte	0x1
 1710 0003 25       		.uleb128 0x25
 1711 0004 0E       		.uleb128 0xe
 1712 0005 13       		.uleb128 0x13
 1713 0006 0B       		.uleb128 0xb
 1714 0007 03       		.uleb128 0x3
 1715 0008 0E       		.uleb128 0xe
 1716 0009 1B       		.uleb128 0x1b
 1717 000a 0E       		.uleb128 0xe
 1718 000b 55       		.uleb128 0x55
 1719 000c 06       		.uleb128 0x6
 1720 000d 11       		.uleb128 0x11
 1721 000e 01       		.uleb128 0x1
 1722 000f 52       		.uleb128 0x52
 1723 0010 01       		.uleb128 0x1
 1724 0011 10       		.uleb128 0x10
 1725 0012 06       		.uleb128 0x6
 1726 0013 00       		.byte	0
 1727 0014 00       		.byte	0
 1728 0015 02       		.uleb128 0x2
 1729 0016 24       		.uleb128 0x24
 1730 0017 00       		.byte	0
 1731 0018 0B       		.uleb128 0xb
 1732 0019 0B       		.uleb128 0xb
 1733 001a 3E       		.uleb128 0x3e
 1734 001b 0B       		.uleb128 0xb
 1735 001c 03       		.uleb128 0x3
 1736 001d 08       		.uleb128 0x8
 1737 001e 00       		.byte	0
 1738 001f 00       		.byte	0
 1739 0020 03       		.uleb128 0x3
 1740 0021 24       		.uleb128 0x24
 1741 0022 00       		.byte	0
 1742 0023 0B       		.uleb128 0xb
 1743 0024 0B       		.uleb128 0xb
 1744 0025 3E       		.uleb128 0x3e
 1745 0026 0B       		.uleb128 0xb
 1746 0027 03       		.uleb128 0x3
 1747 0028 0E       		.uleb128 0xe
 1748 0029 00       		.byte	0
 1749 002a 00       		.byte	0
 1750 002b 04       		.uleb128 0x4
 1751 002c 16       		.uleb128 0x16
 1752 002d 00       		.byte	0
 1753 002e 03       		.uleb128 0x3
 1754 002f 0E       		.uleb128 0xe
 1755 0030 3A       		.uleb128 0x3a
 1756 0031 0B       		.uleb128 0xb
 1757 0032 3B       		.uleb128 0x3b
 1758 0033 0B       		.uleb128 0xb
 1759 0034 49       		.uleb128 0x49
ARM GAS  C:\Users\Elis\AppData\Local\Temp\ccI10hpc.s 			page 32


 1760 0035 13       		.uleb128 0x13
 1761 0036 00       		.byte	0
 1762 0037 00       		.byte	0
 1763 0038 05       		.uleb128 0x5
 1764 0039 13       		.uleb128 0x13
 1765 003a 01       		.byte	0x1
 1766 003b 03       		.uleb128 0x3
 1767 003c 0E       		.uleb128 0xe
 1768 003d 0B       		.uleb128 0xb
 1769 003e 0B       		.uleb128 0xb
 1770 003f 3A       		.uleb128 0x3a
 1771 0040 0B       		.uleb128 0xb
 1772 0041 3B       		.uleb128 0x3b
 1773 0042 0B       		.uleb128 0xb
 1774 0043 01       		.uleb128 0x1
 1775 0044 13       		.uleb128 0x13
 1776 0045 00       		.byte	0
 1777 0046 00       		.byte	0
 1778 0047 06       		.uleb128 0x6
 1779 0048 0D       		.uleb128 0xd
 1780 0049 00       		.byte	0
 1781 004a 03       		.uleb128 0x3
 1782 004b 0E       		.uleb128 0xe
 1783 004c 3A       		.uleb128 0x3a
 1784 004d 0B       		.uleb128 0xb
 1785 004e 3B       		.uleb128 0x3b
 1786 004f 0B       		.uleb128 0xb
 1787 0050 49       		.uleb128 0x49
 1788 0051 13       		.uleb128 0x13
 1789 0052 38       		.uleb128 0x38
 1790 0053 0A       		.uleb128 0xa
 1791 0054 00       		.byte	0
 1792 0055 00       		.byte	0
 1793 0056 07       		.uleb128 0x7
 1794 0057 0D       		.uleb128 0xd
 1795 0058 00       		.byte	0
 1796 0059 03       		.uleb128 0x3
 1797 005a 08       		.uleb128 0x8
 1798 005b 3A       		.uleb128 0x3a
 1799 005c 0B       		.uleb128 0xb
 1800 005d 3B       		.uleb128 0x3b
 1801 005e 0B       		.uleb128 0xb
 1802 005f 49       		.uleb128 0x49
 1803 0060 13       		.uleb128 0x13
 1804 0061 38       		.uleb128 0x38
 1805 0062 0A       		.uleb128 0xa
 1806 0063 00       		.byte	0
 1807 0064 00       		.byte	0
 1808 0065 08       		.uleb128 0x8
 1809 0066 13       		.uleb128 0x13
 1810 0067 01       		.byte	0x1
 1811 0068 0B       		.uleb128 0xb
 1812 0069 0B       		.uleb128 0xb
 1813 006a 3A       		.uleb128 0x3a
 1814 006b 0B       		.uleb128 0xb
 1815 006c 3B       		.uleb128 0x3b
 1816 006d 0B       		.uleb128 0xb
ARM GAS  C:\Users\Elis\AppData\Local\Temp\ccI10hpc.s 			page 33


 1817 006e 01       		.uleb128 0x1
 1818 006f 13       		.uleb128 0x13
 1819 0070 00       		.byte	0
 1820 0071 00       		.byte	0
 1821 0072 09       		.uleb128 0x9
 1822 0073 0F       		.uleb128 0xf
 1823 0074 00       		.byte	0
 1824 0075 0B       		.uleb128 0xb
 1825 0076 0B       		.uleb128 0xb
 1826 0077 49       		.uleb128 0x49
 1827 0078 13       		.uleb128 0x13
 1828 0079 00       		.byte	0
 1829 007a 00       		.byte	0
 1830 007b 0A       		.uleb128 0xa
 1831 007c 0F       		.uleb128 0xf
 1832 007d 00       		.byte	0
 1833 007e 0B       		.uleb128 0xb
 1834 007f 0B       		.uleb128 0xb
 1835 0080 00       		.byte	0
 1836 0081 00       		.byte	0
 1837 0082 0B       		.uleb128 0xb
 1838 0083 13       		.uleb128 0x13
 1839 0084 01       		.byte	0x1
 1840 0085 03       		.uleb128 0x3
 1841 0086 0E       		.uleb128 0xe
 1842 0087 0B       		.uleb128 0xb
 1843 0088 0B       		.uleb128 0xb
 1844 0089 3A       		.uleb128 0x3a
 1845 008a 0B       		.uleb128 0xb
 1846 008b 3B       		.uleb128 0x3b
 1847 008c 05       		.uleb128 0x5
 1848 008d 01       		.uleb128 0x1
 1849 008e 13       		.uleb128 0x13
 1850 008f 00       		.byte	0
 1851 0090 00       		.byte	0
 1852 0091 0C       		.uleb128 0xc
 1853 0092 0D       		.uleb128 0xd
 1854 0093 00       		.byte	0
 1855 0094 03       		.uleb128 0x3
 1856 0095 08       		.uleb128 0x8
 1857 0096 3A       		.uleb128 0x3a
 1858 0097 0B       		.uleb128 0xb
 1859 0098 3B       		.uleb128 0x3b
 1860 0099 05       		.uleb128 0x5
 1861 009a 49       		.uleb128 0x49
 1862 009b 13       		.uleb128 0x13
 1863 009c 38       		.uleb128 0x38
 1864 009d 0A       		.uleb128 0xa
 1865 009e 00       		.byte	0
 1866 009f 00       		.byte	0
 1867 00a0 0D       		.uleb128 0xd
 1868 00a1 35       		.uleb128 0x35
 1869 00a2 00       		.byte	0
 1870 00a3 49       		.uleb128 0x49
 1871 00a4 13       		.uleb128 0x13
 1872 00a5 00       		.byte	0
 1873 00a6 00       		.byte	0
ARM GAS  C:\Users\Elis\AppData\Local\Temp\ccI10hpc.s 			page 34


 1874 00a7 0E       		.uleb128 0xe
 1875 00a8 17       		.uleb128 0x17
 1876 00a9 01       		.byte	0x1
 1877 00aa 0B       		.uleb128 0xb
 1878 00ab 0B       		.uleb128 0xb
 1879 00ac 3A       		.uleb128 0x3a
 1880 00ad 0B       		.uleb128 0xb
 1881 00ae 3B       		.uleb128 0x3b
 1882 00af 0B       		.uleb128 0xb
 1883 00b0 01       		.uleb128 0x1
 1884 00b1 13       		.uleb128 0x13
 1885 00b2 00       		.byte	0
 1886 00b3 00       		.byte	0
 1887 00b4 0F       		.uleb128 0xf
 1888 00b5 0D       		.uleb128 0xd
 1889 00b6 00       		.byte	0
 1890 00b7 03       		.uleb128 0x3
 1891 00b8 0E       		.uleb128 0xe
 1892 00b9 3A       		.uleb128 0x3a
 1893 00ba 0B       		.uleb128 0xb
 1894 00bb 3B       		.uleb128 0x3b
 1895 00bc 0B       		.uleb128 0xb
 1896 00bd 49       		.uleb128 0x49
 1897 00be 13       		.uleb128 0x13
 1898 00bf 00       		.byte	0
 1899 00c0 00       		.byte	0
 1900 00c1 10       		.uleb128 0x10
 1901 00c2 26       		.uleb128 0x26
 1902 00c3 00       		.byte	0
 1903 00c4 49       		.uleb128 0x49
 1904 00c5 13       		.uleb128 0x13
 1905 00c6 00       		.byte	0
 1906 00c7 00       		.byte	0
 1907 00c8 11       		.uleb128 0x11
 1908 00c9 01       		.uleb128 0x1
 1909 00ca 01       		.byte	0x1
 1910 00cb 49       		.uleb128 0x49
 1911 00cc 13       		.uleb128 0x13
 1912 00cd 01       		.uleb128 0x1
 1913 00ce 13       		.uleb128 0x13
 1914 00cf 00       		.byte	0
 1915 00d0 00       		.byte	0
 1916 00d1 12       		.uleb128 0x12
 1917 00d2 21       		.uleb128 0x21
 1918 00d3 00       		.byte	0
 1919 00d4 49       		.uleb128 0x49
 1920 00d5 13       		.uleb128 0x13
 1921 00d6 2F       		.uleb128 0x2f
 1922 00d7 0B       		.uleb128 0xb
 1923 00d8 00       		.byte	0
 1924 00d9 00       		.byte	0
 1925 00da 13       		.uleb128 0x13
 1926 00db 13       		.uleb128 0x13
 1927 00dc 01       		.byte	0x1
 1928 00dd 0B       		.uleb128 0xb
 1929 00de 0B       		.uleb128 0xb
 1930 00df 3A       		.uleb128 0x3a
ARM GAS  C:\Users\Elis\AppData\Local\Temp\ccI10hpc.s 			page 35


 1931 00e0 0B       		.uleb128 0xb
 1932 00e1 3B       		.uleb128 0x3b
 1933 00e2 05       		.uleb128 0x5
 1934 00e3 01       		.uleb128 0x1
 1935 00e4 13       		.uleb128 0x13
 1936 00e5 00       		.byte	0
 1937 00e6 00       		.byte	0
 1938 00e7 14       		.uleb128 0x14
 1939 00e8 0D       		.uleb128 0xd
 1940 00e9 00       		.byte	0
 1941 00ea 03       		.uleb128 0x3
 1942 00eb 0E       		.uleb128 0xe
 1943 00ec 3A       		.uleb128 0x3a
 1944 00ed 0B       		.uleb128 0xb
 1945 00ee 3B       		.uleb128 0x3b
 1946 00ef 05       		.uleb128 0x5
 1947 00f0 49       		.uleb128 0x49
 1948 00f1 13       		.uleb128 0x13
 1949 00f2 38       		.uleb128 0x38
 1950 00f3 0A       		.uleb128 0xa
 1951 00f4 00       		.byte	0
 1952 00f5 00       		.byte	0
 1953 00f6 15       		.uleb128 0x15
 1954 00f7 16       		.uleb128 0x16
 1955 00f8 00       		.byte	0
 1956 00f9 03       		.uleb128 0x3
 1957 00fa 0E       		.uleb128 0xe
 1958 00fb 3A       		.uleb128 0x3a
 1959 00fc 0B       		.uleb128 0xb
 1960 00fd 3B       		.uleb128 0x3b
 1961 00fe 05       		.uleb128 0x5
 1962 00ff 49       		.uleb128 0x49
 1963 0100 13       		.uleb128 0x13
 1964 0101 00       		.byte	0
 1965 0102 00       		.byte	0
 1966 0103 16       		.uleb128 0x16
 1967 0104 04       		.uleb128 0x4
 1968 0105 01       		.byte	0x1
 1969 0106 0B       		.uleb128 0xb
 1970 0107 0B       		.uleb128 0xb
 1971 0108 3A       		.uleb128 0x3a
 1972 0109 0B       		.uleb128 0xb
 1973 010a 3B       		.uleb128 0x3b
 1974 010b 0B       		.uleb128 0xb
 1975 010c 01       		.uleb128 0x1
 1976 010d 13       		.uleb128 0x13
 1977 010e 00       		.byte	0
 1978 010f 00       		.byte	0
 1979 0110 17       		.uleb128 0x17
 1980 0111 28       		.uleb128 0x28
 1981 0112 00       		.byte	0
 1982 0113 03       		.uleb128 0x3
 1983 0114 0E       		.uleb128 0xe
 1984 0115 1C       		.uleb128 0x1c
 1985 0116 0D       		.uleb128 0xd
 1986 0117 00       		.byte	0
 1987 0118 00       		.byte	0
ARM GAS  C:\Users\Elis\AppData\Local\Temp\ccI10hpc.s 			page 36


 1988 0119 18       		.uleb128 0x18
 1989 011a 15       		.uleb128 0x15
 1990 011b 01       		.byte	0x1
 1991 011c 27       		.uleb128 0x27
 1992 011d 0C       		.uleb128 0xc
 1993 011e 49       		.uleb128 0x49
 1994 011f 13       		.uleb128 0x13
 1995 0120 01       		.uleb128 0x1
 1996 0121 13       		.uleb128 0x13
 1997 0122 00       		.byte	0
 1998 0123 00       		.byte	0
 1999 0124 19       		.uleb128 0x19
 2000 0125 05       		.uleb128 0x5
 2001 0126 00       		.byte	0
 2002 0127 49       		.uleb128 0x49
 2003 0128 13       		.uleb128 0x13
 2004 0129 00       		.byte	0
 2005 012a 00       		.byte	0
 2006 012b 1A       		.uleb128 0x1a
 2007 012c 2E       		.uleb128 0x2e
 2008 012d 01       		.byte	0x1
 2009 012e 3F       		.uleb128 0x3f
 2010 012f 0C       		.uleb128 0xc
 2011 0130 03       		.uleb128 0x3
 2012 0131 0E       		.uleb128 0xe
 2013 0132 3A       		.uleb128 0x3a
 2014 0133 0B       		.uleb128 0xb
 2015 0134 3B       		.uleb128 0x3b
 2016 0135 0B       		.uleb128 0xb
 2017 0136 27       		.uleb128 0x27
 2018 0137 0C       		.uleb128 0xc
 2019 0138 49       		.uleb128 0x49
 2020 0139 13       		.uleb128 0x13
 2021 013a 11       		.uleb128 0x11
 2022 013b 01       		.uleb128 0x1
 2023 013c 12       		.uleb128 0x12
 2024 013d 01       		.uleb128 0x1
 2025 013e 40       		.uleb128 0x40
 2026 013f 06       		.uleb128 0x6
 2027 0140 9742     		.uleb128 0x2117
 2028 0142 0C       		.uleb128 0xc
 2029 0143 01       		.uleb128 0x1
 2030 0144 13       		.uleb128 0x13
 2031 0145 00       		.byte	0
 2032 0146 00       		.byte	0
 2033 0147 1B       		.uleb128 0x1b
 2034 0148 05       		.uleb128 0x5
 2035 0149 00       		.byte	0
 2036 014a 03       		.uleb128 0x3
 2037 014b 08       		.uleb128 0x8
 2038 014c 3A       		.uleb128 0x3a
 2039 014d 0B       		.uleb128 0xb
 2040 014e 3B       		.uleb128 0x3b
 2041 014f 0B       		.uleb128 0xb
 2042 0150 49       		.uleb128 0x49
 2043 0151 13       		.uleb128 0x13
 2044 0152 02       		.uleb128 0x2
ARM GAS  C:\Users\Elis\AppData\Local\Temp\ccI10hpc.s 			page 37


 2045 0153 06       		.uleb128 0x6
 2046 0154 00       		.byte	0
 2047 0155 00       		.byte	0
 2048 0156 1C       		.uleb128 0x1c
 2049 0157 34       		.uleb128 0x34
 2050 0158 00       		.byte	0
 2051 0159 03       		.uleb128 0x3
 2052 015a 0E       		.uleb128 0xe
 2053 015b 3A       		.uleb128 0x3a
 2054 015c 0B       		.uleb128 0xb
 2055 015d 3B       		.uleb128 0x3b
 2056 015e 0B       		.uleb128 0xb
 2057 015f 49       		.uleb128 0x49
 2058 0160 13       		.uleb128 0x13
 2059 0161 02       		.uleb128 0x2
 2060 0162 06       		.uleb128 0x6
 2061 0163 00       		.byte	0
 2062 0164 00       		.byte	0
 2063 0165 1D       		.uleb128 0x1d
 2064 0166 898201   		.uleb128 0x4109
 2065 0169 00       		.byte	0
 2066 016a 11       		.uleb128 0x11
 2067 016b 01       		.uleb128 0x1
 2068 016c 31       		.uleb128 0x31
 2069 016d 13       		.uleb128 0x13
 2070 016e 00       		.byte	0
 2071 016f 00       		.byte	0
 2072 0170 1E       		.uleb128 0x1e
 2073 0171 05       		.uleb128 0x5
 2074 0172 00       		.byte	0
 2075 0173 03       		.uleb128 0x3
 2076 0174 0E       		.uleb128 0xe
 2077 0175 3A       		.uleb128 0x3a
 2078 0176 0B       		.uleb128 0xb
 2079 0177 3B       		.uleb128 0x3b
 2080 0178 0B       		.uleb128 0xb
 2081 0179 49       		.uleb128 0x49
 2082 017a 13       		.uleb128 0x13
 2083 017b 02       		.uleb128 0x2
 2084 017c 06       		.uleb128 0x6
 2085 017d 00       		.byte	0
 2086 017e 00       		.byte	0
 2087 017f 1F       		.uleb128 0x1f
 2088 0180 898201   		.uleb128 0x4109
 2089 0183 01       		.byte	0x1
 2090 0184 11       		.uleb128 0x11
 2091 0185 01       		.uleb128 0x1
 2092 0186 9542     		.uleb128 0x2115
 2093 0188 0C       		.uleb128 0xc
 2094 0189 31       		.uleb128 0x31
 2095 018a 13       		.uleb128 0x13
 2096 018b 00       		.byte	0
 2097 018c 00       		.byte	0
 2098 018d 20       		.uleb128 0x20
 2099 018e 8A8201   		.uleb128 0x410a
 2100 0191 00       		.byte	0
 2101 0192 02       		.uleb128 0x2
ARM GAS  C:\Users\Elis\AppData\Local\Temp\ccI10hpc.s 			page 38


 2102 0193 0A       		.uleb128 0xa
 2103 0194 9142     		.uleb128 0x2111
 2104 0196 0A       		.uleb128 0xa
 2105 0197 00       		.byte	0
 2106 0198 00       		.byte	0
 2107 0199 21       		.uleb128 0x21
 2108 019a 2E       		.uleb128 0x2e
 2109 019b 01       		.byte	0x1
 2110 019c 3F       		.uleb128 0x3f
 2111 019d 0C       		.uleb128 0xc
 2112 019e 03       		.uleb128 0x3
 2113 019f 0E       		.uleb128 0xe
 2114 01a0 3A       		.uleb128 0x3a
 2115 01a1 0B       		.uleb128 0xb
 2116 01a2 3B       		.uleb128 0x3b
 2117 01a3 0B       		.uleb128 0xb
 2118 01a4 27       		.uleb128 0x27
 2119 01a5 0C       		.uleb128 0xc
 2120 01a6 49       		.uleb128 0x49
 2121 01a7 13       		.uleb128 0x13
 2122 01a8 11       		.uleb128 0x11
 2123 01a9 01       		.uleb128 0x1
 2124 01aa 12       		.uleb128 0x12
 2125 01ab 01       		.uleb128 0x1
 2126 01ac 40       		.uleb128 0x40
 2127 01ad 0A       		.uleb128 0xa
 2128 01ae 9742     		.uleb128 0x2117
 2129 01b0 0C       		.uleb128 0xc
 2130 01b1 01       		.uleb128 0x1
 2131 01b2 13       		.uleb128 0x13
 2132 01b3 00       		.byte	0
 2133 01b4 00       		.byte	0
 2134 01b5 22       		.uleb128 0x22
 2135 01b6 05       		.uleb128 0x5
 2136 01b7 00       		.byte	0
 2137 01b8 03       		.uleb128 0x3
 2138 01b9 0E       		.uleb128 0xe
 2139 01ba 3A       		.uleb128 0x3a
 2140 01bb 0B       		.uleb128 0xb
 2141 01bc 3B       		.uleb128 0x3b
 2142 01bd 0B       		.uleb128 0xb
 2143 01be 49       		.uleb128 0x49
 2144 01bf 13       		.uleb128 0x13
 2145 01c0 02       		.uleb128 0x2
 2146 01c1 0A       		.uleb128 0xa
 2147 01c2 00       		.byte	0
 2148 01c3 00       		.byte	0
 2149 01c4 23       		.uleb128 0x23
 2150 01c5 2E       		.uleb128 0x2e
 2151 01c6 00       		.byte	0
 2152 01c7 3F       		.uleb128 0x3f
 2153 01c8 0C       		.uleb128 0xc
 2154 01c9 03       		.uleb128 0x3
 2155 01ca 0E       		.uleb128 0xe
 2156 01cb 3A       		.uleb128 0x3a
 2157 01cc 0B       		.uleb128 0xb
 2158 01cd 3B       		.uleb128 0x3b
ARM GAS  C:\Users\Elis\AppData\Local\Temp\ccI10hpc.s 			page 39


 2159 01ce 0B       		.uleb128 0xb
 2160 01cf 27       		.uleb128 0x27
 2161 01d0 0C       		.uleb128 0xc
 2162 01d1 49       		.uleb128 0x49
 2163 01d2 13       		.uleb128 0x13
 2164 01d3 11       		.uleb128 0x11
 2165 01d4 01       		.uleb128 0x1
 2166 01d5 12       		.uleb128 0x12
 2167 01d6 01       		.uleb128 0x1
 2168 01d7 40       		.uleb128 0x40
 2169 01d8 0A       		.uleb128 0xa
 2170 01d9 9742     		.uleb128 0x2117
 2171 01db 0C       		.uleb128 0xc
 2172 01dc 00       		.byte	0
 2173 01dd 00       		.byte	0
 2174 01de 24       		.uleb128 0x24
 2175 01df 34       		.uleb128 0x34
 2176 01e0 00       		.byte	0
 2177 01e1 03       		.uleb128 0x3
 2178 01e2 0E       		.uleb128 0xe
 2179 01e3 3A       		.uleb128 0x3a
 2180 01e4 0B       		.uleb128 0xb
 2181 01e5 3B       		.uleb128 0x3b
 2182 01e6 05       		.uleb128 0x5
 2183 01e7 49       		.uleb128 0x49
 2184 01e8 13       		.uleb128 0x13
 2185 01e9 3F       		.uleb128 0x3f
 2186 01ea 0C       		.uleb128 0xc
 2187 01eb 3C       		.uleb128 0x3c
 2188 01ec 0C       		.uleb128 0xc
 2189 01ed 00       		.byte	0
 2190 01ee 00       		.byte	0
 2191 01ef 25       		.uleb128 0x25
 2192 01f0 34       		.uleb128 0x34
 2193 01f1 00       		.byte	0
 2194 01f2 03       		.uleb128 0x3
 2195 01f3 0E       		.uleb128 0xe
 2196 01f4 3A       		.uleb128 0x3a
 2197 01f5 0B       		.uleb128 0xb
 2198 01f6 3B       		.uleb128 0x3b
 2199 01f7 0B       		.uleb128 0xb
 2200 01f8 49       		.uleb128 0x49
 2201 01f9 13       		.uleb128 0x13
 2202 01fa 3F       		.uleb128 0x3f
 2203 01fb 0C       		.uleb128 0xc
 2204 01fc 3C       		.uleb128 0x3c
 2205 01fd 0C       		.uleb128 0xc
 2206 01fe 00       		.byte	0
 2207 01ff 00       		.byte	0
 2208 0200 26       		.uleb128 0x26
 2209 0201 2E       		.uleb128 0x2e
 2210 0202 01       		.byte	0x1
 2211 0203 3F       		.uleb128 0x3f
 2212 0204 0C       		.uleb128 0xc
 2213 0205 03       		.uleb128 0x3
 2214 0206 0E       		.uleb128 0xe
 2215 0207 3A       		.uleb128 0x3a
ARM GAS  C:\Users\Elis\AppData\Local\Temp\ccI10hpc.s 			page 40


 2216 0208 0B       		.uleb128 0xb
 2217 0209 3B       		.uleb128 0x3b
 2218 020a 05       		.uleb128 0x5
 2219 020b 27       		.uleb128 0x27
 2220 020c 0C       		.uleb128 0xc
 2221 020d 49       		.uleb128 0x49
 2222 020e 13       		.uleb128 0x13
 2223 020f 3C       		.uleb128 0x3c
 2224 0210 0C       		.uleb128 0xc
 2225 0211 01       		.uleb128 0x1
 2226 0212 13       		.uleb128 0x13
 2227 0213 00       		.byte	0
 2228 0214 00       		.byte	0
 2229 0215 27       		.uleb128 0x27
 2230 0216 2E       		.uleb128 0x2e
 2231 0217 01       		.byte	0x1
 2232 0218 3F       		.uleb128 0x3f
 2233 0219 0C       		.uleb128 0xc
 2234 021a 03       		.uleb128 0x3
 2235 021b 0E       		.uleb128 0xe
 2236 021c 3A       		.uleb128 0x3a
 2237 021d 0B       		.uleb128 0xb
 2238 021e 3B       		.uleb128 0x3b
 2239 021f 0B       		.uleb128 0xb
 2240 0220 27       		.uleb128 0x27
 2241 0221 0C       		.uleb128 0xc
 2242 0222 49       		.uleb128 0x49
 2243 0223 13       		.uleb128 0x13
 2244 0224 3C       		.uleb128 0x3c
 2245 0225 0C       		.uleb128 0xc
 2246 0226 01       		.uleb128 0x1
 2247 0227 13       		.uleb128 0x13
 2248 0228 00       		.byte	0
 2249 0229 00       		.byte	0
 2250 022a 28       		.uleb128 0x28
 2251 022b 2E       		.uleb128 0x2e
 2252 022c 01       		.byte	0x1
 2253 022d 3F       		.uleb128 0x3f
 2254 022e 0C       		.uleb128 0xc
 2255 022f 03       		.uleb128 0x3
 2256 0230 0E       		.uleb128 0xe
 2257 0231 3A       		.uleb128 0x3a
 2258 0232 0B       		.uleb128 0xb
 2259 0233 3B       		.uleb128 0x3b
 2260 0234 0B       		.uleb128 0xb
 2261 0235 27       		.uleb128 0x27
 2262 0236 0C       		.uleb128 0xc
 2263 0237 49       		.uleb128 0x49
 2264 0238 13       		.uleb128 0x13
 2265 0239 3C       		.uleb128 0x3c
 2266 023a 0C       		.uleb128 0xc
 2267 023b 00       		.byte	0
 2268 023c 00       		.byte	0
 2269 023d 00       		.byte	0
 2270              		.section	.debug_loc,"",%progbits
 2271              	.Ldebug_loc0:
 2272              	.LLST0:
ARM GAS  C:\Users\Elis\AppData\Local\Temp\ccI10hpc.s 			page 41


 2273 0000 00000000 		.4byte	.LFB118
 2274 0004 02000000 		.4byte	.LCFI0
 2275 0008 0200     		.2byte	0x2
 2276 000a 7D       		.byte	0x7d
 2277 000b 00       		.sleb128 0
 2278 000c 02000000 		.4byte	.LCFI0
 2279 0010 28000000 		.4byte	.LFE118
 2280 0014 0200     		.2byte	0x2
 2281 0016 7D       		.byte	0x7d
 2282 0017 08       		.sleb128 8
 2283 0018 00000000 		.4byte	0
 2284 001c 00000000 		.4byte	0
 2285              	.LLST1:
 2286 0020 00000000 		.4byte	.LVL0
 2287 0024 06000000 		.4byte	.LVL2
 2288 0028 0100     		.2byte	0x1
 2289 002a 50       		.byte	0x50
 2290 002b 06000000 		.4byte	.LVL2
 2291 002f 1E000000 		.4byte	.LVL6
 2292 0033 0400     		.2byte	0x4
 2293 0035 F3       		.byte	0xf3
 2294 0036 01       		.uleb128 0x1
 2295 0037 50       		.byte	0x50
 2296 0038 9F       		.byte	0x9f
 2297 0039 1E000000 		.4byte	.LVL6
 2298 003d 22000000 		.4byte	.LVL7
 2299 0041 0100     		.2byte	0x1
 2300 0043 50       		.byte	0x50
 2301 0044 22000000 		.4byte	.LVL7
 2302 0048 28000000 		.4byte	.LFE118
 2303 004c 0400     		.2byte	0x4
 2304 004e F3       		.byte	0xf3
 2305 004f 01       		.uleb128 0x1
 2306 0050 50       		.byte	0x50
 2307 0051 9F       		.byte	0x9f
 2308 0052 00000000 		.4byte	0
 2309 0056 00000000 		.4byte	0
 2310              	.LLST2:
 2311 005a 04000000 		.4byte	.LVL1
 2312 005e 0E000000 		.4byte	.LVL3
 2313 0062 0200     		.2byte	0x2
 2314 0064 30       		.byte	0x30
 2315 0065 9F       		.byte	0x9f
 2316 0066 0E000000 		.4byte	.LVL3
 2317 006a 11000000 		.4byte	.LVL4-1
 2318 006e 0A00     		.2byte	0xa
 2319 0070 70       		.byte	0x70
 2320 0071 04       		.sleb128 4
 2321 0072 94       		.byte	0x94
 2322 0073 01       		.byte	0x1
 2323 0074 08       		.byte	0x8
 2324 0075 FF       		.byte	0xff
 2325 0076 1A       		.byte	0x1a
 2326 0077 35       		.byte	0x35
 2327 0078 2E       		.byte	0x2e
 2328 0079 9F       		.byte	0x9f
 2329 007a 00000000 		.4byte	0
ARM GAS  C:\Users\Elis\AppData\Local\Temp\ccI10hpc.s 			page 42


 2330 007e 00000000 		.4byte	0
 2331              	.LLST3:
 2332 0082 00000000 		.4byte	.LFB119
 2333 0086 02000000 		.4byte	.LCFI1
 2334 008a 0200     		.2byte	0x2
 2335 008c 7D       		.byte	0x7d
 2336 008d 00       		.sleb128 0
 2337 008e 02000000 		.4byte	.LCFI1
 2338 0092 28000000 		.4byte	.LFE119
 2339 0096 0200     		.2byte	0x2
 2340 0098 7D       		.byte	0x7d
 2341 0099 08       		.sleb128 8
 2342 009a 00000000 		.4byte	0
 2343 009e 00000000 		.4byte	0
 2344              	.LLST4:
 2345 00a2 00000000 		.4byte	.LVL8
 2346 00a6 06000000 		.4byte	.LVL10
 2347 00aa 0100     		.2byte	0x1
 2348 00ac 50       		.byte	0x50
 2349 00ad 06000000 		.4byte	.LVL10
 2350 00b1 1E000000 		.4byte	.LVL14
 2351 00b5 0400     		.2byte	0x4
 2352 00b7 F3       		.byte	0xf3
 2353 00b8 01       		.uleb128 0x1
 2354 00b9 50       		.byte	0x50
 2355 00ba 9F       		.byte	0x9f
 2356 00bb 1E000000 		.4byte	.LVL14
 2357 00bf 22000000 		.4byte	.LVL15
 2358 00c3 0100     		.2byte	0x1
 2359 00c5 50       		.byte	0x50
 2360 00c6 22000000 		.4byte	.LVL15
 2361 00ca 28000000 		.4byte	.LFE119
 2362 00ce 0400     		.2byte	0x4
 2363 00d0 F3       		.byte	0xf3
 2364 00d1 01       		.uleb128 0x1
 2365 00d2 50       		.byte	0x50
 2366 00d3 9F       		.byte	0x9f
 2367 00d4 00000000 		.4byte	0
 2368 00d8 00000000 		.4byte	0
 2369              	.LLST5:
 2370 00dc 04000000 		.4byte	.LVL9
 2371 00e0 0E000000 		.4byte	.LVL11
 2372 00e4 0200     		.2byte	0x2
 2373 00e6 30       		.byte	0x30
 2374 00e7 9F       		.byte	0x9f
 2375 00e8 0E000000 		.4byte	.LVL11
 2376 00ec 11000000 		.4byte	.LVL12-1
 2377 00f0 0A00     		.2byte	0xa
 2378 00f2 70       		.byte	0x70
 2379 00f3 04       		.sleb128 4
 2380 00f4 94       		.byte	0x94
 2381 00f5 01       		.byte	0x1
 2382 00f6 08       		.byte	0x8
 2383 00f7 FF       		.byte	0xff
 2384 00f8 1A       		.byte	0x1a
 2385 00f9 35       		.byte	0x35
 2386 00fa 2E       		.byte	0x2e
ARM GAS  C:\Users\Elis\AppData\Local\Temp\ccI10hpc.s 			page 43


 2387 00fb 9F       		.byte	0x9f
 2388 00fc 00000000 		.4byte	0
 2389 0100 00000000 		.4byte	0
 2390              	.LLST6:
 2391 0104 00000000 		.4byte	.LFB120
 2392 0108 02000000 		.4byte	.LCFI2
 2393 010c 0200     		.2byte	0x2
 2394 010e 7D       		.byte	0x7d
 2395 010f 00       		.sleb128 0
 2396 0110 02000000 		.4byte	.LCFI2
 2397 0114 28000000 		.4byte	.LFE120
 2398 0118 0200     		.2byte	0x2
 2399 011a 7D       		.byte	0x7d
 2400 011b 04       		.sleb128 4
 2401 011c 00000000 		.4byte	0
 2402 0120 00000000 		.4byte	0
 2403              	.LLST7:
 2404 0124 00000000 		.4byte	.LVL16
 2405 0128 08000000 		.4byte	.LVL17
 2406 012c 0100     		.2byte	0x1
 2407 012e 50       		.byte	0x50
 2408 012f 08000000 		.4byte	.LVL17
 2409 0133 12000000 		.4byte	.LVL19
 2410 0137 0400     		.2byte	0x4
 2411 0139 F3       		.byte	0xf3
 2412 013a 01       		.uleb128 0x1
 2413 013b 50       		.byte	0x50
 2414 013c 9F       		.byte	0x9f
 2415 013d 12000000 		.4byte	.LVL19
 2416 0141 14000000 		.4byte	.LVL20
 2417 0145 0100     		.2byte	0x1
 2418 0147 50       		.byte	0x50
 2419 0148 14000000 		.4byte	.LVL20
 2420 014c 28000000 		.4byte	.LFE120
 2421 0150 0400     		.2byte	0x4
 2422 0152 F3       		.byte	0xf3
 2423 0153 01       		.uleb128 0x1
 2424 0154 50       		.byte	0x50
 2425 0155 9F       		.byte	0x9f
 2426 0156 00000000 		.4byte	0
 2427 015a 00000000 		.4byte	0
 2428              	.LLST8:
 2429 015e 00000000 		.4byte	.LVL16
 2430 0162 0A000000 		.4byte	.LVL18
 2431 0166 0100     		.2byte	0x1
 2432 0168 51       		.byte	0x51
 2433 0169 0A000000 		.4byte	.LVL18
 2434 016d 12000000 		.4byte	.LVL19
 2435 0171 0100     		.2byte	0x1
 2436 0173 54       		.byte	0x54
 2437 0174 12000000 		.4byte	.LVL19
 2438 0178 14000000 		.4byte	.LVL20
 2439 017c 0100     		.2byte	0x1
 2440 017e 51       		.byte	0x51
 2441 017f 14000000 		.4byte	.LVL20
 2442 0183 28000000 		.4byte	.LFE120
 2443 0187 0100     		.2byte	0x1
ARM GAS  C:\Users\Elis\AppData\Local\Temp\ccI10hpc.s 			page 44


 2444 0189 54       		.byte	0x54
 2445 018a 00000000 		.4byte	0
 2446 018e 00000000 		.4byte	0
 2447              	.LLST9:
 2448 0192 00000000 		.4byte	.LVL16
 2449 0196 1C000000 		.4byte	.LVL21
 2450 019a 0100     		.2byte	0x1
 2451 019c 52       		.byte	0x52
 2452 019d 1C000000 		.4byte	.LVL21
 2453 01a1 21000000 		.4byte	.LVL22-1
 2454 01a5 0100     		.2byte	0x1
 2455 01a7 51       		.byte	0x51
 2456 01a8 21000000 		.4byte	.LVL22-1
 2457 01ac 28000000 		.4byte	.LFE120
 2458 01b0 0400     		.2byte	0x4
 2459 01b2 F3       		.byte	0xf3
 2460 01b3 01       		.uleb128 0x1
 2461 01b4 52       		.byte	0x52
 2462 01b5 9F       		.byte	0x9f
 2463 01b6 00000000 		.4byte	0
 2464 01ba 00000000 		.4byte	0
 2465              	.LLST10:
 2466 01be 00000000 		.4byte	.LVL16
 2467 01c2 21000000 		.4byte	.LVL22-1
 2468 01c6 0100     		.2byte	0x1
 2469 01c8 53       		.byte	0x53
 2470 01c9 21000000 		.4byte	.LVL22-1
 2471 01cd 28000000 		.4byte	.LFE120
 2472 01d1 0400     		.2byte	0x4
 2473 01d3 F3       		.byte	0xf3
 2474 01d4 01       		.uleb128 0x1
 2475 01d5 53       		.byte	0x53
 2476 01d6 9F       		.byte	0x9f
 2477 01d7 00000000 		.4byte	0
 2478 01db 00000000 		.4byte	0
 2479              	.LLST11:
 2480 01df 00000000 		.4byte	.LFB121
 2481 01e3 02000000 		.4byte	.LCFI3
 2482 01e7 0200     		.2byte	0x2
 2483 01e9 7D       		.byte	0x7d
 2484 01ea 00       		.sleb128 0
 2485 01eb 02000000 		.4byte	.LCFI3
 2486 01ef 28000000 		.4byte	.LFE121
 2487 01f3 0200     		.2byte	0x2
 2488 01f5 7D       		.byte	0x7d
 2489 01f6 04       		.sleb128 4
 2490 01f7 00000000 		.4byte	0
 2491 01fb 00000000 		.4byte	0
 2492              	.LLST12:
 2493 01ff 00000000 		.4byte	.LVL23
 2494 0203 08000000 		.4byte	.LVL24
 2495 0207 0100     		.2byte	0x1
 2496 0209 50       		.byte	0x50
 2497 020a 08000000 		.4byte	.LVL24
 2498 020e 12000000 		.4byte	.LVL26
 2499 0212 0400     		.2byte	0x4
 2500 0214 F3       		.byte	0xf3
ARM GAS  C:\Users\Elis\AppData\Local\Temp\ccI10hpc.s 			page 45


 2501 0215 01       		.uleb128 0x1
 2502 0216 50       		.byte	0x50
 2503 0217 9F       		.byte	0x9f
 2504 0218 12000000 		.4byte	.LVL26
 2505 021c 14000000 		.4byte	.LVL27
 2506 0220 0100     		.2byte	0x1
 2507 0222 50       		.byte	0x50
 2508 0223 14000000 		.4byte	.LVL27
 2509 0227 28000000 		.4byte	.LFE121
 2510 022b 0400     		.2byte	0x4
 2511 022d F3       		.byte	0xf3
 2512 022e 01       		.uleb128 0x1
 2513 022f 50       		.byte	0x50
 2514 0230 9F       		.byte	0x9f
 2515 0231 00000000 		.4byte	0
 2516 0235 00000000 		.4byte	0
 2517              	.LLST13:
 2518 0239 00000000 		.4byte	.LVL23
 2519 023d 0A000000 		.4byte	.LVL25
 2520 0241 0100     		.2byte	0x1
 2521 0243 51       		.byte	0x51
 2522 0244 0A000000 		.4byte	.LVL25
 2523 0248 12000000 		.4byte	.LVL26
 2524 024c 0100     		.2byte	0x1
 2525 024e 54       		.byte	0x54
 2526 024f 12000000 		.4byte	.LVL26
 2527 0253 14000000 		.4byte	.LVL27
 2528 0257 0100     		.2byte	0x1
 2529 0259 51       		.byte	0x51
 2530 025a 14000000 		.4byte	.LVL27
 2531 025e 28000000 		.4byte	.LFE121
 2532 0262 0100     		.2byte	0x1
 2533 0264 54       		.byte	0x54
 2534 0265 00000000 		.4byte	0
 2535 0269 00000000 		.4byte	0
 2536              	.LLST14:
 2537 026d 00000000 		.4byte	.LVL23
 2538 0271 1C000000 		.4byte	.LVL28
 2539 0275 0100     		.2byte	0x1
 2540 0277 52       		.byte	0x52
 2541 0278 1C000000 		.4byte	.LVL28
 2542 027c 21000000 		.4byte	.LVL29-1
 2543 0280 0100     		.2byte	0x1
 2544 0282 51       		.byte	0x51
 2545 0283 21000000 		.4byte	.LVL29-1
 2546 0287 28000000 		.4byte	.LFE121
 2547 028b 0400     		.2byte	0x4
 2548 028d F3       		.byte	0xf3
 2549 028e 01       		.uleb128 0x1
 2550 028f 52       		.byte	0x52
 2551 0290 9F       		.byte	0x9f
 2552 0291 00000000 		.4byte	0
 2553 0295 00000000 		.4byte	0
 2554              	.LLST15:
 2555 0299 00000000 		.4byte	.LVL23
 2556 029d 21000000 		.4byte	.LVL29-1
 2557 02a1 0100     		.2byte	0x1
ARM GAS  C:\Users\Elis\AppData\Local\Temp\ccI10hpc.s 			page 46


 2558 02a3 53       		.byte	0x53
 2559 02a4 21000000 		.4byte	.LVL29-1
 2560 02a8 28000000 		.4byte	.LFE121
 2561 02ac 0400     		.2byte	0x4
 2562 02ae F3       		.byte	0xf3
 2563 02af 01       		.uleb128 0x1
 2564 02b0 53       		.byte	0x53
 2565 02b1 9F       		.byte	0x9f
 2566 02b2 00000000 		.4byte	0
 2567 02b6 00000000 		.4byte	0
 2568              	.LLST16:
 2569 02ba 00000000 		.4byte	.LVL30
 2570 02be 10000000 		.4byte	.LVL31
 2571 02c2 0100     		.2byte	0x1
 2572 02c4 50       		.byte	0x50
 2573 02c5 10000000 		.4byte	.LVL31
 2574 02c9 12000000 		.4byte	.LVL32
 2575 02cd 0400     		.2byte	0x4
 2576 02cf F3       		.byte	0xf3
 2577 02d0 01       		.uleb128 0x1
 2578 02d1 50       		.byte	0x50
 2579 02d2 9F       		.byte	0x9f
 2580 02d3 12000000 		.4byte	.LVL32
 2581 02d7 1A000000 		.4byte	.LVL33
 2582 02db 0100     		.2byte	0x1
 2583 02dd 50       		.byte	0x50
 2584 02de 1A000000 		.4byte	.LVL33
 2585 02e2 1C000000 		.4byte	.LVL34
 2586 02e6 0400     		.2byte	0x4
 2587 02e8 F3       		.byte	0xf3
 2588 02e9 01       		.uleb128 0x1
 2589 02ea 50       		.byte	0x50
 2590 02eb 9F       		.byte	0x9f
 2591 02ec 1C000000 		.4byte	.LVL34
 2592 02f0 22000000 		.4byte	.LVL36
 2593 02f4 0100     		.2byte	0x1
 2594 02f6 50       		.byte	0x50
 2595 02f7 22000000 		.4byte	.LVL36
 2596 02fb 26000000 		.4byte	.LVL37
 2597 02ff 0400     		.2byte	0x4
 2598 0301 F3       		.byte	0xf3
 2599 0302 01       		.uleb128 0x1
 2600 0303 50       		.byte	0x50
 2601 0304 9F       		.byte	0x9f
 2602 0305 26000000 		.4byte	.LVL37
 2603 0309 2A000000 		.4byte	.LVL38
 2604 030d 0100     		.2byte	0x1
 2605 030f 50       		.byte	0x50
 2606 0310 2A000000 		.4byte	.LVL38
 2607 0314 34000000 		.4byte	.LFE122
 2608 0318 0400     		.2byte	0x4
 2609 031a F3       		.byte	0xf3
 2610 031b 01       		.uleb128 0x1
 2611 031c 50       		.byte	0x50
 2612 031d 9F       		.byte	0x9f
 2613 031e 00000000 		.4byte	0
 2614 0322 00000000 		.4byte	0
ARM GAS  C:\Users\Elis\AppData\Local\Temp\ccI10hpc.s 			page 47


 2615              	.LLST17:
 2616 0326 00000000 		.4byte	.LVL30
 2617 032a 1E000000 		.4byte	.LVL35
 2618 032e 0100     		.2byte	0x1
 2619 0330 51       		.byte	0x51
 2620 0331 1E000000 		.4byte	.LVL35
 2621 0335 26000000 		.4byte	.LVL37
 2622 0339 0400     		.2byte	0x4
 2623 033b F3       		.byte	0xf3
 2624 033c 01       		.uleb128 0x1
 2625 033d 51       		.byte	0x51
 2626 033e 9F       		.byte	0x9f
 2627 033f 26000000 		.4byte	.LVL37
 2628 0343 34000000 		.4byte	.LFE122
 2629 0347 0100     		.2byte	0x1
 2630 0349 51       		.byte	0x51
 2631 034a 00000000 		.4byte	0
 2632 034e 00000000 		.4byte	0
 2633              		.section	.debug_aranges,"",%progbits
 2634 0000 44000000 		.4byte	0x44
 2635 0004 0200     		.2byte	0x2
 2636 0006 00000000 		.4byte	.Ldebug_info0
 2637 000a 04       		.byte	0x4
 2638 000b 00       		.byte	0
 2639 000c 0000     		.2byte	0
 2640 000e 0000     		.2byte	0
 2641 0010 00000000 		.4byte	.LFB118
 2642 0014 28000000 		.4byte	.LFE118-.LFB118
 2643 0018 00000000 		.4byte	.LFB119
 2644 001c 28000000 		.4byte	.LFE119-.LFB119
 2645 0020 00000000 		.4byte	.LFB120
 2646 0024 28000000 		.4byte	.LFE120-.LFB120
 2647 0028 00000000 		.4byte	.LFB121
 2648 002c 28000000 		.4byte	.LFE121-.LFB121
 2649 0030 00000000 		.4byte	.LFB122
 2650 0034 34000000 		.4byte	.LFE122-.LFB122
 2651 0038 00000000 		.4byte	.LFB123
 2652 003c 06000000 		.4byte	.LFE123-.LFB123
 2653 0040 00000000 		.4byte	0
 2654 0044 00000000 		.4byte	0
 2655              		.section	.debug_ranges,"",%progbits
 2656              	.Ldebug_ranges0:
 2657 0000 00000000 		.4byte	.LFB118
 2658 0004 28000000 		.4byte	.LFE118
 2659 0008 00000000 		.4byte	.LFB119
 2660 000c 28000000 		.4byte	.LFE119
 2661 0010 00000000 		.4byte	.LFB120
 2662 0014 28000000 		.4byte	.LFE120
 2663 0018 00000000 		.4byte	.LFB121
 2664 001c 28000000 		.4byte	.LFE121
 2665 0020 00000000 		.4byte	.LFB122
 2666 0024 34000000 		.4byte	.LFE122
 2667 0028 00000000 		.4byte	.LFB123
 2668 002c 06000000 		.4byte	.LFE123
 2669 0030 00000000 		.4byte	0
 2670 0034 00000000 		.4byte	0
 2671              		.section	.debug_line,"",%progbits
ARM GAS  C:\Users\Elis\AppData\Local\Temp\ccI10hpc.s 			page 48


 2672              	.Ldebug_line0:
 2673 0000 2D030000 		.section	.debug_str,"MS",%progbits,1
 2673      02008102 
 2673      00000201 
 2673      FB0E0D00 
 2673      01010101 
 2674              	.LASF79:
 2675 0000 426C6F63 		.ascii	"BlockDeviceInfo\000"
 2675      6B446576 
 2675      69636549 
 2675      6E666F00 
 2676              	.LASF118:
 2677 0010 636F756E 		.ascii	"count\000"
 2677      7400
 2678              	.LASF84:
 2679 0016 63617061 		.ascii	"capacity\000"
 2679      63697479 
 2679      00
 2680              	.LASF108:
 2681 001f 5245535F 		.ascii	"RES_WRPRT\000"
 2681      57525052 
 2681      5400
 2682              	.LASF126:
 2683 0029 474E5520 		.ascii	"GNU C 4.7.4 20140401 (release) [ARM/embedded-4_7-br"
 2683      4320342E 
 2683      372E3420 
 2683      32303134 
 2683      30343031 
 2684 005c 616E6368 		.ascii	"anch revision 209195]\000"
 2684      20726576 
 2684      6973696F 
 2684      6E203230 
 2684      39313935 
 2685              	.LASF58:
 2686 0072 4D304152 		.ascii	"M0AR\000"
 2686      00
 2687              	.LASF34:
 2688 0077 705F7469 		.ascii	"p_time\000"
 2688      6D6500
 2689              	.LASF78:
 2690 007e 626C6B5F 		.ascii	"blk_num\000"
 2690      6E756D00 
 2691              	.LASF52:
 2692 0086 7264796D 		.ascii	"rdymsg\000"
 2692      736700
 2693              	.LASF94:
 2694 008d 69735F70 		.ascii	"is_protected\000"
 2694      726F7465 
 2694      63746564 
 2694      00
 2695              	.LASF123:
 2696 009a 53444344 		.ascii	"SDCD1\000"
 2696      3100
 2697              	.LASF109:
 2698 00a0 5245535F 		.ascii	"RES_NOTRDY\000"
 2698      4E4F5452 
 2698      445900
ARM GAS  C:\Users\Elis\AppData\Local\Temp\ccI10hpc.s 			page 49


 2699              	.LASF61:
 2700 00ab 73747265 		.ascii	"stream\000"
 2700      616D00
 2701              	.LASF11:
 2702 00b2 6C6F6E67 		.ascii	"long long unsigned int\000"
 2702      206C6F6E 
 2702      6720756E 
 2702      7369676E 
 2702      65642069 
 2703              	.LASF53:
 2704 00c9 65786974 		.ascii	"exitcode\000"
 2704      636F6465 
 2704      00
 2705              	.LASF65:
 2706 00d2 76656374 		.ascii	"vector\000"
 2706      6F7200
 2707              	.LASF86:
 2708 00d9 63617264 		.ascii	"cardmode\000"
 2708      6D6F6465 
 2708      00
 2709              	.LASF122:
 2710 00e2 49544D5F 		.ascii	"ITM_RxBuffer\000"
 2710      52784275 
 2710      66666572 
 2710      00
 2711              	.LASF76:
 2712 00ef 626C6B73 		.ascii	"blkstate_t\000"
 2712      74617465 
 2712      5F7400
 2713              	.LASF25:
 2714 00fa 705F7072 		.ascii	"p_prio\000"
 2714      696F00
 2715              	.LASF114:
 2716 0101 73746174 		.ascii	"stat\000"
 2716      00
 2717              	.LASF10:
 2718 0106 6C6F6E67 		.ascii	"long long int\000"
 2718      206C6F6E 
 2718      6720696E 
 2718      7400
 2719              	.LASF1:
 2720 0114 7369676E 		.ascii	"signed char\000"
 2720      65642063 
 2720      68617200 
 2721              	.LASF116:
 2722 0120 62756666 		.ascii	"buff\000"
 2722      00
 2723              	.LASF41:
 2724 0125 705F6D70 		.ascii	"p_mpool\000"
 2724      6F6F6C00 
 2725              	.LASF12:
 2726 012d 626F6F6C 		.ascii	"bool_t\000"
 2726      5F7400
 2727              	.LASF49:
 2728 0134 6D5F7175 		.ascii	"m_queue\000"
 2728      65756500 
 2729              	.LASF128:
ARM GAS  C:\Users\Elis\AppData\Local\Temp\ccI10hpc.s 			page 50


 2730 013c 433A5C43 		.ascii	"C:\\ChibiStudio\\workspace26\\Mobile_phone\000"
 2730      68696269 
 2730      53747564 
 2730      696F5C77 
 2730      6F726B73 
 2731              	.LASF96:
 2732 0164 64697363 		.ascii	"disconnect\000"
 2732      6F6E6E65 
 2732      637400
 2733              	.LASF17:
 2734 016f 74736C69 		.ascii	"tslices_t\000"
 2734      6365735F 
 2734      7400
 2735              	.LASF129:
 2736 0179 6765745F 		.ascii	"get_fattime\000"
 2736      66617474 
 2736      696D6500 
 2737              	.LASF67:
 2738 0185 424C4B5F 		.ascii	"BLK_UNINIT\000"
 2738      554E494E 
 2738      495400
 2739              	.LASF83:
 2740 0190 73746174 		.ascii	"state\000"
 2740      6500
 2741              	.LASF7:
 2742 0196 6C6F6E67 		.ascii	"long int\000"
 2742      20696E74 
 2742      00
 2743              	.LASF103:
 2744 019f 55494E54 		.ascii	"UINT\000"
 2744      00
 2745              	.LASF15:
 2746 01a4 74737461 		.ascii	"tstate_t\000"
 2746      74655F74 
 2746      00
 2747              	.LASF110:
 2748 01ad 5245535F 		.ascii	"RES_PARERR\000"
 2748      50415245 
 2748      525200
 2749              	.LASF68:
 2750 01b8 424C4B5F 		.ascii	"BLK_STOP\000"
 2750      53544F50 
 2750      00
 2751              	.LASF104:
 2752 01c1 44574F52 		.ascii	"DWORD\000"
 2752      4400
 2753              	.LASF27:
 2754 01c7 705F6E65 		.ascii	"p_newer\000"
 2754      77657200 
 2755              	.LASF100:
 2756 01cf 6765745F 		.ascii	"get_info\000"
 2756      696E666F 
 2756      00
 2757              	.LASF44:
 2758 01d8 72656761 		.ascii	"regarm_t\000"
 2758      726D5F74 
 2758      00
ARM GAS  C:\Users\Elis\AppData\Local\Temp\ccI10hpc.s 			page 51


 2759              	.LASF64:
 2760 01e1 73656C66 		.ascii	"selfindex\000"
 2760      696E6465 
 2760      7800
 2761              	.LASF90:
 2762 01eb 64756D6D 		.ascii	"dummy\000"
 2762      7900
 2763              	.LASF77:
 2764 01f1 626C6B5F 		.ascii	"blk_size\000"
 2764      73697A65 
 2764      00
 2765              	.LASF101:
 2766 01fa 42595445 		.ascii	"BYTE\000"
 2766      00
 2767              	.LASF80:
 2768 01ff 7364636D 		.ascii	"sdcmode_t\000"
 2768      6F64655F 
 2768      7400
 2769              	.LASF31:
 2770 0209 705F666C 		.ascii	"p_flags\000"
 2770      61677300 
 2771              	.LASF0:
 2772 0211 756E7369 		.ascii	"unsigned int\000"
 2772      676E6564 
 2772      20696E74 
 2772      00
 2773              	.LASF87:
 2774 021e 6572726F 		.ascii	"errors\000"
 2774      727300
 2775              	.LASF81:
 2776 0225 73646366 		.ascii	"sdcflags_t\000"
 2776      6C616773 
 2776      5F7400
 2777              	.LASF36:
 2778 0230 705F6D73 		.ascii	"p_msgqueue\000"
 2778      67717565 
 2778      756500
 2779              	.LASF113:
 2780 023b 6469736B 		.ascii	"disk_status\000"
 2780      5F737461 
 2780      74757300 
 2781              	.LASF63:
 2782 0247 69736869 		.ascii	"ishift\000"
 2782      667400
 2783              	.LASF4:
 2784 024e 73686F72 		.ascii	"short unsigned int\000"
 2784      7420756E 
 2784      7369676E 
 2784      65642069 
 2784      6E7400
 2785              	.LASF69:
 2786 0261 424C4B5F 		.ascii	"BLK_ACTIVE\000"
 2786      41435449 
 2786      564500
 2787              	.LASF124:
 2788 026c 7364635F 		.ascii	"sdc_lld_is_write_protected\000"
 2788      6C6C645F 
ARM GAS  C:\Users\Elis\AppData\Local\Temp\ccI10hpc.s 			page 52


 2788      69735F77 
 2788      72697465 
 2788      5F70726F 
 2789              	.LASF19:
 2790 0287 6D73675F 		.ascii	"msg_t\000"
 2790      7400
 2791              	.LASF70:
 2792 028d 424C4B5F 		.ascii	"BLK_CONNECTING\000"
 2792      434F4E4E 
 2792      45435449 
 2792      4E4700
 2793              	.LASF14:
 2794 029c 746D6F64 		.ascii	"tmode_t\000"
 2794      655F7400 
 2795              	.LASF117:
 2796 02a4 73656374 		.ascii	"sector\000"
 2796      6F7200
 2797              	.LASF43:
 2798 02ab 54687265 		.ascii	"ThreadsList\000"
 2798      6164734C 
 2798      69737400 
 2799              	.LASF20:
 2800 02b7 6576656E 		.ascii	"eventmask_t\000"
 2800      746D6173 
 2800      6B5F7400 
 2801              	.LASF120:
 2802 02c3 6469736B 		.ascii	"disk_ioctl\000"
 2802      5F696F63 
 2802      746C00
 2803              	.LASF98:
 2804 02ce 77726974 		.ascii	"write\000"
 2804      6500
 2805              	.LASF115:
 2806 02d4 6469736B 		.ascii	"disk_read\000"
 2806      5F726561 
 2806      6400
 2807              	.LASF73:
 2808 02de 424C4B5F 		.ascii	"BLK_READING\000"
 2808      52454144 
 2808      494E4700 
 2809              	.LASF47:
 2810 02ea 73697A65 		.ascii	"sizetype\000"
 2810      74797065 
 2810      00
 2811              	.LASF48:
 2812 02f3 4D757465 		.ascii	"Mutex\000"
 2812      7800
 2813              	.LASF102:
 2814 02f9 574F5244 		.ascii	"WORD\000"
 2814      00
 2815              	.LASF106:
 2816 02fe 5245535F 		.ascii	"RES_OK\000"
 2816      4F4B00
 2817              	.LASF28:
 2818 0305 705F6F6C 		.ascii	"p_older\000"
 2818      64657200 
 2819              	.LASF130:
ARM GAS  C:\Users\Elis\AppData\Local\Temp\ccI10hpc.s 			page 53


 2820 030d 73646357 		.ascii	"sdcWrite\000"
 2820      72697465 
 2820      00
 2821              	.LASF72:
 2822 0316 424C4B5F 		.ascii	"BLK_READY\000"
 2822      52454144 
 2822      5900
 2823              	.LASF42:
 2824 0320 54687265 		.ascii	"ThreadsQueue\000"
 2824      61647351 
 2824      75657565 
 2824      00
 2825              	.LASF125:
 2826 032d 73646352 		.ascii	"sdcRead\000"
 2826      65616400 
 2827              	.LASF16:
 2828 0335 74726566 		.ascii	"trefs_t\000"
 2828      735F7400 
 2829              	.LASF24:
 2830 033d 705F7072 		.ascii	"p_prev\000"
 2830      657600
 2831              	.LASF66:
 2832 0344 73746D33 		.ascii	"stm32_dma_stream_t\000"
 2832      325F646D 
 2832      615F7374 
 2832      7265616D 
 2832      5F7400
 2833              	.LASF18:
 2834 0357 74707269 		.ascii	"tprio_t\000"
 2834      6F5F7400 
 2835              	.LASF88:
 2836 035f 74687265 		.ascii	"thread\000"
 2836      616400
 2837              	.LASF13:
 2838 0366 5F426F6F 		.ascii	"_Bool\000"
 2838      6C00
 2839              	.LASF6:
 2840 036c 696E7433 		.ascii	"int32_t\000"
 2840      325F7400 
 2841              	.LASF2:
 2842 0374 756E7369 		.ascii	"unsigned char\000"
 2842      676E6564 
 2842      20636861 
 2842      7200
 2843              	.LASF112:
 2844 0382 6469736B 		.ascii	"disk_initialize\000"
 2844      5F696E69 
 2844      7469616C 
 2844      697A6500 
 2845              	.LASF39:
 2846 0392 705F6D74 		.ascii	"p_mtxlist\000"
 2846      786C6973 
 2846      7400
 2847              	.LASF3:
 2848 039c 73686F72 		.ascii	"short int\000"
 2848      7420696E 
 2848      7400
ARM GAS  C:\Users\Elis\AppData\Local\Temp\ccI10hpc.s 			page 54


 2849              	.LASF30:
 2850 03a6 705F7374 		.ascii	"p_state\000"
 2850      61746500 
 2851              	.LASF74:
 2852 03ae 424C4B5F 		.ascii	"BLK_WRITING\000"
 2852      57524954 
 2852      494E4700 
 2853              	.LASF33:
 2854 03ba 705F7072 		.ascii	"p_preempt\000"
 2854      65656D70 
 2854      7400
 2855              	.LASF55:
 2856 03c4 65776D61 		.ascii	"ewmask\000"
 2856      736B00
 2857              	.LASF23:
 2858 03cb 705F6E65 		.ascii	"p_next\000"
 2858      787400
 2859              	.LASF92:
 2860 03d2 53444344 		.ascii	"SDCDriverVMT\000"
 2860      72697665 
 2860      72564D54 
 2860      00
 2861              	.LASF22:
 2862 03df 54687265 		.ascii	"Thread\000"
 2862      616400
 2863              	.LASF95:
 2864 03e6 636F6E6E 		.ascii	"connect\000"
 2864      65637400 
 2865              	.LASF38:
 2866 03ee 705F6570 		.ascii	"p_epending\000"
 2866      656E6469 
 2866      6E6700
 2867              	.LASF62:
 2868 03f9 69666372 		.ascii	"ifcr\000"
 2868      00
 2869              	.LASF8:
 2870 03fe 75696E74 		.ascii	"uint32_t\000"
 2870      33325F74 
 2870      00
 2871              	.LASF111:
 2872 0407 44524553 		.ascii	"DRESULT\000"
 2872      554C5400 
 2873              	.LASF9:
 2874 040f 6C6F6E67 		.ascii	"long unsigned int\000"
 2874      20756E73 
 2874      69676E65 
 2874      6420696E 
 2874      7400
 2875              	.LASF97:
 2876 0421 72656164 		.ascii	"read\000"
 2876      00
 2877              	.LASF56:
 2878 0426 63686172 		.ascii	"char\000"
 2878      00
 2879              	.LASF71:
 2880 042b 424C4B5F 		.ascii	"BLK_DISCONNECTING\000"
 2880      44495343 
ARM GAS  C:\Users\Elis\AppData\Local\Temp\ccI10hpc.s 			page 55


 2880      4F4E4E45 
 2880      4354494E 
 2880      4700
 2881              	.LASF85:
 2882 043d 636F6E66 		.ascii	"config\000"
 2882      696700
 2883              	.LASF51:
 2884 0444 6D5F6E65 		.ascii	"m_next\000"
 2884      787400
 2885              	.LASF21:
 2886 044b 73797374 		.ascii	"systime_t\000"
 2886      696D655F 
 2886      7400
 2887              	.LASF40:
 2888 0455 705F7265 		.ascii	"p_realprio\000"
 2888      616C7072 
 2888      696F00
 2889              	.LASF105:
 2890 0460 44535441 		.ascii	"DSTATUS\000"
 2890      54555300 
 2891              	.LASF57:
 2892 0468 4E445452 		.ascii	"NDTR\000"
 2892      00
 2893              	.LASF60:
 2894 046d 444D415F 		.ascii	"DMA_Stream_TypeDef\000"
 2894      53747265 
 2894      616D5F54 
 2894      79706544 
 2894      656600
 2895              	.LASF121:
 2896 0480 6374726C 		.ascii	"ctrl\000"
 2896      00
 2897              	.LASF46:
 2898 0485 636F6E74 		.ascii	"context\000"
 2898      65787400 
 2899              	.LASF119:
 2900 048d 6469736B 		.ascii	"disk_write\000"
 2900      5F777269 
 2900      746500
 2901              	.LASF45:
 2902 0498 696E7463 		.ascii	"intctx\000"
 2902      747800
 2903              	.LASF93:
 2904 049f 69735F69 		.ascii	"is_inserted\000"
 2904      6E736572 
 2904      74656400 
 2905              	.LASF59:
 2906 04ab 4D314152 		.ascii	"M1AR\000"
 2906      00
 2907              	.LASF29:
 2908 04b0 705F6E61 		.ascii	"p_name\000"
 2908      6D6500
 2909              	.LASF32:
 2910 04b7 705F7265 		.ascii	"p_refs\000"
 2910      667300
 2911              	.LASF75:
 2912 04be 424C4B5F 		.ascii	"BLK_SYNCING\000"
ARM GAS  C:\Users\Elis\AppData\Local\Temp\ccI10hpc.s 			page 56


 2912      53594E43 
 2912      494E4700 
 2913              	.LASF127:
 2914 04ca 2E2E2F2E 		.ascii	"../../ugfx/src/gfile/gfile_fatfs_diskio_chibios.c\000"
 2914      2E2F7567 
 2914      66782F73 
 2914      72632F67 
 2914      66696C65 
 2915              	.LASF91:
 2916 04fc 53444343 		.ascii	"SDCConfig\000"
 2916      6F6E6669 
 2916      6700
 2917              	.LASF5:
 2918 0506 75696E74 		.ascii	"uint8_t\000"
 2918      385F7400 
 2919              	.LASF99:
 2920 050e 73796E63 		.ascii	"sync\000"
 2920      00
 2921              	.LASF89:
 2922 0513 646D616D 		.ascii	"dmamode\000"
 2922      6F646500 
 2923              	.LASF54:
 2924 051b 77746F62 		.ascii	"wtobjp\000"
 2924      6A7000
 2925              	.LASF107:
 2926 0522 5245535F 		.ascii	"RES_ERROR\000"
 2926      4552524F 
 2926      5200
 2927              	.LASF37:
 2928 052c 705F6D73 		.ascii	"p_msg\000"
 2928      6700
 2929              	.LASF50:
 2930 0532 6D5F6F77 		.ascii	"m_owner\000"
 2930      6E657200 
 2931              	.LASF82:
 2932 053a 53444344 		.ascii	"SDCDriver\000"
 2932      72697665 
 2932      7200
 2933              	.LASF26:
 2934 0544 705F6374 		.ascii	"p_ctx\000"
 2934      7800
 2935              	.LASF35:
 2936 054a 705F7761 		.ascii	"p_waiting\000"
 2936      6974696E 
 2936      6700
 2937              		.ident	"GCC: (GNU Tools for ARM Embedded Processors) 4.7.4 20140401 (release) [ARM/embedded-4_7-br
ARM GAS  C:\Users\Elis\AppData\Local\Temp\ccI10hpc.s 			page 57


DEFINED SYMBOLS
                            *ABS*:00000000 gfile_fatfs_diskio_chibios.c
C:\Users\Elis\AppData\Local\Temp\ccI10hpc.s:19     .text.disk_initialize:00000000 $t
C:\Users\Elis\AppData\Local\Temp\ccI10hpc.s:25     .text.disk_initialize:00000000 disk_initialize
C:\Users\Elis\AppData\Local\Temp\ccI10hpc.s:73     .text.disk_initialize:00000024 $d
C:\Users\Elis\AppData\Local\Temp\ccI10hpc.s:78     .text.disk_status:00000000 $t
C:\Users\Elis\AppData\Local\Temp\ccI10hpc.s:84     .text.disk_status:00000000 disk_status
C:\Users\Elis\AppData\Local\Temp\ccI10hpc.s:131    .text.disk_status:00000024 $d
C:\Users\Elis\AppData\Local\Temp\ccI10hpc.s:136    .text.disk_read:00000000 $t
C:\Users\Elis\AppData\Local\Temp\ccI10hpc.s:142    .text.disk_read:00000000 disk_read
C:\Users\Elis\AppData\Local\Temp\ccI10hpc.s:190    .text.disk_read:00000024 $d
C:\Users\Elis\AppData\Local\Temp\ccI10hpc.s:195    .text.disk_write:00000000 $t
C:\Users\Elis\AppData\Local\Temp\ccI10hpc.s:201    .text.disk_write:00000000 disk_write
C:\Users\Elis\AppData\Local\Temp\ccI10hpc.s:249    .text.disk_write:00000024 $d
C:\Users\Elis\AppData\Local\Temp\ccI10hpc.s:254    .text.disk_ioctl:00000000 $t
C:\Users\Elis\AppData\Local\Temp\ccI10hpc.s:260    .text.disk_ioctl:00000000 disk_ioctl
C:\Users\Elis\AppData\Local\Temp\ccI10hpc.s:275    .text.disk_ioctl:0000000a $d
C:\Users\Elis\AppData\Local\Temp\ccI10hpc.s:279    .text.disk_ioctl:0000000e $t
C:\Users\Elis\AppData\Local\Temp\ccI10hpc.s:321    .text.disk_ioctl:00000030 $d
C:\Users\Elis\AppData\Local\Temp\ccI10hpc.s:326    .text.get_fattime:00000000 $t
C:\Users\Elis\AppData\Local\Temp\ccI10hpc.s:332    .text.get_fattime:00000000 get_fattime
                     .debug_frame:00000010 $d
C:\Users\Elis\AppData\Local\Temp\ccI10hpc.s:77     .text.disk_initialize:00000028 $t
C:\Users\Elis\AppData\Local\Temp\ccI10hpc.s:135    .text.disk_status:00000028 $t
C:\Users\Elis\AppData\Local\Temp\ccI10hpc.s:194    .text.disk_read:00000028 $t
C:\Users\Elis\AppData\Local\Temp\ccI10hpc.s:253    .text.disk_write:00000028 $t
C:\Users\Elis\AppData\Local\Temp\ccI10hpc.s:325    .text.disk_ioctl:00000034 $t

UNDEFINED SYMBOLS
sdc_lld_is_write_protected
SDCD1
sdcRead
sdcWrite
