ARM GAS  C:\Users\Elis\AppData\Local\Temp\ccIy8Y2d.s 			page 1


   1              		.syntax unified
   2              		.cpu cortex-m4
   3              		.fpu softvfp
   4              		.eabi_attribute 20, 1
   5              		.eabi_attribute 21, 1
   6              		.eabi_attribute 23, 3
   7              		.eabi_attribute 24, 1
   8              		.eabi_attribute 25, 1
   9              		.eabi_attribute 26, 1
  10              		.eabi_attribute 30, 2
  11              		.eabi_attribute 34, 1
  12              		.eabi_attribute 18, 4
  13              		.thumb
  14              		.file	"ginput_mouse.c"
  15              		.text
  16              	.Ltext0:
  17              		.cfi_sections	.debug_frame
  18              		.section	.text.SendMouseEvent,"ax",%progbits
  19              		.align	2
  20              		.p2align 4,,15
  21              		.thumb
  22              		.thumb_func
  23              		.type	SendMouseEvent, %function
  24              	SendMouseEvent:
  25              	.LFB119:
  26              		.file 1 "../../ugfx/src/ginput/ginput_mouse.c"
  27              		.loc 1 64 0
  28              		.cfi_startproc
  29              		@ args = 0, pretend = 0, frame = 0
  30              		@ frame_needed = 0, uses_anonymous_args = 0
  31              	.LVL0:
  32 0000 2DE9F041 		push	{r4, r5, r6, r7, r8, lr}
  33              	.LCFI0:
  34              		.cfi_def_cfa_offset 24
  35              		.cfi_offset 4, -24
  36              		.cfi_offset 5, -20
  37              		.cfi_offset 6, -16
  38              		.cfi_offset 7, -12
  39              		.cfi_offset 8, -8
  40              		.cfi_offset 14, -4
  41              		.loc 1 64 0
  42 0004 0446     		mov	r4, r0
  43 0006 0E46     		mov	r6, r1
  44 0008 1546     		mov	r5, r2
  45              		.loc 1 68 0
  46 000a FFF7FEFF 		bl	geventGetEventBuffer
  47              	.LVL1:
  48 000e 0346     		mov	r3, r0
  49 0010 0028     		cmp	r0, #0
  50 0012 4BD0     		beq	.L26
  51              		.loc 1 75 0
  52 0014 E888     		ldrh	r0, [r5, #6]
  53              	.LVL2:
  54 0016 10F0F001 		ands	r1, r0, #240
  55 001a 18D1     		bne	.L24
  56              		.loc 1 75 0 is_stmt 0 discriminator 1
  57 001c E268     		ldr	r2, [r4, #12]
ARM GAS  C:\Users\Elis\AppData\Local\Temp\ccIy8Y2d.s 			page 2


  58 001e B2B9     		cbnz	r2, .L24
  59 0020 A268     		ldr	r2, [r4, #8]
  60 0022 12F0080F 		tst	r2, #8
  61 0026 13D1     		bne	.L5
  62              		.loc 1 76 0 is_stmt 1
  63 0028 B5F900C0 		ldrsh	ip, [r5, #0]
  64 002c B6F90870 		ldrsh	r7, [r6, #8]
  65 0030 BC45     		cmp	ip, r7
  66 0032 0DD1     		bne	.L5
  67              		.loc 1 76 0 is_stmt 0 discriminator 1
  68 0034 B5F902E0 		ldrsh	lr, [r5, #2]
  69 0038 B6F90A70 		ldrsh	r7, [r6, #10]
  70 003c BE45     		cmp	lr, r7
  71 003e 07D1     		bne	.L5
  72 0040 F789     		ldrh	r7, [r6, #14]
  73 0042 4740     		eors	r7, r7, r0
  74 0044 17F00F0F 		tst	r7, #15
  75 0048 02D1     		bne	.L5
  76              	.L1:
  77 004a BDE8F081 		pop	{r4, r5, r6, r7, r8, pc}
  78              	.L24:
  79 004e A268     		ldr	r2, [r4, #8]
  80              	.L5:
  81              		.loc 1 80 0 is_stmt 1
  82 0050 10F0010F 		tst	r0, #1
  83 0054 26D1     		bne	.L27
  84              		.loc 1 81 0 discriminator 1
  85 0056 12F0040F 		tst	r2, #4
  86 005a 03D1     		bne	.L9
  87              	.L8:
  88              		.loc 1 82 0
  89 005c 0029     		cmp	r1, #0
  90 005e F4D0     		beq	.L1
  91              		.loc 1 82 0 is_stmt 0 discriminator 1
  92 0060 D207     		lsls	r2, r2, #31
  93 0062 F2D5     		bpl	.L1
  94              	.L9:
  95              		.loc 1 86 0 is_stmt 1
  96 0064 7268     		ldr	r2, [r6, #4]
  97              		.loc 1 93 0
  98 0066 E168     		ldr	r1, [r4, #12]
  99              		.loc 1 86 0
 100 0068 B2F802C0 		ldrh	ip, [r2, #2]
 101              		.loc 1 90 0
 102 006c B5F80080 		ldrh	r8, [r5, #0]
 103              		.loc 1 91 0
 104 0070 6F88     		ldrh	r7, [r5, #2]
 105              		.loc 1 95 0
 106 0072 F269     		ldr	r2, [r6, #28]
 107              		.loc 1 92 0
 108 0074 AD88     		ldrh	r5, [r5, #4]
 109              	.LVL3:
 110              		.loc 1 90 0
 111 0076 A3F80280 		strh	r8, [r3, #2]	@ movhi
 112              		.loc 1 86 0
 113 007a 1CF0010F 		tst	ip, #1
 114              		.loc 1 93 0
ARM GAS  C:\Users\Elis\AppData\Local\Temp\ccIy8Y2d.s 			page 3


 115 007e 40EA0100 		orr	r0, r0, r1
 116              		.loc 1 86 0
 117 0082 40F20116 		movw	r6, #257
 118              	.LVL4:
 119 0086 08BF     		it	eq
 120 0088 4FF48076 		moveq	r6, #256
 121              		.loc 1 93 0
 122 008c 1881     		strh	r0, [r3, #8]	@ movhi
 123              		.loc 1 94 0
 124 008e 0021     		movs	r1, #0
 125              		.loc 1 96 0
 126 0090 2046     		mov	r0, r4
 127              		.loc 1 86 0
 128 0092 1E80     		strh	r6, [r3, #0]	@ movhi
 129              		.loc 1 91 0
 130 0094 9F80     		strh	r7, [r3, #4]	@ movhi
 131              		.loc 1 92 0
 132 0096 DD80     		strh	r5, [r3, #6]	@ movhi
 133              		.loc 1 94 0
 134 0098 E160     		str	r1, [r4, #12]
 135              		.loc 1 95 0
 136 009a DA60     		str	r2, [r3, #12]
 137              		.loc 1 97 0
 138 009c BDE8F041 		pop	{r4, r5, r6, r7, r8, lr}
 139              		.loc 1 96 0
 140 00a0 FFF7FEBF 		b	geventSendEvent
 141              	.LVL5:
 142              	.L27:
 143              		.loc 1 80 0 discriminator 1
 144 00a4 12F0020F 		tst	r2, #2
 145 00a8 D8D0     		beq	.L8
 146 00aa DBE7     		b	.L9
 147              	.LVL6:
 148              	.L26:
 149              		.loc 1 70 0
 150 00ac E368     		ldr	r3, [r4, #12]
 151 00ae E888     		ldrh	r0, [r5, #6]
 152              	.LVL7:
 153 00b0 43F40041 		orr	r1, r3, #32768
 154 00b4 00F0F002 		and	r2, r0, #240
 155 00b8 1143     		orrs	r1, r1, r2
 156 00ba E160     		str	r1, [r4, #12]
 157              		.loc 1 71 0
 158 00bc BDE8F081 		pop	{r4, r5, r6, r7, r8, pc}
 159              		.cfi_endproc
 160              	.LFE119:
 161              		.size	SendMouseEvent, .-SendMouseEvent
 162              		.global	__aeabi_i2f
 163              		.global	__aeabi_fmul
 164              		.global	__aeabi_fadd
 165              		.global	__aeabi_f2iz
 166              		.section	.text.GetMouseReading,"ax",%progbits
 167              		.align	2
 168              		.p2align 4,,15
 169              		.thumb
 170              		.thumb_func
 171              		.type	GetMouseReading, %function
ARM GAS  C:\Users\Elis\AppData\Local\Temp\ccIy8Y2d.s 			page 4


 172              	GetMouseReading:
 173              	.LFB120:
 174              		.loc 1 99 0
 175              		.cfi_startproc
 176              		@ args = 0, pretend = 0, frame = 8
 177              		@ frame_needed = 0, uses_anonymous_args = 0
 178              	.LVL8:
 179 0000 2DE9F041 		push	{r4, r5, r6, r7, r8, lr}
 180              	.LCFI1:
 181              		.cfi_def_cfa_offset 24
 182              		.cfi_offset 4, -24
 183              		.cfi_offset 5, -20
 184              		.cfi_offset 6, -16
 185              		.cfi_offset 7, -12
 186              		.cfi_offset 8, -8
 187              		.cfi_offset 14, -4
 188              		.loc 1 104 0
 189 0004 028A     		ldrh	r2, [r0, #16]
 190              		.loc 1 105 0
 191 0006 4368     		ldr	r3, [r0, #4]
 192              		.loc 1 104 0
 193 0008 22F04001 		bic	r1, r2, #64
 194              		.loc 1 99 0
 195 000c 82B0     		sub	sp, sp, #8
 196              	.LCFI2:
 197              		.cfi_def_cfa_offset 32
 198              		.loc 1 104 0
 199 000e 0182     		strh	r1, [r0, #16]	@ movhi
 200              		.loc 1 105 0
 201 0010 1A6B     		ldr	r2, [r3, #48]
 202 0012 6946     		mov	r1, sp
 203              		.loc 1 99 0
 204 0014 0446     		mov	r4, r0
 205              		.loc 1 105 0
 206 0016 9047     		blx	r2
 207              	.LVL9:
 208 0018 F0B1     		cbz	r0, .L28
 209              		.loc 1 116 0
 210 001a 6568     		ldr	r5, [r4, #4]
 211              		.loc 1 112 0
 212 001c BDF80610 		ldrh	r1, [sp, #6]
 213              		.loc 1 116 0
 214 0020 6B88     		ldrh	r3, [r5, #2]
 215              		.loc 1 112 0
 216 0022 01F00F02 		and	r2, r1, #15
 217              		.loc 1 116 0
 218 0026 DE07     		lsls	r6, r3, #31
 219              		.loc 1 112 0
 220 0028 ADF80620 		strh	r2, [sp, #6]	@ movhi
 221              		.loc 1 116 0
 222 002c 17D4     		bmi	.L121
 223              	.L30:
 224              		.loc 1 129 0
 225 002e 03F40070 		and	r0, r3, #512
 226 0032 82B2     		uxth	r2, r0
 227              		.loc 1 131 0
 228 0034 268A     		ldrh	r6, [r4, #16]
ARM GAS  C:\Users\Elis\AppData\Local\Temp\ccIy8Y2d.s 			page 5


 229              		.loc 1 129 0
 230 0036 002A     		cmp	r2, #0
 231 0038 2DD0     		beq	.L38
 232              		.loc 1 131 0
 233 003a 06F00201 		and	r1, r6, #2
 234 003e 88B2     		uxth	r0, r1
 235              		.loc 1 132 0
 236 0040 E189     		ldrh	r1, [r4, #14]
 237              		.loc 1 131 0
 238 0042 0028     		cmp	r0, #0
 239 0044 00F00A81 		beq	.L35
 240              		.loc 1 132 0
 241 0048 BDF80620 		ldrh	r2, [sp, #6]
 242 004c 5140     		eors	r1, r1, r2
 243 004e C807     		lsls	r0, r1, #31
 244 0050 1CD4     		bmi	.L36
 245              		.loc 1 134 0
 246 0052 26F00206 		bic	r6, r6, #2
 247 0056 2682     		strh	r6, [r4, #16]	@ movhi
 248              	.L28:
 249              		.loc 1 315 0
 250 0058 02B0     		add	sp, sp, #8
 251 005a BDE8F081 		pop	{r4, r5, r6, r7, r8, pc}
 252              	.L121:
 253              		.loc 1 117 0
 254 005e B5F91660 		ldrsh	r6, [r5, #22]
 255 0062 B5F91400 		ldrsh	r0, [r5, #20]
 256 0066 8642     		cmp	r6, r0
 257              		.loc 1 118 0
 258 0068 B5F91860 		ldrsh	r6, [r5, #24]
 259 006c BDF90400 		ldrsh	r0, [sp, #4]
 260              		.loc 1 117 0
 261 0070 00F3EC80 		bgt	.L31
 262              		.loc 1 118 0
 263 0074 8642     		cmp	r6, r0
 264 0076 40F31381 		ble	.L116
 265              		.loc 1 119 0
 266 007a B5F91A20 		ldrsh	r2, [r5, #26]
 267 007e 8242     		cmp	r2, r0
 268 0080 EADB     		blt	.L28
 269              	.L117:
 270              		.loc 1 123 0 discriminator 1
 271 0082 01F00E01 		and	r1, r1, #14
 272 0086 ADF80610 		strh	r1, [sp, #6]	@ movhi
 273 008a D0E7     		b	.L30
 274              	.L36:
 275              		.loc 1 138 0
 276 008c 26F00206 		bic	r6, r6, #2
 277 0090 3004     		lsls	r0, r6, #16
 278 0092 060C     		lsrs	r6, r0, #16
 279 0094 2682     		strh	r6, [r4, #16]	@ movhi
 280              	.L38:
 281              		.loc 1 150 0
 282 0096 06F01002 		and	r2, r6, #16
 283 009a 91B2     		uxth	r1, r2
 284 009c 59B1     		cbz	r1, .L39
 285              		.loc 1 151 0
ARM GAS  C:\Users\Elis\AppData\Local\Temp\ccIy8Y2d.s 			page 6


 286 009e BDF80600 		ldrh	r0, [sp, #6]
 287 00a2 C207     		lsls	r2, r0, #31
 288 00a4 05D5     		bpl	.L120
 289              		.loc 1 152 0
 290 00a6 BDF80020 		ldrh	r2, [sp, #0]
 291              		.loc 1 153 0
 292 00aa BDF80230 		ldrh	r3, [sp, #2]
 293              		.loc 1 152 0
 294 00ae 2281     		strh	r2, [r4, #8]	@ movhi
 295              		.loc 1 153 0
 296 00b0 6381     		strh	r3, [r4, #10]	@ movhi
 297              	.L120:
 298              		.loc 1 314 0
 299 00b2 E081     		strh	r0, [r4, #14]	@ movhi
 300 00b4 D0E7     		b	.L28
 301              	.L39:
 302              		.loc 1 164 0
 303 00b6 03F48073 		and	r3, r3, #256
 304 00ba 98B2     		uxth	r0, r3
 305 00bc 20B1     		cbz	r0, .L41
 306              		.loc 1 164 0 is_stmt 0 discriminator 1
 307 00be BDF80620 		ldrh	r2, [sp, #6]
 308 00c2 D007     		lsls	r0, r2, #31
 309 00c4 40F10B81 		bpl	.L122
 310              	.L41:
 311              		.loc 1 172 0 is_stmt 1
 312 00c8 06F00802 		and	r2, r6, #8
 313 00cc 91B2     		uxth	r1, r2
 314 00ce 0029     		cmp	r1, #0
 315 00d0 40F00C81 		bne	.L123
 316              	.L43:
 317              		.loc 1 177 0
 318 00d4 E069     		ldr	r0, [r4, #28]
 319 00d6 A8B1     		cbz	r0, .L119
 320              	.LBB9:
 321              		.loc 1 181 0
 322 00d8 FFF7FEFF 		bl	gdispGGetWidth
 323              	.LVL10:
 324 00dc 0746     		mov	r7, r0
 325              	.LVL11:
 326              		.loc 1 182 0
 327 00de E069     		ldr	r0, [r4, #28]
 328              	.LVL12:
 329 00e0 FFF7FEFF 		bl	gdispGGetHeight
 330              	.LVL13:
 331              		.loc 1 186 0
 332 00e4 6568     		ldr	r5, [r4, #4]
 333 00e6 6E88     		ldrh	r6, [r5, #2]
 334              		.loc 1 182 0
 335 00e8 8046     		mov	r8, r0
 336              	.LVL14:
 337              		.loc 1 186 0
 338 00ea 06F00400 		and	r0, r6, #4
 339              	.LVL15:
 340 00ee 82B2     		uxth	r2, r0
 341 00f0 002A     		cmp	r2, #0
 342 00f2 00F02F81 		beq	.L124
ARM GAS  C:\Users\Elis\AppData\Local\Temp\ccIy8Y2d.s 			page 7


 343              	.L45:
 344              		.loc 1 213 0
 345 00f6 268A     		ldrh	r6, [r4, #16]
 346 00f8 06F00401 		and	r1, r6, #4
 347 00fc 8AB2     		uxth	r2, r1
 348 00fe 002A     		cmp	r2, #0
 349 0100 40F0D680 		bne	.L49
 350              	.LVL16:
 351              	.L119:
 352 0104 BDF80620 		ldrh	r2, [sp, #6]
 353              	.L42:
 354              	.LBE9:
 355              	.LBB12:
 356              		.loc 1 230 0
 357 0108 06F02003 		and	r3, r6, #32
 358 010c 98B2     		uxth	r0, r3
 359 010e 0028     		cmp	r0, #0
 360 0110 00F0CB80 		beq	.L54
 361              		.loc 1 230 0 is_stmt 0 discriminator 1
 362 0114 05F12201 		add	r1, r5, #34
 363              	.L55:
 364              	.LVL17:
 365              		.loc 1 233 0 is_stmt 1 discriminator 3
 366 0118 8B88     		ldrh	r3, [r1, #4]
 367 011a 18B2     		sxth	r0, r3
 368 011c 0028     		cmp	r0, #0
 369 011e 1ADD     		ble	.L56
 370              		.loc 1 234 0
 371 0120 B4F808C0 		ldrh	ip, [r4, #8]
 372 0124 BDF90070 		ldrsh	r7, [sp, #0]
 373 0128 B4F80AE0 		ldrh	lr, [r4, #10]
 374 012c BDF90280 		ldrsh	r8, [sp, #2]
 375 0130 0FFA8CF0 		sxth	r0, ip
 376 0134 3F1A     		subs	r7, r7, r0
 377 0136 0FFA8EF0 		sxth	r0, lr
 378 013a C0EB0800 		rsb	r0, r0, r8
 379              	.LVL18:
 380 013e 07FB07F7 		mul	r7, r7, r7
 381              	.LVL19:
 382 0142 00FB0070 		mla	r0, r0, r0, r7
 383              	.LVL20:
 384              		.loc 1 235 0
 385 0146 13FB03F3 		smulbb	r3, r3, r3
 386 014a 9842     		cmp	r0, r3
 387              		.loc 1 236 0
 388 014c 3CBF     		itt	cc
 389 014e ADF800C0 		strhcc	ip, [sp, #0]	@ movhi
 390              		.loc 1 237 0
 391 0152 ADF802E0 		strhcc	lr, [sp, #2]	@ movhi
 392              	.LVL21:
 393              	.L56:
 394              		.loc 1 242 0
 395 0156 4B88     		ldrh	r3, [r1, #2]
 396 0158 19B2     		sxth	r1, r3
 397              	.LVL22:
 398 015a 0029     		cmp	r1, #0
 399 015c 17DD     		ble	.L57
ARM GAS  C:\Users\Elis\AppData\Local\Temp\ccIy8Y2d.s 			page 8


 400              		.loc 1 242 0 is_stmt 0 discriminator 1
 401 015e F107     		lsls	r1, r6, #31
 402 0160 15D5     		bpl	.L57
 403              		.loc 1 243 0 is_stmt 1
 404 0162 BDF900C0 		ldrsh	ip, [sp, #0]
 405 0166 B4F91200 		ldrsh	r0, [r4, #18]
 406 016a BDF90270 		ldrsh	r7, [sp, #2]
 407 016e B4F91410 		ldrsh	r1, [r4, #20]
 408 0172 C0EB0C00 		rsb	r0, r0, ip
 409 0176 791A     		subs	r1, r7, r1
 410              	.LVL23:
 411 0178 00FB00F0 		mul	r0, r0, r0
 412              	.LVL24:
 413 017c 01FB0100 		mla	r0, r1, r1, r0
 414              	.LVL25:
 415              		.loc 1 244 0
 416 0180 13FB03F3 		smulbb	r3, r3, r3
 417 0184 9842     		cmp	r0, r3
 418              		.loc 1 245 0
 419 0186 84BF     		itt	hi
 420 0188 26F00106 		bichi	r6, r6, #1
 421 018c 2682     		strhhi	r6, [r4, #16]	@ movhi
 422              	.LVL26:
 423              	.L57:
 424              	.LBE12:
 425              	.LBB13:
 426              		.loc 1 255 0
 427 018e E389     		ldrh	r3, [r4, #14]
 428 0190 90B2     		uxth	r0, r2
 429 0192 20EA0301 		bic	r1, r0, r3
 430              	.LVL27:
 431              		.loc 1 256 0
 432 0196 23EA0003 		bic	r3, r3, r0
 433              	.LVL28:
 434              		.loc 1 259 0
 435 019a C807     		lsls	r0, r1, #31
 436              		.loc 1 260 0
 437 019c 44BF     		itt	mi
 438 019e 42F01002 		orrmi	r2, r2, #16
 439 01a2 ADF80620 		strhmi	r2, [sp, #6]	@ movhi
 440              		.loc 1 263 0
 441 01a6 13F00100 		ands	r0, r3, #1
 442 01aa 05D0     		beq	.L59
 443              		.loc 1 264 0
 444 01ac BDF80620 		ldrh	r2, [sp, #6]
 445 01b0 42F02002 		orr	r2, r2, #32
 446 01b4 ADF80620 		strh	r2, [sp, #6]	@ movhi
 447              	.L59:
 448              		.loc 1 267 0
 449 01b8 8907     		lsls	r1, r1, #30
 450              	.LVL29:
 451 01ba 0CD0     		beq	.L60
 452              		.loc 1 270 0
 453 01bc 844E     		ldr	r6, .L127
 454              		.loc 1 271 0
 455 01be 218A     		ldrh	r1, [r4, #16]
 456              		.loc 1 270 0
ARM GAS  C:\Users\Elis\AppData\Local\Temp\ccIy8Y2d.s 			page 9


 457 01c0 F268     		ldr	r2, [r6, #12]
 458              		.loc 1 268 0
 459 01c2 BDF80060 		ldrh	r6, [sp, #0]
 460              		.loc 1 270 0
 461 01c6 A261     		str	r2, [r4, #24]
 462              		.loc 1 268 0
 463 01c8 6682     		strh	r6, [r4, #18]	@ movhi
 464              		.loc 1 269 0
 465 01ca BDF80260 		ldrh	r6, [sp, #2]
 466              		.loc 1 271 0
 467 01ce 41F00101 		orr	r1, r1, #1
 468              		.loc 1 269 0
 469 01d2 A682     		strh	r6, [r4, #20]	@ movhi
 470              		.loc 1 271 0
 471 01d4 2182     		strh	r1, [r4, #16]	@ movhi
 472              	.L60:
 473              		.loc 1 275 0
 474 01d6 9A07     		lsls	r2, r3, #30
 475 01d8 2AD0     		beq	.L62
 476              		.loc 1 275 0 is_stmt 0 discriminator 1
 477 01da 228A     		ldrh	r2, [r4, #16]
 478 01dc D107     		lsls	r1, r2, #31
 479 01de 27D5     		bpl	.L62
 480              		.loc 1 277 0 is_stmt 1
 481 01e0 7B4E     		ldr	r6, .L127
 482 01e2 A169     		ldr	r1, [r4, #24]
 483 01e4 F668     		ldr	r6, [r6, #12]
 484 01e6 711A     		subs	r1, r6, r1
 485              		.loc 1 276 0
 486 01e8 22F00102 		bic	r2, r2, #1
 487              		.loc 1 280 0
 488 01ec B1F5967F 		cmp	r1, #300
 489              		.loc 1 276 0
 490 01f0 2282     		strh	r2, [r4, #16]	@ movhi
 491              		.loc 1 277 0
 492 01f2 A161     		str	r1, [r4, #24]
 493              		.loc 1 280 0
 494 01f4 10D8     		bhi	.L65
 495              		.loc 1 281 0
 496 01f6 03F00203 		and	r3, r3, #2
 497              	.LVL30:
 498 01fa 1AB2     		sxth	r2, r3
 499 01fc 2AB1     		cbz	r2, .L66
 500              		.loc 1 282 0
 501 01fe BDF80630 		ldrh	r3, [sp, #6]
 502 0202 43F08002 		orr	r2, r3, #128
 503 0206 ADF80620 		strh	r2, [sp, #6]	@ movhi
 504              	.L66:
 505              		.loc 1 283 0
 506 020a 28B1     		cbz	r0, .L65
 507              		.loc 1 284 0
 508 020c BDF80600 		ldrh	r0, [sp, #6]
 509 0210 40F04003 		orr	r3, r0, #64
 510 0214 ADF80630 		strh	r3, [sp, #6]	@ movhi
 511              	.L65:
 512              		.loc 1 289 0
 513 0218 6D88     		ldrh	r5, [r5, #2]
ARM GAS  C:\Users\Elis\AppData\Local\Temp\ccIy8Y2d.s 			page 10


 514 021a EB07     		lsls	r3, r5, #31
 515 021c 08D5     		bpl	.L62
 516              		.loc 1 289 0 is_stmt 0 discriminator 1
 517 021e B1F5FA7F 		cmp	r1, #500
 518 0222 05D3     		bcc	.L62
 519              		.loc 1 290 0 is_stmt 1
 520 0224 BDF80610 		ldrh	r1, [sp, #6]
 521 0228 41F08002 		orr	r2, r1, #128
 522 022c ADF80620 		strh	r2, [sp, #6]	@ movhi
 523              	.L62:
 524              	.LBE13:
 525              		.loc 1 99 0 discriminator 1
 526 0230 0025     		movs	r5, #0
 527 0232 01E0     		b	.L68
 528              	.LVL31:
 529              	.L69:
 530              	.LBB14:
 531              		.loc 1 302 0
 532 0234 FFF7FEFF 		bl	SendMouseEvent
 533              	.LVL32:
 534              	.L68:
 535              		.loc 1 301 0 discriminator 1
 536 0238 2946     		mov	r1, r5
 537 023a 6648     		ldr	r0, .L127+4
 538 023c FFF7FEFF 		bl	geventGetSourceListener
 539              	.LVL33:
 540              		.loc 1 302 0 discriminator 1
 541 0240 2146     		mov	r1, r4
 542              		.loc 1 301 0 discriminator 1
 543 0242 0546     		mov	r5, r0
 544              		.loc 1 302 0 discriminator 1
 545 0244 6A46     		mov	r2, sp
 546              		.loc 1 301 0 discriminator 1
 547 0246 0028     		cmp	r0, #0
 548 0248 F4D1     		bne	.L69
 549              	.LVL34:
 550 024a 14E0     		b	.L115
 551              	.LVL35:
 552              	.L31:
 553              	.LBE14:
 554              		.loc 1 122 0
 555 024c 8642     		cmp	r6, r0
 556 024e 27DA     		bge	.L116
 557              		.loc 1 123 0
 558 0250 B5F91A20 		ldrsh	r2, [r5, #26]
 559 0254 8242     		cmp	r2, r0
 560 0256 3FF7FFAE 		bgt	.L28
 561 025a 12E7     		b	.L117
 562              	.L35:
 563              		.loc 1 141 0
 564 025c BDF80620 		ldrh	r2, [sp, #6]
 565 0260 81EA0200 		eor	r0, r1, r2
 566 0264 C107     		lsls	r1, r0, #31
 567 0266 7FF516AF 		bpl	.L38
 568              		.loc 1 142 0
 569 026a 46F00206 		orr	r6, r6, #2
 570 026e 2682     		strh	r6, [r4, #16]	@ movhi
ARM GAS  C:\Users\Elis\AppData\Local\Temp\ccIy8Y2d.s 			page 11


 571 0270 F2E6     		b	.L28
 572              	.LVL36:
 573              	.L71:
 574              	.LBB15:
 575              		.loc 1 307 0
 576 0272 FFF7FEFF 		bl	SendMouseEvent
 577              	.LVL37:
 578              	.L115:
 579              		.loc 1 306 0 discriminator 1
 580 0276 2946     		mov	r1, r5
 581 0278 2046     		mov	r0, r4
 582 027a FFF7FEFF 		bl	geventGetSourceListener
 583              	.LVL38:
 584              		.loc 1 307 0 discriminator 1
 585 027e 2146     		mov	r1, r4
 586              		.loc 1 306 0 discriminator 1
 587 0280 0546     		mov	r5, r0
 588              		.loc 1 307 0 discriminator 1
 589 0282 6A46     		mov	r2, sp
 590              		.loc 1 306 0 discriminator 1
 591 0284 0028     		cmp	r0, #0
 592 0286 F4D1     		bne	.L71
 593              	.LVL39:
 594              	.LBE15:
 595              		.loc 1 311 0
 596 0288 BDF80000 		ldrh	r0, [sp, #0]
 597              	.LVL40:
 598              		.loc 1 312 0
 599 028c BDF80230 		ldrh	r3, [sp, #2]
 600              		.loc 1 313 0
 601 0290 BDF80410 		ldrh	r1, [sp, #4]
 602              	.LVL41:
 603              		.loc 1 311 0
 604 0294 2081     		strh	r0, [r4, #8]	@ movhi
 605              		.loc 1 312 0
 606 0296 6381     		strh	r3, [r4, #10]	@ movhi
 607              		.loc 1 313 0
 608 0298 A181     		strh	r1, [r4, #12]	@ movhi
 609              		.loc 1 314 0
 610 029a BDF80600 		ldrh	r0, [sp, #6]
 611 029e 08E7     		b	.L120
 612              	.LVL42:
 613              	.L116:
 614              		.loc 1 122 0 discriminator 1
 615 02a0 42F00106 		orr	r6, r2, #1
 616 02a4 ADF80660 		strh	r6, [sp, #6]	@ movhi
 617 02a8 C1E6     		b	.L30
 618              	.L54:
 619              	.LBB16:
 620              		.loc 1 230 0 discriminator 2
 621 02aa 05F11C01 		add	r1, r5, #28
 622 02ae 33E7     		b	.L55
 623              	.LVL43:
 624              	.L49:
 625              	.LBE16:
 626              	.LBB17:
 627              		.loc 1 214 0
ARM GAS  C:\Users\Elis\AppData\Local\Temp\ccIy8Y2d.s 			page 12


 628 02b0 BDF90030 		ldrsh	r3, [sp, #0]
 629 02b4 002B     		cmp	r3, #0
 630 02b6 59DB     		blt	.L125
 631              		.loc 1 215 0
 632 02b8 9F42     		cmp	r7, r3
 633 02ba 02DC     		bgt	.L51
 634              		.loc 1 215 0 is_stmt 0 discriminator 1
 635 02bc 013F     		subs	r7, r7, #1
 636              	.LVL44:
 637 02be ADF80070 		strh	r7, [sp, #0]	@ movhi
 638              	.LVL45:
 639              	.L51:
 640              		.loc 1 216 0 is_stmt 1
 641 02c2 BDF90210 		ldrsh	r1, [sp, #2]
 642 02c6 0029     		cmp	r1, #0
 643 02c8 54DB     		blt	.L126
 644              		.loc 1 217 0
 645 02ca 8845     		cmp	r8, r1
 646 02cc 3FF71AAF 		bgt	.L119
 647              		.loc 1 217 0 is_stmt 0 discriminator 1
 648 02d0 08F1FF38 		add	r8, r8, #-1
 649              	.LVL46:
 650 02d4 BDF80620 		ldrh	r2, [sp, #6]
 651 02d8 ADF80280 		strh	r8, [sp, #2]	@ movhi
 652 02dc 14E7     		b	.L42
 653              	.LVL47:
 654              	.L122:
 655              	.LBE17:
 656              		.loc 1 165 0 is_stmt 1
 657 02de 2089     		ldrh	r0, [r4, #8]
 658              		.loc 1 166 0
 659 02e0 6189     		ldrh	r1, [r4, #10]
 660              		.loc 1 165 0
 661 02e2 ADF80000 		strh	r0, [sp, #0]	@ movhi
 662              		.loc 1 166 0
 663 02e6 ADF80210 		strh	r1, [sp, #2]	@ movhi
 664 02ea 0DE7     		b	.L42
 665              	.L123:
 666              	.LVL48:
 667              	.LBB18:
 668              	.LBB19:
 669              		.loc 1 59 0
 670 02ec BDF90200 		ldrsh	r0, [sp, #2]
 671 02f0 FFF7FEFF 		bl	__aeabi_i2f
 672              	.LVL49:
 673 02f4 0746     		mov	r7, r0
 674 02f6 BDF90000 		ldrsh	r0, [sp, #0]
 675 02fa FFF7FEFF 		bl	__aeabi_i2f
 676              	.LVL50:
 677 02fe 216A     		ldr	r1, [r4, #32]	@ float
 678 0300 FFF7FEFF 		bl	__aeabi_fmul
 679              	.LVL51:
 680 0304 616A     		ldr	r1, [r4, #36]	@ float
 681 0306 8046     		mov	r8, r0
 682 0308 3846     		mov	r0, r7
 683 030a FFF7FEFF 		bl	__aeabi_fmul
 684              	.LVL52:
ARM GAS  C:\Users\Elis\AppData\Local\Temp\ccIy8Y2d.s 			page 13


 685 030e 0146     		mov	r1, r0
 686 0310 4046     		mov	r0, r8
 687 0312 FFF7FEFF 		bl	__aeabi_fadd
 688              	.LVL53:
 689 0316 A16A     		ldr	r1, [r4, #40]	@ float
 690 0318 FFF7FEFF 		bl	__aeabi_fadd
 691              	.LVL54:
 692 031c FFF7FEFF 		bl	__aeabi_f2iz
 693              	.LVL55:
 694 0320 0346     		mov	r3, r0
 695              		.loc 1 60 0
 696 0322 00B2     		sxth	r0, r0
 697              		.loc 1 59 0
 698 0324 ADF80030 		strh	r3, [sp, #0]	@ movhi
 699              		.loc 1 60 0
 700 0328 FFF7FEFF 		bl	__aeabi_i2f
 701              	.LVL56:
 702 032c E16A     		ldr	r1, [r4, #44]	@ float
 703 032e FFF7FEFF 		bl	__aeabi_fmul
 704              	.LVL57:
 705 0332 216B     		ldr	r1, [r4, #48]	@ float
 706 0334 8046     		mov	r8, r0
 707 0336 3846     		mov	r0, r7
 708 0338 FFF7FEFF 		bl	__aeabi_fmul
 709              	.LVL58:
 710 033c 0146     		mov	r1, r0
 711 033e 4046     		mov	r0, r8
 712 0340 FFF7FEFF 		bl	__aeabi_fadd
 713              	.LVL59:
 714 0344 616B     		ldr	r1, [r4, #52]	@ float
 715 0346 FFF7FEFF 		bl	__aeabi_fadd
 716              	.LVL60:
 717 034a FFF7FEFF 		bl	__aeabi_f2iz
 718              	.LVL61:
 719 034e ADF80200 		strh	r0, [sp, #2]	@ movhi
 720 0352 BFE6     		b	.L43
 721              	.LVL62:
 722              	.L124:
 723              	.LBE19:
 724              	.LBE18:
 725              	.LBB20:
 726              	.LBB10:
 727              		.loc 1 189 0
 728 0354 E069     		ldr	r0, [r4, #28]
 729 0356 FFF7FEFF 		bl	gdispGGetOrientation
 730              	.LVL63:
 731 035a B428     		cmp	r0, #180
 732 035c 29D0     		beq	.L47
 733 035e B0F5877F 		cmp	r0, #270
 734 0362 19D0     		beq	.L48
 735 0364 5A28     		cmp	r0, #90
 736 0366 0BD0     		beq	.L46
 737 0368 6568     		ldr	r5, [r4, #4]
 738 036a C4E6     		b	.L45
 739              	.L125:
 740              	.LBE10:
 741              		.loc 1 214 0 discriminator 1
ARM GAS  C:\Users\Elis\AppData\Local\Temp\ccIy8Y2d.s 			page 14


 742 036c 0020     		movs	r0, #0
 743 036e ADF80000 		strh	r0, [sp, #0]	@ movhi
 744 0372 A6E7     		b	.L51
 745              	.LVL64:
 746              	.L126:
 747              		.loc 1 216 0 discriminator 1
 748 0374 0023     		movs	r3, #0
 749 0376 ADF80230 		strh	r3, [sp, #2]	@ movhi
 750 037a BDF80620 		ldrh	r2, [sp, #6]
 751 037e C3E6     		b	.L42
 752              	.LVL65:
 753              	.L46:
 754              	.LBB11:
 755              		.loc 1 194 0
 756 0380 BDF80210 		ldrh	r1, [sp, #2]
 757              		.loc 1 193 0
 758 0384 BDF80030 		ldrh	r3, [sp, #0]
 759              	.LVL66:
 760 0388 6568     		ldr	r5, [r4, #4]
 761              		.loc 1 195 0
 762 038a ADF80230 		strh	r3, [sp, #2]	@ movhi
 763              		.loc 1 194 0
 764 038e CE43     		mvns	r6, r1
 765 0390 F019     		adds	r0, r6, r7
 766 0392 ADF80000 		strh	r0, [sp, #0]	@ movhi
 767              		.loc 1 196 0
 768 0396 AEE6     		b	.L45
 769              	.LVL67:
 770              	.L48:
 771              		.loc 1 203 0
 772 0398 BDF80010 		ldrh	r1, [sp, #0]
 773              		.loc 1 202 0
 774 039c BDF80220 		ldrh	r2, [sp, #2]
 775              	.LVL68:
 776 03a0 6568     		ldr	r5, [r4, #4]
 777              		.loc 1 204 0
 778 03a2 ADF80020 		strh	r2, [sp, #0]	@ movhi
 779              		.loc 1 203 0
 780 03a6 CB43     		mvns	r3, r1
 781 03a8 03EB0806 		add	r6, r3, r8
 782 03ac ADF80260 		strh	r6, [sp, #2]	@ movhi
 783              		.loc 1 205 0
 784 03b0 A1E6     		b	.L45
 785              	.LVL69:
 786              	.L47:
 787              		.loc 1 198 0
 788 03b2 BDF80000 		ldrh	r0, [sp, #0]
 789              		.loc 1 199 0
 790 03b6 BDF80220 		ldrh	r2, [sp, #2]
 791 03ba 6568     		ldr	r5, [r4, #4]
 792              		.loc 1 198 0
 793 03bc C143     		mvns	r1, r0
 794              		.loc 1 199 0
 795 03be D343     		mvns	r3, r2
 796              		.loc 1 198 0
 797 03c0 CE19     		adds	r6, r1, r7
 798              		.loc 1 199 0
ARM GAS  C:\Users\Elis\AppData\Local\Temp\ccIy8Y2d.s 			page 15


 799 03c2 03EB0800 		add	r0, r3, r8
 800              		.loc 1 198 0
 801 03c6 ADF80060 		strh	r6, [sp, #0]	@ movhi
 802              		.loc 1 199 0
 803 03ca ADF80200 		strh	r0, [sp, #2]	@ movhi
 804              		.loc 1 200 0
 805 03ce 92E6     		b	.L45
 806              	.L128:
 807              		.align	2
 808              	.L127:
 809 03d0 00000000 		.word	vtlist
 810 03d4 00000000 		.word	.LANCHOR0
 811              	.LBE11:
 812              	.LBE20:
 813              		.cfi_endproc
 814              	.LFE120:
 815              		.size	GetMouseReading, .-GetMouseReading
 816 03d8 AFF30080 		.section	.text.MousePoll,"ax",%progbits
 816      AFF30080 
 817              		.align	2
 818              		.p2align 4,,15
 819              		.thumb
 820              		.thumb_func
 821              		.type	MousePoll, %function
 822              	MousePoll:
 823              	.LFB121:
 824              		.loc 1 317 0
 825              		.cfi_startproc
 826              		@ args = 0, pretend = 0, frame = 0
 827              		@ frame_needed = 0, uses_anonymous_args = 0
 828              	.LVL70:
 829 0000 10B5     		push	{r4, lr}
 830              	.LCFI3:
 831              		.cfi_def_cfa_offset 8
 832              		.cfi_offset 4, -8
 833              		.cfi_offset 14, -4
 834              		.loc 1 321 0
 835 0002 6D20     		movs	r0, #109
 836              	.LVL71:
 837 0004 0021     		movs	r1, #0
 838 0006 FFF7FEFF 		bl	gdriverGetNext
 839              	.LVL72:
 840 000a 0446     		mov	r4, r0
 841 000c A0B1     		cbz	r0, .L129
 842              	.L139:
 843              		.loc 1 322 0
 844 000e 6368     		ldr	r3, [r4, #4]
 845 0010 5988     		ldrh	r1, [r3, #2]
 846 0012 01F00202 		and	r2, r1, #2
 847 0016 93B2     		uxth	r3, r2
 848              		.loc 1 323 0
 849 0018 2046     		mov	r0, r4
 850              	.LVL73:
 851              		.loc 1 322 0
 852 001a 23B1     		cbz	r3, .L131
 853              	.LVL74:
 854              		.loc 1 322 0 is_stmt 0 discriminator 1
ARM GAS  C:\Users\Elis\AppData\Local\Temp\ccIy8Y2d.s 			page 16


 855 001c 218A     		ldrh	r1, [r4, #16]
 856 001e 01F04002 		and	r2, r1, #64
 857 0022 93B2     		uxth	r3, r2
 858 0024 0BB1     		cbz	r3, .L132
 859              	.L131:
 860              		.loc 1 323 0 is_stmt 1
 861 0026 FFF7FEFF 		bl	GetMouseReading
 862              	.LVL75:
 863              	.L132:
 864              		.loc 1 321 0
 865 002a 2146     		mov	r1, r4
 866 002c 6D20     		movs	r0, #109
 867 002e FFF7FEFF 		bl	gdriverGetNext
 868              	.LVL76:
 869 0032 0446     		mov	r4, r0
 870 0034 0028     		cmp	r0, #0
 871 0036 EAD1     		bne	.L139
 872              	.L129:
 873 0038 10BD     		pop	{r4, pc}
 874              		.cfi_endproc
 875              	.LFE121:
 876              		.size	MousePoll, .-MousePoll
 877              		.global	__aeabi_fsub
 878              		.global	__aeabi_fdiv
 879 003a 00BFAFF3 		.section	.text.CalibrateMouse,"ax",%progbits
 879      0080
 880              		.align	2
 881              		.p2align 4,,15
 882              		.thumb
 883              		.thumb_func
 884              		.type	CalibrateMouse, %function
 885              	CalibrateMouse:
 886              	.LFB125:
 887              		.loc 1 443 0
 888              		.cfi_startproc
 889              		@ args = 0, pretend = 0, frame = 120
 890              		@ frame_needed = 0, uses_anonymous_args = 0
 891              	.LVL77:
 892 0000 2DE9F04F 		push	{r4, r5, r6, r7, r8, r9, sl, fp, lr}
 893              	.LCFI4:
 894              		.cfi_def_cfa_offset 36
 895              		.cfi_offset 4, -36
 896              		.cfi_offset 5, -32
 897              		.cfi_offset 6, -28
 898              		.cfi_offset 7, -24
 899              		.cfi_offset 8, -20
 900              		.cfi_offset 9, -16
 901              		.cfi_offset 10, -12
 902              		.cfi_offset 11, -8
 903              		.cfi_offset 14, -4
 904 0004 0446     		mov	r4, r0
 905 0006 A5B0     		sub	sp, sp, #148
 906              	.LCFI5:
 907              		.cfi_def_cfa_offset 184
 908              		.loc 1 453 0
 909 0008 9748     		ldr	r0, .L197
 910              	.LVL78:
ARM GAS  C:\Users\Elis\AppData\Local\Temp\ccIy8Y2d.s 			page 17


 911 000a FFF7FEFF 		bl	gdispOpenFont
 912              	.LVL79:
 913              		.loc 1 454 0
 914 000e 1290     		str	r0, [sp, #72]
 915 0010 0028     		cmp	r0, #0
 916 0012 00F00484 		beq	.L190
 917              	.L144:
 918              	.LVL80:
 919              		.loc 1 455 0
 920 0016 9548     		ldr	r0, .L197+4
 921 0018 FFF7FEFF 		bl	gdispOpenFont
 922              	.LVL81:
 923              		.loc 1 456 0
 924 001c 1390     		str	r0, [sp, #76]
 925 001e 0028     		cmp	r0, #0
 926 0020 00F00384 		beq	.L191
 927              	.L145:
 928              	.LVL82:
 929              		.loc 1 459 0
 930 0024 E069     		ldr	r0, [r4, #28]
 931 0026 FFF7FEFF 		bl	gdispGGetWidth
 932              	.LVL83:
 933 002a 0C90     		str	r0, [sp, #48]
 934              	.LVL84:
 935              		.loc 1 460 0
 936 002c E069     		ldr	r0, [r4, #28]
 937 002e FFF7FEFF 		bl	gdispGGetHeight
 938              	.LVL85:
 939 0032 0D90     		str	r0, [sp, #52]
 940              	.LVL86:
 941              		.loc 1 462 0
 942 0034 0D9D     		ldr	r5, [sp, #52]
 943 0036 E069     		ldr	r0, [r4, #28]
 944 0038 0C9B     		ldr	r3, [sp, #48]
 945 003a 0095     		str	r5, [sp, #0]
 946 003c 0021     		movs	r1, #0
 947 003e 0A46     		mov	r2, r1
 948 0040 FFF7FEFF 		bl	gdispGSetClip
 949              	.LVL87:
 950              		.loc 1 469 0
 951 0044 6368     		ldr	r3, [r4, #4]
 952              		.loc 1 466 0
 953 0046 228A     		ldrh	r2, [r4, #16]
 954              		.loc 1 469 0
 955 0048 5888     		ldrh	r0, [r3, #2]
 956 004a 00F02001 		and	r1, r0, #32
 957              		.loc 1 466 0
 958 004e 42F01006 		orr	r6, r2, #16
 959              		.loc 1 469 0
 960 0052 8FB2     		uxth	r7, r1
 961              		.loc 1 466 0
 962 0054 2682     		strh	r6, [r4, #16]	@ movhi
 963              		.loc 1 469 0
 964 0056 002F     		cmp	r7, #0
 965 0058 00F00283 		beq	.L146
 966              		.loc 1 472 0
 967 005c 0D9F     		ldr	r7, [sp, #52]
ARM GAS  C:\Users\Elis\AppData\Local\Temp\ccIy8Y2d.s 			page 18


 968              		.loc 1 471 0
 969 005e 0C99     		ldr	r1, [sp, #48]
 970              		.loc 1 472 0
 971 0060 781E     		subs	r0, r7, #1
 972              		.loc 1 471 0
 973 0062 4E1E     		subs	r6, r1, #1
 974              		.loc 1 473 0
 975 0064 07EBD772 		add	r2, r7, r7, lsr #31
 976 0068 01EBD171 		add	r1, r1, r1, lsr #31
 977              		.loc 1 470 0
 978 006c 0023     		movs	r3, #0
 979              		.loc 1 471 0
 980 006e B5B2     		uxth	r5, r6
 981              		.loc 1 473 0
 982 0070 4F10     		asrs	r7, r1, #1
 983              		.loc 1 472 0
 984 0072 86B2     		uxth	r6, r0
 985              		.loc 1 473 0
 986 0074 5010     		asrs	r0, r2, #1
 987              		.loc 1 471 0
 988 0076 0B95     		str	r5, [sp, #44]
 989              		.loc 1 472 0
 990 0078 1196     		str	r6, [sp, #68]
 991              		.loc 1 473 0
 992 007a 1093     		str	r3, [sp, #64]
 993              		.loc 1 470 0
 994 007c ADF87030 		strh	r3, [sp, #112]	@ movhi
 995 0080 ADF87230 		strh	r3, [sp, #114]	@ movhi
 996              		.loc 1 471 0
 997 0084 ADF87450 		strh	r5, [sp, #116]	@ movhi
 998 0088 ADF87630 		strh	r3, [sp, #118]	@ movhi
 999              		.loc 1 472 0
 1000 008c ADF87850 		strh	r5, [sp, #120]	@ movhi
 1001 0090 ADF87A60 		strh	r6, [sp, #122]	@ movhi
 1002              		.loc 1 473 0
 1003 0094 ADF87C70 		strh	r7, [sp, #124]	@ movhi
 1004 0098 ADF87E00 		strh	r0, [sp, #126]	@ movhi
 1005 009c 1493     		str	r3, [sp, #80]
 1006              	.L147:
 1007              		.loc 1 482 0
 1008 009e E069     		ldr	r0, [r4, #28]
 1009              		.loc 1 484 0
 1010 00a0 734E     		ldr	r6, .L197+8
 1011              		.loc 1 482 0
 1012 00a2 1F21     		movs	r1, #31
 1013 00a4 FFF7FEFF 		bl	gdispGClear
 1014              	.LVL88:
 1015              		.loc 1 484 0
 1016 00a8 129B     		ldr	r3, [sp, #72]
 1017 00aa E069     		ldr	r0, [r4, #28]
 1018 00ac 0293     		str	r3, [sp, #8]
 1019 00ae 4FF6FF71 		movw	r1, #65535
 1020 00b2 1F22     		movs	r2, #31
 1021 00b4 1E25     		movs	r5, #30
 1022 00b6 0127     		movs	r7, #1
 1023 00b8 0095     		str	r5, [sp, #0]
 1024 00ba 0196     		str	r6, [sp, #4]
ARM GAS  C:\Users\Elis\AppData\Local\Temp\ccIy8Y2d.s 			page 19


 1025 00bc 0391     		str	r1, [sp, #12]
 1026 00be 0492     		str	r2, [sp, #16]
 1027 00c0 0021     		movs	r1, #0
 1028 00c2 0522     		movs	r2, #5
 1029 00c4 0C9B     		ldr	r3, [sp, #48]
 1030 00c6 0597     		str	r7, [sp, #20]
 1031 00c8 FFF7FEFF 		bl	gdispGFillStringBox
 1032              	.LVL89:
 1033              	.LBB33:
 1034              		.loc 1 494 0
 1035 00cc 6068     		ldr	r0, [r4, #4]
 1036 00ce 4388     		ldrh	r3, [r0, #2]
 1037 00d0 03F04001 		and	r1, r3, #64
 1038 00d4 0025     		movs	r5, #0
 1039 00d6 8AB2     		uxth	r2, r1
 1040 00d8 AA42     		cmp	r2, r5
 1041 00da 0CBF     		ite	eq
 1042 00dc 0326     		moveq	r6, #3
 1043 00de 0426     		movne	r6, #4
 1044 00e0 0A95     		str	r5, [sp, #40]
 1045 00e2 0E96     		str	r6, [sp, #56]
 1046              	.LVL90:
 1047              		.loc 1 497 0
 1048 00e4 0995     		str	r5, [sp, #36]
 1049              	.LVL91:
 1050              	.L158:
 1051              	.LBB34:
 1052              	.LBB35:
 1053              	.LBB36:
 1054              		.loc 1 334 0
 1055 00e6 0999     		ldr	r1, [sp, #36]
 1056 00e8 E069     		ldr	r0, [r4, #28]
 1057 00ea 1CAB     		add	r3, sp, #112
 1058 00ec 4FF6FF77 		movw	r7, #65535
 1059 00f0 33F821B0 		ldrh	fp, [r3, r1, lsl #2]
 1060 00f4 0197     		str	r7, [sp, #4]
 1061              	.LBE36:
 1062              	.LBE35:
 1063              		.loc 1 502 0
 1064 00f6 03EB8102 		add	r2, r3, r1, lsl #2
 1065              	.LVL92:
 1066              	.LBB38:
 1067              	.LBB37:
 1068              		.loc 1 334 0
 1069 00fa 1FFA8BFA 		uxth	sl, fp
 1070 00fe B2F80290 		ldrh	r9, [r2, #2]
 1071 0102 AAF10F05 		sub	r5, sl, #15
 1072 0106 2EB2     		sxth	r6, r5
 1073 0108 AAF10203 		sub	r3, sl, #2
 1074 010c 0FFA89F5 		sxth	r5, r9
 1075 0110 2A46     		mov	r2, r5
 1076              	.LVL93:
 1077 0112 3146     		mov	r1, r6
 1078              	.LVL94:
 1079 0114 1BB2     		sxth	r3, r3
 1080 0116 0095     		str	r5, [sp, #0]
 1081              		.loc 1 335 0
ARM GAS  C:\Users\Elis\AppData\Local\Temp\ccIy8Y2d.s 			page 20


 1082 0118 0AF10F08 		add	r8, sl, #15
 1083              		.loc 1 334 0
 1084 011c FFF7FEFF 		bl	gdispGDrawLine
 1085              	.LVL95:
 1086              		.loc 1 335 0
 1087 0120 0FFA88F8 		sxth	r8, r8
 1088 0124 0AF10201 		add	r1, sl, #2
 1089              		.loc 1 336 0
 1090 0128 1FFA89F9 		uxth	r9, r9
 1091              		.loc 1 335 0
 1092 012c E069     		ldr	r0, [r4, #28]
 1093 012e 0095     		str	r5, [sp, #0]
 1094 0130 2A46     		mov	r2, r5
 1095 0132 09B2     		sxth	r1, r1
 1096 0134 4346     		mov	r3, r8
 1097 0136 0197     		str	r7, [sp, #4]
 1098 0138 FFF7FEFF 		bl	gdispGDrawLine
 1099              	.LVL96:
 1100              		.loc 1 336 0
 1101 013c E069     		ldr	r0, [r4, #28]
 1102 013e 0197     		str	r7, [sp, #4]
 1103 0140 A9F10F02 		sub	r2, r9, #15
 1104 0144 A9F10207 		sub	r7, r9, #2
 1105 0148 15B2     		sxth	r5, r2
 1106 014a 0FFA8BFB 		sxth	fp, fp
 1107 014e 3FB2     		sxth	r7, r7
 1108 0150 5946     		mov	r1, fp
 1109 0152 5B46     		mov	r3, fp
 1110 0154 2A46     		mov	r2, r5
 1111 0156 0097     		str	r7, [sp, #0]
 1112 0158 FFF7FEFF 		bl	gdispGDrawLine
 1113              	.LVL97:
 1114              		.loc 1 337 0
 1115 015c 09F10F01 		add	r1, r9, #15
 1116 0160 0FB2     		sxth	r7, r1
 1117 0162 4FF6FF73 		movw	r3, #65535
 1118 0166 09F10202 		add	r2, r9, #2
 1119 016a E069     		ldr	r0, [r4, #28]
 1120 016c 0193     		str	r3, [sp, #4]
 1121 016e 5946     		mov	r1, fp
 1122 0170 5B46     		mov	r3, fp
 1123 0172 12B2     		sxth	r2, r2
 1124 0174 0097     		str	r7, [sp, #0]
 1125 0176 0F97     		str	r7, [sp, #60]
 1126 0178 FFF7FEFF 		bl	gdispGDrawLine
 1127              	.LVL98:
 1128              		.loc 1 338 0
 1129 017c AAF1070C 		sub	ip, sl, #7
 1130 0180 0FFA8CFB 		sxth	fp, ip
 1131 0184 E069     		ldr	r0, [r4, #28]
 1132 0186 0097     		str	r7, [sp, #0]
 1133 0188 4BF6F047 		movw	r7, #48368
 1134 018c 5B46     		mov	r3, fp
 1135 018e 3146     		mov	r1, r6
 1136 0190 0F9A     		ldr	r2, [sp, #60]
 1137 0192 0197     		str	r7, [sp, #4]
 1138 0194 CDF820B0 		str	fp, [sp, #32]
ARM GAS  C:\Users\Elis\AppData\Local\Temp\ccIy8Y2d.s 			page 21


 1139 0198 FFF7FEFF 		bl	gdispGDrawLine
 1140              	.LVL99:
 1141              		.loc 1 339 0
 1142 019c 0F9B     		ldr	r3, [sp, #60]
 1143 019e E069     		ldr	r0, [r4, #28]
 1144 01a0 0093     		str	r3, [sp, #0]
 1145 01a2 09F10701 		add	r1, r9, #7
 1146 01a6 4BF6F047 		movw	r7, #48368
 1147 01aa 0FFA81FB 		sxth	fp, r1
 1148 01ae 5A46     		mov	r2, fp
 1149 01b0 3146     		mov	r1, r6
 1150 01b2 3346     		mov	r3, r6
 1151 01b4 0197     		str	r7, [sp, #4]
 1152 01b6 FFF7FEFF 		bl	gdispGDrawLine
 1153              	.LVL100:
 1154              		.loc 1 340 0
 1155 01ba DDF820C0 		ldr	ip, [sp, #32]
 1156 01be E069     		ldr	r0, [r4, #28]
 1157 01c0 0197     		str	r7, [sp, #4]
 1158              		.loc 1 341 0
 1159 01c2 A9F10709 		sub	r9, r9, #7
 1160              		.loc 1 340 0
 1161 01c6 6346     		mov	r3, ip
 1162 01c8 3146     		mov	r1, r6
 1163 01ca 2A46     		mov	r2, r5
 1164              		.loc 1 341 0
 1165 01cc 0FFA89F9 		sxth	r9, r9
 1166              		.loc 1 340 0
 1167 01d0 0095     		str	r5, [sp, #0]
 1168 01d2 FFF7FEFF 		bl	gdispGDrawLine
 1169              	.LVL101:
 1170              		.loc 1 341 0
 1171 01d6 E069     		ldr	r0, [r4, #28]
 1172 01d8 0197     		str	r7, [sp, #4]
 1173 01da 3146     		mov	r1, r6
 1174 01dc 4A46     		mov	r2, r9
 1175 01de 3346     		mov	r3, r6
 1176 01e0 0095     		str	r5, [sp, #0]
 1177 01e2 FFF7FEFF 		bl	gdispGDrawLine
 1178              	.LVL102:
 1179              		.loc 1 342 0
 1180 01e6 0AF1070A 		add	sl, sl, #7
 1181 01ea 0F9A     		ldr	r2, [sp, #60]
 1182 01ec E069     		ldr	r0, [r4, #28]
 1183 01ee 0092     		str	r2, [sp, #0]
 1184 01f0 0FFA8AFA 		sxth	sl, sl
 1185 01f4 4BF6F047 		movw	r7, #48368
 1186 01f8 5146     		mov	r1, sl
 1187 01fa 4346     		mov	r3, r8
 1188 01fc 0197     		str	r7, [sp, #4]
 1189 01fe FFF7FEFF 		bl	gdispGDrawLine
 1190              	.LVL103:
 1191              		.loc 1 343 0
 1192 0202 0F9B     		ldr	r3, [sp, #60]
 1193 0204 E069     		ldr	r0, [r4, #28]
 1194 0206 0093     		str	r3, [sp, #0]
 1195 0208 4BF6F047 		movw	r7, #48368
ARM GAS  C:\Users\Elis\AppData\Local\Temp\ccIy8Y2d.s 			page 22


 1196 020c 4146     		mov	r1, r8
 1197 020e 5A46     		mov	r2, fp
 1198 0210 4346     		mov	r3, r8
 1199 0212 0197     		str	r7, [sp, #4]
 1200 0214 FFF7FEFF 		bl	gdispGDrawLine
 1201              	.LVL104:
 1202              		.loc 1 344 0
 1203 0218 E069     		ldr	r0, [r4, #28]
 1204 021a 0095     		str	r5, [sp, #0]
 1205 021c 5146     		mov	r1, sl
 1206 021e 2A46     		mov	r2, r5
 1207 0220 4346     		mov	r3, r8
 1208 0222 0197     		str	r7, [sp, #4]
 1209 0224 FFF7FEFF 		bl	gdispGDrawLine
 1210              	.LVL105:
 1211              		.loc 1 345 0
 1212 0228 E069     		ldr	r0, [r4, #28]
 1213 022a CDF80090 		str	r9, [sp, #0]
 1214 022e 4146     		mov	r1, r8
 1215 0230 0197     		str	r7, [sp, #4]
 1216 0232 2A46     		mov	r2, r5
 1217 0234 4346     		mov	r3, r8
 1218 0236 FFF7FEFF 		bl	gdispGDrawLine
 1219              	.LVL106:
 1220 023a E089     		ldrh	r0, [r4, #14]
 1221 023c 00F00100 		and	r0, r0, #1
 1222              	.L188:
 1223              	.LBE37:
 1224              	.LBE38:
 1225              		.loc 1 507 0 discriminator 1
 1226 0240 0028     		cmp	r0, #0
 1227 0242 00F00682 		beq	.L154
 1228              		.loc 1 507 0 is_stmt 0
 1229 0246 4FF0000B 		mov	fp, #0
 1230 024a 5F46     		mov	r7, fp
 1231 024c D846     		mov	r8, fp
 1232              	.L156:
 1233              		.loc 1 519 0 is_stmt 1
 1234 024e 1420     		movs	r0, #20
 1235              		.loc 1 514 0
 1236 0250 BBF1F90F 		cmp	fp, #249
 1237 0254 0ED8     		bhi	.L155
 1238              		.loc 1 515 0
 1239 0256 B4F90810 		ldrsh	r1, [r4, #8]
 1240              		.loc 1 516 0
 1241 025a B4F90A20 		ldrsh	r2, [r4, #10]
 1242              		.loc 1 515 0
 1243 025e 8844     		add	r8, r8, r1
 1244              	.LVL107:
 1245              		.loc 1 516 0
 1246 0260 BF18     		adds	r7, r7, r2
 1247              	.LVL108:
 1248              		.loc 1 517 0
 1249 0262 0BF1010B 		add	fp, fp, #1
 1250 0266 05E0     		b	.L198
 1251              	.L199:
 1252              		.align	2
ARM GAS  C:\Users\Elis\AppData\Local\Temp\ccIy8Y2d.s 			page 23


 1253              	.L197:
 1254 0268 00000000 		.word	.LC0
 1255 026c 10000000 		.word	.LC2
 1256 0270 1C000000 		.word	.LC3
 1257              	.L198:
 1258              	.LVL109:
 1259              	.L155:
 1260              		.loc 1 519 0
 1261 0274 FFF7FEFF 		bl	gfxSleepMilliseconds
 1262              	.LVL110:
 1263              		.loc 1 512 0
 1264 0278 E389     		ldrh	r3, [r4, #14]
 1265 027a 13F00100 		ands	r0, r3, #1
 1266 027e E6D1     		bne	.L156
 1267              		.loc 1 523 0
 1268 0280 BBF10E0F 		cmp	fp, #14
 1269 0284 DCD9     		bls	.L188
 1270              	.LBB39:
 1271              	.LBB40:
 1272              		.loc 1 349 0
 1273 0286 1F21     		movs	r1, #31
 1274 0288 E069     		ldr	r0, [r4, #28]
 1275              	.LBE40:
 1276              	.LBE39:
 1277              		.loc 1 443 0
 1278 028a 0A9A     		ldr	r2, [sp, #40]
 1279              	.LBB45:
 1280              	.LBB41:
 1281              		.loc 1 349 0
 1282 028c 0091     		str	r1, [sp, #0]
 1283 028e 0191     		str	r1, [sp, #4]
 1284 0290 3146     		mov	r1, r6
 1285              	.LBE41:
 1286              	.LBE45:
 1287              	.LBE34:
 1288              		.loc 1 497 0
 1289 0292 099E     		ldr	r6, [sp, #36]
 1290              	.LBB49:
 1291              		.loc 1 443 0
 1292 0294 20AB     		add	r3, sp, #128
 1293 0296 03EB020E 		add	lr, r3, r2
 1294              	.LBB46:
 1295              	.LBB42:
 1296              		.loc 1 349 0
 1297 029a 2A46     		mov	r2, r5
 1298              	.LBE42:
 1299              	.LBE46:
 1300              	.LBE49:
 1301              		.loc 1 497 0
 1302 029c 751C     		adds	r5, r6, #1
 1303 029e 0995     		str	r5, [sp, #36]
 1304              	.LBB50:
 1305              		.loc 1 524 0
 1306 02a0 0A9E     		ldr	r6, [sp, #40]
 1307 02a2 20AD     		add	r5, sp, #128
 1308 02a4 B8FBFBFC 		udiv	ip, r8, fp
 1309              		.loc 1 525 0
ARM GAS  C:\Users\Elis\AppData\Local\Temp\ccIy8Y2d.s 			page 24


 1310 02a8 B7FBFBF7 		udiv	r7, r7, fp
 1311              	.LVL111:
 1312              	.LBB47:
 1313              	.LBB43:
 1314              		.loc 1 349 0
 1315 02ac 1F23     		movs	r3, #31
 1316              	.LBE43:
 1317              	.LBE47:
 1318              		.loc 1 524 0
 1319 02ae 25F806C0 		strh	ip, [r5, r6]	@ movhi
 1320              		.loc 1 525 0
 1321 02b2 AEF80270 		strh	r7, [lr, #2]	@ movhi
 1322              	.LVL112:
 1323 02b6 371D     		adds	r7, r6, #4
 1324 02b8 0A97     		str	r7, [sp, #40]
 1325              	.LBB48:
 1326              	.LBB44:
 1327              		.loc 1 349 0
 1328 02ba FFF7FEFF 		bl	gdispGFillArea
 1329              	.LVL113:
 1330              	.LBE44:
 1331              	.LBE48:
 1332              	.LBE50:
 1333              		.loc 1 497 0
 1334 02be 0E98     		ldr	r0, [sp, #56]
 1335 02c0 0999     		ldr	r1, [sp, #36]
 1336 02c2 8842     		cmp	r0, r1
 1337 02c4 3FF60FAF 		bhi	.L158
 1338              	.LVL114:
 1339              	.LBE33:
 1340              	.LBB52:
 1341              	.LBB53:
 1342              		.loc 1 363 0
 1343 02c8 D4F804B0 		ldr	fp, [r4, #4]
 1344              	.LVL115:
 1345 02cc BBF80230 		ldrh	r3, [fp, #2]
 1346              	.LBE53:
 1347 02d0 03F00402 		and	r2, r3, #4
 1348 02d4 92B2     		uxth	r2, r2
 1349              	.LBB54:
 1350 02d6 002A     		cmp	r2, #0
 1351 02d8 00F01082 		beq	.L192
 1352              	.LVL116:
 1353              	.L179:
 1354              		.loc 1 360 0
 1355 02dc 0B9E     		ldr	r6, [sp, #44]
 1356              		.loc 1 358 0
 1357 02de 149D     		ldr	r5, [sp, #80]
 1358              		.loc 1 359 0
 1359 02e0 B146     		mov	r9, r6
 1360              	.LVL117:
 1361              	.L159:
 1362              		.loc 1 392 0
 1363 02e2 BDF98810 		ldrsh	r1, [sp, #136]
 1364 02e6 BDF98070 		ldrsh	r7, [sp, #128]
 1365 02ea 0991     		str	r1, [sp, #36]
 1366 02ec 0998     		ldr	r0, [sp, #36]
ARM GAS  C:\Users\Elis\AppData\Local\Temp\ccIy8Y2d.s 			page 25


 1367 02ee 0792     		str	r2, [sp, #28]
 1368 02f0 381A     		subs	r0, r7, r0
 1369 02f2 1897     		str	r7, [sp, #96]
 1370 02f4 0693     		str	r3, [sp, #24]
 1371 02f6 FFF7FEFF 		bl	__aeabi_i2f
 1372              	.LVL118:
 1373 02fa BDF98630 		ldrsh	r3, [sp, #134]
 1374 02fe BDF98A80 		ldrsh	r8, [sp, #138]
 1375              	.LVL119:
 1376 0302 0A90     		str	r0, [sp, #40]	@ float
 1377 0304 C8EB0300 		rsb	r0, r8, r3
 1378 0308 1993     		str	r3, [sp, #100]
 1379 030a FFF7FEFF 		bl	__aeabi_i2f
 1380              	.LVL120:
 1381              		.loc 1 393 0
 1382 030e BDF98420 		ldrsh	r2, [sp, #132]
 1383 0312 0999     		ldr	r1, [sp, #36]
 1384              		.loc 1 392 0
 1385 0314 0E90     		str	r0, [sp, #56]	@ float
 1386              		.loc 1 393 0
 1387 0316 501A     		subs	r0, r2, r1
 1388 0318 0F92     		str	r2, [sp, #60]
 1389 031a FFF7FEFF 		bl	__aeabi_i2f
 1390              	.LVL121:
 1391 031e BDF982A0 		ldrsh	sl, [sp, #130]
 1392 0322 1590     		str	r0, [sp, #84]	@ float
 1393 0324 C8EB0A00 		rsb	r0, r8, sl
 1394 0328 CDF820A0 		str	sl, [sp, #32]
 1395 032c FFF7FEFF 		bl	__aeabi_i2f
 1396              	.LVL122:
 1397              		.loc 1 392 0
 1398 0330 0E99     		ldr	r1, [sp, #56]	@ float
 1399              		.loc 1 393 0
 1400 0332 1690     		str	r0, [sp, #88]	@ float
 1401              		.loc 1 392 0
 1402 0334 0A98     		ldr	r0, [sp, #40]	@ float
 1403 0336 FFF7FEFF 		bl	__aeabi_fmul
 1404              	.LVL123:
 1405              		.loc 1 393 0
 1406 033a 1699     		ldr	r1, [sp, #88]	@ float
 1407              		.loc 1 392 0
 1408 033c 0746     		mov	r7, r0
 1409              		.loc 1 393 0
 1410 033e 1598     		ldr	r0, [sp, #84]	@ float
 1411 0340 FFF7FEFF 		bl	__aeabi_fmul
 1412              	.LVL124:
 1413              		.loc 1 395 0
 1414 0344 36B2     		sxth	r6, r6
 1415              	.LVL125:
 1416              		.loc 1 393 0
 1417 0346 0146     		mov	r1, r0
 1418              		.loc 1 395 0
 1419 0348 2DB2     		sxth	r5, r5
 1420              	.LVL126:
 1421              		.loc 1 392 0
 1422 034a 3846     		mov	r0, r7
 1423              		.loc 1 395 0
ARM GAS  C:\Users\Elis\AppData\Local\Temp\ccIy8Y2d.s 			page 26


 1424 034c 1796     		str	r6, [sp, #92]
 1425 034e 1A95     		str	r5, [sp, #104]
 1426              		.loc 1 392 0
 1427 0350 FFF7FEFF 		bl	__aeabi_fsub
 1428              	.LVL127:
 1429              		.loc 1 396 0
 1430 0354 0FFA89FC 		sxth	ip, r9
 1431              		.loc 1 392 0
 1432 0358 8246     		mov	sl, r0
 1433              	.LVL128:
 1434              		.loc 1 395 0
 1435 035a A81B     		subs	r0, r5, r6
 1436              	.LVL129:
 1437              		.loc 1 396 0
 1438 035c CDF86CC0 		str	ip, [sp, #108]
 1439              		.loc 1 395 0
 1440 0360 FFF7FEFF 		bl	__aeabi_i2f
 1441              	.LVL130:
 1442              		.loc 1 396 0
 1443 0364 DDF86C90 		ldr	r9, [sp, #108]
 1444              	.LVL131:
 1445              		.loc 1 395 0
 1446 0368 0546     		mov	r5, r0
 1447              		.loc 1 396 0
 1448 036a C6EB0900 		rsb	r0, r6, r9
 1449 036e FFF7FEFF 		bl	__aeabi_i2f
 1450              	.LVL132:
 1451              		.loc 1 395 0
 1452 0372 2946     		mov	r1, r5
 1453              		.loc 1 396 0
 1454 0374 0646     		mov	r6, r0
 1455              		.loc 1 395 0
 1456 0376 0E98     		ldr	r0, [sp, #56]	@ float
 1457 0378 FFF7FEFF 		bl	__aeabi_fmul
 1458              	.LVL133:
 1459              		.loc 1 396 0
 1460 037c 3146     		mov	r1, r6
 1461              		.loc 1 395 0
 1462 037e 0746     		mov	r7, r0
 1463              		.loc 1 396 0
 1464 0380 1698     		ldr	r0, [sp, #88]	@ float
 1465 0382 FFF7FEFF 		bl	__aeabi_fmul
 1466              	.LVL134:
 1467 0386 0146     		mov	r1, r0
 1468 0388 3846     		mov	r0, r7
 1469 038a FFF7FEFF 		bl	__aeabi_fsub
 1470              	.LVL135:
 1471 038e 5146     		mov	r1, sl
 1472 0390 FFF7FEFF 		bl	__aeabi_fdiv
 1473              	.LVL136:
 1474              		.loc 1 397 0
 1475 0394 3146     		mov	r1, r6
 1476              		.loc 1 395 0
 1477 0396 2062     		str	r0, [r4, #32]	@ float
 1478              		.loc 1 397 0
 1479 0398 0A98     		ldr	r0, [sp, #40]	@ float
 1480 039a FFF7FEFF 		bl	__aeabi_fmul
ARM GAS  C:\Users\Elis\AppData\Local\Temp\ccIy8Y2d.s 			page 27


 1481              	.LVL137:
 1482              		.loc 1 398 0
 1483 039e 2946     		mov	r1, r5
 1484              		.loc 1 397 0
 1485 03a0 0646     		mov	r6, r0
 1486              		.loc 1 398 0
 1487 03a2 1598     		ldr	r0, [sp, #84]	@ float
 1488 03a4 FFF7FEFF 		bl	__aeabi_fmul
 1489              	.LVL138:
 1490 03a8 0146     		mov	r1, r0
 1491 03aa 3046     		mov	r0, r6
 1492 03ac FFF7FEFF 		bl	__aeabi_fsub
 1493              	.LVL139:
 1494 03b0 5146     		mov	r1, sl
 1495 03b2 FFF7FEFF 		bl	__aeabi_fdiv
 1496              	.LVL140:
 1497              		.loc 1 397 0
 1498 03b6 6062     		str	r0, [r4, #36]	@ float
 1499              		.loc 1 399 0
 1500 03b8 0F98     		ldr	r0, [sp, #60]
 1501 03ba FFF7FEFF 		bl	__aeabi_i2f
 1502              	.LVL141:
 1503 03be 0F90     		str	r0, [sp, #60]	@ float
 1504 03c0 4046     		mov	r0, r8
 1505 03c2 FFF7FEFF 		bl	__aeabi_i2f
 1506              	.LVL142:
 1507 03c6 8146     		mov	r9, r0
 1508 03c8 0998     		ldr	r0, [sp, #36]
 1509 03ca FFF7FEFF 		bl	__aeabi_i2f
 1510              	.LVL143:
 1511 03ce 8046     		mov	r8, r0
 1512 03d0 1998     		ldr	r0, [sp, #100]
 1513 03d2 FFF7FEFF 		bl	__aeabi_i2f
 1514              	.LVL144:
 1515 03d6 4946     		mov	r1, r9
 1516 03d8 0746     		mov	r7, r0
 1517 03da 0F98     		ldr	r0, [sp, #60]	@ float
 1518 03dc FFF7FEFF 		bl	__aeabi_fmul
 1519              	.LVL145:
 1520 03e0 3946     		mov	r1, r7
 1521 03e2 0546     		mov	r5, r0
 1522 03e4 4046     		mov	r0, r8
 1523 03e6 FFF7FEFF 		bl	__aeabi_fmul
 1524              	.LVL146:
 1525 03ea 0146     		mov	r1, r0
 1526 03ec 2846     		mov	r0, r5
 1527 03ee FFF7FEFF 		bl	__aeabi_fsub
 1528              	.LVL147:
 1529 03f2 0990     		str	r0, [sp, #36]	@ float
 1530              		.loc 1 400 0
 1531 03f4 1898     		ldr	r0, [sp, #96]
 1532 03f6 FFF7FEFF 		bl	__aeabi_i2f
 1533              	.LVL148:
 1534 03fa DDF820C0 		ldr	ip, [sp, #32]
 1535 03fe 0646     		mov	r6, r0
 1536 0400 6046     		mov	r0, ip
 1537 0402 FFF7FEFF 		bl	__aeabi_i2f
ARM GAS  C:\Users\Elis\AppData\Local\Temp\ccIy8Y2d.s 			page 28


 1538              	.LVL149:
 1539 0406 3146     		mov	r1, r6
 1540 0408 0546     		mov	r5, r0
 1541 040a 4846     		mov	r0, r9
 1542 040c FFF7FEFF 		bl	__aeabi_fmul
 1543              	.LVL150:
 1544 0410 2946     		mov	r1, r5
 1545 0412 8146     		mov	r9, r0
 1546 0414 4046     		mov	r0, r8
 1547 0416 FFF7FEFF 		bl	__aeabi_fmul
 1548              	.LVL151:
 1549 041a 0146     		mov	r1, r0
 1550 041c 4846     		mov	r0, r9
 1551 041e FFF7FEFF 		bl	__aeabi_fsub
 1552              	.LVL152:
 1553              		.loc 1 401 0
 1554 0422 3146     		mov	r1, r6
 1555              		.loc 1 400 0
 1556 0424 8146     		mov	r9, r0
 1557              		.loc 1 401 0
 1558 0426 3846     		mov	r0, r7
 1559 0428 FFF7FEFF 		bl	__aeabi_fmul
 1560              	.LVL153:
 1561 042c 2946     		mov	r1, r5
 1562 042e 0746     		mov	r7, r0
 1563 0430 0F98     		ldr	r0, [sp, #60]	@ float
 1564 0432 FFF7FEFF 		bl	__aeabi_fmul
 1565              	.LVL154:
 1566 0436 0146     		mov	r1, r0
 1567 0438 3846     		mov	r0, r7
 1568 043a FFF7FEFF 		bl	__aeabi_fsub
 1569              	.LVL155:
 1570 043e 0F90     		str	r0, [sp, #60]	@ float
 1571              		.loc 1 399 0
 1572 0440 1A98     		ldr	r0, [sp, #104]
 1573 0442 FFF7FEFF 		bl	__aeabi_i2f
 1574              	.LVL156:
 1575 0446 0999     		ldr	r1, [sp, #36]	@ float
 1576 0448 FFF7FEFF 		bl	__aeabi_fmul
 1577              	.LVL157:
 1578 044c 0646     		mov	r6, r0
 1579              		.loc 1 400 0
 1580 044e 1B98     		ldr	r0, [sp, #108]
 1581 0450 FFF7FEFF 		bl	__aeabi_i2f
 1582              	.LVL158:
 1583 0454 4946     		mov	r1, r9
 1584 0456 FFF7FEFF 		bl	__aeabi_fmul
 1585              	.LVL159:
 1586 045a 0146     		mov	r1, r0
 1587 045c 3046     		mov	r0, r6
 1588 045e FFF7FEFF 		bl	__aeabi_fsub
 1589              	.LVL160:
 1590 0462 0546     		mov	r5, r0
 1591              		.loc 1 401 0
 1592 0464 1798     		ldr	r0, [sp, #92]
 1593 0466 FFF7FEFF 		bl	__aeabi_i2f
 1594              	.LVL161:
ARM GAS  C:\Users\Elis\AppData\Local\Temp\ccIy8Y2d.s 			page 29


 1595 046a 0F99     		ldr	r1, [sp, #60]	@ float
 1596 046c FFF7FEFF 		bl	__aeabi_fmul
 1597              	.LVL162:
 1598 0470 0146     		mov	r1, r0
 1599 0472 2846     		mov	r0, r5
 1600 0474 FFF7FEFF 		bl	__aeabi_fadd
 1601              	.LVL163:
 1602 0478 5146     		mov	r1, sl
 1603 047a FFF7FEFF 		bl	__aeabi_fdiv
 1604              	.LVL164:
 1605              		.loc 1 399 0
 1606 047e A062     		str	r0, [r4, #40]	@ float
 1607              	.LVL165:
 1608              		.loc 1 409 0
 1609 0480 0798     		ldr	r0, [sp, #28]
 1610 0482 069B     		ldr	r3, [sp, #24]
 1611 0484 0028     		cmp	r0, #0
 1612 0486 00F02781 		beq	.L193
 1613              		.loc 1 405 0
 1614 048a 109A     		ldr	r2, [sp, #64]
 1615 048c 0B92     		str	r2, [sp, #44]
 1616              	.LVL166:
 1617              	.L164:
 1618              		.loc 1 434 0
 1619 048e 109A     		ldr	r2, [sp, #64]
 1620 0490 1199     		ldr	r1, [sp, #68]
 1621              		.loc 1 435 0
 1622 0492 0B9D     		ldr	r5, [sp, #44]
 1623              		.loc 1 434 0
 1624 0494 0693     		str	r3, [sp, #24]
 1625 0496 17B2     		sxth	r7, r2
 1626 0498 0FFA81F8 		sxth	r8, r1
 1627              		.loc 1 435 0
 1628 049c 2EB2     		sxth	r6, r5
 1629              		.loc 1 434 0
 1630 049e C8EB0700 		rsb	r0, r8, r7
 1631              		.loc 1 435 0
 1632 04a2 0B96     		str	r6, [sp, #44]
 1633              		.loc 1 434 0
 1634 04a4 0797     		str	r7, [sp, #28]
 1635 04a6 FFF7FEFF 		bl	__aeabi_i2f
 1636              	.LVL167:
 1637 04aa 0546     		mov	r5, r0
 1638              		.loc 1 435 0
 1639 04ac C8EB0600 		rsb	r0, r8, r6
 1640 04b0 FFF7FEFF 		bl	__aeabi_i2f
 1641              	.LVL168:
 1642              		.loc 1 434 0
 1643 04b4 2946     		mov	r1, r5
 1644              		.loc 1 435 0
 1645 04b6 0646     		mov	r6, r0
 1646              		.loc 1 434 0
 1647 04b8 0E98     		ldr	r0, [sp, #56]	@ float
 1648 04ba FFF7FEFF 		bl	__aeabi_fmul
 1649              	.LVL169:
 1650              		.loc 1 435 0
 1651 04be 3146     		mov	r1, r6
ARM GAS  C:\Users\Elis\AppData\Local\Temp\ccIy8Y2d.s 			page 30


 1652              		.loc 1 434 0
 1653 04c0 0746     		mov	r7, r0
 1654              		.loc 1 435 0
 1655 04c2 1698     		ldr	r0, [sp, #88]	@ float
 1656 04c4 FFF7FEFF 		bl	__aeabi_fmul
 1657              	.LVL170:
 1658 04c8 0146     		mov	r1, r0
 1659 04ca 3846     		mov	r0, r7
 1660 04cc FFF7FEFF 		bl	__aeabi_fsub
 1661              	.LVL171:
 1662 04d0 5146     		mov	r1, sl
 1663 04d2 FFF7FEFF 		bl	__aeabi_fdiv
 1664              	.LVL172:
 1665              		.loc 1 436 0
 1666 04d6 3146     		mov	r1, r6
 1667              		.loc 1 434 0
 1668 04d8 E062     		str	r0, [r4, #44]	@ float
 1669              		.loc 1 435 0
 1670 04da 0746     		mov	r7, r0
 1671              		.loc 1 436 0
 1672 04dc 0A98     		ldr	r0, [sp, #40]	@ float
 1673 04de FFF7FEFF 		bl	__aeabi_fmul
 1674              	.LVL173:
 1675              		.loc 1 437 0
 1676 04e2 2946     		mov	r1, r5
 1677              		.loc 1 436 0
 1678 04e4 0646     		mov	r6, r0
 1679              		.loc 1 437 0
 1680 04e6 1598     		ldr	r0, [sp, #84]	@ float
 1681 04e8 FFF7FEFF 		bl	__aeabi_fmul
 1682              	.LVL174:
 1683 04ec 0146     		mov	r1, r0
 1684 04ee 3046     		mov	r0, r6
 1685 04f0 FFF7FEFF 		bl	__aeabi_fsub
 1686              	.LVL175:
 1687 04f4 5146     		mov	r1, sl
 1688 04f6 FFF7FEFF 		bl	__aeabi_fdiv
 1689              	.LVL176:
 1690              		.loc 1 438 0
 1691 04fa 079B     		ldr	r3, [sp, #28]
 1692              		.loc 1 436 0
 1693 04fc 2063     		str	r0, [r4, #48]	@ float
 1694              		.loc 1 437 0
 1695 04fe 0646     		mov	r6, r0
 1696              		.loc 1 438 0
 1697 0500 1846     		mov	r0, r3
 1698 0502 FFF7FEFF 		bl	__aeabi_i2f
 1699              	.LVL177:
 1700 0506 0146     		mov	r1, r0
 1701 0508 0998     		ldr	r0, [sp, #36]	@ float
 1702 050a FFF7FEFF 		bl	__aeabi_fmul
 1703              	.LVL178:
 1704 050e 0546     		mov	r5, r0
 1705              		.loc 1 439 0
 1706 0510 0B98     		ldr	r0, [sp, #44]
 1707 0512 FFF7FEFF 		bl	__aeabi_i2f
 1708              	.LVL179:
ARM GAS  C:\Users\Elis\AppData\Local\Temp\ccIy8Y2d.s 			page 31


 1709 0516 0146     		mov	r1, r0
 1710 0518 4846     		mov	r0, r9
 1711 051a FFF7FEFF 		bl	__aeabi_fmul
 1712              	.LVL180:
 1713 051e 0146     		mov	r1, r0
 1714 0520 2846     		mov	r0, r5
 1715 0522 FFF7FEFF 		bl	__aeabi_fsub
 1716              	.LVL181:
 1717 0526 0546     		mov	r5, r0
 1718              		.loc 1 440 0
 1719 0528 4046     		mov	r0, r8
 1720 052a FFF7FEFF 		bl	__aeabi_i2f
 1721              	.LVL182:
 1722 052e 0146     		mov	r1, r0
 1723 0530 0F98     		ldr	r0, [sp, #60]	@ float
 1724 0532 FFF7FEFF 		bl	__aeabi_fmul
 1725              	.LVL183:
 1726 0536 0146     		mov	r1, r0
 1727 0538 2846     		mov	r0, r5
 1728 053a FFF7FEFF 		bl	__aeabi_fadd
 1729              	.LVL184:
 1730 053e 5146     		mov	r1, sl
 1731 0540 FFF7FEFF 		bl	__aeabi_fdiv
 1732              	.LVL185:
 1733              	.LBE54:
 1734              	.LBE52:
 1735              		.loc 1 540 0
 1736 0544 0699     		ldr	r1, [sp, #24]
 1737              	.LBB61:
 1738              	.LBB55:
 1739              		.loc 1 440 0
 1740 0546 8046     		mov	r8, r0
 1741              	.LBE55:
 1742              	.LBE61:
 1743              		.loc 1 540 0
 1744 0548 01F04000 		and	r0, r1, #64
 1745 054c 82B2     		uxth	r2, r0
 1746              	.LBB62:
 1747              	.LBB56:
 1748              		.loc 1 438 0
 1749 054e C4F83480 		str	r8, [r4, #52]	@ float
 1750              	.LBE56:
 1751              	.LBE62:
 1752              		.loc 1 540 0
 1753 0552 002A     		cmp	r2, #0
 1754 0554 58D0     		beq	.L169
 1755              	.LBB63:
 1756              		.loc 1 544 0
 1757 0556 238A     		ldrh	r3, [r4, #16]
 1758 0558 03F02005 		and	r5, r3, #32
 1759 055c A8B2     		uxth	r0, r5
 1760 055e 0028     		cmp	r0, #0
 1761 0560 40F0B780 		bne	.L194
 1762              		.loc 1 544 0 is_stmt 0 discriminator 2
 1763 0564 0BF11C0B 		add	fp, fp, #28
 1764              	.L171:
 1765              	.LVL186:
ARM GAS  C:\Users\Elis\AppData\Local\Temp\ccIy8Y2d.s 			page 32


 1766              	.LBB64:
 1767              	.LBB65:
 1768              		.loc 1 59 0 is_stmt 1 discriminator 3
 1769 0568 BDF98E00 		ldrsh	r0, [sp, #142]
 1770 056c 0691     		str	r1, [sp, #24]
 1771 056e FFF7FEFF 		bl	__aeabi_i2f
 1772              	.LVL187:
 1773 0572 0990     		str	r0, [sp, #36]	@ float
 1774 0574 BDF98C00 		ldrsh	r0, [sp, #140]
 1775 0578 FFF7FEFF 		bl	__aeabi_i2f
 1776              	.LVL188:
 1777 057c 216A     		ldr	r1, [r4, #32]	@ float
 1778 057e FFF7FEFF 		bl	__aeabi_fmul
 1779              	.LVL189:
 1780 0582 616A     		ldr	r1, [r4, #36]	@ float
 1781 0584 0546     		mov	r5, r0
 1782 0586 0998     		ldr	r0, [sp, #36]	@ float
 1783 0588 FFF7FEFF 		bl	__aeabi_fmul
 1784              	.LVL190:
 1785 058c 0146     		mov	r1, r0
 1786 058e 2846     		mov	r0, r5
 1787 0590 FFF7FEFF 		bl	__aeabi_fadd
 1788              	.LVL191:
 1789 0594 A16A     		ldr	r1, [r4, #40]	@ float
 1790 0596 FFF7FEFF 		bl	__aeabi_fadd
 1791              	.LVL192:
 1792 059a FFF7FEFF 		bl	__aeabi_f2iz
 1793              	.LVL193:
 1794 059e 8146     		mov	r9, r0
 1795              		.loc 1 60 0 discriminator 3
 1796 05a0 00B2     		sxth	r0, r0
 1797 05a2 FFF7FEFF 		bl	__aeabi_i2f
 1798              	.LVL194:
 1799 05a6 0146     		mov	r1, r0
 1800 05a8 3846     		mov	r0, r7
 1801 05aa FFF7FEFF 		bl	__aeabi_fmul
 1802              	.LVL195:
 1803 05ae 0999     		ldr	r1, [sp, #36]	@ float
 1804 05b0 8246     		mov	sl, r0
 1805              	.LVL196:
 1806 05b2 3046     		mov	r0, r6
 1807 05b4 FFF7FEFF 		bl	__aeabi_fmul
 1808              	.LVL197:
 1809 05b8 0146     		mov	r1, r0
 1810 05ba 5046     		mov	r0, sl
 1811 05bc FFF7FEFF 		bl	__aeabi_fadd
 1812              	.LVL198:
 1813 05c0 0146     		mov	r1, r0
 1814 05c2 4046     		mov	r0, r8
 1815 05c4 FFF7FEFF 		bl	__aeabi_fadd
 1816              	.LVL199:
 1817 05c8 FFF7FEFF 		bl	__aeabi_f2iz
 1818              	.LVL200:
 1819              	.LBE65:
 1820              	.LBE64:
 1821              		.loc 1 551 0 discriminator 3
 1822 05cc 069E     		ldr	r6, [sp, #24]
ARM GAS  C:\Users\Elis\AppData\Local\Temp\ccIy8Y2d.s 			page 33


 1823 05ce 06F00402 		and	r2, r6, #4
 1824 05d2 93B2     		uxth	r3, r2
 1825              	.LBB67:
 1826              	.LBB66:
 1827              		.loc 1 59 0 discriminator 3
 1828 05d4 1FFA89F5 		uxth	r5, r9
 1829              		.loc 1 60 0 discriminator 3
 1830 05d8 0746     		mov	r7, r0
 1831 05da 86B2     		uxth	r6, r0
 1832              	.LBE66:
 1833              	.LBE67:
 1834              		.loc 1 551 0 discriminator 3
 1835 05dc 002B     		cmp	r3, #0
 1836 05de 00F0F180 		beq	.L195
 1837              	.L172:
 1838              		.loc 1 578 0
 1839 05e2 BDF97E20 		ldrsh	r2, [sp, #126]
 1840 05e6 BDF97C00 		ldrsh	r0, [sp, #124]
 1841              		.loc 1 579 0
 1842 05ea BBF80030 		ldrh	r3, [fp, #0]
 1843              		.loc 1 578 0
 1844 05ee 36B2     		sxth	r6, r6
 1845 05f0 29B2     		sxth	r1, r5
 1846 05f2 B21A     		subs	r2, r6, r2
 1847 05f4 0D1A     		subs	r5, r1, r0
 1848 05f6 02FB02F2 		mul	r2, r2, r2
 1849 05fa 05FB0525 		mla	r5, r5, r5, r2
 1850              	.LVL201:
 1851              		.loc 1 579 0
 1852 05fe 13FB03F0 		smulbb	r0, r3, r3
 1853 0602 8542     		cmp	r5, r0
 1854 0604 00F29280 		bhi	.L196
 1855              	.LVL202:
 1856              	.L169:
 1857              	.LBE63:
 1858              		.loc 1 594 0
 1859 0608 1298     		ldr	r0, [sp, #72]
 1860 060a FFF7FEFF 		bl	gdispCloseFont
 1861              	.LVL203:
 1862              		.loc 1 595 0
 1863 060e 1398     		ldr	r0, [sp, #76]
 1864 0610 FFF7FEFF 		bl	gdispCloseFont
 1865              	.LVL204:
 1866              		.loc 1 597 0
 1867 0614 218A     		ldrh	r1, [r4, #16]
 1868              		.loc 1 607 0
 1869 0616 6368     		ldr	r3, [r4, #4]
 1870              		.loc 1 597 0
 1871 0618 21F01002 		bic	r2, r1, #16
 1872              		.loc 1 607 0
 1873 061c 5D6B     		ldr	r5, [r3, #52]
 1874              		.loc 1 602 0
 1875 061e 42F00C00 		orr	r0, r2, #12
 1876 0622 2082     		strh	r0, [r4, #16]	@ movhi
 1877              		.loc 1 607 0
 1878 0624 2DB1     		cbz	r5, .L176
 1879              		.loc 1 608 0
ARM GAS  C:\Users\Elis\AppData\Local\Temp\ccIy8Y2d.s 			page 34


 1880 0626 2046     		mov	r0, r4
 1881 0628 04F12001 		add	r1, r4, #32
 1882 062c 1822     		movs	r2, #24
 1883 062e A847     		blx	r5
 1884              	.LVL205:
 1885 0630 0025     		movs	r5, #0
 1886              	.LVL206:
 1887              	.L176:
 1888              		.loc 1 612 0
 1889 0632 0021     		movs	r1, #0
 1890 0634 E181     		strh	r1, [r4, #14]	@ movhi
 1891              		.loc 1 613 0
 1892 0636 2046     		mov	r0, r4
 1893 0638 FFF7FEFF 		bl	GetMouseReading
 1894              	.LVL207:
 1895              		.loc 1 617 0
 1896 063c E469     		ldr	r4, [r4, #28]
 1897              	.LVL208:
 1898 063e FFF7FEFF 		bl	gwinGetDefaultBgColor
 1899              	.LVL209:
 1900 0642 0146     		mov	r1, r0
 1901 0644 2046     		mov	r0, r4
 1902 0646 FFF7FEFF 		bl	gdispGClear
 1903              	.LVL210:
 1904              		.loc 1 623 0
 1905 064a 2846     		mov	r0, r5
 1906 064c 25B0     		add	sp, sp, #148
 1907 064e BDE8F08F 		pop	{r4, r5, r6, r7, r8, r9, sl, fp, pc}
 1908              	.LVL211:
 1909              	.L154:
 1910              	.LBB70:
 1911              	.LBB51:
 1912              		.loc 1 508 0
 1913 0652 1420     		movs	r0, #20
 1914 0654 FFF7FEFF 		bl	gfxSleepMilliseconds
 1915              	.LVL212:
 1916 0658 E789     		ldrh	r7, [r4, #14]
 1917 065a 07F00100 		and	r0, r7, #1
 1918 065e EFE5     		b	.L188
 1919              	.LVL213:
 1920              	.L146:
 1921              	.LBE51:
 1922              	.LBE70:
 1923              		.loc 1 475 0
 1924 0660 0C9D     		ldr	r5, [sp, #48]
 1925 0662 0D9A     		ldr	r2, [sp, #52]
 1926              		.loc 1 476 0
 1927 0664 0C99     		ldr	r1, [sp, #48]
 1928 0666 0C9E     		ldr	r6, [sp, #48]
 1929              		.loc 1 475 0
 1930 0668 002D     		cmp	r5, #0
 1931 066a B8BF     		it	lt
 1932 066c 0335     		addlt	r5, r5, #3
 1933 066e 002A     		cmp	r2, #0
 1934 0670 B8BF     		it	lt
 1935 0672 0332     		addlt	r2, r2, #3
 1936 0674 C2F38F00 		ubfx	r0, r2, #2, #16
ARM GAS  C:\Users\Elis\AppData\Local\Temp\ccIy8Y2d.s 			page 35


 1937              		.loc 1 476 0
 1938 0678 0029     		cmp	r1, #0
 1939              		.loc 1 477 0
 1940 067a 0D9A     		ldr	r2, [sp, #52]
 1941              		.loc 1 475 0
 1942 067c 1090     		str	r0, [sp, #64]
 1943              		.loc 1 476 0
 1944 067e B8BF     		it	lt
 1945 0680 0331     		addlt	r1, r1, #3
 1946              		.loc 1 475 0
 1947 0682 C5F38F03 		ubfx	r3, r5, #2, #16
 1948              		.loc 1 476 0
 1949 0686 A6EBA107 		sub	r7, r6, r1, asr #2
 1950              		.loc 1 477 0
 1951 068a 002A     		cmp	r2, #0
 1952              		.loc 1 475 0
 1953 068c ADF87200 		strh	r0, [sp, #114]	@ movhi
 1954              		.loc 1 478 0
 1955 0690 0C9E     		ldr	r6, [sp, #48]
 1956              		.loc 1 477 0
 1957 0692 0D98     		ldr	r0, [sp, #52]
 1958              		.loc 1 475 0
 1959 0694 1493     		str	r3, [sp, #80]
 1960              		.loc 1 476 0
 1961 0696 BDB2     		uxth	r5, r7
 1962              		.loc 1 477 0
 1963 0698 B8BF     		it	lt
 1964 069a 0332     		addlt	r2, r2, #3
 1965              		.loc 1 475 0
 1966 069c ADF87030 		strh	r3, [sp, #112]	@ movhi
 1967              		.loc 1 476 0
 1968 06a0 109B     		ldr	r3, [sp, #64]
 1969 06a2 0B95     		str	r5, [sp, #44]
 1970              		.loc 1 477 0
 1971 06a4 A0EBA201 		sub	r1, r0, r2, asr #2
 1972              		.loc 1 476 0
 1973 06a8 ADF87450 		strh	r5, [sp, #116]	@ movhi
 1974              		.loc 1 477 0
 1975 06ac ADF87850 		strh	r5, [sp, #120]	@ movhi
 1976              		.loc 1 478 0
 1977 06b0 06EBD677 		add	r7, r6, r6, lsr #31
 1978 06b4 00EBD075 		add	r5, r0, r0, lsr #31
 1979              		.loc 1 476 0
 1980 06b8 ADF87630 		strh	r3, [sp, #118]	@ movhi
 1981              		.loc 1 477 0
 1982 06bc 88B2     		uxth	r0, r1
 1983              		.loc 1 478 0
 1984 06be 7A10     		asrs	r2, r7, #1
 1985 06c0 6B10     		asrs	r3, r5, #1
 1986              		.loc 1 477 0
 1987 06c2 1190     		str	r0, [sp, #68]
 1988 06c4 ADF87A00 		strh	r0, [sp, #122]	@ movhi
 1989              		.loc 1 478 0
 1990 06c8 ADF87C20 		strh	r2, [sp, #124]	@ movhi
 1991 06cc ADF87E30 		strh	r3, [sp, #126]	@ movhi
 1992 06d0 E5E4     		b	.L147
 1993              	.LVL214:
ARM GAS  C:\Users\Elis\AppData\Local\Temp\ccIy8Y2d.s 			page 36


 1994              	.L194:
 1995              	.LBB71:
 1996              		.loc 1 544 0 discriminator 1
 1997 06d2 0BF1220B 		add	fp, fp, #34
 1998 06d6 47E7     		b	.L171
 1999              	.LVL215:
 2000              	.L193:
 2001              	.LBE71:
 2002              	.LBB72:
 2003              	.LBB57:
 2004              		.loc 1 410 0
 2005 06d8 E069     		ldr	r0, [r4, #28]
 2006 06da FFF7FEFF 		bl	gdispGGetOrientation
 2007              	.LVL216:
 2008 06de B428     		cmp	r0, #180
 2009 06e0 00F08A80 		beq	.L167
 2010 06e4 B0F5877F 		cmp	r0, #270
 2011 06e8 7DD0     		beq	.L168
 2012 06ea 5A28     		cmp	r0, #90
 2013 06ec 43D0     		beq	.L166
 2014 06ee D4F804B0 		ldr	fp, [r4, #4]
 2015              		.loc 1 405 0
 2016 06f2 1099     		ldr	r1, [sp, #64]
 2017 06f4 BBF80230 		ldrh	r3, [fp, #2]
 2018 06f8 0B91     		str	r1, [sp, #44]
 2019 06fa C8E6     		b	.L164
 2020              	.LVL217:
 2021              	.L192:
 2022              		.loc 1 367 0
 2023 06fc E069     		ldr	r0, [r4, #28]
 2024 06fe FFF7FEFF 		bl	gdispGGetOrientation
 2025              	.LVL218:
 2026 0702 B428     		cmp	r0, #180
 2027 0704 00F09780 		beq	.L162
 2028 0708 B0F5877F 		cmp	r0, #270
 2029 070c 46D0     		beq	.L163
 2030 070e D4F804B0 		ldr	fp, [r4, #4]
 2031 0712 BBF80230 		ldrh	r3, [fp, #2]
 2032 0716 5A28     		cmp	r0, #90
 2033 0718 03F00405 		and	r5, r3, #4
 2034              	.LVL219:
 2035 071c AAB2     		uxth	r2, r5
 2036 071e 7FF4DDAD 		bne	.L179
 2037              	.LVL220:
 2038              		.loc 1 370 0
 2039 0722 DDF84090 		ldr	r9, [sp, #64]
 2040              		.loc 1 371 0
 2041 0726 119E     		ldr	r6, [sp, #68]
 2042              		.loc 1 369 0
 2043 0728 4D46     		mov	r5, r9
 2044 072a DAE5     		b	.L159
 2045              	.LVL221:
 2046              	.L196:
 2047              	.LBE57:
 2048              	.LBE72:
 2049              	.LBB73:
 2050              		.loc 1 582 0
ARM GAS  C:\Users\Elis\AppData\Local\Temp\ccIy8Y2d.s 			page 37


 2051 072c 139E     		ldr	r6, [sp, #76]
 2052 072e E069     		ldr	r0, [r4, #28]
 2053 0730 0296     		str	r6, [sp, #8]
 2054 0732 2826     		movs	r6, #40
 2055 0734 0096     		str	r6, [sp, #0]
 2056 0736 524E     		ldr	r6, .L200
 2057 0738 0C9B     		ldr	r3, [sp, #48]
 2058 073a 0196     		str	r6, [sp, #4]
 2059 073c 4FF47846 		mov	r6, #63488
 2060 0740 0396     		str	r6, [sp, #12]
 2061 0742 06F5FC66 		add	r6, r6, #2016
 2062 0746 0496     		str	r6, [sp, #16]
 2063 0748 0126     		movs	r6, #1
 2064 074a 0021     		movs	r1, #0
 2065 074c 2322     		movs	r2, #35
 2066 074e 0596     		str	r6, [sp, #20]
 2067 0750 FFF7FEFF 		bl	gdispGFillStringBox
 2068              	.LVL222:
 2069              		.loc 1 586 0
 2070 0754 40F6B830 		movw	r0, #3000
 2071 0758 FFF7FEFF 		bl	gfxSleepMilliseconds
 2072              	.LVL223:
 2073              	.LBE73:
 2074              		.loc 1 594 0
 2075 075c 1298     		ldr	r0, [sp, #72]
 2076 075e FFF7FEFF 		bl	gdispCloseFont
 2077              	.LVL224:
 2078              		.loc 1 595 0
 2079 0762 1398     		ldr	r0, [sp, #76]
 2080 0764 FFF7FEFF 		bl	gdispCloseFont
 2081              	.LVL225:
 2082              		.loc 1 597 0
 2083 0768 218A     		ldrh	r1, [r4, #16]
 2084 076a 21F01003 		bic	r3, r1, #16
 2085              		.loc 1 598 0
 2086 076e 43F00402 		orr	r2, r3, #4
 2087 0772 2282     		strh	r2, [r4, #16]	@ movhi
 2088 0774 5DE7     		b	.L176
 2089              	.LVL226:
 2090              	.L166:
 2091              	.LBB74:
 2092              	.LBB58:
 2093              		.loc 1 412 0
 2094 0776 E069     		ldr	r0, [r4, #28]
 2095 0778 FFF7FEFF 		bl	gdispGGetWidth
 2096              	.LVL227:
 2097              		.loc 1 414 0
 2098 077c 0B9E     		ldr	r6, [sp, #44]
 2099              		.loc 1 413 0
 2100 077e 149B     		ldr	r3, [sp, #80]
 2101 0780 D4F804B0 		ldr	fp, [r4, #4]
 2102              		.loc 1 412 0
 2103 0784 471E     		subs	r7, r0, #1
 2104 0786 BDB2     		uxth	r5, r7
 2105              	.LVL228:
 2106              		.loc 1 413 0
 2107 0788 E91A     		subs	r1, r5, r3
ARM GAS  C:\Users\Elis\AppData\Local\Temp\ccIy8Y2d.s 			page 38


 2108              		.loc 1 414 0
 2109 078a A81B     		subs	r0, r5, r6
 2110 078c 82B2     		uxth	r2, r0
 2111              		.loc 1 413 0
 2112 078e 8FB2     		uxth	r7, r1
 2113              	.LVL229:
 2114 0790 BBF80230 		ldrh	r3, [fp, #2]
 2115              		.loc 1 414 0
 2116 0794 1192     		str	r2, [sp, #68]
 2117              		.loc 1 413 0
 2118 0796 1097     		str	r7, [sp, #64]
 2119              	.LVL230:
 2120              		.loc 1 414 0
 2121 0798 0B92     		str	r2, [sp, #44]
 2122 079a 78E6     		b	.L164
 2123              	.LVL231:
 2124              	.L163:
 2125              		.loc 1 380 0
 2126 079c E069     		ldr	r0, [r4, #28]
 2127 079e FFF7FEFF 		bl	gdispGGetHeight
 2128              	.LVL232:
 2129 07a2 D4F804B0 		ldr	fp, [r4, #4]
 2130              		.loc 1 381 0
 2131 07a6 109F     		ldr	r7, [sp, #64]
 2132              		.loc 1 383 0
 2133 07a8 119A     		ldr	r2, [sp, #68]
 2134              		.loc 1 380 0
 2135 07aa 431E     		subs	r3, r0, #1
 2136 07ac 98B2     		uxth	r0, r3
 2137              	.LVL233:
 2138 07ae BBF80230 		ldrh	r3, [fp, #2]
 2139              	.LVL234:
 2140              		.loc 1 381 0
 2141 07b2 C11B     		subs	r1, r0, r7
 2142              		.loc 1 383 0
 2143 07b4 861A     		subs	r6, r0, r2
 2144              		.loc 1 381 0
 2145 07b6 8DB2     		uxth	r5, r1
 2146              	.LVL235:
 2147 07b8 03F00400 		and	r0, r3, #4
 2148              	.LVL236:
 2149              		.loc 1 383 0
 2150 07bc B6B2     		uxth	r6, r6
 2151              	.LVL237:
 2152 07be 82B2     		uxth	r2, r0
 2153              		.loc 1 382 0
 2154 07c0 A946     		mov	r9, r5
 2155 07c2 8EE5     		b	.L159
 2156              	.LVL238:
 2157              	.L195:
 2158              	.LBE58:
 2159              	.LBE74:
 2160              	.LBB75:
 2161              	.LBB68:
 2162              		.loc 1 554 0
 2163 07c4 E069     		ldr	r0, [r4, #28]
 2164 07c6 FFF7FEFF 		bl	gdispGGetOrientation
ARM GAS  C:\Users\Elis\AppData\Local\Temp\ccIy8Y2d.s 			page 39


 2165              	.LVL239:
 2166 07ca B428     		cmp	r0, #180
 2167 07cc 4ED0     		beq	.L174
 2168 07ce B0F5877F 		cmp	r0, #270
 2169 07d2 44D0     		beq	.L175
 2170 07d4 5A28     		cmp	r0, #90
 2171 07d6 7FF404AF 		bne	.L172
 2172              		.loc 1 559 0
 2173 07da 0C98     		ldr	r0, [sp, #48]
 2174 07dc 411E     		subs	r1, r0, #1
 2175 07de CF1B     		subs	r7, r1, r7
 2176              		.loc 1 561 0
 2177 07e0 2E46     		mov	r6, r5
 2178 07e2 BDB2     		uxth	r5, r7
 2179 07e4 FDE6     		b	.L172
 2180              	.LVL240:
 2181              	.L168:
 2182 07e6 D4F804B0 		ldr	fp, [r4, #4]
 2183              	.LBE68:
 2184              	.LBE75:
 2185              	.LBB76:
 2186              	.LBB59:
 2187              		.loc 1 426 0
 2188 07ea 0B9D     		ldr	r5, [sp, #44]
 2189              		.loc 1 424 0
 2190 07ec 149E     		ldr	r6, [sp, #80]
 2191              		.loc 1 426 0
 2192 07ee 1195     		str	r5, [sp, #68]
 2193 07f0 BBF80230 		ldrh	r3, [fp, #2]
 2194              		.loc 1 424 0
 2195 07f4 1096     		str	r6, [sp, #64]
 2196 07f6 4AE6     		b	.L164
 2197              	.LVL241:
 2198              	.L167:
 2199              		.loc 1 418 0
 2200 07f8 E069     		ldr	r0, [r4, #28]
 2201 07fa FFF7FEFF 		bl	gdispGGetHeight
 2202              	.LVL242:
 2203              		.loc 1 419 0
 2204 07fe 1099     		ldr	r1, [sp, #64]
 2205              		.loc 1 421 0
 2206 0800 119D     		ldr	r5, [sp, #68]
 2207 0802 D4F804B0 		ldr	fp, [r4, #4]
 2208              		.loc 1 418 0
 2209 0806 0138     		subs	r0, r0, #1
 2210 0808 83B2     		uxth	r3, r0
 2211              	.LVL243:
 2212              		.loc 1 419 0
 2213 080a 5A1A     		subs	r2, r3, r1
 2214              		.loc 1 421 0
 2215 080c 5E1B     		subs	r6, r3, r5
 2216              		.loc 1 419 0
 2217 080e 97B2     		uxth	r7, r2
 2218              		.loc 1 421 0
 2219 0810 B0B2     		uxth	r0, r6
 2220              	.LVL244:
 2221 0812 BBF80230 		ldrh	r3, [fp, #2]
ARM GAS  C:\Users\Elis\AppData\Local\Temp\ccIy8Y2d.s 			page 40


 2222              	.LVL245:
 2223              		.loc 1 419 0
 2224 0816 1097     		str	r7, [sp, #64]
 2225              	.LVL246:
 2226              		.loc 1 421 0
 2227 0818 1190     		str	r0, [sp, #68]
 2228              	.LVL247:
 2229              		.loc 1 420 0
 2230 081a 0B97     		str	r7, [sp, #44]
 2231 081c 37E6     		b	.L164
 2232              	.LVL248:
 2233              	.L190:
 2234              	.LBE59:
 2235              	.LBE76:
 2236              		.loc 1 454 0 discriminator 1
 2237 081e 1948     		ldr	r0, .L200+4
 2238              	.LVL249:
 2239 0820 FFF7FEFF 		bl	gdispOpenFont
 2240              	.LVL250:
 2241 0824 1290     		str	r0, [sp, #72]
 2242              	.LVL251:
 2243 0826 FFF7F6BB 		b	.L144
 2244              	.LVL252:
 2245              	.L191:
 2246              		.loc 1 456 0 discriminator 1
 2247 082a 1648     		ldr	r0, .L200+4
 2248              	.LVL253:
 2249 082c FFF7FEFF 		bl	gdispOpenFont
 2250              	.LVL254:
 2251 0830 1390     		str	r0, [sp, #76]
 2252              	.LVL255:
 2253 0832 FFF7F7BB 		b	.L145
 2254              	.LVL256:
 2255              	.L162:
 2256              	.LBB77:
 2257              	.LBB60:
 2258              		.loc 1 374 0
 2259 0836 E069     		ldr	r0, [r4, #28]
 2260 0838 FFF7FEFF 		bl	gdispGGetWidth
 2261              	.LVL257:
 2262 083c D4F804B0 		ldr	fp, [r4, #4]
 2263              		.loc 1 376 0
 2264 0840 0B9F     		ldr	r7, [sp, #44]
 2265 0842 BBF80230 		ldrh	r3, [fp, #2]
 2266              		.loc 1 374 0
 2267 0846 451E     		subs	r5, r0, #1
 2268              	.LVL258:
 2269 0848 A9B2     		uxth	r1, r5
 2270              	.LVL259:
 2271              		.loc 1 375 0
 2272 084a 1498     		ldr	r0, [sp, #80]
 2273              		.loc 1 376 0
 2274 084c CE1B     		subs	r6, r1, r7
 2275              		.loc 1 375 0
 2276 084e 0D1A     		subs	r5, r1, r0
 2277              	.LVL260:
 2278              		.loc 1 376 0
ARM GAS  C:\Users\Elis\AppData\Local\Temp\ccIy8Y2d.s 			page 41


 2279 0850 B6B2     		uxth	r6, r6
 2280 0852 03F00402 		and	r2, r3, #4
 2281              		.loc 1 375 0
 2282 0856 ADB2     		uxth	r5, r5
 2283              	.LVL261:
 2284 0858 92B2     		uxth	r2, r2
 2285              		.loc 1 376 0
 2286 085a B146     		mov	r9, r6
 2287 085c 41E5     		b	.L159
 2288              	.LVL262:
 2289              	.L175:
 2290              	.LBE60:
 2291              	.LBE77:
 2292              	.LBB78:
 2293              	.LBB69:
 2294              		.loc 1 568 0
 2295 085e 0D9D     		ldr	r5, [sp, #52]
 2296 0860 6FEA0902 		mvn	r2, r9
 2297 0864 5319     		adds	r3, r2, r5
 2298              		.loc 1 570 0
 2299 0866 3546     		mov	r5, r6
 2300 0868 9EB2     		uxth	r6, r3
 2301 086a BAE6     		b	.L172
 2302              	.L174:
 2303              		.loc 1 564 0
 2304 086c 0D98     		ldr	r0, [sp, #52]
 2305              		.loc 1 563 0
 2306 086e 0C99     		ldr	r1, [sp, #48]
 2307 0870 6FEA0902 		mvn	r2, r9
 2308              		.loc 1 564 0
 2309 0874 431E     		subs	r3, r0, #1
 2310              		.loc 1 563 0
 2311 0876 5518     		adds	r5, r2, r1
 2312              		.loc 1 564 0
 2313 0878 DE1B     		subs	r6, r3, r7
 2314              		.loc 1 563 0
 2315 087a ADB2     		uxth	r5, r5
 2316              		.loc 1 564 0
 2317 087c B6B2     		uxth	r6, r6
 2318              		.loc 1 565 0
 2319 087e B0E6     		b	.L172
 2320              	.L201:
 2321              		.align	2
 2322              	.L200:
 2323 0880 28000000 		.word	.LC4
 2324 0884 0C000000 		.word	.LC1
 2325              	.LBE69:
 2326              	.LBE78:
 2327              		.cfi_endproc
 2328              	.LFE125:
 2329              		.size	CalibrateMouse, .-CalibrateMouse
 2330 0888 AFF30080 		.section	.text._gmouseInit,"ax",%progbits
 2330      AFF30080 
 2331              		.align	2
 2332              		.p2align 4,,15
 2333              		.global	_gmouseInit
 2334              		.thumb
ARM GAS  C:\Users\Elis\AppData\Local\Temp\ccIy8Y2d.s 			page 42


 2335              		.thumb_func
 2336              		.type	_gmouseInit, %function
 2337              	_gmouseInit:
 2338              	.LFB126:
 2339              		.loc 1 626 0
 2340              		.cfi_startproc
 2341              		@ args = 0, pretend = 0, frame = 0
 2342              		@ frame_needed = 0, uses_anonymous_args = 0
 2343              		@ link register save eliminated.
 2344              	.LBB79:
 2345              		.loc 1 647 0
 2346 0000 0448     		ldr	r0, .L204
 2347 0002 B0F90230 		ldrsh	r3, [r0, #2]
 2348 0006 002B     		cmp	r3, #0
 2349 0008 03DB     		blt	.L202
 2350              		.loc 1 648 0
 2351 000a 0349     		ldr	r1, .L204+4
 2352 000c 0968     		ldr	r1, [r1, #0]
 2353              	.LBE79:
 2354              		.loc 1 652 0
 2355              	.LBB80:
 2356              		.loc 1 648 0
 2357 000e FFF7FEBF 		b	gdriverRegister
 2358              	.LVL263:
 2359              	.L202:
 2360 0012 7047     		bx	lr
 2361              	.L205:
 2362              		.align	2
 2363              	.L204:
 2364 0014 00000000 		.word	GMOUSEVMT_OnlyOne
 2365 0018 00000000 		.word	GDISP
 2366              	.LBE80:
 2367              		.cfi_endproc
 2368              	.LFE126:
 2369              		.size	_gmouseInit, .-_gmouseInit
 2370 001c AFF30080 		.section	.text._gmouseDeinit,"ax",%progbits
 2371              		.align	2
 2372              		.p2align 4,,15
 2373              		.global	_gmouseDeinit
 2374              		.thumb
 2375              		.thumb_func
 2376              		.type	_gmouseDeinit, %function
 2377              	_gmouseDeinit:
 2378              	.LFB127:
 2379              		.loc 1 654 0
 2380              		.cfi_startproc
 2381              		@ args = 0, pretend = 0, frame = 0
 2382              		@ frame_needed = 0, uses_anonymous_args = 0
 2383              		@ link register save eliminated.
 2384              		.loc 1 655 0
 2385 0000 40F20000 		movw	r0, #:lower16:.LANCHOR0
 2386 0004 C0F20000 		movt	r0, #:upper16:.LANCHOR0
 2387              		.loc 1 656 0
 2388              		.loc 1 655 0
 2389 0008 FFF7FEBF 		b	gtimerDeinit
 2390              	.LVL264:
 2391              		.cfi_endproc
ARM GAS  C:\Users\Elis\AppData\Local\Temp\ccIy8Y2d.s 			page 43


 2392              	.LFE127:
 2393              		.size	_gmouseDeinit, .-_gmouseDeinit
 2394 000c AFF30080 		.section	.text._gmouseInitDriver,"ax",%progbits
 2395              		.align	2
 2396              		.p2align 4,,15
 2397              		.global	_gmouseInitDriver
 2398              		.thumb
 2399              		.thumb_func
 2400              		.type	_gmouseInitDriver, %function
 2401              	_gmouseInitDriver:
 2402              	.LFB128:
 2403              		.loc 1 658 0
 2404              		.cfi_startproc
 2405              		@ args = 0, pretend = 0, frame = 0
 2406              		@ frame_needed = 0, uses_anonymous_args = 0
 2407              	.LVL265:
 2408              		.loc 1 667 0
 2409 0000 4368     		ldr	r3, [r0, #4]
 2410              	.LVL266:
 2411              		.loc 1 658 0
 2412 0002 00B5     		push	{lr}
 2413              	.LCFI6:
 2414              		.cfi_def_cfa_offset 4
 2415              		.cfi_offset 14, -4
 2416              		.loc 1 663 0
 2417 0004 C161     		str	r1, [r0, #28]
 2418              		.loc 1 667 0
 2419 0006 5988     		ldrh	r1, [r3, #2]
 2420              	.LVL267:
 2421 0008 01F00801 		and	r1, r1, #8
 2422 000c 89B2     		uxth	r1, r1
 2423              		.loc 1 658 0
 2424 000e 83B0     		sub	sp, sp, #12
 2425              	.LCFI7:
 2426              		.cfi_def_cfa_offset 16
 2427              		.loc 1 667 0
 2428 0010 19B1     		cbz	r1, .L208
 2429              		.loc 1 668 0
 2430 0012 018A     		ldrh	r1, [r0, #16]
 2431 0014 41F02001 		orr	r1, r1, #32
 2432 0018 0182     		strh	r1, [r0, #16]	@ movhi
 2433              	.L208:
 2434              		.loc 1 672 0
 2435 001a 9B6A     		ldr	r3, [r3, #40]
 2436 001c 1146     		mov	r1, r2
 2437 001e 9847     		blx	r3
 2438              	.LVL268:
 2439 0020 08B9     		cbnz	r0, .L215
 2440              	.L209:
 2441              		.loc 1 682 0
 2442 0022 03B0     		add	sp, sp, #12
 2443 0024 00BD     		pop	{pc}
 2444              	.L215:
 2445              		.loc 1 676 0
 2446 0026 0848     		ldr	r0, .L217
 2447 0028 FFF7FEFF 		bl	gtimerIsActive
 2448              	.LVL269:
ARM GAS  C:\Users\Elis\AppData\Local\Temp\ccIy8Y2d.s 			page 44


 2449 002c 0246     		mov	r2, r0
 2450 002e 08B1     		cbz	r0, .L216
 2451              		.loc 1 679 0
 2452 0030 0120     		movs	r0, #1
 2453 0032 F6E7     		b	.L209
 2454              	.L216:
 2455              		.loc 1 677 0
 2456 0034 1920     		movs	r0, #25
 2457 0036 0090     		str	r0, [sp, #0]
 2458 0038 0449     		ldr	r1, .L217+4
 2459 003a 0348     		ldr	r0, .L217
 2460 003c 0123     		movs	r3, #1
 2461 003e FFF7FEFF 		bl	gtimerStart
 2462              	.LVL270:
 2463              		.loc 1 679 0
 2464 0042 0120     		movs	r0, #1
 2465 0044 EDE7     		b	.L209
 2466              	.L218:
 2467 0046 00BF     		.align	2
 2468              	.L217:
 2469 0048 00000000 		.word	.LANCHOR0
 2470 004c 00000000 		.word	MousePoll
 2471              		.cfi_endproc
 2472              	.LFE128:
 2473              		.size	_gmouseInitDriver, .-_gmouseInitDriver
 2474              		.section	.text._gmousePostInitDriver,"ax",%progbits
 2475              		.align	2
 2476              		.p2align 4,,15
 2477              		.global	_gmousePostInitDriver
 2478              		.thumb
 2479              		.thumb_func
 2480              		.type	_gmousePostInitDriver, %function
 2481              	_gmousePostInitDriver:
 2482              	.LFB129:
 2483              		.loc 1 684 0
 2484              		.cfi_startproc
 2485              		@ args = 0, pretend = 0, frame = 0
 2486              		@ frame_needed = 0, uses_anonymous_args = 0
 2487              	.LVL271:
 2488              		.loc 1 692 0
 2489 0000 4368     		ldr	r3, [r0, #4]
 2490              		.loc 1 688 0
 2491 0002 018A     		ldrh	r1, [r0, #16]
 2492              		.loc 1 692 0
 2493 0004 5A88     		ldrh	r2, [r3, #2]
 2494 0006 02F01002 		and	r2, r2, #16
 2495              		.loc 1 688 0
 2496 000a 41F00401 		orr	r1, r1, #4
 2497              		.loc 1 692 0
 2498 000e 92B2     		uxth	r2, r2
 2499              		.loc 1 684 0
 2500 0010 10B5     		push	{r4, lr}
 2501              	.LCFI8:
 2502              		.cfi_def_cfa_offset 8
 2503              		.cfi_offset 4, -8
 2504              		.cfi_offset 14, -4
 2505              		.loc 1 684 0
ARM GAS  C:\Users\Elis\AppData\Local\Temp\ccIy8Y2d.s 			page 45


 2506 0012 0446     		mov	r4, r0
 2507              		.loc 1 688 0
 2508 0014 0182     		strh	r1, [r0, #16]	@ movhi
 2509              		.loc 1 692 0
 2510 0016 5AB1     		cbz	r2, .L221
 2511              		.loc 1 698 0
 2512 0018 9B6B     		ldr	r3, [r3, #56]
 2513 001a 23B1     		cbz	r3, .L229
 2514              		.loc 1 698 0 is_stmt 0 discriminator 1
 2515 001c 00F12001 		add	r1, r0, #32
 2516 0020 1822     		movs	r2, #24
 2517 0022 9847     		blx	r3
 2518              	.LVL272:
 2519 0024 48B9     		cbnz	r0, .L233
 2520              	.L229:
 2521              		.loc 1 702 0 is_stmt 1 discriminator 1
 2522 0026 2046     		mov	r0, r4
 2523 0028 FFF7FEFF 		bl	CalibrateMouse
 2524              	.LVL273:
 2525 002c 0028     		cmp	r0, #0
 2526 002e FAD1     		bne	.L229
 2527              	.L221:
 2528              		.loc 1 708 0
 2529 0030 2046     		mov	r0, r4
 2530              		.loc 1 711 0
 2531 0032 BDE81040 		pop	{r4, lr}
 2532              		.loc 1 708 0
 2533 0036 FFF7FEBF 		b	GetMouseReading
 2534              	.LVL274:
 2535              	.L233:
 2536              		.loc 1 699 0
 2537 003a 208A     		ldrh	r0, [r4, #16]
 2538 003c 40F00801 		orr	r1, r0, #8
 2539 0040 2182     		strh	r1, [r4, #16]	@ movhi
 2540 0042 F5E7     		b	.L221
 2541              		.cfi_endproc
 2542              	.LFE129:
 2543              		.size	_gmousePostInitDriver, .-_gmousePostInitDriver
 2544 0044 AFF30080 		.section	.text._gmouseDeInitDriver,"ax",%progbits
 2544      AFF30080 
 2544      AFF30080 
 2545              		.align	2
 2546              		.p2align 4,,15
 2547              		.global	_gmouseDeInitDriver
 2548              		.thumb
 2549              		.thumb_func
 2550              		.type	_gmouseDeInitDriver, %function
 2551              	_gmouseDeInitDriver:
 2552              	.LFB130:
 2553              		.loc 1 713 0
 2554              		.cfi_startproc
 2555              		@ args = 0, pretend = 0, frame = 0
 2556              		@ frame_needed = 0, uses_anonymous_args = 0
 2557              		@ link register save eliminated.
 2558              	.LVL275:
 2559 0000 7047     		bx	lr
 2560              		.cfi_endproc
ARM GAS  C:\Users\Elis\AppData\Local\Temp\ccIy8Y2d.s 			page 46


 2561              	.LFE130:
 2562              		.size	_gmouseDeInitDriver, .-_gmouseDeInitDriver
 2563 0002 00BFAFF3 		.section	.text.ginputGetMouse,"ax",%progbits
 2563      0080AFF3 
 2563      0080AFF3 
 2563      0080
 2564              		.align	2
 2565              		.p2align 4,,15
 2566              		.global	ginputGetMouse
 2567              		.thumb
 2568              		.thumb_func
 2569              		.type	ginputGetMouse, %function
 2570              	ginputGetMouse:
 2571              	.LFB131:
 2572              		.loc 1 717 0
 2573              		.cfi_startproc
 2574              		@ args = 0, pretend = 0, frame = 0
 2575              		@ frame_needed = 0, uses_anonymous_args = 0
 2576              		@ link register save eliminated.
 2577              	.LVL276:
 2578              		.loc 1 718 0
 2579 0000 431C     		adds	r3, r0, #1
 2580              		.loc 1 717 0
 2581 0002 0146     		mov	r1, r0
 2582              		.loc 1 718 0
 2583 0004 02D0     		beq	.L236
 2584              		.loc 1 720 0
 2585 0006 6D20     		movs	r0, #109
 2586              	.LVL277:
 2587              		.loc 1 721 0
 2588              		.loc 1 720 0
 2589 0008 FFF7FEBF 		b	gdriverGetInstance
 2590              	.LVL278:
 2591              	.L236:
 2592              		.loc 1 721 0
 2593 000c 0048     		ldr	r0, .L237
 2594              	.LVL279:
 2595 000e 7047     		bx	lr
 2596              	.L238:
 2597              		.align	2
 2598              	.L237:
 2599 0010 00000000 		.word	.LANCHOR0
 2600              		.cfi_endproc
 2601              	.LFE131:
 2602              		.size	ginputGetMouse, .-ginputGetMouse
 2603 0014 AFF30080 		.section	.text.ginputSetMouseDisplay,"ax",%progbits
 2603      AFF30080 
 2603      AFF30080 
 2604              		.align	2
 2605              		.p2align 4,,15
 2606              		.global	ginputSetMouseDisplay
 2607              		.thumb
 2608              		.thumb_func
 2609              		.type	ginputSetMouseDisplay, %function
 2610              	ginputSetMouseDisplay:
 2611              	.LFB132:
 2612              		.loc 1 723 0
ARM GAS  C:\Users\Elis\AppData\Local\Temp\ccIy8Y2d.s 			page 47


 2613              		.cfi_startproc
 2614              		@ args = 0, pretend = 0, frame = 0
 2615              		@ frame_needed = 0, uses_anonymous_args = 0
 2616              	.LVL280:
 2617 0000 0346     		mov	r3, r0
 2618 0002 10B5     		push	{r4, lr}
 2619              	.LCFI9:
 2620              		.cfi_def_cfa_offset 8
 2621              		.cfi_offset 4, -8
 2622              		.cfi_offset 14, -4
 2623              		.loc 1 726 0
 2624 0004 6D20     		movs	r0, #109
 2625              	.LVL281:
 2626              		.loc 1 723 0
 2627 0006 0C46     		mov	r4, r1
 2628              		.loc 1 726 0
 2629 0008 1946     		mov	r1, r3
 2630              	.LVL282:
 2631 000a FFF7FEFF 		bl	gdriverGetInstance
 2632              	.LVL283:
 2633 000e 08B1     		cbz	r0, .L239
 2634              		.loc 1 729 0
 2635 0010 0CB1     		cbz	r4, .L245
 2636              	.LVL284:
 2637              	.L241:
 2638              		.loc 1 729 0 is_stmt 0 discriminator 3
 2639 0012 C461     		str	r4, [r0, #28]
 2640              	.L239:
 2641 0014 10BD     		pop	{r4, pc}
 2642              	.LVL285:
 2643              	.L245:
 2644              		.loc 1 729 0 discriminator 2
 2645 0016 0149     		ldr	r1, .L246
 2646 0018 0C68     		ldr	r4, [r1, #0]
 2647              	.LVL286:
 2648 001a FAE7     		b	.L241
 2649              	.L247:
 2650              		.align	2
 2651              	.L246:
 2652 001c 00000000 		.word	GDISP
 2653              		.cfi_endproc
 2654              	.LFE132:
 2655              		.size	ginputSetMouseDisplay, .-ginputSetMouseDisplay
 2656              		.section	.text.ginputGetMouseDisplay,"ax",%progbits
 2657              		.align	2
 2658              		.p2align 4,,15
 2659              		.global	ginputGetMouseDisplay
 2660              		.thumb
 2661              		.thumb_func
 2662              		.type	ginputGetMouseDisplay, %function
 2663              	ginputGetMouseDisplay:
 2664              	.LFB133:
 2665              		.loc 1 732 0 is_stmt 1
 2666              		.cfi_startproc
 2667              		@ args = 0, pretend = 0, frame = 0
 2668              		@ frame_needed = 0, uses_anonymous_args = 0
 2669              	.LVL287:
ARM GAS  C:\Users\Elis\AppData\Local\Temp\ccIy8Y2d.s 			page 48


 2670 0000 08B5     		push	{r3, lr}
 2671              	.LCFI10:
 2672              		.cfi_def_cfa_offset 8
 2673              		.cfi_offset 3, -8
 2674              		.cfi_offset 14, -4
 2675              		.loc 1 732 0
 2676 0002 0146     		mov	r1, r0
 2677              		.loc 1 735 0
 2678 0004 6D20     		movs	r0, #109
 2679              	.LVL288:
 2680 0006 FFF7FEFF 		bl	gdriverGetInstance
 2681              	.LVL289:
 2682 000a 00B1     		cbz	r0, .L249
 2683              		.loc 1 738 0
 2684 000c C069     		ldr	r0, [r0, #28]
 2685              	.LVL290:
 2686              	.L249:
 2687              		.loc 1 739 0
 2688 000e 08BD     		pop	{r3, pc}
 2689              		.cfi_endproc
 2690              	.LFE133:
 2691              		.size	ginputGetMouseDisplay, .-ginputGetMouseDisplay
 2692              		.section	.text.ginputGetMouseStatus,"ax",%progbits
 2693              		.align	2
 2694              		.p2align 4,,15
 2695              		.global	ginputGetMouseStatus
 2696              		.thumb
 2697              		.thumb_func
 2698              		.type	ginputGetMouseStatus, %function
 2699              	ginputGetMouseStatus:
 2700              	.LFB134:
 2701              		.loc 1 741 0
 2702              		.cfi_startproc
 2703              		@ args = 0, pretend = 0, frame = 0
 2704              		@ frame_needed = 0, uses_anonymous_args = 0
 2705              	.LVL291:
 2706 0000 F8B5     		push	{r3, r4, r5, r6, r7, lr}
 2707              	.LCFI11:
 2708              		.cfi_def_cfa_offset 24
 2709              		.cfi_offset 3, -24
 2710              		.cfi_offset 4, -20
 2711              		.cfi_offset 5, -16
 2712              		.cfi_offset 6, -12
 2713              		.cfi_offset 7, -8
 2714              		.cfi_offset 14, -4
 2715              		.loc 1 741 0
 2716 0002 0546     		mov	r5, r0
 2717              		.loc 1 746 0
 2718 0004 0120     		movs	r0, #1
 2719              	.LVL292:
 2720              		.loc 1 741 0
 2721 0006 0C46     		mov	r4, r1
 2722              		.loc 1 746 0
 2723 0008 FFF7FEFF 		bl	gfxSleepMilliseconds
 2724              	.LVL293:
 2725              		.loc 1 748 0
 2726 000c 6D20     		movs	r0, #109
ARM GAS  C:\Users\Elis\AppData\Local\Temp\ccIy8Y2d.s 			page 49


 2727 000e 2946     		mov	r1, r5
 2728 0010 FFF7FEFF 		bl	gdriverGetInstance
 2729              	.LVL294:
 2730 0014 D8B1     		cbz	r0, .L252
 2731              		.loc 1 752 0
 2732 0016 038A     		ldrh	r3, [r0, #16]
 2733 0018 03F01001 		and	r1, r3, #16
 2734 001c 8AB2     		uxth	r2, r1
 2735 001e AAB9     		cbnz	r2, .L255
 2736              		.loc 1 757 0
 2737 0020 4568     		ldr	r5, [r0, #4]
 2738              	.LVL295:
 2739              		.loc 1 761 0
 2740 0022 0789     		ldrh	r7, [r0, #8]
 2741              		.loc 1 757 0
 2742 0024 6E88     		ldrh	r6, [r5, #2]
 2743              		.loc 1 763 0
 2744 0026 8189     		ldrh	r1, [r0, #12]
 2745              		.loc 1 762 0
 2746 0028 4589     		ldrh	r5, [r0, #10]
 2747              		.loc 1 764 0
 2748 002a C289     		ldrh	r2, [r0, #14]
 2749              		.loc 1 765 0
 2750 002c C369     		ldr	r3, [r0, #28]
 2751              		.loc 1 761 0
 2752 002e 6780     		strh	r7, [r4, #2]	@ movhi
 2753              		.loc 1 757 0
 2754 0030 16F0010F 		tst	r6, #1
 2755 0034 40F20110 		movw	r0, #257
 2756              	.LVL296:
 2757 0038 08BF     		it	eq
 2758 003a 4FF48070 		moveq	r0, #256
 2759 003e 2080     		strh	r0, [r4, #0]	@ movhi
 2760              		.loc 1 762 0
 2761 0040 A580     		strh	r5, [r4, #4]	@ movhi
 2762              		.loc 1 763 0
 2763 0042 E180     		strh	r1, [r4, #6]	@ movhi
 2764              		.loc 1 764 0
 2765 0044 2281     		strh	r2, [r4, #8]	@ movhi
 2766              		.loc 1 765 0
 2767 0046 E360     		str	r3, [r4, #12]
 2768              		.loc 1 766 0
 2769 0048 0120     		movs	r0, #1
 2770 004a F8BD     		pop	{r3, r4, r5, r6, r7, pc}
 2771              	.LVL297:
 2772              	.L255:
 2773              		.loc 1 749 0
 2774 004c 0020     		movs	r0, #0
 2775              	.LVL298:
 2776              	.L252:
 2777              		.loc 1 767 0
 2778 004e F8BD     		pop	{r3, r4, r5, r6, r7, pc}
 2779              		.cfi_endproc
 2780              	.LFE134:
 2781              		.size	ginputGetMouseStatus, .-ginputGetMouseStatus
 2782              		.section	.text.ginputSetFingerMode,"ax",%progbits
 2783              		.align	2
ARM GAS  C:\Users\Elis\AppData\Local\Temp\ccIy8Y2d.s 			page 50


 2784              		.p2align 4,,15
 2785              		.global	ginputSetFingerMode
 2786              		.thumb
 2787              		.thumb_func
 2788              		.type	ginputSetFingerMode, %function
 2789              	ginputSetFingerMode:
 2790              	.LFB135:
 2791              		.loc 1 770 0
 2792              		.cfi_startproc
 2793              		@ args = 0, pretend = 0, frame = 0
 2794              		@ frame_needed = 0, uses_anonymous_args = 0
 2795              	.LVL299:
 2796 0000 0346     		mov	r3, r0
 2797 0002 10B5     		push	{r4, lr}
 2798              	.LCFI12:
 2799              		.cfi_def_cfa_offset 8
 2800              		.cfi_offset 4, -8
 2801              		.cfi_offset 14, -4
 2802              		.loc 1 773 0
 2803 0004 6D20     		movs	r0, #109
 2804              	.LVL300:
 2805              		.loc 1 770 0
 2806 0006 0C46     		mov	r4, r1
 2807              		.loc 1 773 0
 2808 0008 1946     		mov	r1, r3
 2809              	.LVL301:
 2810 000a FFF7FEFF 		bl	gdriverGetInstance
 2811              	.LVL302:
 2812 000e 20B1     		cbz	r0, .L257
 2813              		.loc 1 777 0
 2814 0010 018A     		ldrh	r1, [r0, #16]
 2815              		.loc 1 776 0
 2816 0012 1CB9     		cbnz	r4, .L263
 2817              		.loc 1 779 0
 2818 0014 21F02002 		bic	r2, r1, #32
 2819 0018 0282     		strh	r2, [r0, #16]	@ movhi
 2820              	.L257:
 2821 001a 10BD     		pop	{r4, pc}
 2822              	.L263:
 2823              		.loc 1 777 0
 2824 001c 41F02003 		orr	r3, r1, #32
 2825 0020 0382     		strh	r3, [r0, #16]	@ movhi
 2826 0022 10BD     		pop	{r4, pc}
 2827              		.cfi_endproc
 2828              	.LFE135:
 2829              		.size	ginputSetFingerMode, .-ginputSetFingerMode
 2830 0024 AFF30080 		.section	.text.ginputCalibrateMouse,"ax",%progbits
 2830      AFF30080 
 2830      AFF30080 
 2831              		.align	2
 2832              		.p2align 4,,15
 2833              		.global	ginputCalibrateMouse
 2834              		.thumb
 2835              		.thumb_func
 2836              		.type	ginputCalibrateMouse, %function
 2837              	ginputCalibrateMouse:
 2838              	.LFB136:
ARM GAS  C:\Users\Elis\AppData\Local\Temp\ccIy8Y2d.s 			page 51


 2839              		.loc 1 785 0
 2840              		.cfi_startproc
 2841              		@ args = 0, pretend = 0, frame = 0
 2842              		@ frame_needed = 0, uses_anonymous_args = 0
 2843              	.LVL303:
 2844 0000 08B5     		push	{r3, lr}
 2845              	.LCFI13:
 2846              		.cfi_def_cfa_offset 8
 2847              		.cfi_offset 3, -8
 2848              		.cfi_offset 14, -4
 2849              		.loc 1 785 0
 2850 0002 0146     		mov	r1, r0
 2851              		.loc 1 789 0
 2852 0004 6D20     		movs	r0, #109
 2853              	.LVL304:
 2854 0006 FFF7FEFF 		bl	gdriverGetInstance
 2855              	.LVL305:
 2856 000a 28B1     		cbz	r0, .L265
 2857              		.loc 1 793 0
 2858 000c 4168     		ldr	r1, [r0, #4]
 2859 000e 4A88     		ldrh	r2, [r1, #2]
 2860 0010 02F01003 		and	r3, r2, #16
 2861 0014 99B2     		uxth	r1, r3
 2862 0016 09B9     		cbnz	r1, .L270
 2863              	.L265:
 2864              		.loc 1 797 0
 2865 0018 0020     		movs	r0, #0
 2866              	.LVL306:
 2867 001a 08BD     		pop	{r3, pc}
 2868              	.LVL307:
 2869              	.L270:
 2870 001c BDE80840 		pop	{r3, lr}
 2871              		.loc 1 796 0
 2872 0020 FFF7FEBF 		b	CalibrateMouse
 2873              	.LVL308:
 2874              		.cfi_endproc
 2875              	.LFE136:
 2876              		.size	ginputCalibrateMouse, .-ginputCalibrateMouse
 2877 0024 AFF30080 		.section	.text._gmouseWakeup,"ax",%progbits
 2877      AFF30080 
 2877      AFF30080 
 2878              		.align	2
 2879              		.p2align 4,,15
 2880              		.global	_gmouseWakeup
 2881              		.thumb
 2882              		.thumb_func
 2883              		.type	_gmouseWakeup, %function
 2884              	_gmouseWakeup:
 2885              	.LFB137:
 2886              		.loc 1 801 0
 2887              		.cfi_startproc
 2888              		@ args = 0, pretend = 0, frame = 0
 2889              		@ frame_needed = 0, uses_anonymous_args = 0
 2890              		@ link register save eliminated.
 2891              	.LVL309:
 2892              		.loc 1 802 0
 2893 0000 18B1     		cbz	r0, .L272
ARM GAS  C:\Users\Elis\AppData\Local\Temp\ccIy8Y2d.s 			page 52


 2894              		.loc 1 803 0
 2895 0002 038A     		ldrh	r3, [r0, #16]
 2896 0004 43F04001 		orr	r1, r3, #64
 2897 0008 0182     		strh	r1, [r0, #16]	@ movhi
 2898              	.L272:
 2899              		.loc 1 804 0
 2900 000a 0148     		ldr	r0, .L276
 2901              	.LVL310:
 2902              		.loc 1 805 0
 2903              		.loc 1 804 0
 2904 000c FFF7FEBF 		b	gtimerJab
 2905              	.LVL311:
 2906              	.L277:
 2907              		.align	2
 2908              	.L276:
 2909 0010 00000000 		.word	.LANCHOR0
 2910              		.cfi_endproc
 2911              	.LFE137:
 2912              		.size	_gmouseWakeup, .-_gmouseWakeup
 2913 0014 AFF30080 		.section	.text._gmouseWakeupI,"ax",%progbits
 2913      AFF30080 
 2913      AFF30080 
 2914              		.align	2
 2915              		.p2align 4,,15
 2916              		.global	_gmouseWakeupI
 2917              		.thumb
 2918              		.thumb_func
 2919              		.type	_gmouseWakeupI, %function
 2920              	_gmouseWakeupI:
 2921              	.LFB138:
 2922              		.loc 1 808 0
 2923              		.cfi_startproc
 2924              		@ args = 0, pretend = 0, frame = 0
 2925              		@ frame_needed = 0, uses_anonymous_args = 0
 2926              		@ link register save eliminated.
 2927              	.LVL312:
 2928              		.loc 1 809 0
 2929 0000 18B1     		cbz	r0, .L279
 2930              		.loc 1 810 0
 2931 0002 038A     		ldrh	r3, [r0, #16]
 2932 0004 43F04001 		orr	r1, r3, #64
 2933 0008 0182     		strh	r1, [r0, #16]	@ movhi
 2934              	.L279:
 2935              		.loc 1 811 0
 2936 000a 0148     		ldr	r0, .L283
 2937              	.LVL313:
 2938              		.loc 1 812 0
 2939              		.loc 1 811 0
 2940 000c FFF7FEBF 		b	gtimerJabI
 2941              	.LVL314:
 2942              	.L284:
 2943              		.align	2
 2944              	.L283:
 2945 0010 00000000 		.word	.LANCHOR0
 2946              		.cfi_endproc
 2947              	.LFE138:
 2948              		.size	_gmouseWakeupI, .-_gmouseWakeupI
ARM GAS  C:\Users\Elis\AppData\Local\Temp\ccIy8Y2d.s 			page 53


 2949 0014 AFF30080 		.section	.bss.MouseTimer,"aw",%nobits
 2949      AFF30080 
 2949      AFF30080 
 2950              		.align	2
 2951              		.set	.LANCHOR0,. + 0
 2952              		.type	MouseTimer, %object
 2953              		.size	MouseTimer, 28
 2954              	MouseTimer:
 2955 0000 00000000 		.space	28
 2955      00000000 
 2955      00000000 
 2955      00000000 
 2955      00000000 
 2956              		.section	.rodata.str1.4,"aMS",%progbits,1
 2957              		.align	2
 2958              	.LC0:
 2959 0000 2A20446F 		.ascii	"* Double\000"
 2959      75626C65 
 2959      00
 2960 0009 000000   		.space	3
 2961              	.LC1:
 2962 000c 2A00     		.ascii	"*\000"
 2963 000e 0000     		.space	2
 2964              	.LC2:
 2965 0010 2A204E61 		.ascii	"* Narrow\000"
 2965      72726F77 
 2965      00
 2966 0019 000000   		.space	3
 2967              	.LC3:
 2968 001c 43616C69 		.ascii	"Calibration\000"
 2968      62726174 
 2968      696F6E00 
 2969              	.LC4:
 2970 0028 43616C69 		.ascii	"Calibration Failed!\000"
 2970      62726174 
 2970      696F6E20 
 2970      4661696C 
 2970      65642100 
 2971              		.text
 2972              	.Letext0:
 2973              		.file 2 "c:\\chibistudio\\tools\\gnu tools arm embedded\\4.7 2014q2\\bin\\../lib/gcc/arm-none-eabi
 2974              		.file 3 "c:\\chibistudio\\tools\\gnu tools arm embedded\\4.7 2014q2\\bin\\../lib/gcc/arm-none-eabi
 2975              		.file 4 "../../chibios/os/ports/GCC/ARMCMx/chtypes.h"
 2976              		.file 5 "../../chibios/os/kernel/include/chlists.h"
 2977              		.file 6 "../../chibios/os/kernel/include/chthreads.h"
 2978              		.file 7 "../../chibios/os/ports/GCC/ARMCMx/chcore_v7m.h"
 2979              		.file 8 "../../chibios/os/kernel/include/chvt.h"
 2980              		.file 9 "../../chibios/os/kernel/include/chsem.h"
 2981              		.file 10 "../../chibios/os/kernel/include/chmtx.h"
 2982              		.file 11 "../../ugfx/src/gos/gos_chibios.h"
 2983              		.file 12 "../../ugfx/src/gdisp/gdisp.h"
 2984              		.file 13 "../../ugfx/src/gevent/gevent.h"
 2985              		.file 14 "../../ugfx/src/gtimer/gtimer.h"
 2986              		.file 15 "../../ugfx/src/gdisp/gdisp_colors.h"
 2987              		.file 16 "../../ugfx/src/ginput/ginput_mouse.h"
 2988              		.file 17 "../../ugfx/src/gdriver/gdriver.h"
 2989              		.file 18 "../../ugfx/src/ginput/ginput_driver_mouse.h"
ARM GAS  C:\Users\Elis\AppData\Local\Temp\ccIy8Y2d.s 			page 54


 2990              		.file 19 "../../chibios/os/ports/common/ARMCMx/CMSIS/include/core_cm4.h"
 2991              		.file 20 "../../ugfx/src/gwin/gwin.h"