ARM GAS  C:\Users\Elis\AppData\Local\Temp\ccIy8Y2d.s 			page 1


   1              		.syntax unified
   2              		.cpu cortex-m4
   3              		.fpu softvfp
   4              		.eabi_attribute 20, 1
   5              		.eabi_attribute 21, 1
   6              		.eabi_attribute 23, 3
   7              		.eabi_attribute 24, 1
   8              		.eabi_attribute 25, 1
   9              		.eabi_attribute 26, 1
  10              		.eabi_attribute 30, 2
  11              		.eabi_attribute 34, 1
  12              		.eabi_attribute 18, 4
  13              		.thumb
  14              		.file	"ginput_mouse.c"
  15              		.text
  16              	.Ltext0:
  17              		.cfi_sections	.debug_frame
  18              		.section	.text.SendMouseEvent,"ax",%progbits
  19              		.align	2
  20              		.p2align 4,,15
  21              		.thumb
  22              		.thumb_func
  23              		.type	SendMouseEvent, %function
  24              	SendMouseEvent:
  25              	.LFB119:
  26              		.file 1 "../../ugfx/src/ginput/ginput_mouse.c"
  27              		.loc 1 64 0
  28              		.cfi_startproc
  29              		@ args = 0, pretend = 0, frame = 0
  30              		@ frame_needed = 0, uses_anonymous_args = 0
  31              	.LVL0:
  32 0000 2DE9F041 		push	{r4, r5, r6, r7, r8, lr}
  33              	.LCFI0:
  34              		.cfi_def_cfa_offset 24
  35              		.cfi_offset 4, -24
  36              		.cfi_offset 5, -20
  37              		.cfi_offset 6, -16
  38              		.cfi_offset 7, -12
  39              		.cfi_offset 8, -8
  40              		.cfi_offset 14, -4
  41              		.loc 1 64 0
  42 0004 0446     		mov	r4, r0
  43 0006 0E46     		mov	r6, r1
  44 0008 1546     		mov	r5, r2
  45              		.loc 1 68 0
  46 000a FFF7FEFF 		bl	geventGetEventBuffer
  47              	.LVL1:
  48 000e 0346     		mov	r3, r0
  49 0010 0028     		cmp	r0, #0
  50 0012 4BD0     		beq	.L26
  51              		.loc 1 75 0
  52 0014 E888     		ldrh	r0, [r5, #6]
  53              	.LVL2:
  54 0016 10F0F001 		ands	r1, r0, #240
  55 001a 18D1     		bne	.L24
  56              		.loc 1 75 0 is_stmt 0 discriminator 1
  57 001c E268     		ldr	r2, [r4, #12]
ARM GAS  C:\Users\Elis\AppData\Local\Temp\ccIy8Y2d.s 			page 2


  58 001e B2B9     		cbnz	r2, .L24
  59 0020 A268     		ldr	r2, [r4, #8]
  60 0022 12F0080F 		tst	r2, #8
  61 0026 13D1     		bne	.L5
  62              		.loc 1 76 0 is_stmt 1
  63 0028 B5F900C0 		ldrsh	ip, [r5, #0]
  64 002c B6F90870 		ldrsh	r7, [r6, #8]
  65 0030 BC45     		cmp	ip, r7
  66 0032 0DD1     		bne	.L5
  67              		.loc 1 76 0 is_stmt 0 discriminator 1
  68 0034 B5F902E0 		ldrsh	lr, [r5, #2]
  69 0038 B6F90A70 		ldrsh	r7, [r6, #10]
  70 003c BE45     		cmp	lr, r7
  71 003e 07D1     		bne	.L5
  72 0040 F789     		ldrh	r7, [r6, #14]
  73 0042 4740     		eors	r7, r7, r0
  74 0044 17F00F0F 		tst	r7, #15
  75 0048 02D1     		bne	.L5
  76              	.L1:
  77 004a BDE8F081 		pop	{r4, r5, r6, r7, r8, pc}
  78              	.L24:
  79 004e A268     		ldr	r2, [r4, #8]
  80              	.L5:
  81              		.loc 1 80 0 is_stmt 1
  82 0050 10F0010F 		tst	r0, #1
  83 0054 26D1     		bne	.L27
  84              		.loc 1 81 0 discriminator 1
  85 0056 12F0040F 		tst	r2, #4
  86 005a 03D1     		bne	.L9
  87              	.L8:
  88              		.loc 1 82 0
  89 005c 0029     		cmp	r1, #0
  90 005e F4D0     		beq	.L1
  91              		.loc 1 82 0 is_stmt 0 discriminator 1
  92 0060 D207     		lsls	r2, r2, #31
  93 0062 F2D5     		bpl	.L1
  94              	.L9:
  95              		.loc 1 86 0 is_stmt 1
  96 0064 7268     		ldr	r2, [r6, #4]
  97              		.loc 1 93 0
  98 0066 E168     		ldr	r1, [r4, #12]
  99              		.loc 1 86 0
 100 0068 B2F802C0 		ldrh	ip, [r2, #2]
 101              		.loc 1 90 0
 102 006c B5F80080 		ldrh	r8, [r5, #0]
 103              		.loc 1 91 0
 104 0070 6F88     		ldrh	r7, [r5, #2]
 105              		.loc 1 95 0
 106 0072 F269     		ldr	r2, [r6, #28]
 107              		.loc 1 92 0
 108 0074 AD88     		ldrh	r5, [r5, #4]
 109              	.LVL3:
 110              		.loc 1 90 0
 111 0076 A3F80280 		strh	r8, [r3, #2]	@ movhi
 112              		.loc 1 86 0
 113 007a 1CF0010F 		tst	ip, #1
 114              		.loc 1 93 0
ARM GAS  C:\Users\Elis\AppData\Local\Temp\ccIy8Y2d.s 			page 3


 115 007e 40EA0100 		orr	r0, r0, r1
 116              		.loc 1 86 0
 117 0082 40F20116 		movw	r6, #257
 118              	.LVL4:
 119 0086 08BF     		it	eq
 120 0088 4FF48076 		moveq	r6, #256
 121              		.loc 1 93 0
 122 008c 1881     		strh	r0, [r3, #8]	@ movhi
 123              		.loc 1 94 0
 124 008e 0021     		movs	r1, #0
 125              		.loc 1 96 0
 126 0090 2046     		mov	r0, r4
 127              		.loc 1 86 0
 128 0092 1E80     		strh	r6, [r3, #0]	@ movhi
 129              		.loc 1 91 0
 130 0094 9F80     		strh	r7, [r3, #4]	@ movhi
 131              		.loc 1 92 0
 132 0096 DD80     		strh	r5, [r3, #6]	@ movhi
 133              		.loc 1 94 0
 134 0098 E160     		str	r1, [r4, #12]
 135              		.loc 1 95 0
 136 009a DA60     		str	r2, [r3, #12]
 137              		.loc 1 97 0
 138 009c BDE8F041 		pop	{r4, r5, r6, r7, r8, lr}
 139              		.loc 1 96 0
 140 00a0 FFF7FEBF 		b	geventSendEvent
 141              	.LVL5:
 142              	.L27:
 143              		.loc 1 80 0 discriminator 1
 144 00a4 12F0020F 		tst	r2, #2
 145 00a8 D8D0     		beq	.L8
 146 00aa DBE7     		b	.L9
 147              	.LVL6:
 148              	.L26:
 149              		.loc 1 70 0
 150 00ac E368     		ldr	r3, [r4, #12]
 151 00ae E888     		ldrh	r0, [r5, #6]
 152              	.LVL7:
 153 00b0 43F40041 		orr	r1, r3, #32768
 154 00b4 00F0F002 		and	r2, r0, #240
 155 00b8 1143     		orrs	r1, r1, r2
 156 00ba E160     		str	r1, [r4, #12]
 157              		.loc 1 71 0
 158 00bc BDE8F081 		pop	{r4, r5, r6, r7, r8, pc}
 159              		.cfi_endproc
 160              	.LFE119:
 161              		.size	SendMouseEvent, .-SendMouseEvent
 162              		.global	__aeabi_i2f
 163              		.global	__aeabi_fmul
 164              		.global	__aeabi_fadd
 165              		.global	__aeabi_f2iz
 166              		.section	.text.GetMouseReading,"ax",%progbits
 167              		.align	2
 168              		.p2align 4,,15
 169              		.thumb
 170              		.thumb_func
 171              		.type	GetMouseReading, %function
ARM GAS  C:\Users\Elis\AppData\Local\Temp\ccIy8Y2d.s 			page 4


 172              	GetMouseReading:
 173              	.LFB120:
 174              		.loc 1 99 0
 175              		.cfi_startproc
 176              		@ args = 0, pretend = 0, frame = 8
 177              		@ frame_needed = 0, uses_anonymous_args = 0
 178              	.LVL8:
 179 0000 2DE9F041 		push	{r4, r5, r6, r7, r8, lr}
 180              	.LCFI1:
 181              		.cfi_def_cfa_offset 24
 182              		.cfi_offset 4, -24
 183              		.cfi_offset 5, -20
 184              		.cfi_offset 6, -16
 185              		.cfi_offset 7, -12
 186              		.cfi_offset 8, -8
 187              		.cfi_offset 14, -4
 188              		.loc 1 104 0
 189 0004 028A     		ldrh	r2, [r0, #16]
 190              		.loc 1 105 0
 191 0006 4368     		ldr	r3, [r0, #4]
 192              		.loc 1 104 0
 193 0008 22F04001 		bic	r1, r2, #64
 194              		.loc 1 99 0
 195 000c 82B0     		sub	sp, sp, #8
 196              	.LCFI2:
 197              		.cfi_def_cfa_offset 32
 198              		.loc 1 104 0
 199 000e 0182     		strh	r1, [r0, #16]	@ movhi
 200              		.loc 1 105 0
 201 0010 1A6B     		ldr	r2, [r3, #48]
 202 0012 6946     		mov	r1, sp
 203              		.loc 1 99 0
 204 0014 0446     		mov	r4, r0
 205              		.loc 1 105 0
 206 0016 9047     		blx	r2
 207              	.LVL9:
 208 0018 F0B1     		cbz	r0, .L28
 209              		.loc 1 116 0
 210 001a 6568     		ldr	r5, [r4, #4]
 211              		.loc 1 112 0
 212 001c BDF80610 		ldrh	r1, [sp, #6]
 213              		.loc 1 116 0
 214 0020 6B88     		ldrh	r3, [r5, #2]
 215              		.loc 1 112 0
 216 0022 01F00F02 		and	r2, r1, #15
 217              		.loc 1 116 0
 218 0026 DE07     		lsls	r6, r3, #31
 219              		.loc 1 112 0
 220 0028 ADF80620 		strh	r2, [sp, #6]	@ movhi
 221              		.loc 1 116 0
 222 002c 17D4     		bmi	.L121
 223              	.L30:
 224              		.loc 1 129 0
 225 002e 03F40070 		and	r0, r3, #512
 226 0032 82B2     		uxth	r2, r0
 227              		.loc 1 131 0
 228 0034 268A     		ldrh	r6, [r4, #16]
ARM GAS  C:\Users\Elis\AppData\Local\Temp\ccIy8Y2d.s 			page 5


 229              		.loc 1 129 0
 230 0036 002A     		cmp	r2, #0
 231 0038 2DD0     		beq	.L38
 232              		.loc 1 131 0
 233 003a 06F00201 		and	r1, r6, #2
 234 003e 88B2     		uxth	r0, r1
 235              		.loc 1 132 0
 236 0040 E189     		ldrh	r1, [r4, #14]
 237              		.loc 1 131 0
 238 0042 0028     		cmp	r0, #0
 239 0044 00F00A81 		beq	.L35
 240              		.loc 1 132 0
 241 0048 BDF80620 		ldrh	r2, [sp, #6]
 242 004c 5140     		eors	r1, r1, r2
 243 004e C807     		lsls	r0, r1, #31
 244 0050 1CD4     		bmi	.L36
 245              		.loc 1 134 0
 246 0052 26F00206 		bic	r6, r6, #2
 247 0056 2682     		strh	r6, [r4, #16]	@ movhi
 248              	.L28:
 249              		.loc 1 315 0
 250 0058 02B0     		add	sp, sp, #8
 251 005a BDE8F081 		pop	{r4, r5, r6, r7, r8, pc}
 252              	.L121:
 253              		.loc 1 117 0
 254 005e B5F91660 		ldrsh	r6, [r5, #22]
 255 0062 B5F91400 		ldrsh	r0, [r5, #20]
 256 0066 8642     		cmp	r6, r0
 257              		.loc 1 118 0
 258 0068 B5F91860 		ldrsh	r6, [r5, #24]
 259 006c BDF90400 		ldrsh	r0, [sp, #4]
 260              		.loc 1 117 0
 261 0070 00F3EC80 		bgt	.L31
 262              		.loc 1 118 0
 263 0074 8642     		cmp	r6, r0
 264 0076 40F31381 		ble	.L116
 265              		.loc 1 119 0
 266 007a B5F91A20 		ldrsh	r2, [r5, #26]
 267 007e 8242     		cmp	r2, r0
 268 0080 EADB     		blt	.L28
 269              	.L117:
 270              		.loc 1 123 0 discriminator 1
 271 0082 01F00E01 		and	r1, r1, #14
 272 0086 ADF80610 		strh	r1, [sp, #6]	@ movhi
 273 008a D0E7     		b	.L30
 274              	.L36:
 275              		.loc 1 138 0
 276 008c 26F00206 		bic	r6, r6, #2
 277 0090 3004     		lsls	r0, r6, #16
 278 0092 060C     		lsrs	r6, r0, #16
 279 0094 2682     		strh	r6, [r4, #16]	@ movhi
 280              	.L38:
 281              		.loc 1 150 0
 282 0096 06F01002 		and	r2, r6, #16
 283 009a 91B2     		uxth	r1, r2
 284 009c 59B1     		cbz	r1, .L39
 285              		.loc 1 151 0
ARM GAS  C:\Users\Elis\AppData\Local\Temp\ccIy8Y2d.s 			page 6


 286 009e BDF80600 		ldrh	r0, [sp, #6]
 287 00a2 C207     		lsls	r2, r0, #31
 288 00a4 05D5     		bpl	.L120
 289              		.loc 1 152 0
 290 00a6 BDF80020 		ldrh	r2, [sp, #0]
 291              		.loc 1 153 0
 292 00aa BDF80230 		ldrh	r3, [sp, #2]
 293              		.loc 1 152 0
 294 00ae 2281     		strh	r2, [r4, #8]	@ movhi
 295              		.loc 1 153 0
 296 00b0 6381     		strh	r3, [r4, #10]	@ movhi
 297              	.L120:
 298              		.loc 1 314 0
 299 00b2 E081     		strh	r0, [r4, #14]	@ movhi
 300 00b4 D0E7     		b	.L28
 301              	.L39:
 302              		.loc 1 164 0
 303 00b6 03F48073 		and	r3, r3, #256
 304 00ba 98B2     		uxth	r0, r3
 305 00bc 20B1     		cbz	r0, .L41
 306              		.loc 1 164 0 is_stmt 0 discriminator 1
 307 00be BDF80620 		ldrh	r2, [sp, #6]
 308 00c2 D007     		lsls	r0, r2, #31
 309 00c4 40F10B81 		bpl	.L122
 310              	.L41:
 311              		.loc 1 172 0 is_stmt 1
 312 00c8 06F00802 		and	r2, r6, #8
 313 00cc 91B2     		uxth	r1, r2
 314 00ce 0029     		cmp	r1, #0
 315 00d0 40F00C81 		bne	.L123
 316              	.L43:
 317              		.loc 1 177 0
 318 00d4 E069     		ldr	r0, [r4, #28]
 319 00d6 A8B1     		cbz	r0, .L119
 320              	.LBB9:
 321              		.loc 1 181 0
 322 00d8 FFF7FEFF 		bl	gdispGGetWidth
 323              	.LVL10:
 324 00dc 0746     		mov	r7, r0
 325              	.LVL11:
 326              		.loc 1 182 0
 327 00de E069     		ldr	r0, [r4, #28]
 328              	.LVL12:
 329 00e0 FFF7FEFF 		bl	gdispGGetHeight
 330              	.LVL13:
 331              		.loc 1 186 0
 332 00e4 6568     		ldr	r5, [r4, #4]
 333 00e6 6E88     		ldrh	r6, [r5, #2]
 334              		.loc 1 182 0
 335 00e8 8046     		mov	r8, r0
 336              	.LVL14:
 337              		.loc 1 186 0
 338 00ea 06F00400 		and	r0, r6, #4
 339              	.LVL15:
 340 00ee 82B2     		uxth	r2, r0
 341 00f0 002A     		cmp	r2, #0
 342 00f2 00F02F81 		beq	.L124
ARM GAS  C:\Users\Elis\AppData\Local\Temp\ccIy8Y2d.s 			page 7


 343              	.L45:
 344              		.loc 1 213 0
 345 00f6 268A     		ldrh	r6, [r4, #16]
 346 00f8 06F00401 		and	r1, r6, #4
 347 00fc 8AB2     		uxth	r2, r1
 348 00fe 002A     		cmp	r2, #0
 349 0100 40F0D680 		bne	.L49
 350              	.LVL16:
 351              	.L119:
 352 0104 BDF80620 		ldrh	r2, [sp, #6]
 353              	.L42:
 354              	.LBE9:
 355              	.LBB12:
 356              		.loc 1 230 0
 357 0108 06F02003 		and	r3, r6, #32
 358 010c 98B2     		uxth	r0, r3
 359 010e 0028     		cmp	r0, #0
 360 0110 00F0CB80 		beq	.L54
 361              		.loc 1 230 0 is_stmt 0 discriminator 1
 362 0114 05F12201 		add	r1, r5, #34
 363              	.L55:
 364              	.LVL17:
 365              		.loc 1 233 0 is_stmt 1 discriminator 3
 366 0118 8B88     		ldrh	r3, [r1, #4]
 367 011a 18B2     		sxth	r0, r3
 368 011c 0028     		cmp	r0, #0
 369 011e 1ADD     		ble	.L56
 370              		.loc 1 234 0
 371 0120 B4F808C0 		ldrh	ip, [r4, #8]
 372 0124 BDF90070 		ldrsh	r7, [sp, #0]
 373 0128 B4F80AE0 		ldrh	lr, [r4, #10]
 374 012c BDF90280 		ldrsh	r8, [sp, #2]
 375 0130 0FFA8CF0 		sxth	r0, ip
 376 0134 3F1A     		subs	r7, r7, r0
 377 0136 0FFA8EF0 		sxth	r0, lr
 378 013a C0EB0800 		rsb	r0, r0, r8
 379              	.LVL18:
 380 013e 07FB07F7 		mul	r7, r7, r7
 381              	.LVL19:
 382 0142 00FB0070 		mla	r0, r0, r0, r7
 383              	.LVL20:
 384              		.loc 1 235 0
 385 0146 13FB03F3 		smulbb	r3, r3, r3
 386 014a 9842     		cmp	r0, r3
 387              		.loc 1 236 0
 388 014c 3CBF     		itt	cc
 389 014e ADF800C0 		strhcc	ip, [sp, #0]	@ movhi
 390              		.loc 1 237 0
 391 0152 ADF802E0 		strhcc	lr, [sp, #2]	@ movhi
 392              	.LVL21:
 393              	.L56:
 394              		.loc 1 242 0
 395 0156 4B88     		ldrh	r3, [r1, #2]
 396 0158 19B2     		sxth	r1, r3
 397              	.LVL22:
 398 015a 0029     		cmp	r1, #0
 399 015c 17DD     		ble	.L57
ARM GAS  C:\Users\Elis\AppData\Local\Temp\ccIy8Y2d.s 			page 8


 400              		.loc 1 242 0 is_stmt 0 discriminator 1
 401 015e F107     		lsls	r1, r6, #31
 402 0160 15D5     		bpl	.L57
 403              		.loc 1 243 0 is_stmt 1
 404 0162 BDF900C0 		ldrsh	ip, [sp, #0]
 405 0166 B4F91200 		ldrsh	r0, [r4, #18]
 406 016a BDF90270 		ldrsh	r7, [sp, #2]
 407 016e B4F91410 		ldrsh	r1, [r4, #20]
 408 0172 C0EB0C00 		rsb	r0, r0, ip
 409 0176 791A     		subs	r1, r7, r1
 410              	.LVL23:
 411 0178 00FB00F0 		mul	r0, r0, r0
 412              	.LVL24:
 413 017c 01FB0100 		mla	r0, r1, r1, r0
 414              	.LVL25:
 415              		.loc 1 244 0
 416 0180 13FB03F3 		smulbb	r3, r3, r3
 417 0184 9842     		cmp	r0, r3
 418              		.loc 1 245 0
 419 0186 84BF     		itt	hi
 420 0188 26F00106 		bichi	r6, r6, #1
 421 018c 2682     		strhhi	r6, [r4, #16]	@ movhi
 422              	.LVL26:
 423              	.L57:
 424              	.LBE12:
 425              	.LBB13:
 426              		.loc 1 255 0
 427 018e E389     		ldrh	r3, [r4, #14]
 428 0190 90B2     		uxth	r0, r2
 429 0192 20EA0301 		bic	r1, r0, r3
 430              	.LVL27:
 431              		.loc 1 256 0
 432 0196 23EA0003 		bic	r3, r3, r0
 433              	.LVL28:
 434              		.loc 1 259 0
 435 019a C807     		lsls	r0, r1, #31
 436              		.loc 1 260 0
 437 019c 44BF     		itt	mi
 438 019e 42F01002 		orrmi	r2, r2, #16
 439 01a2 ADF80620 		strhmi	r2, [sp, #6]	@ movhi
 440              		.loc 1 263 0
 441 01a6 13F00100 		ands	r0, r3, #1
 442 01aa 05D0     		beq	.L59
 443              		.loc 1 264 0
 444 01ac BDF80620 		ldrh	r2, [sp, #6]
 445 01b0 42F02002 		orr	r2, r2, #32
 446 01b4 ADF80620 		strh	r2, [sp, #6]	@ movhi
 447              	.L59:
 448              		.loc 1 267 0
 449 01b8 8907     		lsls	r1, r1, #30
 450              	.LVL29:
 451 01ba 0CD0     		beq	.L60
 452              		.loc 1 270 0
 453 01bc 844E     		ldr	r6, .L127
 454              		.loc 1 271 0
 455 01be 218A     		ldrh	r1, [r4, #16]
 456              		.loc 1 270 0
ARM GAS  C:\Users\Elis\AppData\Local\Temp\ccIy8Y2d.s 			page 9


 457 01c0 F268     		ldr	r2, [r6, #12]
 458              		.loc 1 268 0
 459 01c2 BDF80060 		ldrh	r6, [sp, #0]
 460              		.loc 1 270 0
 461 01c6 A261     		str	r2, [r4, #24]
 462              		.loc 1 268 0
 463 01c8 6682     		strh	r6, [r4, #18]	@ movhi
 464              		.loc 1 269 0
 465 01ca BDF80260 		ldrh	r6, [sp, #2]
 466              		.loc 1 271 0
 467 01ce 41F00101 		orr	r1, r1, #1
 468              		.loc 1 269 0
 469 01d2 A682     		strh	r6, [r4, #20]	@ movhi
 470              		.loc 1 271 0
 471 01d4 2182     		strh	r1, [r4, #16]	@ movhi
 472              	.L60:
 473              		.loc 1 275 0
 474 01d6 9A07     		lsls	r2, r3, #30
 475 01d8 2AD0     		beq	.L62
 476              		.loc 1 275 0 is_stmt 0 discriminator 1
 477 01da 228A     		ldrh	r2, [r4, #16]
 478 01dc D107     		lsls	r1, r2, #31
 479 01de 27D5     		bpl	.L62
 480              		.loc 1 277 0 is_stmt 1
 481 01e0 7B4E     		ldr	r6, .L127
 482 01e2 A169     		ldr	r1, [r4, #24]
 483 01e4 F668     		ldr	r6, [r6, #12]
 484 01e6 711A     		subs	r1, r6, r1
 485              		.loc 1 276 0
 486 01e8 22F00102 		bic	r2, r2, #1
 487              		.loc 1 280 0
 488 01ec B1F5967F 		cmp	r1, #300
 489              		.loc 1 276 0
 490 01f0 2282     		strh	r2, [r4, #16]	@ movhi
 491              		.loc 1 277 0
 492 01f2 A161     		str	r1, [r4, #24]
 493              		.loc 1 280 0
 494 01f4 10D8     		bhi	.L65
 495              		.loc 1 281 0
 496 01f6 03F00203 		and	r3, r3, #2
 497              	.LVL30:
 498 01fa 1AB2     		sxth	r2, r3
 499 01fc 2AB1     		cbz	r2, .L66
 500              		.loc 1 282 0
 501 01fe BDF80630 		ldrh	r3, [sp, #6]
 502 0202 43F08002 		orr	r2, r3, #128
 503 0206 ADF80620 		strh	r2, [sp, #6]	@ movhi
 504              	.L66:
 505              		.loc 1 283 0
 506 020a 28B1     		cbz	r0, .L65
 507              		.loc 1 284 0
 508 020c BDF80600 		ldrh	r0, [sp, #6]
 509 0210 40F04003 		orr	r3, r0, #64
 510 0214 ADF80630 		strh	r3, [sp, #6]	@ movhi
 511              	.L65:
 512              		.loc 1 289 0
 513 0218 6D88     		ldrh	r5, [r5, #2]
ARM GAS  C:\Users\Elis\AppData\Local\Temp\ccIy8Y2d.s 			page 10


 514 021a EB07     		lsls	r3, r5, #31
 515 021c 08D5     		bpl	.L62
 516              		.loc 1 289 0 is_stmt 0 discriminator 1
 517 021e B1F5FA7F 		cmp	r1, #500
 518 0222 05D3     		bcc	.L62
 519              		.loc 1 290 0 is_stmt 1
 520 0224 BDF80610 		ldrh	r1, [sp, #6]
 521 0228 41F08002 		orr	r2, r1, #128
 522 022c ADF80620 		strh	r2, [sp, #6]	@ movhi
 523              	.L62:
 524              	.LBE13:
 525              		.loc 1 99 0 discriminator 1
 526 0230 0025     		movs	r5, #0
 527 0232 01E0     		b	.L68
 528              	.LVL31:
 529              	.L69:
 530              	.LBB14:
 531              		.loc 1 302 0
 532 0234 FFF7FEFF 		bl	SendMouseEvent
 533              	.LVL32:
 534              	.L68:
 535              		.loc 1 301 0 discriminator 1
 536 0238 2946     		mov	r1, r5
 537 023a 6648     		ldr	r0, .L127+4
 538 023c FFF7FEFF 		bl	geventGetSourceListener
 539              	.LVL33:
 540              		.loc 1 302 0 discriminator 1
 541 0240 2146     		mov	r1, r4
 542              		.loc 1 301 0 discriminator 1
 543 0242 0546     		mov	r5, r0
 544              		.loc 1 302 0 discriminator 1
 545 0244 6A46     		mov	r2, sp
 546              		.loc 1 301 0 discriminator 1
 547 0246 0028     		cmp	r0, #0
 548 0248 F4D1     		bne	.L69
 549              	.LVL34:
 550 024a 14E0     		b	.L115
 551              	.LVL35:
 552              	.L31:
 553              	.LBE14:
 554              		.loc 1 122 0
 555 024c 8642     		cmp	r6, r0
 556 024e 27DA     		bge	.L116
 557              		.loc 1 123 0
 558 0250 B5F91A20 		ldrsh	r2, [r5, #26]
 559 0254 8242     		cmp	r2, r0
 560 0256 3FF7FFAE 		bgt	.L28
 561 025a 12E7     		b	.L117
 562              	.L35:
 563              		.loc 1 141 0
 564 025c BDF80620 		ldrh	r2, [sp, #6]
 565 0260 81EA0200 		eor	r0, r1, r2
 566 0264 C107     		lsls	r1, r0, #31
 567 0266 7FF516AF 		bpl	.L38
 568              		.loc 1 142 0
 569 026a 46F00206 		orr	r6, r6, #2
 570 026e 2682     		strh	r6, [r4, #16]	@ movhi
ARM GAS  C:\Users\Elis\AppData\Local\Temp\ccIy8Y2d.s 			page 11


 571 0270 F2E6     		b	.L28
 572              	.LVL36:
 573              	.L71:
 574              	.LBB15:
 575              		.loc 1 307 0
 576 0272 FFF7FEFF 		bl	SendMouseEvent
 577              	.LVL37:
 578              	.L115:
 579              		.loc 1 306 0 discriminator 1
 580 0276 2946     		mov	r1, r5
 581 0278 2046     		mov	r0, r4
 582 027a FFF7FEFF 		bl	geventGetSourceListener
 583              	.LVL38:
 584              		.loc 1 307 0 discriminator 1
 585 027e 2146     		mov	r1, r4
 586              		.loc 1 306 0 discriminator 1
 587 0280 0546     		mov	r5, r0
 588              		.loc 1 307 0 discriminator 1
 589 0282 6A46     		mov	r2, sp
 590              		.loc 1 306 0 discriminator 1
 591 0284 0028     		cmp	r0, #0
 592 0286 F4D1     		bne	.L71
 593              	.LVL39:
 594              	.LBE15:
 595              		.loc 1 311 0
 596 0288 BDF80000 		ldrh	r0, [sp, #0]
 597              	.LVL40:
 598              		.loc 1 312 0
 599 028c BDF80230 		ldrh	r3, [sp, #2]
 600              		.loc 1 313 0
 601 0290 BDF80410 		ldrh	r1, [sp, #4]
 602              	.LVL41:
 603              		.loc 1 311 0
 604 0294 2081     		strh	r0, [r4, #8]	@ movhi
 605              		.loc 1 312 0
 606 0296 6381     		strh	r3, [r4, #10]	@ movhi
 607              		.loc 1 313 0
 608 0298 A181     		strh	r1, [r4, #12]	@ movhi
 609              		.loc 1 314 0
 610 029a BDF80600 		ldrh	r0, [sp, #6]
 611 029e 08E7     		b	.L120
 612              	.LVL42:
 613              	.L116:
 614              		.loc 1 122 0 discriminator 1
 615 02a0 42F00106 		orr	r6, r2, #1
 616 02a4 ADF80660 		strh	r6, [sp, #6]	@ movhi
 617 02a8 C1E6     		b	.L30
 618              	.L54:
 619              	.LBB16:
 620              		.loc 1 230 0 discriminator 2
 621 02aa 05F11C01 		add	r1, r5, #28
 622 02ae 33E7     		b	.L55
 623              	.LVL43:
 624              	.L49:
 625              	.LBE16:
 626              	.LBB17:
 627              		.loc 1 214 0
ARM GAS  C:\Users\Elis\AppData\Local\Temp\ccIy8Y2d.s 			page 12


 628 02b0 BDF90030 		ldrsh	r3, [sp, #0]
 629 02b4 002B     		cmp	r3, #0
 630 02b6 59DB     		blt	.L125
 631              		.loc 1 215 0
 632 02b8 9F42     		cmp	r7, r3
 633 02ba 02DC     		bgt	.L51
 634              		.loc 1 215 0 is_stmt 0 discriminator 1
 635 02bc 013F     		subs	r7, r7, #1
 636              	.LVL44:
 637 02be ADF80070 		strh	r7, [sp, #0]	@ movhi
 638              	.LVL45:
 639              	.L51:
 640              		.loc 1 216 0 is_stmt 1
 641 02c2 BDF90210 		ldrsh	r1, [sp, #2]
 642 02c6 0029     		cmp	r1, #0
 643 02c8 54DB     		blt	.L126
 644              		.loc 1 217 0
 645 02ca 8845     		cmp	r8, r1
 646 02cc 3FF71AAF 		bgt	.L119
 647              		.loc 1 217 0 is_stmt 0 discriminator 1
 648 02d0 08F1FF38 		add	r8, r8, #-1
 649              	.LVL46:
 650 02d4 BDF80620 		ldrh	r2, [sp, #6]
 651 02d8 ADF80280 		strh	r8, [sp, #2]	@ movhi
 652 02dc 14E7     		b	.L42
 653              	.LVL47:
 654              	.L122:
 655              	.LBE17:
 656              		.loc 1 165 0 is_stmt 1
 657 02de 2089     		ldrh	r0, [r4, #8]
 658              		.loc 1 166 0
 659 02e0 6189     		ldrh	r1, [r4, #10]
 660              		.loc 1 165 0
 661 02e2 ADF80000 		strh	r0, [sp, #0]	@ movhi
 662              		.loc 1 166 0
 663 02e6 ADF80210 		strh	r1, [sp, #2]	@ movhi
 664 02ea 0DE7     		b	.L42
 665              	.L123:
 666              	.LVL48:
 667              	.LBB18:
 668              	.LBB19:
 669              		.loc 1 59 0
 670 02ec BDF90200 		ldrsh	r0, [sp, #2]
 671 02f0 FFF7FEFF 		bl	__aeabi_i2f
 672              	.LVL49:
 673 02f4 0746     		mov	r7, r0
 674 02f6 BDF90000 		ldrsh	r0, [sp, #0]
 675 02fa FFF7FEFF 		bl	__aeabi_i2f
 676              	.LVL50:
 677 02fe 216A     		ldr	r1, [r4, #32]	@ float
 678 0300 FFF7FEFF 		bl	__aeabi_fmul
 679              	.LVL51:
 680 0304 616A     		ldr	r1, [r4, #36]	@ float
 681 0306 8046     		mov	r8, r0
 682 0308 3846     		mov	r0, r7
 683 030a FFF7FEFF 		bl	__aeabi_fmul
 684              	.LVL52:
ARM GAS  C:\Users\Elis\AppData\Local\Temp\ccIy8Y2d.s 			page 13


 685 030e 0146     		mov	r1, r0
 686 0310 4046     		mov	r0, r8
 687 0312 FFF7FEFF 		bl	__aeabi_fadd
 688              	.LVL53:
 689 0316 A16A     		ldr	r1, [r4, #40]	@ float
 690 0318 FFF7FEFF 		bl	__aeabi_fadd
 691              	.LVL54:
 692 031c FFF7FEFF 		bl	__aeabi_f2iz
 693              	.LVL55:
 694 0320 0346     		mov	r3, r0
 695              		.loc 1 60 0
 696 0322 00B2     		sxth	r0, r0
 697              		.loc 1 59 0
 698 0324 ADF80030 		strh	r3, [sp, #0]	@ movhi
 699              		.loc 1 60 0
 700 0328 FFF7FEFF 		bl	__aeabi_i2f
 701              	.LVL56:
 702 032c E16A     		ldr	r1, [r4, #44]	@ float
 703 032e FFF7FEFF 		bl	__aeabi_fmul
 704              	.LVL57:
 705 0332 216B     		ldr	r1, [r4, #48]	@ float
 706 0334 8046     		mov	r8, r0
 707 0336 3846     		mov	r0, r7
 708 0338 FFF7FEFF 		bl	__aeabi_fmul
 709              	.LVL58:
 710 033c 0146     		mov	r1, r0
 711 033e 4046     		mov	r0, r8
 712 0340 FFF7FEFF 		bl	__aeabi_fadd
 713              	.LVL59:
 714 0344 616B     		ldr	r1, [r4, #52]	@ float
 715 0346 FFF7FEFF 		bl	__aeabi_fadd
 716              	.LVL60:
 717 034a FFF7FEFF 		bl	__aeabi_f2iz
 718              	.LVL61:
 719 034e ADF80200 		strh	r0, [sp, #2]	@ movhi
 720 0352 BFE6     		b	.L43
 721              	.LVL62:
 722              	.L124:
 723              	.LBE19:
 724              	.LBE18:
 725              	.LBB20:
 726              	.LBB10:
 727              		.loc 1 189 0
 728 0354 E069     		ldr	r0, [r4, #28]
 729 0356 FFF7FEFF 		bl	gdispGGetOrientation
 730              	.LVL63:
 731 035a B428     		cmp	r0, #180
 732 035c 29D0     		beq	.L47
 733 035e B0F5877F 		cmp	r0, #270
 734 0362 19D0     		beq	.L48
 735 0364 5A28     		cmp	r0, #90
 736 0366 0BD0     		beq	.L46
 737 0368 6568     		ldr	r5, [r4, #4]
 738 036a C4E6     		b	.L45
 739              	.L125:
 740              	.LBE10:
 741              		.loc 1 214 0 discriminator 1
ARM GAS  C:\Users\Elis\AppData\Local\Temp\ccIy8Y2d.s 			page 14


 742 036c 0020     		movs	r0, #0
 743 036e ADF80000 		strh	r0, [sp, #0]	@ movhi
 744 0372 A6E7     		b	.L51
 745              	.LVL64:
 746              	.L126:
 747              		.loc 1 216 0 discriminator 1
 748 0374 0023     		movs	r3, #0
 749 0376 ADF80230 		strh	r3, [sp, #2]	@ movhi
 750 037a BDF80620 		ldrh	r2, [sp, #6]
 751 037e C3E6     		b	.L42
 752              	.LVL65:
 753              	.L46:
 754              	.LBB11:
 755              		.loc 1 194 0
 756 0380 BDF80210 		ldrh	r1, [sp, #2]
 757              		.loc 1 193 0
 758 0384 BDF80030 		ldrh	r3, [sp, #0]
 759              	.LVL66:
 760 0388 6568     		ldr	r5, [r4, #4]
 761              		.loc 1 195 0
 762 038a ADF80230 		strh	r3, [sp, #2]	@ movhi
 763              		.loc 1 194 0
 764 038e CE43     		mvns	r6, r1
 765 0390 F019     		adds	r0, r6, r7
 766 0392 ADF80000 		strh	r0, [sp, #0]	@ movhi
 767              		.loc 1 196 0
 768 0396 AEE6     		b	.L45
 769              	.LVL67:
 770              	.L48:
 771              		.loc 1 203 0
 772 0398 BDF80010 		ldrh	r1, [sp, #0]
 773              		.loc 1 202 0
 774 039c BDF80220 		ldrh	r2, [sp, #2]
 775              	.LVL68:
 776 03a0 6568     		ldr	r5, [r4, #4]
 777              		.loc 1 204 0
 778 03a2 ADF80020 		strh	r2, [sp, #0]	@ movhi
 779              		.loc 1 203 0
 780 03a6 CB43     		mvns	r3, r1
 781 03a8 03EB0806 		add	r6, r3, r8
 782 03ac ADF80260 		strh	r6, [sp, #2]	@ movhi
 783              		.loc 1 205 0
 784 03b0 A1E6     		b	.L45
 785              	.LVL69:
 786              	.L47:
 787              		.loc 1 198 0
 788 03b2 BDF80000 		ldrh	r0, [sp, #0]
 789              		.loc 1 199 0
 790 03b6 BDF80220 		ldrh	r2, [sp, #2]
 791 03ba 6568     		ldr	r5, [r4, #4]
 792              		.loc 1 198 0
 793 03bc C143     		mvns	r1, r0
 794              		.loc 1 199 0
 795 03be D343     		mvns	r3, r2
 796              		.loc 1 198 0
 797 03c0 CE19     		adds	r6, r1, r7
 798              		.loc 1 199 0
ARM GAS  C:\Users\Elis\AppData\Local\Temp\ccIy8Y2d.s 			page 15


 799 03c2 03EB0800 		add	r0, r3, r8
 800              		.loc 1 198 0
 801 03c6 ADF80060 		strh	r6, [sp, #0]	@ movhi
 802              		.loc 1 199 0
 803 03ca ADF80200 		strh	r0, [sp, #2]	@ movhi
 804              		.loc 1 200 0
 805 03ce 92E6     		b	.L45
 806              	.L128:
 807              		.align	2
 808              	.L127:
 809 03d0 00000000 		.word	vtlist
 810 03d4 00000000 		.word	.LANCHOR0
 811              	.LBE11:
 812              	.LBE20:
 813              		.cfi_endproc
 814              	.LFE120:
 815              		.size	GetMouseReading, .-GetMouseReading
 816 03d8 AFF30080 		.section	.text.MousePoll,"ax",%progbits
 816      AFF30080 
 817              		.align	2
 818              		.p2align 4,,15
 819              		.thumb
 820              		.thumb_func
 821              		.type	MousePoll, %function
 822              	MousePoll:
 823              	.LFB121:
 824              		.loc 1 317 0
 825              		.cfi_startproc
 826              		@ args = 0, pretend = 0, frame = 0
 827              		@ frame_needed = 0, uses_anonymous_args = 0
 828              	.LVL70:
 829 0000 10B5     		push	{r4, lr}
 830              	.LCFI3:
 831              		.cfi_def_cfa_offset 8
 832              		.cfi_offset 4, -8
 833              		.cfi_offset 14, -4
 834              		.loc 1 321 0
 835 0002 6D20     		movs	r0, #109
 836              	.LVL71:
 837 0004 0021     		movs	r1, #0
 838 0006 FFF7FEFF 		bl	gdriverGetNext
 839              	.LVL72:
 840 000a 0446     		mov	r4, r0
 841 000c A0B1     		cbz	r0, .L129
 842              	.L139:
 843              		.loc 1 322 0
 844 000e 6368     		ldr	r3, [r4, #4]
 845 0010 5988     		ldrh	r1, [r3, #2]
 846 0012 01F00202 		and	r2, r1, #2
 847 0016 93B2     		uxth	r3, r2
 848              		.loc 1 323 0
 849 0018 2046     		mov	r0, r4
 850              	.LVL73:
 851              		.loc 1 322 0
 852 001a 23B1     		cbz	r3, .L131
 853              	.LVL74:
 854              		.loc 1 322 0 is_stmt 0 discriminator 1
ARM GAS  C:\Users\Elis\AppData\Local\Temp\ccIy8Y2d.s 			page 16


 855 001c 218A     		ldrh	r1, [r4, #16]
 856 001e 01F04002 		and	r2, r1, #64
 857 0022 93B2     		uxth	r3, r2
 858 0024 0BB1     		cbz	r3, .L132
 859              	.L131:
 860              		.loc 1 323 0 is_stmt 1
 861 0026 FFF7FEFF 		bl	GetMouseReading
 862              	.LVL75:
 863              	.L132:
 864              		.loc 1 321 0
 865 002a 2146     		mov	r1, r4
 866 002c 6D20     		movs	r0, #109
 867 002e FFF7FEFF 		bl	gdriverGetNext
 868              	.LVL76:
 869 0032 0446     		mov	r4, r0
 870 0034 0028     		cmp	r0, #0
 871 0036 EAD1     		bne	.L139
 872              	.L129:
 873 0038 10BD     		pop	{r4, pc}
 874              		.cfi_endproc
 875              	.LFE121:
 876              		.size	MousePoll, .-MousePoll
 877              		.global	__aeabi_fsub
 878              		.global	__aeabi_fdiv
 879 003a 00BFAFF3 		.section	.text.CalibrateMouse,"ax",%progbits
 879      0080
 880              		.align	2
 881              		.p2align 4,,15
 882              		.thumb
 883              		.thumb_func
 884              		.type	CalibrateMouse, %function
 885              	CalibrateMouse:
 886              	.LFB125:
 887              		.loc 1 443 0
 888              		.cfi_startproc
 889              		@ args = 0, pretend = 0, frame = 120
 890              		@ frame_needed = 0, uses_anonymous_args = 0
 891              	.LVL77:
 892 0000 2DE9F04F 		push	{r4, r5, r6, r7, r8, r9, sl, fp, lr}
 893              	.LCFI4:
 894              		.cfi_def_cfa_offset 36
 895              		.cfi_offset 4, -36
 896              		.cfi_offset 5, -32
 897              		.cfi_offset 6, -28
 898              		.cfi_offset 7, -24
 899              		.cfi_offset 8, -20
 900              		.cfi_offset 9, -16
 901              		.cfi_offset 10, -12
 902              		.cfi_offset 11, -8
 903              		.cfi_offset 14, -4
 904 0004 0446     		mov	r4, r0
 905 0006 A5B0     		sub	sp, sp, #148
 906              	.LCFI5:
 907              		.cfi_def_cfa_offset 184
 908              		.loc 1 453 0
 909 0008 9748     		ldr	r0, .L197
 910              	.LVL78:
ARM GAS  C:\Users\Elis\AppData\Local\Temp\ccIy8Y2d.s 			page 17


 911 000a FFF7FEFF 		bl	gdispOpenFont
 912              	.LVL79:
 913              		.loc 1 454 0
 914 000e 1290     		str	r0, [sp, #72]
 915 0010 0028     		cmp	r0, #0
 916 0012 00F00484 		beq	.L190
 917              	.L144:
 918              	.LVL80:
 919              		.loc 1 455 0
 920 0016 9548     		ldr	r0, .L197+4
 921 0018 FFF7FEFF 		bl	gdispOpenFont
 922              	.LVL81:
 923              		.loc 1 456 0
 924 001c 1390     		str	r0, [sp, #76]
 925 001e 0028     		cmp	r0, #0
 926 0020 00F00384 		beq	.L191
 927              	.L145:
 928              	.LVL82:
 929              		.loc 1 459 0
 930 0024 E069     		ldr	r0, [r4, #28]
 931 0026 FFF7FEFF 		bl	gdispGGetWidth
 932              	.LVL83:
 933 002a 0C90     		str	r0, [sp, #48]
 934              	.LVL84:
 935              		.loc 1 460 0
 936 002c E069     		ldr	r0, [r4, #28]
 937 002e FFF7FEFF 		bl	gdispGGetHeight
 938              	.LVL85:
 939 0032 0D90     		str	r0, [sp, #52]
 940              	.LVL86:
 941              		.loc 1 462 0
 942 0034 0D9D     		ldr	r5, [sp, #52]
 943 0036 E069     		ldr	r0, [r4, #28]
 944 0038 0C9B     		ldr	r3, [sp, #48]
 945 003a 0095     		str	r5, [sp, #0]
 946 003c 0021     		movs	r1, #0
 947 003e 0A46     		mov	r2, r1
 948 0040 FFF7FEFF 		bl	gdispGSetClip
 949              	.LVL87:
 950              		.loc 1 469 0
 951 0044 6368     		ldr	r3, [r4, #4]
 952              		.loc 1 466 0
 953 0046 228A     		ldrh	r2, [r4, #16]
 954              		.loc 1 469 0
 955 0048 5888     		ldrh	r0, [r3, #2]
 956 004a 00F02001 		and	r1, r0, #32
 957              		.loc 1 466 0
 958 004e 42F01006 		orr	r6, r2, #16
 959              		.loc 1 469 0
 960 0052 8FB2     		uxth	r7, r1
 961              		.loc 1 466 0
 962 0054 2682     		strh	r6, [r4, #16]	@ movhi
 963              		.loc 1 469 0
 964 0056 002F     		cmp	r7, #0
 965 0058 00F00283 		beq	.L146
 966              		.loc 1 472 0
 967 005c 0D9F     		ldr	r7, [sp, #52]
ARM GAS  C:\Users\Elis\AppData\Local\Temp\ccIy8Y2d.s 			page 18


 968              		.loc 1 471 0
 969 005e 0C99     		ldr	r1, [sp, #48]
 970              		.loc 1 472 0
 971 0060 781E     		subs	r0, r7, #1
 972              		.loc 1 471 0
 973 0062 4E1E     		subs	r6, r1, #1
 974              		.loc 1 473 0
 975 0064 07EBD772 		add	r2, r7, r7, lsr #31
 976 0068 01EBD171 		add	r1, r1, r1, lsr #31
 977              		.loc 1 470 0
 978 006c 0023     		movs	r3, #0
 979              		.loc 1 471 0
 980 006e B5B2     		uxth	r5, r6
 981              		.loc 1 473 0
 982 0070 4F10     		asrs	r7, r1, #1
 983              		.loc 1 472 0
 984 0072 86B2     		uxth	r6, r0
 985              		.loc 1 473 0
 986 0074 5010     		asrs	r0, r2, #1
 987              		.loc 1 471 0
 988 0076 0B95     		str	r5, [sp, #44]
 989              		.loc 1 472 0
 990 0078 1196     		str	r6, [sp, #68]
 991              		.loc 1 473 0
 992 007a 1093     		str	r3, [sp, #64]
 993              		.loc 1 470 0
 994 007c ADF87030 		strh	r3, [sp, #112]	@ movhi
 995 0080 ADF87230 		strh	r3, [sp, #114]	@ movhi
 996              		.loc 1 471 0
 997 0084 ADF87450 		strh	r5, [sp, #116]	@ movhi
 998 0088 ADF87630 		strh	r3, [sp, #118]	@ movhi
 999              		.loc 1 472 0
 1000 008c ADF87850 		strh	r5, [sp, #120]	@ movhi
 1001 0090 ADF87A60 		strh	r6, [sp, #122]	@ movhi
 1002              		.loc 1 473 0
 1003 0094 ADF87C70 		strh	r7, [sp, #124]	@ movhi
 1004 0098 ADF87E00 		strh	r0, [sp, #126]	@ movhi
 1005 009c 1493     		str	r3, [sp, #80]
 1006              	.L147:
 1007              		.loc 1 482 0
 1008 009e E069     		ldr	r0, [r4, #28]
 1009              		.loc 1 484 0
 1010 00a0 734E     		ldr	r6, .L197+8
 1011              		.loc 1 482 0
 1012 00a2 1F21     		movs	r1, #31
 1013 00a4 FFF7FEFF 		bl	gdispGClear
 1014              	.LVL88:
 1015              		.loc 1 484 0
 1016 00a8 129B     		ldr	r3, [sp, #72]
 1017 00aa E069     		ldr	r0, [r4, #28]
 1018 00ac 0293     		str	r3, [sp, #8]
 1019 00ae 4FF6FF71 		movw	r1, #65535
 1020 00b2 1F22     		movs	r2, #31
 1021 00b4 1E25     		movs	r5, #30
 1022 00b6 0127     		movs	r7, #1
 1023 00b8 0095     		str	r5, [sp, #0]
 1024 00ba 0196     		str	r6, [sp, #4]
ARM GAS  C:\Users\Elis\AppData\Local\Temp\ccIy8Y2d.s 			page 19


 1025 00bc 0391     		str	r1, [sp, #12]
 1026 00be 0492     		str	r2, [sp, #16]
 1027 00c0 0021     		movs	r1, #0
 1028 00c2 0522     		movs	r2, #5
 1029 00c4 0C9B     		ldr	r3, [sp, #48]
 1030 00c6 0597     		str	r7, [sp, #20]
 1031 00c8 FFF7FEFF 		bl	gdispGFillStringBox
 1032              	.LVL89:
 1033              	.LBB33:
 1034              		.loc 1 494 0
 1035 00cc 6068     		ldr	r0, [r4, #4]
 1036 00ce 4388     		ldrh	r3, [r0, #2]
 1037 00d0 03F04001 		and	r1, r3, #64
 1038 00d4 0025     		movs	r5, #0
 1039 00d6 8AB2     		uxth	r2, r1
 1040 00d8 AA42     		cmp	r2, r5
 1041 00da 0CBF     		ite	eq
 1042 00dc 0326     		moveq	r6, #3
 1043 00de 0426     		movne	r6, #4
 1044 00e0 0A95     		str	r5, [sp, #40]
 1045 00e2 0E96     		str	r6, [sp, #56]
 1046              	.LVL90:
 1047              		.loc 1 497 0
 1048 00e4 0995     		str	r5, [sp, #36]
 1049              	.LVL91:
 1050              	.L158:
 1051              	.LBB34:
 1052              	.LBB35:
 1053              	.LBB36:
 1054              		.loc 1 334 0
 1055 00e6 0999     		ldr	r1, [sp, #36]
 1056 00e8 E069     		ldr	r0, [r4, #28]
 1057 00ea 1CAB     		add	r3, sp, #112
 1058 00ec 4FF6FF77 		movw	r7, #65535
 1059 00f0 33F821B0 		ldrh	fp, [r3, r1, lsl #2]
 1060 00f4 0197     		str	r7, [sp, #4]
 1061              	.LBE36:
 1062              	.LBE35:
 1063              		.loc 1 502 0
 1064 00f6 03EB8102 		add	r2, r3, r1, lsl #2
 1065              	.LVL92:
 1066              	.LBB38:
 1067              	.LBB37:
 1068              		.loc 1 334 0
 1069 00fa 1FFA8BFA 		uxth	sl, fp
 1070 00fe B2F80290 		ldrh	r9, [r2, #2]
 1071 0102 AAF10F05 		sub	r5, sl, #15
 1072 0106 2EB2     		sxth	r6, r5
 1073 0108 AAF10203 		sub	r3, sl, #2
 1074 010c 0FFA89F5 		sxth	r5, r9
 1075 0110 2A46     		mov	r2, r5
 1076              	.LVL93:
 1077 0112 3146     		mov	r1, r6
 1078              	.LVL94:
 1079 0114 1BB2     		sxth	r3, r3
 1080 0116 0095     		str	r5, [sp, #0]
 1081              		.loc 1 335 0
ARM GAS  C:\Users\Elis\AppData\Local\Temp\ccIy8Y2d.s 			page 20


 1082 0118 0AF10F08 		add	r8, sl, #15
 1083              		.loc 1 334 0
 1084 011c FFF7FEFF 		bl	gdispGDrawLine
 1085              	.LVL95:
 1086              		.loc 1 335 0
 1087 0120 0FFA88F8 		sxth	r8, r8
 1088 0124 0AF10201 		add	r1, sl, #2
 1089              		.loc 1 336 0
 1090 0128 1FFA89F9 		uxth	r9, r9
 1091              		.loc 1 335 0
 1092 012c E069     		ldr	r0, [r4, #28]
 1093 012e 0095     		str	r5, [sp, #0]
 1094 0130 2A46     		mov	r2, r5
 1095 0132 09B2     		sxth	r1, r1
 1096 0134 4346     		mov	r3, r8
 1097 0136 0197     		str	r7, [sp, #4]
 1098 0138 FFF7FEFF 		bl	gdispGDrawLine
 1099              	.LVL96:
 1100              		.loc 1 336 0
 1101 013c E069     		ldr	r0, [r4, #28]
 1102 013e 0197     		str	r7, [sp, #4]
 1103 0140 A9F10F02 		sub	r2, r9, #15
 1104 0144 A9F10207 		sub	r7, r9, #2
 1105 0148 15B2     		sxth	r5, r2
 1106 014a 0FFA8BFB 		sxth	fp, fp
 1107 014e 3FB2     		sxth	r7, r7
 1108 0150 5946     		mov	r1, fp
 1109 0152 5B46     		mov	r3, fp
 1110 0154 2A46     		mov	r2, r5
 1111 0156 0097     		str	r7, [sp, #0]
 1112 0158 FFF7FEFF 		bl	gdispGDrawLine
 1113              	.LVL97:
 1114              		.loc 1 337 0
 1115 015c 09F10F01 		add	r1, r9, #15
 1116 0160 0FB2     		sxth	r7, r1
 1117 0162 4FF6FF73 		movw	r3, #65535
 1118 0166 09F10202 		add	r2, r9, #2
 1119 016a E069     		ldr	r0, [r4, #28]
 1120 016c 0193     		str	r3, [sp, #4]
 1121 016e 5946     		mov	r1, fp
 1122 0170 5B46     		mov	r3, fp
 1123 0172 12B2     		sxth	r2, r2
 1124 0174 0097     		str	r7, [sp, #0]
 1125 0176 0F97     		str	r7, [sp, #60]
 1126 0178 FFF7FEFF 		bl	gdispGDrawLine
 1127              	.LVL98:
 1128              		.loc 1 338 0
 1129 017c AAF1070C 		sub	ip, sl, #7
 1130 0180 0FFA8CFB 		sxth	fp, ip
 1131 0184 E069     		ldr	r0, [r4, #28]
 1132 0186 0097     		str	r7, [sp, #0]
 1133 0188 4BF6F047 		movw	r7, #48368
 1134 018c 5B46     		mov	r3, fp
 1135 018e 3146     		mov	r1, r6
 1136 0190 0F9A     		ldr	r2, [sp, #60]
 1137 0192 0197     		str	r7, [sp, #4]
 1138 0194 CDF820B0 		str	fp, [sp, #32]
ARM GAS  C:\Users\Elis\AppData\Local\Temp\ccIy8Y2d.s 			page 21


 1139 0198 FFF7FEFF 		bl	gdispGDrawLine
 1140              	.LVL99:
 1141              		.loc 1 339 0
 1142 019c 0F9B     		ldr	r3, [sp, #60]
 1143 019e E069     		ldr	r0, [r4, #28]
 1144 01a0 0093     		str	r3, [sp, #0]
 1145 01a2 09F10701 		add	r1, r9, #7
 1146 01a6 4BF6F047 		movw	r7, #48368
 1147 01aa 0FFA81FB 		sxth	fp, r1
 1148 01ae 5A46     		mov	r2, fp
 1149 01b0 3146     		mov	r1, r6
 1150 01b2 3346     		mov	r3, r6
 1151 01b4 0197     		str	r7, [sp, #4]
 1152 01b6 FFF7FEFF 		bl	gdispGDrawLine
 1153              	.LVL100:
 1154              		.loc 1 340 0
 1155 01ba DDF820C0 		ldr	ip, [sp, #32]
 1156 01be E069     		ldr	r0, [r4, #28]
 1157 01c0 0197     		str	r7, [sp, #4]
 1158              		.loc 1 341 0
 1159 01c2 A9F10709 		sub	r9, r9, #7
 1160              		.loc 1 340 0
 1161 01c6 6346     		mov	r3, ip
 1162 01c8 3146     		mov	r1, r6
 1163 01ca 2A46     		mov	r2, r5
 1164              		.loc 1 341 0
 1165 01cc 0FFA89F9 		sxth	r9, r9
 1166              		.loc 1 340 0
 1167 01d0 0095     		str	r5, [sp, #0]
 1168 01d2 FFF7FEFF 		bl	gdispGDrawLine
 1169              	.LVL101:
 1170              		.loc 1 341 0
 1171 01d6 E069     		ldr	r0, [r4, #28]
 1172 01d8 0197     		str	r7, [sp, #4]
 1173 01da 3146     		mov	r1, r6
 1174 01dc 4A46     		mov	r2, r9
 1175 01de 3346     		mov	r3, r6
 1176 01e0 0095     		str	r5, [sp, #0]
 1177 01e2 FFF7FEFF 		bl	gdispGDrawLine
 1178              	.LVL102:
 1179              		.loc 1 342 0
 1180 01e6 0AF1070A 		add	sl, sl, #7
 1181 01ea 0F9A     		ldr	r2, [sp, #60]
 1182 01ec E069     		ldr	r0, [r4, #28]
 1183 01ee 0092     		str	r2, [sp, #0]
 1184 01f0 0FFA8AFA 		sxth	sl, sl
 1185 01f4 4BF6F047 		movw	r7, #48368
 1186 01f8 5146     		mov	r1, sl
 1187 01fa 4346     		mov	r3, r8
 1188 01fc 0197     		str	r7, [sp, #4]
 1189 01fe FFF7FEFF 		bl	gdispGDrawLine
 1190              	.LVL103:
 1191              		.loc 1 343 0
 1192 0202 0F9B     		ldr	r3, [sp, #60]
 1193 0204 E069     		ldr	r0, [r4, #28]
 1194 0206 0093     		str	r3, [sp, #0]
 1195 0208 4BF6F047 		movw	r7, #48368
ARM GAS  C:\Users\Elis\AppData\Local\Temp\ccIy8Y2d.s 			page 22


 1196 020c 4146     		mov	r1, r8
 1197 020e 5A46     		mov	r2, fp
 1198 0210 4346     		mov	r3, r8
 1199 0212 0197     		str	r7, [sp, #4]
 1200 0214 FFF7FEFF 		bl	gdispGDrawLine
 1201              	.LVL104:
 1202              		.loc 1 344 0
 1203 0218 E069     		ldr	r0, [r4, #28]
 1204 021a 0095     		str	r5, [sp, #0]
 1205 021c 5146     		mov	r1, sl
 1206 021e 2A46     		mov	r2, r5
 1207 0220 4346     		mov	r3, r8
 1208 0222 0197     		str	r7, [sp, #4]
 1209 0224 FFF7FEFF 		bl	gdispGDrawLine
 1210              	.LVL105:
 1211              		.loc 1 345 0
 1212 0228 E069     		ldr	r0, [r4, #28]
 1213 022a CDF80090 		str	r9, [sp, #0]
 1214 022e 4146     		mov	r1, r8
 1215 0230 0197     		str	r7, [sp, #4]
 1216 0232 2A46     		mov	r2, r5
 1217 0234 4346     		mov	r3, r8
 1218 0236 FFF7FEFF 		bl	gdispGDrawLine
 1219              	.LVL106:
 1220 023a E089     		ldrh	r0, [r4, #14]
 1221 023c 00F00100 		and	r0, r0, #1
 1222              	.L188:
 1223              	.LBE37:
 1224              	.LBE38:
 1225              		.loc 1 507 0 discriminator 1
 1226 0240 0028     		cmp	r0, #0
 1227 0242 00F00682 		beq	.L154
 1228              		.loc 1 507 0 is_stmt 0
 1229 0246 4FF0000B 		mov	fp, #0
 1230 024a 5F46     		mov	r7, fp
 1231 024c D846     		mov	r8, fp
 1232              	.L156:
 1233              		.loc 1 519 0 is_stmt 1
 1234 024e 1420     		movs	r0, #20
 1235              		.loc 1 514 0
 1236 0250 BBF1F90F 		cmp	fp, #249
 1237 0254 0ED8     		bhi	.L155
 1238              		.loc 1 515 0
 1239 0256 B4F90810 		ldrsh	r1, [r4, #8]
 1240              		.loc 1 516 0
 1241 025a B4F90A20 		ldrsh	r2, [r4, #10]
 1242              		.loc 1 515 0
 1243 025e 8844     		add	r8, r8, r1
 1244              	.LVL107:
 1245              		.loc 1 516 0
 1246 0260 BF18     		adds	r7, r7, r2
 1247              	.LVL108:
 1248              		.loc 1 517 0
 1249 0262 0BF1010B 		add	fp, fp, #1
 1250 0266 05E0     		b	.L198
 1251              	.L199:
 1252              		.align	2
ARM GAS  C:\Users\Elis\AppData\Local\Temp\ccIy8Y2d.s 			page 23


 1253              	.L197:
 1254 0268 00000000 		.word	.LC0
 1255 026c 10000000 		.word	.LC2
 1256 0270 1C000000 		.word	.LC3
 1257              	.L198:
 1258              	.LVL109:
 1259              	.L155:
 1260              		.loc 1 519 0
 1261 0274 FFF7FEFF 		bl	gfxSleepMilliseconds
 1262              	.LVL110:
 1263              		.loc 1 512 0
 1264 0278 E389     		ldrh	r3, [r4, #14]
 1265 027a 13F00100 		ands	r0, r3, #1
 1266 027e E6D1     		bne	.L156
 1267              		.loc 1 523 0
 1268 0280 BBF10E0F 		cmp	fp, #14
 1269 0284 DCD9     		bls	.L188
 1270              	.LBB39:
 1271              	.LBB40:
 1272              		.loc 1 349 0
 1273 0286 1F21     		movs	r1, #31
 1274 0288 E069     		ldr	r0, [r4, #28]
 1275              	.LBE40:
 1276              	.LBE39:
 1277              		.loc 1 443 0
 1278 028a 0A9A     		ldr	r2, [sp, #40]
 1279              	.LBB45:
 1280              	.LBB41:
 1281              		.loc 1 349 0
 1282 028c 0091     		str	r1, [sp, #0]
 1283 028e 0191     		str	r1, [sp, #4]
 1284 0290 3146     		mov	r1, r6
 1285              	.LBE41:
 1286              	.LBE45:
 1287              	.LBE34:
 1288              		.loc 1 497 0
 1289 0292 099E     		ldr	r6, [sp, #36]
 1290              	.LBB49:
 1291              		.loc 1 443 0
 1292 0294 20AB     		add	r3, sp, #128
 1293 0296 03EB020E 		add	lr, r3, r2
 1294              	.LBB46:
 1295              	.LBB42:
 1296              		.loc 1 349 0
 1297 029a 2A46     		mov	r2, r5
 1298              	.LBE42:
 1299              	.LBE46:
 1300              	.LBE49:
 1301              		.loc 1 497 0
 1302 029c 751C     		adds	r5, r6, #1
 1303 029e 0995     		str	r5, [sp, #36]
 1304              	.LBB50:
 1305              		.loc 1 524 0
 1306 02a0 0A9E     		ldr	r6, [sp, #40]
 1307 02a2 20AD     		add	r5, sp, #128
 1308 02a4 B8FBFBFC 		udiv	ip, r8, fp
 1309              		.loc 1 525 0
ARM GAS  C:\Users\Elis\AppData\Local\Temp\ccIy8Y2d.s 			page 24


 1310 02a8 B7FBFBF7 		udiv	r7, r7, fp
 1311              	.LVL111:
 1312              	.LBB47:
 1313              	.LBB43:
 1314              		.loc 1 349 0
 1315 02ac 1F23     		movs	r3, #31
 1316              	.LBE43:
 1317              	.LBE47:
 1318              		.loc 1 524 0
 1319 02ae 25F806C0 		strh	ip, [r5, r6]	@ movhi
 1320              		.loc 1 525 0
 1321 02b2 AEF80270 		strh	r7, [lr, #2]	@ movhi
 1322              	.LVL112:
 1323 02b6 371D     		adds	r7, r6, #4
 1324 02b8 0A97     		str	r7, [sp, #40]
 1325              	.LBB48:
 1326              	.LBB44:
 1327              		.loc 1 349 0
 1328 02ba FFF7FEFF 		bl	gdispGFillArea
 1329              	.LVL113:
 1330              	.LBE44:
 1331              	.LBE48:
 1332              	.LBE50:
 1333              		.loc 1 497 0
 1334 02be 0E98     		ldr	r0, [sp, #56]
 1335 02c0 0999     		ldr	r1, [sp, #36]
 1336 02c2 8842     		cmp	r0, r1
 1337 02c4 3FF60FAF 		bhi	.L158
 1338              	.LVL114:
 1339              	.LBE33:
 1340              	.LBB52:
 1341              	.LBB53:
 1342              		.loc 1 363 0
 1343 02c8 D4F804B0 		ldr	fp, [r4, #4]
 1344              	.LVL115:
 1345 02cc BBF80230 		ldrh	r3, [fp, #2]
 1346              	.LBE53:
 1347 02d0 03F00402 		and	r2, r3, #4
 1348 02d4 92B2     		uxth	r2, r2
 1349              	.LBB54:
 1350 02d6 002A     		cmp	r2, #0
 1351 02d8 00F01082 		beq	.L192
 1352              	.LVL116:
 1353              	.L179:
 1354              		.loc 1 360 0
 1355 02dc 0B9E     		ldr	r6, [sp, #44]
 1356              		.loc 1 358 0
 1357 02de 149D     		ldr	r5, [sp, #80]
 1358              		.loc 1 359 0
 1359 02e0 B146     		mov	r9, r6
 1360              	.LVL117:
 1361              	.L159:
 1362              		.loc 1 392 0
 1363 02e2 BDF98810 		ldrsh	r1, [sp, #136]
 1364 02e6 BDF98070 		ldrsh	r7, [sp, #128]
 1365 02ea 0991     		str	r1, [sp, #36]
 1366 02ec 0998     		ldr	r0, [sp, #36]
ARM GAS  C:\Users\Elis\AppData\Local\Temp\ccIy8Y2d.s 			page 25


 1367 02ee 0792     		str	r2, [sp, #28]
 1368 02f0 381A     		subs	r0, r7, r0
 1369 02f2 1897     		str	r7, [sp, #96]
 1370 02f4 0693     		str	r3, [sp, #24]
 1371 02f6 FFF7FEFF 		bl	__aeabi_i2f
 1372              	.LVL118:
 1373 02fa BDF98630 		ldrsh	r3, [sp, #134]
 1374 02fe BDF98A80 		ldrsh	r8, [sp, #138]
 1375              	.LVL119:
 1376 0302 0A90     		str	r0, [sp, #40]	@ float
 1377 0304 C8EB0300 		rsb	r0, r8, r3
 1378 0308 1993     		str	r3, [sp, #100]
 1379 030a FFF7FEFF 		bl	__aeabi_i2f
 1380              	.LVL120:
 1381              		.loc 1 393 0
 1382 030e BDF98420 		ldrsh	r2, [sp, #132]
 1383 0312 0999     		ldr	r1, [sp, #36]
 1384              		.loc 1 392 0
 1385 0314 0E90     		str	r0, [sp, #56]	@ float
 1386              		.loc 1 393 0
 1387 0316 501A     		subs	r0, r2, r1
 1388 0318 0F92     		str	r2, [sp, #60]
 1389 031a FFF7FEFF 		bl	__aeabi_i2f
 1390              	.LVL121:
 1391 031e BDF982A0 		ldrsh	sl, [sp, #130]
 1392 0322 1590     		str	r0, [sp, #84]	@ float
 1393 0324 C8EB0A00 		rsb	r0, r8, sl
 1394 0328 CDF820A0 		str	sl, [sp, #32]
 1395 032c FFF7FEFF 		bl	__aeabi_i2f
 1396              	.LVL122:
 1397              		.loc 1 392 0
 1398 0330 0E99     		ldr	r1, [sp, #56]	@ float
 1399              		.loc 1 393 0
 1400 0332 1690     		str	r0, [sp, #88]	@ float
 1401              		.loc 1 392 0
 1402 0334 0A98     		ldr	r0, [sp, #40]	@ float
 1403 0336 FFF7FEFF 		bl	__aeabi_fmul
 1404              	.LVL123:
 1405              		.loc 1 393 0
 1406 033a 1699     		ldr	r1, [sp, #88]	@ float
 1407              		.loc 1 392 0
 1408 033c 0746     		mov	r7, r0
 1409              		.loc 1 393 0
 1410 033e 1598     		ldr	r0, [sp, #84]	@ float
 1411 0340 FFF7FEFF 		bl	__aeabi_fmul
 1412              	.LVL124:
 1413              		.loc 1 395 0
 1414 0344 36B2     		sxth	r6, r6
 1415              	.LVL125:
 1416              		.loc 1 393 0
 1417 0346 0146     		mov	r1, r0
 1418              		.loc 1 395 0
 1419 0348 2DB2     		sxth	r5, r5
 1420              	.LVL126:
 1421              		.loc 1 392 0
 1422 034a 3846     		mov	r0, r7
 1423              		.loc 1 395 0
ARM GAS  C:\Users\Elis\AppData\Local\Temp\ccIy8Y2d.s 			page 26


 1424 034c 1796     		str	r6, [sp, #92]
 1425 034e 1A95     		str	r5, [sp, #104]
 1426              		.loc 1 392 0
 1427 0350 FFF7FEFF 		bl	__aeabi_fsub
 1428              	.LVL127:
 1429              		.loc 1 396 0
 1430 0354 0FFA89FC 		sxth	ip, r9
 1431              		.loc 1 392 0
 1432 0358 8246     		mov	sl, r0
 1433              	.LVL128:
 1434              		.loc 1 395 0
 1435 035a A81B     		subs	r0, r5, r6
 1436              	.LVL129:
 1437              		.loc 1 396 0
 1438 035c CDF86CC0 		str	ip, [sp, #108]
 1439              		.loc 1 395 0
 1440 0360 FFF7FEFF 		bl	__aeabi_i2f
 1441              	.LVL130:
 1442              		.loc 1 396 0
 1443 0364 DDF86C90 		ldr	r9, [sp, #108]
 1444              	.LVL131:
 1445              		.loc 1 395 0
 1446 0368 0546     		mov	r5, r0
 1447              		.loc 1 396 0
 1448 036a C6EB0900 		rsb	r0, r6, r9
 1449 036e FFF7FEFF 		bl	__aeabi_i2f
 1450              	.LVL132:
 1451              		.loc 1 395 0
 1452 0372 2946     		mov	r1, r5
 1453              		.loc 1 396 0
 1454 0374 0646     		mov	r6, r0
 1455              		.loc 1 395 0
 1456 0376 0E98     		ldr	r0, [sp, #56]	@ float
 1457 0378 FFF7FEFF 		bl	__aeabi_fmul
 1458              	.LVL133:
 1459              		.loc 1 396 0
 1460 037c 3146     		mov	r1, r6
 1461              		.loc 1 395 0
 1462 037e 0746     		mov	r7, r0
 1463              		.loc 1 396 0
 1464 0380 1698     		ldr	r0, [sp, #88]	@ float
 1465 0382 FFF7FEFF 		bl	__aeabi_fmul
 1466              	.LVL134:
 1467 0386 0146     		mov	r1, r0
 1468 0388 3846     		mov	r0, r7
 1469 038a FFF7FEFF 		bl	__aeabi_fsub
 1470              	.LVL135:
 1471 038e 5146     		mov	r1, sl
 1472 0390 FFF7FEFF 		bl	__aeabi_fdiv
 1473              	.LVL136:
 1474              		.loc 1 397 0
 1475 0394 3146     		mov	r1, r6
 1476              		.loc 1 395 0
 1477 0396 2062     		str	r0, [r4, #32]	@ float
 1478              		.loc 1 397 0
 1479 0398 0A98     		ldr	r0, [sp, #40]	@ float
 1480 039a FFF7FEFF 		bl	__aeabi_fmul
ARM GAS  C:\Users\Elis\AppData\Local\Temp\ccIy8Y2d.s 			page 27


 1481              	.LVL137:
 1482              		.loc 1 398 0
 1483 039e 2946     		mov	r1, r5
 1484              		.loc 1 397 0
 1485 03a0 0646     		mov	r6, r0
 1486              		.loc 1 398 0
 1487 03a2 1598     		ldr	r0, [sp, #84]	@ float
 1488 03a4 FFF7FEFF 		bl	__aeabi_fmul
 1489              	.LVL138:
 1490 03a8 0146     		mov	r1, r0
 1491 03aa 3046     		mov	r0, r6
 1492 03ac FFF7FEFF 		bl	__aeabi_fsub
 1493              	.LVL139:
 1494 03b0 5146     		mov	r1, sl
 1495 03b2 FFF7FEFF 		bl	__aeabi_fdiv
 1496              	.LVL140:
 1497              		.loc 1 397 0
 1498 03b6 6062     		str	r0, [r4, #36]	@ float
 1499              		.loc 1 399 0
 1500 03b8 0F98     		ldr	r0, [sp, #60]
 1501 03ba FFF7FEFF 		bl	__aeabi_i2f
 1502              	.LVL141:
 1503 03be 0F90     		str	r0, [sp, #60]	@ float
 1504 03c0 4046     		mov	r0, r8
 1505 03c2 FFF7FEFF 		bl	__aeabi_i2f
 1506              	.LVL142:
 1507 03c6 8146     		mov	r9, r0
 1508 03c8 0998     		ldr	r0, [sp, #36]
 1509 03ca FFF7FEFF 		bl	__aeabi_i2f
 1510              	.LVL143:
 1511 03ce 8046     		mov	r8, r0
 1512 03d0 1998     		ldr	r0, [sp, #100]
 1513 03d2 FFF7FEFF 		bl	__aeabi_i2f
 1514              	.LVL144:
 1515 03d6 4946     		mov	r1, r9
 1516 03d8 0746     		mov	r7, r0
 1517 03da 0F98     		ldr	r0, [sp, #60]	@ float
 1518 03dc FFF7FEFF 		bl	__aeabi_fmul
 1519              	.LVL145:
 1520 03e0 3946     		mov	r1, r7
 1521 03e2 0546     		mov	r5, r0
 1522 03e4 4046     		mov	r0, r8
 1523 03e6 FFF7FEFF 		bl	__aeabi_fmul
 1524              	.LVL146:
 1525 03ea 0146     		mov	r1, r0
 1526 03ec 2846     		mov	r0, r5
 1527 03ee FFF7FEFF 		bl	__aeabi_fsub
 1528              	.LVL147:
 1529 03f2 0990     		str	r0, [sp, #36]	@ float
 1530              		.loc 1 400 0
 1531 03f4 1898     		ldr	r0, [sp, #96]
 1532 03f6 FFF7FEFF 		bl	__aeabi_i2f
 1533              	.LVL148:
 1534 03fa DDF820C0 		ldr	ip, [sp, #32]
 1535 03fe 0646     		mov	r6, r0
 1536 0400 6046     		mov	r0, ip
 1537 0402 FFF7FEFF 		bl	__aeabi_i2f
ARM GAS  C:\Users\Elis\AppData\Local\Temp\ccIy8Y2d.s 			page 28


 1538              	.LVL149:
 1539 0406 3146     		mov	r1, r6
 1540 0408 0546     		mov	r5, r0
 1541 040a 4846     		mov	r0, r9
 1542 040c FFF7FEFF 		bl	__aeabi_fmul
 1543              	.LVL150:
 1544 0410 2946     		mov	r1, r5
 1545 0412 8146     		mov	r9, r0
 1546 0414 4046     		mov	r0, r8
 1547 0416 FFF7FEFF 		bl	__aeabi_fmul
 1548              	.LVL151:
 1549 041a 0146     		mov	r1, r0
 1550 041c 4846     		mov	r0, r9
 1551 041e FFF7FEFF 		bl	__aeabi_fsub
 1552              	.LVL152:
 1553              		.loc 1 401 0
 1554 0422 3146     		mov	r1, r6
 1555              		.loc 1 400 0
 1556 0424 8146     		mov	r9, r0
 1557              		.loc 1 401 0
 1558 0426 3846     		mov	r0, r7
 1559 0428 FFF7FEFF 		bl	__aeabi_fmul
 1560              	.LVL153:
 1561 042c 2946     		mov	r1, r5
 1562 042e 0746     		mov	r7, r0
 1563 0430 0F98     		ldr	r0, [sp, #60]	@ float
 1564 0432 FFF7FEFF 		bl	__aeabi_fmul
 1565              	.LVL154:
 1566 0436 0146     		mov	r1, r0
 1567 0438 3846     		mov	r0, r7
 1568 043a FFF7FEFF 		bl	__aeabi_fsub
 1569              	.LVL155:
 1570 043e 0F90     		str	r0, [sp, #60]	@ float
 1571              		.loc 1 399 0
 1572 0440 1A98     		ldr	r0, [sp, #104]
 1573 0442 FFF7FEFF 		bl	__aeabi_i2f
 1574              	.LVL156:
 1575 0446 0999     		ldr	r1, [sp, #36]	@ float
 1576 0448 FFF7FEFF 		bl	__aeabi_fmul
 1577              	.LVL157:
 1578 044c 0646     		mov	r6, r0
 1579              		.loc 1 400 0
 1580 044e 1B98     		ldr	r0, [sp, #108]
 1581 0450 FFF7FEFF 		bl	__aeabi_i2f
 1582              	.LVL158:
 1583 0454 4946     		mov	r1, r9
 1584 0456 FFF7FEFF 		bl	__aeabi_fmul
 1585              	.LVL159:
 1586 045a 0146     		mov	r1, r0
 1587 045c 3046     		mov	r0, r6
 1588 045e FFF7FEFF 		bl	__aeabi_fsub
 1589              	.LVL160:
 1590 0462 0546     		mov	r5, r0
 1591              		.loc 1 401 0
 1592 0464 1798     		ldr	r0, [sp, #92]
 1593 0466 FFF7FEFF 		bl	__aeabi_i2f
 1594              	.LVL161:
ARM GAS  C:\Users\Elis\AppData\Local\Temp\ccIy8Y2d.s 			page 29


 1595 046a 0F99     		ldr	r1, [sp, #60]	@ float
 1596 046c FFF7FEFF 		bl	__aeabi_fmul
 1597              	.LVL162:
 1598 0470 0146     		mov	r1, r0
 1599 0472 2846     		mov	r0, r5
 1600 0474 FFF7FEFF 		bl	__aeabi_fadd
 1601              	.LVL163:
 1602 0478 5146     		mov	r1, sl
 1603 047a FFF7FEFF 		bl	__aeabi_fdiv
 1604              	.LVL164:
 1605              		.loc 1 399 0
 1606 047e A062     		str	r0, [r4, #40]	@ float
 1607              	.LVL165:
 1608              		.loc 1 409 0
 1609 0480 0798     		ldr	r0, [sp, #28]
 1610 0482 069B     		ldr	r3, [sp, #24]
 1611 0484 0028     		cmp	r0, #0
 1612 0486 00F02781 		beq	.L193
 1613              		.loc 1 405 0
 1614 048a 109A     		ldr	r2, [sp, #64]
 1615 048c 0B92     		str	r2, [sp, #44]
 1616              	.LVL166:
 1617              	.L164:
 1618              		.loc 1 434 0
 1619 048e 109A     		ldr	r2, [sp, #64]
 1620 0490 1199     		ldr	r1, [sp, #68]
 1621              		.loc 1 435 0
 1622 0492 0B9D     		ldr	r5, [sp, #44]
 1623              		.loc 1 434 0
 1624 0494 0693     		str	r3, [sp, #24]
 1625 0496 17B2     		sxth	r7, r2
 1626 0498 0FFA81F8 		sxth	r8, r1
 1627              		.loc 1 435 0
 1628 049c 2EB2     		sxth	r6, r5
 1629              		.loc 1 434 0
 1630 049e C8EB0700 		rsb	r0, r8, r7
 1631              		.loc 1 435 0
 1632 04a2 0B96     		str	r6, [sp, #44]
 1633              		.loc 1 434 0
 1634 04a4 0797     		str	r7, [sp, #28]
 1635 04a6 FFF7FEFF 		bl	__aeabi_i2f
 1636              	.LVL167:
 1637 04aa 0546     		mov	r5, r0
 1638              		.loc 1 435 0
 1639 04ac C8EB0600 		rsb	r0, r8, r6
 1640 04b0 FFF7FEFF 		bl	__aeabi_i2f
 1641              	.LVL168:
 1642              		.loc 1 434 0
 1643 04b4 2946     		mov	r1, r5
 1644              		.loc 1 435 0
 1645 04b6 0646     		mov	r6, r0
 1646              		.loc 1 434 0
 1647 04b8 0E98     		ldr	r0, [sp, #56]	@ float
 1648 04ba FFF7FEFF 		bl	__aeabi_fmul
 1649              	.LVL169:
 1650              		.loc 1 435 0
 1651 04be 3146     		mov	r1, r6
ARM GAS  C:\Users\Elis\AppData\Local\Temp\ccIy8Y2d.s 			page 30


 1652              		.loc 1 434 0
 1653 04c0 0746     		mov	r7, r0
 1654              		.loc 1 435 0
 1655 04c2 1698     		ldr	r0, [sp, #88]	@ float
 1656 04c4 FFF7FEFF 		bl	__aeabi_fmul
 1657              	.LVL170:
 1658 04c8 0146     		mov	r1, r0
 1659 04ca 3846     		mov	r0, r7
 1660 04cc FFF7FEFF 		bl	__aeabi_fsub
 1661              	.LVL171:
 1662 04d0 5146     		mov	r1, sl
 1663 04d2 FFF7FEFF 		bl	__aeabi_fdiv
 1664              	.LVL172:
 1665              		.loc 1 436 0
 1666 04d6 3146     		mov	r1, r6
 1667              		.loc 1 434 0
 1668 04d8 E062     		str	r0, [r4, #44]	@ float
 1669              		.loc 1 435 0
 1670 04da 0746     		mov	r7, r0
 1671              		.loc 1 436 0
 1672 04dc 0A98     		ldr	r0, [sp, #40]	@ float
 1673 04de FFF7FEFF 		bl	__aeabi_fmul
 1674              	.LVL173:
 1675              		.loc 1 437 0
 1676 04e2 2946     		mov	r1, r5
 1677              		.loc 1 436 0
 1678 04e4 0646     		mov	r6, r0
 1679              		.loc 1 437 0
 1680 04e6 1598     		ldr	r0, [sp, #84]	@ float
 1681 04e8 FFF7FEFF 		bl	__aeabi_fmul
 1682              	.LVL174:
 1683 04ec 0146     		mov	r1, r0
 1684 04ee 3046     		mov	r0, r6
 1685 04f0 FFF7FEFF 		bl	__aeabi_fsub
 1686              	.LVL175:
 1687 04f4 5146     		mov	r1, sl
 1688 04f6 FFF7FEFF 		bl	__aeabi_fdiv
 1689              	.LVL176:
 1690              		.loc 1 438 0
 1691 04fa 079B     		ldr	r3, [sp, #28]
 1692              		.loc 1 436 0
 1693 04fc 2063     		str	r0, [r4, #48]	@ float
 1694              		.loc 1 437 0
 1695 04fe 0646     		mov	r6, r0
 1696              		.loc 1 438 0
 1697 0500 1846     		mov	r0, r3
 1698 0502 FFF7FEFF 		bl	__aeabi_i2f
 1699              	.LVL177:
 1700 0506 0146     		mov	r1, r0
 1701 0508 0998     		ldr	r0, [sp, #36]	@ float
 1702 050a FFF7FEFF 		bl	__aeabi_fmul
 1703              	.LVL178:
 1704 050e 0546     		mov	r5, r0
 1705              		.loc 1 439 0
 1706 0510 0B98     		ldr	r0, [sp, #44]
 1707 0512 FFF7FEFF 		bl	__aeabi_i2f
 1708              	.LVL179:
ARM GAS  C:\Users\Elis\AppData\Local\Temp\ccIy8Y2d.s 			page 31


 1709 0516 0146     		mov	r1, r0
 1710 0518 4846     		mov	r0, r9
 1711 051a FFF7FEFF 		bl	__aeabi_fmul
 1712              	.LVL180:
 1713 051e 0146     		mov	r1, r0
 1714 0520 2846     		mov	r0, r5
 1715 0522 FFF7FEFF 		bl	__aeabi_fsub
 1716              	.LVL181:
 1717 0526 0546     		mov	r5, r0
 1718              		.loc 1 440 0
 1719 0528 4046     		mov	r0, r8
 1720 052a FFF7FEFF 		bl	__aeabi_i2f
 1721              	.LVL182:
 1722 052e 0146     		mov	r1, r0
 1723 0530 0F98     		ldr	r0, [sp, #60]	@ float
 1724 0532 FFF7FEFF 		bl	__aeabi_fmul
 1725              	.LVL183:
 1726 0536 0146     		mov	r1, r0
 1727 0538 2846     		mov	r0, r5
 1728 053a FFF7FEFF 		bl	__aeabi_fadd
 1729              	.LVL184:
 1730 053e 5146     		mov	r1, sl
 1731 0540 FFF7FEFF 		bl	__aeabi_fdiv
 1732              	.LVL185:
 1733              	.LBE54:
 1734              	.LBE52:
 1735              		.loc 1 540 0
 1736 0544 0699     		ldr	r1, [sp, #24]
 1737              	.LBB61:
 1738              	.LBB55:
 1739              		.loc 1 440 0
 1740 0546 8046     		mov	r8, r0
 1741              	.LBE55:
 1742              	.LBE61:
 1743              		.loc 1 540 0
 1744 0548 01F04000 		and	r0, r1, #64
 1745 054c 82B2     		uxth	r2, r0
 1746              	.LBB62:
 1747              	.LBB56:
 1748              		.loc 1 438 0
 1749 054e C4F83480 		str	r8, [r4, #52]	@ float
 1750              	.LBE56:
 1751              	.LBE62:
 1752              		.loc 1 540 0
 1753 0552 002A     		cmp	r2, #0
 1754 0554 58D0     		beq	.L169
 1755              	.LBB63:
 1756              		.loc 1 544 0
 1757 0556 238A     		ldrh	r3, [r4, #16]
 1758 0558 03F02005 		and	r5, r3, #32
 1759 055c A8B2     		uxth	r0, r5
 1760 055e 0028     		cmp	r0, #0
 1761 0560 40F0B780 		bne	.L194
 1762              		.loc 1 544 0 is_stmt 0 discriminator 2
 1763 0564 0BF11C0B 		add	fp, fp, #28
 1764              	.L171:
 1765              	.LVL186:
ARM GAS  C:\Users\Elis\AppData\Local\Temp\ccIy8Y2d.s 			page 32


 1766              	.LBB64:
 1767              	.LBB65:
 1768              		.loc 1 59 0 is_stmt 1 discriminator 3
 1769 0568 BDF98E00 		ldrsh	r0, [sp, #142]
 1770 056c 0691     		str	r1, [sp, #24]
 1771 056e FFF7FEFF 		bl	__aeabi_i2f
 1772              	.LVL187:
 1773 0572 0990     		str	r0, [sp, #36]	@ float
 1774 0574 BDF98C00 		ldrsh	r0, [sp, #140]
 1775 0578 FFF7FEFF 		bl	__aeabi_i2f
 1776              	.LVL188:
 1777 057c 216A     		ldr	r1, [r4, #32]	@ float
 1778 057e FFF7FEFF 		bl	__aeabi_fmul
 1779              	.LVL189:
 1780 0582 616A     		ldr	r1, [r4, #36]	@ float
 1781 0584 0546     		mov	r5, r0
 1782 0586 0998     		ldr	r0, [sp, #36]	@ float
 1783 0588 FFF7FEFF 		bl	__aeabi_fmul
 1784              	.LVL190:
 1785 058c 0146     		mov	r1, r0
 1786 058e 2846     		mov	r0, r5
 1787 0590 FFF7FEFF 		bl	__aeabi_fadd
 1788              	.LVL191:
 1789 0594 A16A     		ldr	r1, [r4, #40]	@ float
 1790 0596 FFF7FEFF 		bl	__aeabi_fadd
 1791              	.LVL192:
 1792 059a FFF7FEFF 		bl	__aeabi_f2iz
 1793              	.LVL193:
 1794 059e 8146     		mov	r9, r0
 1795              		.loc 1 60 0 discriminator 3
 1796 05a0 00B2     		sxth	r0, r0
 1797 05a2 FFF7FEFF 		bl	__aeabi_i2f
 1798              	.LVL194:
 1799 05a6 0146     		mov	r1, r0
 1800 05a8 3846     		mov	r0, r7
 1801 05aa FFF7FEFF 		bl	__aeabi_fmul
 1802              	.LVL195:
 1803 05ae 0999     		ldr	r1, [sp, #36]	@ float
 1804 05b0 8246     		mov	sl, r0
 1805              	.LVL196:
 1806 05b2 3046     		mov	r0, r6
 1807 05b4 FFF7FEFF 		bl	__aeabi_fmul
 1808              	.LVL197:
 1809 05b8 0146     		mov	r1, r0
 1810 05ba 5046     		mov	r0, sl
 1811 05bc FFF7FEFF 		bl	__aeabi_fadd
 1812              	.LVL198:
 1813 05c0 0146     		mov	r1, r0
 1814 05c2 4046     		mov	r0, r8
 1815 05c4 FFF7FEFF 		bl	__aeabi_fadd
 1816              	.LVL199:
 1817 05c8 FFF7FEFF 		bl	__aeabi_f2iz
 1818              	.LVL200:
 1819              	.LBE65:
 1820              	.LBE64:
 1821              		.loc 1 551 0 discriminator 3
 1822 05cc 069E     		ldr	r6, [sp, #24]
ARM GAS  C:\Users\Elis\AppData\Local\Temp\ccIy8Y2d.s 			page 33


 1823 05ce 06F00402 		and	r2, r6, #4
 1824 05d2 93B2     		uxth	r3, r2
 1825              	.LBB67:
 1826              	.LBB66:
 1827              		.loc 1 59 0 discriminator 3
 1828 05d4 1FFA89F5 		uxth	r5, r9
 1829              		.loc 1 60 0 discriminator 3
 1830 05d8 0746     		mov	r7, r0
 1831 05da 86B2     		uxth	r6, r0
 1832              	.LBE66:
 1833              	.LBE67:
 1834              		.loc 1 551 0 discriminator 3
 1835 05dc 002B     		cmp	r3, #0
 1836 05de 00F0F180 		beq	.L195
 1837              	.L172:
 1838              		.loc 1 578 0
 1839 05e2 BDF97E20 		ldrsh	r2, [sp, #126]
 1840 05e6 BDF97C00 		ldrsh	r0, [sp, #124]
 1841              		.loc 1 579 0
 1842 05ea BBF80030 		ldrh	r3, [fp, #0]
 1843              		.loc 1 578 0
 1844 05ee 36B2     		sxth	r6, r6
 1845 05f0 29B2     		sxth	r1, r5
 1846 05f2 B21A     		subs	r2, r6, r2
 1847 05f4 0D1A     		subs	r5, r1, r0
 1848 05f6 02FB02F2 		mul	r2, r2, r2
 1849 05fa 05FB0525 		mla	r5, r5, r5, r2
 1850              	.LVL201:
 1851              		.loc 1 579 0
 1852 05fe 13FB03F0 		smulbb	r0, r3, r3
 1853 0602 8542     		cmp	r5, r0
 1854 0604 00F29280 		bhi	.L196
 1855              	.LVL202:
 1856              	.L169:
 1857              	.LBE63:
 1858              		.loc 1 594 0
 1859 0608 1298     		ldr	r0, [sp, #72]
 1860 060a FFF7FEFF 		bl	gdispCloseFont
 1861              	.LVL203:
 1862              		.loc 1 595 0
 1863 060e 1398     		ldr	r0, [sp, #76]
 1864 0610 FFF7FEFF 		bl	gdispCloseFont
 1865              	.LVL204:
 1866              		.loc 1 597 0
 1867 0614 218A     		ldrh	r1, [r4, #16]
 1868              		.loc 1 607 0
 1869 0616 6368     		ldr	r3, [r4, #4]
 1870              		.loc 1 597 0
 1871 0618 21F01002 		bic	r2, r1, #16
 1872              		.loc 1 607 0
 1873 061c 5D6B     		ldr	r5, [r3, #52]
 1874              		.loc 1 602 0
 1875 061e 42F00C00 		orr	r0, r2, #12
 1876 0622 2082     		strh	r0, [r4, #16]	@ movhi
 1877              		.loc 1 607 0
 1878 0624 2DB1     		cbz	r5, .L176
 1879              		.loc 1 608 0
ARM GAS  C:\Users\Elis\AppData\Local\Temp\ccIy8Y2d.s 			page 34


 1880 0626 2046     		mov	r0, r4
 1881 0628 04F12001 		add	r1, r4, #32
 1882 062c 1822     		movs	r2, #24
 1883 062e A847     		blx	r5
 1884              	.LVL205:
 1885 0630 0025     		movs	r5, #0
 1886              	.LVL206:
 1887              	.L176:
 1888              		.loc 1 612 0
 1889 0632 0021     		movs	r1, #0
 1890 0634 E181     		strh	r1, [r4, #14]	@ movhi
 1891              		.loc 1 613 0
 1892 0636 2046     		mov	r0, r4
 1893 0638 FFF7FEFF 		bl	GetMouseReading
 1894              	.LVL207:
 1895              		.loc 1 617 0
 1896 063c E469     		ldr	r4, [r4, #28]
 1897              	.LVL208:
 1898 063e FFF7FEFF 		bl	gwinGetDefaultBgColor
 1899              	.LVL209:
 1900 0642 0146     		mov	r1, r0
 1901 0644 2046     		mov	r0, r4
 1902 0646 FFF7FEFF 		bl	gdispGClear
 1903              	.LVL210:
 1904              		.loc 1 623 0
 1905 064a 2846     		mov	r0, r5
 1906 064c 25B0     		add	sp, sp, #148
 1907 064e BDE8F08F 		pop	{r4, r5, r6, r7, r8, r9, sl, fp, pc}
 1908              	.LVL211:
 1909              	.L154:
 1910              	.LBB70:
 1911              	.LBB51:
 1912              		.loc 1 508 0
 1913 0652 1420     		movs	r0, #20
 1914 0654 FFF7FEFF 		bl	gfxSleepMilliseconds
 1915              	.LVL212:
 1916 0658 E789     		ldrh	r7, [r4, #14]
 1917 065a 07F00100 		and	r0, r7, #1
 1918 065e EFE5     		b	.L188
 1919              	.LVL213:
 1920              	.L146:
 1921              	.LBE51:
 1922              	.LBE70:
 1923              		.loc 1 475 0
 1924 0660 0C9D     		ldr	r5, [sp, #48]
 1925 0662 0D9A     		ldr	r2, [sp, #52]
 1926              		.loc 1 476 0
 1927 0664 0C99     		ldr	r1, [sp, #48]
 1928 0666 0C9E     		ldr	r6, [sp, #48]
 1929              		.loc 1 475 0
 1930 0668 002D     		cmp	r5, #0
 1931 066a B8BF     		it	lt
 1932 066c 0335     		addlt	r5, r5, #3
 1933 066e 002A     		cmp	r2, #0
 1934 0670 B8BF     		it	lt
 1935 0672 0332     		addlt	r2, r2, #3
 1936 0674 C2F38F00 		ubfx	r0, r2, #2, #16
ARM GAS  C:\Users\Elis\AppData\Local\Temp\ccIy8Y2d.s 			page 35


 1937              		.loc 1 476 0
 1938 0678 0029     		cmp	r1, #0
 1939              		.loc 1 477 0
 1940 067a 0D9A     		ldr	r2, [sp, #52]
 1941              		.loc 1 475 0
 1942 067c 1090     		str	r0, [sp, #64]
 1943              		.loc 1 476 0
 1944 067e B8BF     		it	lt
 1945 0680 0331     		addlt	r1, r1, #3
 1946              		.loc 1 475 0
 1947 0682 C5F38F03 		ubfx	r3, r5, #2, #16
 1948              		.loc 1 476 0
 1949 0686 A6EBA107 		sub	r7, r6, r1, asr #2
 1950              		.loc 1 477 0
 1951 068a 002A     		cmp	r2, #0
 1952              		.loc 1 475 0
 1953 068c ADF87200 		strh	r0, [sp, #114]	@ movhi
 1954              		.loc 1 478 0
 1955 0690 0C9E     		ldr	r6, [sp, #48]
 1956              		.loc 1 477 0
 1957 0692 0D98     		ldr	r0, [sp, #52]
 1958              		.loc 1 475 0
 1959 0694 1493     		str	r3, [sp, #80]
 1960              		.loc 1 476 0
 1961 0696 BDB2     		uxth	r5, r7
 1962              		.loc 1 477 0
 1963 0698 B8BF     		it	lt
 1964 069a 0332     		addlt	r2, r2, #3
 1965              		.loc 1 475 0
 1966 069c ADF87030 		strh	r3, [sp, #112]	@ movhi
 1967              		.loc 1 476 0
 1968 06a0 109B     		ldr	r3, [sp, #64]
 1969 06a2 0B95     		str	r5, [sp, #44]
 1970              		.loc 1 477 0
 1971 06a4 A0EBA201 		sub	r1, r0, r2, asr #2
 1972              		.loc 1 476 0
 1973 06a8 ADF87450 		strh	r5, [sp, #116]	@ movhi
 1974              		.loc 1 477 0
 1975 06ac ADF87850 		strh	r5, [sp, #120]	@ movhi
 1976              		.loc 1 478 0
 1977 06b0 06EBD677 		add	r7, r6, r6, lsr #31
 1978 06b4 00EBD075 		add	r5, r0, r0, lsr #31
 1979              		.loc 1 476 0
 1980 06b8 ADF87630 		strh	r3, [sp, #118]	@ movhi
 1981              		.loc 1 477 0
 1982 06bc 88B2     		uxth	r0, r1
 1983              		.loc 1 478 0
 1984 06be 7A10     		asrs	r2, r7, #1
 1985 06c0 6B10     		asrs	r3, r5, #1
 1986              		.loc 1 477 0
 1987 06c2 1190     		str	r0, [sp, #68]
 1988 06c4 ADF87A00 		strh	r0, [sp, #122]	@ movhi
 1989              		.loc 1 478 0
 1990 06c8 ADF87C20 		strh	r2, [sp, #124]	@ movhi
 1991 06cc ADF87E30 		strh	r3, [sp, #126]	@ movhi
 1992 06d0 E5E4     		b	.L147
 1993              	.LVL214:
ARM GAS  C:\Users\Elis\AppData\Local\Temp\ccIy8Y2d.s 			page 36


 1994              	.L194:
 1995              	.LBB71:
 1996              		.loc 1 544 0 discriminator 1
 1997 06d2 0BF1220B 		add	fp, fp, #34
 1998 06d6 47E7     		b	.L171
 1999              	.LVL215:
 2000              	.L193:
 2001              	.LBE71:
 2002              	.LBB72:
 2003              	.LBB57:
 2004              		.loc 1 410 0
 2005 06d8 E069     		ldr	r0, [r4, #28]
 2006 06da FFF7FEFF 		bl	gdispGGetOrientation
 2007              	.LVL216:
 2008 06de B428     		cmp	r0, #180
 2009 06e0 00F08A80 		beq	.L167
 2010 06e4 B0F5877F 		cmp	r0, #270
 2011 06e8 7DD0     		beq	.L168
 2012 06ea 5A28     		cmp	r0, #90
 2013 06ec 43D0     		beq	.L166
 2014 06ee D4F804B0 		ldr	fp, [r4, #4]
 2015              		.loc 1 405 0
 2016 06f2 1099     		ldr	r1, [sp, #64]
 2017 06f4 BBF80230 		ldrh	r3, [fp, #2]
 2018 06f8 0B91     		str	r1, [sp, #44]
 2019 06fa C8E6     		b	.L164
 2020              	.LVL217:
 2021              	.L192:
 2022              		.loc 1 367 0
 2023 06fc E069     		ldr	r0, [r4, #28]
 2024 06fe FFF7FEFF 		bl	gdispGGetOrientation
 2025              	.LVL218:
 2026 0702 B428     		cmp	r0, #180
 2027 0704 00F09780 		beq	.L162
 2028 0708 B0F5877F 		cmp	r0, #270
 2029 070c 46D0     		beq	.L163
 2030 070e D4F804B0 		ldr	fp, [r4, #4]
 2031 0712 BBF80230 		ldrh	r3, [fp, #2]
 2032 0716 5A28     		cmp	r0, #90
 2033 0718 03F00405 		and	r5, r3, #4
 2034              	.LVL219:
 2035 071c AAB2     		uxth	r2, r5
 2036 071e 7FF4DDAD 		bne	.L179
 2037              	.LVL220:
 2038              		.loc 1 370 0
 2039 0722 DDF84090 		ldr	r9, [sp, #64]
 2040              		.loc 1 371 0
 2041 0726 119E     		ldr	r6, [sp, #68]
 2042              		.loc 1 369 0
 2043 0728 4D46     		mov	r5, r9
 2044 072a DAE5     		b	.L159
 2045              	.LVL221:
 2046              	.L196:
 2047              	.LBE57:
 2048              	.LBE72:
 2049              	.LBB73:
 2050              		.loc 1 582 0
ARM GAS  C:\Users\Elis\AppData\Local\Temp\ccIy8Y2d.s 			page 37


 2051 072c 139E     		ldr	r6, [sp, #76]
 2052 072e E069     		ldr	r0, [r4, #28]
 2053 0730 0296     		str	r6, [sp, #8]
 2054 0732 2826     		movs	r6, #40
 2055 0734 0096     		str	r6, [sp, #0]
 2056 0736 524E     		ldr	r6, .L200
 2057 0738 0C9B     		ldr	r3, [sp, #48]
 2058 073a 0196     		str	r6, [sp, #4]
 2059 073c 4FF47846 		mov	r6, #63488
 2060 0740 0396     		str	r6, [sp, #12]
 2061 0742 06F5FC66 		add	r6, r6, #2016
 2062 0746 0496     		str	r6, [sp, #16]
 2063 0748 0126     		movs	r6, #1
 2064 074a 0021     		movs	r1, #0
 2065 074c 2322     		movs	r2, #35
 2066 074e 0596     		str	r6, [sp, #20]
 2067 0750 FFF7FEFF 		bl	gdispGFillStringBox
 2068              	.LVL222:
 2069              		.loc 1 586 0
 2070 0754 40F6B830 		movw	r0, #3000
 2071 0758 FFF7FEFF 		bl	gfxSleepMilliseconds
 2072              	.LVL223:
 2073              	.LBE73:
 2074              		.loc 1 594 0
 2075 075c 1298     		ldr	r0, [sp, #72]
 2076 075e FFF7FEFF 		bl	gdispCloseFont
 2077              	.LVL224:
 2078              		.loc 1 595 0
 2079 0762 1398     		ldr	r0, [sp, #76]
 2080 0764 FFF7FEFF 		bl	gdispCloseFont
 2081              	.LVL225:
 2082              		.loc 1 597 0
 2083 0768 218A     		ldrh	r1, [r4, #16]
 2084 076a 21F01003 		bic	r3, r1, #16
 2085              		.loc 1 598 0
 2086 076e 43F00402 		orr	r2, r3, #4
 2087 0772 2282     		strh	r2, [r4, #16]	@ movhi
 2088 0774 5DE7     		b	.L176
 2089              	.LVL226:
 2090              	.L166:
 2091              	.LBB74:
 2092              	.LBB58:
 2093              		.loc 1 412 0
 2094 0776 E069     		ldr	r0, [r4, #28]
 2095 0778 FFF7FEFF 		bl	gdispGGetWidth
 2096              	.LVL227:
 2097              		.loc 1 414 0
 2098 077c 0B9E     		ldr	r6, [sp, #44]
 2099              		.loc 1 413 0
 2100 077e 149B     		ldr	r3, [sp, #80]
 2101 0780 D4F804B0 		ldr	fp, [r4, #4]
 2102              		.loc 1 412 0
 2103 0784 471E     		subs	r7, r0, #1
 2104 0786 BDB2     		uxth	r5, r7
 2105              	.LVL228:
 2106              		.loc 1 413 0
 2107 0788 E91A     		subs	r1, r5, r3
ARM GAS  C:\Users\Elis\AppData\Local\Temp\ccIy8Y2d.s 			page 38


 2108              		.loc 1 414 0
 2109 078a A81B     		subs	r0, r5, r6
 2110 078c 82B2     		uxth	r2, r0
 2111              		.loc 1 413 0
 2112 078e 8FB2     		uxth	r7, r1
 2113              	.LVL229:
 2114 0790 BBF80230 		ldrh	r3, [fp, #2]
 2115              		.loc 1 414 0
 2116 0794 1192     		str	r2, [sp, #68]
 2117              		.loc 1 413 0
 2118 0796 1097     		str	r7, [sp, #64]
 2119              	.LVL230:
 2120              		.loc 1 414 0
 2121 0798 0B92     		str	r2, [sp, #44]
 2122 079a 78E6     		b	.L164
 2123              	.LVL231:
 2124              	.L163:
 2125              		.loc 1 380 0
 2126 079c E069     		ldr	r0, [r4, #28]
 2127 079e FFF7FEFF 		bl	gdispGGetHeight
 2128              	.LVL232:
 2129 07a2 D4F804B0 		ldr	fp, [r4, #4]
 2130              		.loc 1 381 0
 2131 07a6 109F     		ldr	r7, [sp, #64]
 2132              		.loc 1 383 0
 2133 07a8 119A     		ldr	r2, [sp, #68]
 2134              		.loc 1 380 0
 2135 07aa 431E     		subs	r3, r0, #1
 2136 07ac 98B2     		uxth	r0, r3
 2137              	.LVL233:
 2138 07ae BBF80230 		ldrh	r3, [fp, #2]
 2139              	.LVL234:
 2140              		.loc 1 381 0
 2141 07b2 C11B     		subs	r1, r0, r7
 2142              		.loc 1 383 0
 2143 07b4 861A     		subs	r6, r0, r2
 2144              		.loc 1 381 0
 2145 07b6 8DB2     		uxth	r5, r1
 2146              	.LVL235:
 2147 07b8 03F00400 		and	r0, r3, #4
 2148              	.LVL236:
 2149              		.loc 1 383 0
 2150 07bc B6B2     		uxth	r6, r6
 2151              	.LVL237:
 2152 07be 82B2     		uxth	r2, r0
 2153              		.loc 1 382 0
 2154 07c0 A946     		mov	r9, r5
 2155 07c2 8EE5     		b	.L159
 2156              	.LVL238:
 2157              	.L195:
 2158              	.LBE58:
 2159              	.LBE74:
 2160              	.LBB75:
 2161              	.LBB68:
 2162              		.loc 1 554 0
 2163 07c4 E069     		ldr	r0, [r4, #28]
 2164 07c6 FFF7FEFF 		bl	gdispGGetOrientation
ARM GAS  C:\Users\Elis\AppData\Local\Temp\ccIy8Y2d.s 			page 39


 2165              	.LVL239:
 2166 07ca B428     		cmp	r0, #180
 2167 07cc 4ED0     		beq	.L174
 2168 07ce B0F5877F 		cmp	r0, #270
 2169 07d2 44D0     		beq	.L175
 2170 07d4 5A28     		cmp	r0, #90
 2171 07d6 7FF404AF 		bne	.L172
 2172              		.loc 1 559 0
 2173 07da 0C98     		ldr	r0, [sp, #48]
 2174 07dc 411E     		subs	r1, r0, #1
 2175 07de CF1B     		subs	r7, r1, r7
 2176              		.loc 1 561 0
 2177 07e0 2E46     		mov	r6, r5
 2178 07e2 BDB2     		uxth	r5, r7
 2179 07e4 FDE6     		b	.L172
 2180              	.LVL240:
 2181              	.L168:
 2182 07e6 D4F804B0 		ldr	fp, [r4, #4]
 2183              	.LBE68:
 2184              	.LBE75:
 2185              	.LBB76:
 2186              	.LBB59:
 2187              		.loc 1 426 0
 2188 07ea 0B9D     		ldr	r5, [sp, #44]
 2189              		.loc 1 424 0
 2190 07ec 149E     		ldr	r6, [sp, #80]
 2191              		.loc 1 426 0
 2192 07ee 1195     		str	r5, [sp, #68]
 2193 07f0 BBF80230 		ldrh	r3, [fp, #2]
 2194              		.loc 1 424 0
 2195 07f4 1096     		str	r6, [sp, #64]
 2196 07f6 4AE6     		b	.L164
 2197              	.LVL241:
 2198              	.L167:
 2199              		.loc 1 418 0
 2200 07f8 E069     		ldr	r0, [r4, #28]
 2201 07fa FFF7FEFF 		bl	gdispGGetHeight
 2202              	.LVL242:
 2203              		.loc 1 419 0
 2204 07fe 1099     		ldr	r1, [sp, #64]
 2205              		.loc 1 421 0
 2206 0800 119D     		ldr	r5, [sp, #68]
 2207 0802 D4F804B0 		ldr	fp, [r4, #4]
 2208              		.loc 1 418 0
 2209 0806 0138     		subs	r0, r0, #1
 2210 0808 83B2     		uxth	r3, r0
 2211              	.LVL243:
 2212              		.loc 1 419 0
 2213 080a 5A1A     		subs	r2, r3, r1
 2214              		.loc 1 421 0
 2215 080c 5E1B     		subs	r6, r3, r5
 2216              		.loc 1 419 0
 2217 080e 97B2     		uxth	r7, r2
 2218              		.loc 1 421 0
 2219 0810 B0B2     		uxth	r0, r6
 2220              	.LVL244:
 2221 0812 BBF80230 		ldrh	r3, [fp, #2]
ARM GAS  C:\Users\Elis\AppData\Local\Temp\ccIy8Y2d.s 			page 40


 2222              	.LVL245:
 2223              		.loc 1 419 0
 2224 0816 1097     		str	r7, [sp, #64]
 2225              	.LVL246:
 2226              		.loc 1 421 0
 2227 0818 1190     		str	r0, [sp, #68]
 2228              	.LVL247:
 2229              		.loc 1 420 0
 2230 081a 0B97     		str	r7, [sp, #44]
 2231 081c 37E6     		b	.L164
 2232              	.LVL248:
 2233              	.L190:
 2234              	.LBE59:
 2235              	.LBE76:
 2236              		.loc 1 454 0 discriminator 1
 2237 081e 1948     		ldr	r0, .L200+4
 2238              	.LVL249:
 2239 0820 FFF7FEFF 		bl	gdispOpenFont
 2240              	.LVL250:
 2241 0824 1290     		str	r0, [sp, #72]
 2242              	.LVL251:
 2243 0826 FFF7F6BB 		b	.L144
 2244              	.LVL252:
 2245              	.L191:
 2246              		.loc 1 456 0 discriminator 1
 2247 082a 1648     		ldr	r0, .L200+4
 2248              	.LVL253:
 2249 082c FFF7FEFF 		bl	gdispOpenFont
 2250              	.LVL254:
 2251 0830 1390     		str	r0, [sp, #76]
 2252              	.LVL255:
 2253 0832 FFF7F7BB 		b	.L145
 2254              	.LVL256:
 2255              	.L162:
 2256              	.LBB77:
 2257              	.LBB60:
 2258              		.loc 1 374 0
 2259 0836 E069     		ldr	r0, [r4, #28]
 2260 0838 FFF7FEFF 		bl	gdispGGetWidth
 2261              	.LVL257:
 2262 083c D4F804B0 		ldr	fp, [r4, #4]
 2263              		.loc 1 376 0
 2264 0840 0B9F     		ldr	r7, [sp, #44]
 2265 0842 BBF80230 		ldrh	r3, [fp, #2]
 2266              		.loc 1 374 0
 2267 0846 451E     		subs	r5, r0, #1
 2268              	.LVL258:
 2269 0848 A9B2     		uxth	r1, r5
 2270              	.LVL259:
 2271              		.loc 1 375 0
 2272 084a 1498     		ldr	r0, [sp, #80]
 2273              		.loc 1 376 0
 2274 084c CE1B     		subs	r6, r1, r7
 2275              		.loc 1 375 0
 2276 084e 0D1A     		subs	r5, r1, r0
 2277              	.LVL260:
 2278              		.loc 1 376 0
ARM GAS  C:\Users\Elis\AppData\Local\Temp\ccIy8Y2d.s 			page 41


 2279 0850 B6B2     		uxth	r6, r6
 2280 0852 03F00402 		and	r2, r3, #4
 2281              		.loc 1 375 0
 2282 0856 ADB2     		uxth	r5, r5
 2283              	.LVL261:
 2284 0858 92B2     		uxth	r2, r2
 2285              		.loc 1 376 0
 2286 085a B146     		mov	r9, r6
 2287 085c 41E5     		b	.L159
 2288              	.LVL262:
 2289              	.L175:
 2290              	.LBE60:
 2291              	.LBE77:
 2292              	.LBB78:
 2293              	.LBB69:
 2294              		.loc 1 568 0
 2295 085e 0D9D     		ldr	r5, [sp, #52]
 2296 0860 6FEA0902 		mvn	r2, r9
 2297 0864 5319     		adds	r3, r2, r5
 2298              		.loc 1 570 0
 2299 0866 3546     		mov	r5, r6
 2300 0868 9EB2     		uxth	r6, r3
 2301 086a BAE6     		b	.L172
 2302              	.L174:
 2303              		.loc 1 564 0
 2304 086c 0D98     		ldr	r0, [sp, #52]
 2305              		.loc 1 563 0
 2306 086e 0C99     		ldr	r1, [sp, #48]
 2307 0870 6FEA0902 		mvn	r2, r9
 2308              		.loc 1 564 0
 2309 0874 431E     		subs	r3, r0, #1
 2310              		.loc 1 563 0
 2311 0876 5518     		adds	r5, r2, r1
 2312              		.loc 1 564 0
 2313 0878 DE1B     		subs	r6, r3, r7
 2314              		.loc 1 563 0
 2315 087a ADB2     		uxth	r5, r5
 2316              		.loc 1 564 0
 2317 087c B6B2     		uxth	r6, r6
 2318              		.loc 1 565 0
 2319 087e B0E6     		b	.L172
 2320              	.L201:
 2321              		.align	2
 2322              	.L200:
 2323 0880 28000000 		.word	.LC4
 2324 0884 0C000000 		.word	.LC1
 2325              	.LBE69:
 2326              	.LBE78:
 2327              		.cfi_endproc
 2328              	.LFE125:
 2329              		.size	CalibrateMouse, .-CalibrateMouse
 2330 0888 AFF30080 		.section	.text._gmouseInit,"ax",%progbits
 2330      AFF30080 
 2331              		.align	2
 2332              		.p2align 4,,15
 2333              		.global	_gmouseInit
 2334              		.thumb
ARM GAS  C:\Users\Elis\AppData\Local\Temp\ccIy8Y2d.s 			page 42


 2335              		.thumb_func
 2336              		.type	_gmouseInit, %function
 2337              	_gmouseInit:
 2338              	.LFB126:
 2339              		.loc 1 626 0
 2340              		.cfi_startproc
 2341              		@ args = 0, pretend = 0, frame = 0
 2342              		@ frame_needed = 0, uses_anonymous_args = 0
 2343              		@ link register save eliminated.
 2344              	.LBB79:
 2345              		.loc 1 647 0
 2346 0000 0448     		ldr	r0, .L204
 2347 0002 B0F90230 		ldrsh	r3, [r0, #2]
 2348 0006 002B     		cmp	r3, #0
 2349 0008 03DB     		blt	.L202
 2350              		.loc 1 648 0
 2351 000a 0349     		ldr	r1, .L204+4
 2352 000c 0968     		ldr	r1, [r1, #0]
 2353              	.LBE79:
 2354              		.loc 1 652 0
 2355              	.LBB80:
 2356              		.loc 1 648 0
 2357 000e FFF7FEBF 		b	gdriverRegister
 2358              	.LVL263:
 2359              	.L202:
 2360 0012 7047     		bx	lr
 2361              	.L205:
 2362              		.align	2
 2363              	.L204:
 2364 0014 00000000 		.word	GMOUSEVMT_OnlyOne
 2365 0018 00000000 		.word	GDISP
 2366              	.LBE80:
 2367              		.cfi_endproc
 2368              	.LFE126:
 2369              		.size	_gmouseInit, .-_gmouseInit
 2370 001c AFF30080 		.section	.text._gmouseDeinit,"ax",%progbits
 2371              		.align	2
 2372              		.p2align 4,,15
 2373              		.global	_gmouseDeinit
 2374              		.thumb
 2375              		.thumb_func
 2376              		.type	_gmouseDeinit, %function
 2377              	_gmouseDeinit:
 2378              	.LFB127:
 2379              		.loc 1 654 0
 2380              		.cfi_startproc
 2381              		@ args = 0, pretend = 0, frame = 0
 2382              		@ frame_needed = 0, uses_anonymous_args = 0
 2383              		@ link register save eliminated.
 2384              		.loc 1 655 0
 2385 0000 40F20000 		movw	r0, #:lower16:.LANCHOR0
 2386 0004 C0F20000 		movt	r0, #:upper16:.LANCHOR0
 2387              		.loc 1 656 0
 2388              		.loc 1 655 0
 2389 0008 FFF7FEBF 		b	gtimerDeinit
 2390              	.LVL264:
 2391              		.cfi_endproc
ARM GAS  C:\Users\Elis\AppData\Local\Temp\ccIy8Y2d.s 			page 43


 2392              	.LFE127:
 2393              		.size	_gmouseDeinit, .-_gmouseDeinit
 2394 000c AFF30080 		.section	.text._gmouseInitDriver,"ax",%progbits
 2395              		.align	2
 2396              		.p2align 4,,15
 2397              		.global	_gmouseInitDriver
 2398              		.thumb
 2399              		.thumb_func
 2400              		.type	_gmouseInitDriver, %function
 2401              	_gmouseInitDriver:
 2402              	.LFB128:
 2403              		.loc 1 658 0
 2404              		.cfi_startproc
 2405              		@ args = 0, pretend = 0, frame = 0
 2406              		@ frame_needed = 0, uses_anonymous_args = 0
 2407              	.LVL265:
 2408              		.loc 1 667 0
 2409 0000 4368     		ldr	r3, [r0, #4]
 2410              	.LVL266:
 2411              		.loc 1 658 0
 2412 0002 00B5     		push	{lr}
 2413              	.LCFI6:
 2414              		.cfi_def_cfa_offset 4
 2415              		.cfi_offset 14, -4
 2416              		.loc 1 663 0
 2417 0004 C161     		str	r1, [r0, #28]
 2418              		.loc 1 667 0
 2419 0006 5988     		ldrh	r1, [r3, #2]
 2420              	.LVL267:
 2421 0008 01F00801 		and	r1, r1, #8
 2422 000c 89B2     		uxth	r1, r1
 2423              		.loc 1 658 0
 2424 000e 83B0     		sub	sp, sp, #12
 2425              	.LCFI7:
 2426              		.cfi_def_cfa_offset 16
 2427              		.loc 1 667 0
 2428 0010 19B1     		cbz	r1, .L208
 2429              		.loc 1 668 0
 2430 0012 018A     		ldrh	r1, [r0, #16]
 2431 0014 41F02001 		orr	r1, r1, #32
 2432 0018 0182     		strh	r1, [r0, #16]	@ movhi
 2433              	.L208:
 2434              		.loc 1 672 0
 2435 001a 9B6A     		ldr	r3, [r3, #40]
 2436 001c 1146     		mov	r1, r2
 2437 001e 9847     		blx	r3
 2438              	.LVL268:
 2439 0020 08B9     		cbnz	r0, .L215
 2440              	.L209:
 2441              		.loc 1 682 0
 2442 0022 03B0     		add	sp, sp, #12
 2443 0024 00BD     		pop	{pc}
 2444              	.L215:
 2445              		.loc 1 676 0
 2446 0026 0848     		ldr	r0, .L217
 2447 0028 FFF7FEFF 		bl	gtimerIsActive
 2448              	.LVL269:
ARM GAS  C:\Users\Elis\AppData\Local\Temp\ccIy8Y2d.s 			page 44


 2449 002c 0246     		mov	r2, r0
 2450 002e 08B1     		cbz	r0, .L216
 2451              		.loc 1 679 0
 2452 0030 0120     		movs	r0, #1
 2453 0032 F6E7     		b	.L209
 2454              	.L216:
 2455              		.loc 1 677 0
 2456 0034 1920     		movs	r0, #25
 2457 0036 0090     		str	r0, [sp, #0]
 2458 0038 0449     		ldr	r1, .L217+4
 2459 003a 0348     		ldr	r0, .L217
 2460 003c 0123     		movs	r3, #1
 2461 003e FFF7FEFF 		bl	gtimerStart
 2462              	.LVL270:
 2463              		.loc 1 679 0
 2464 0042 0120     		movs	r0, #1
 2465 0044 EDE7     		b	.L209
 2466              	.L218:
 2467 0046 00BF     		.align	2
 2468              	.L217:
 2469 0048 00000000 		.word	.LANCHOR0
 2470 004c 00000000 		.word	MousePoll
 2471              		.cfi_endproc
 2472              	.LFE128:
 2473              		.size	_gmouseInitDriver, .-_gmouseInitDriver
 2474              		.section	.text._gmousePostInitDriver,"ax",%progbits
 2475              		.align	2
 2476              		.p2align 4,,15
 2477              		.global	_gmousePostInitDriver
 2478              		.thumb
 2479              		.thumb_func
 2480              		.type	_gmousePostInitDriver, %function
 2481              	_gmousePostInitDriver:
 2482              	.LFB129:
 2483              		.loc 1 684 0
 2484              		.cfi_startproc
 2485              		@ args = 0, pretend = 0, frame = 0
 2486              		@ frame_needed = 0, uses_anonymous_args = 0
 2487              	.LVL271:
 2488              		.loc 1 692 0
 2489 0000 4368     		ldr	r3, [r0, #4]
 2490              		.loc 1 688 0
 2491 0002 018A     		ldrh	r1, [r0, #16]
 2492              		.loc 1 692 0
 2493 0004 5A88     		ldrh	r2, [r3, #2]
 2494 0006 02F01002 		and	r2, r2, #16
 2495              		.loc 1 688 0
 2496 000a 41F00401 		orr	r1, r1, #4
 2497              		.loc 1 692 0
 2498 000e 92B2     		uxth	r2, r2
 2499              		.loc 1 684 0
 2500 0010 10B5     		push	{r4, lr}
 2501              	.LCFI8:
 2502              		.cfi_def_cfa_offset 8
 2503              		.cfi_offset 4, -8
 2504              		.cfi_offset 14, -4
 2505              		.loc 1 684 0
ARM GAS  C:\Users\Elis\AppData\Local\Temp\ccIy8Y2d.s 			page 45


 2506 0012 0446     		mov	r4, r0
 2507              		.loc 1 688 0
 2508 0014 0182     		strh	r1, [r0, #16]	@ movhi
 2509              		.loc 1 692 0
 2510 0016 5AB1     		cbz	r2, .L221
 2511              		.loc 1 698 0
 2512 0018 9B6B     		ldr	r3, [r3, #56]
 2513 001a 23B1     		cbz	r3, .L229
 2514              		.loc 1 698 0 is_stmt 0 discriminator 1
 2515 001c 00F12001 		add	r1, r0, #32
 2516 0020 1822     		movs	r2, #24
 2517 0022 9847     		blx	r3
 2518              	.LVL272:
 2519 0024 48B9     		cbnz	r0, .L233
 2520              	.L229:
 2521              		.loc 1 702 0 is_stmt 1 discriminator 1
 2522 0026 2046     		mov	r0, r4
 2523 0028 FFF7FEFF 		bl	CalibrateMouse
 2524              	.LVL273:
 2525 002c 0028     		cmp	r0, #0
 2526 002e FAD1     		bne	.L229
 2527              	.L221:
 2528              		.loc 1 708 0
 2529 0030 2046     		mov	r0, r4
 2530              		.loc 1 711 0
 2531 0032 BDE81040 		pop	{r4, lr}
 2532              		.loc 1 708 0
 2533 0036 FFF7FEBF 		b	GetMouseReading
 2534              	.LVL274:
 2535              	.L233:
 2536              		.loc 1 699 0
 2537 003a 208A     		ldrh	r0, [r4, #16]
 2538 003c 40F00801 		orr	r1, r0, #8
 2539 0040 2182     		strh	r1, [r4, #16]	@ movhi
 2540 0042 F5E7     		b	.L221
 2541              		.cfi_endproc
 2542              	.LFE129:
 2543              		.size	_gmousePostInitDriver, .-_gmousePostInitDriver
 2544 0044 AFF30080 		.section	.text._gmouseDeInitDriver,"ax",%progbits
 2544      AFF30080 
 2544      AFF30080 
 2545              		.align	2
 2546              		.p2align 4,,15
 2547              		.global	_gmouseDeInitDriver
 2548              		.thumb
 2549              		.thumb_func
 2550              		.type	_gmouseDeInitDriver, %function
 2551              	_gmouseDeInitDriver:
 2552              	.LFB130:
 2553              		.loc 1 713 0
 2554              		.cfi_startproc
 2555              		@ args = 0, pretend = 0, frame = 0
 2556              		@ frame_needed = 0, uses_anonymous_args = 0
 2557              		@ link register save eliminated.
 2558              	.LVL275:
 2559 0000 7047     		bx	lr
 2560              		.cfi_endproc
ARM GAS  C:\Users\Elis\AppData\Local\Temp\ccIy8Y2d.s 			page 46


 2561              	.LFE130:
 2562              		.size	_gmouseDeInitDriver, .-_gmouseDeInitDriver
 2563 0002 00BFAFF3 		.section	.text.ginputGetMouse,"ax",%progbits
 2563      0080AFF3 
 2563      0080AFF3 
 2563      0080
 2564              		.align	2
 2565              		.p2align 4,,15
 2566              		.global	ginputGetMouse
 2567              		.thumb
 2568              		.thumb_func
 2569              		.type	ginputGetMouse, %function
 2570              	ginputGetMouse:
 2571              	.LFB131:
 2572              		.loc 1 717 0
 2573              		.cfi_startproc
 2574              		@ args = 0, pretend = 0, frame = 0
 2575              		@ frame_needed = 0, uses_anonymous_args = 0
 2576              		@ link register save eliminated.
 2577              	.LVL276:
 2578              		.loc 1 718 0
 2579 0000 431C     		adds	r3, r0, #1
 2580              		.loc 1 717 0
 2581 0002 0146     		mov	r1, r0
 2582              		.loc 1 718 0
 2583 0004 02D0     		beq	.L236
 2584              		.loc 1 720 0
 2585 0006 6D20     		movs	r0, #109
 2586              	.LVL277:
 2587              		.loc 1 721 0
 2588              		.loc 1 720 0
 2589 0008 FFF7FEBF 		b	gdriverGetInstance
 2590              	.LVL278:
 2591              	.L236:
 2592              		.loc 1 721 0
 2593 000c 0048     		ldr	r0, .L237
 2594              	.LVL279:
 2595 000e 7047     		bx	lr
 2596              	.L238:
 2597              		.align	2
 2598              	.L237:
 2599 0010 00000000 		.word	.LANCHOR0
 2600              		.cfi_endproc
 2601              	.LFE131:
 2602              		.size	ginputGetMouse, .-ginputGetMouse
 2603 0014 AFF30080 		.section	.text.ginputSetMouseDisplay,"ax",%progbits
 2603      AFF30080 
 2603      AFF30080 
 2604              		.align	2
 2605              		.p2align 4,,15
 2606              		.global	ginputSetMouseDisplay
 2607              		.thumb
 2608              		.thumb_func
 2609              		.type	ginputSetMouseDisplay, %function
 2610              	ginputSetMouseDisplay:
 2611              	.LFB132:
 2612              		.loc 1 723 0
ARM GAS  C:\Users\Elis\AppData\Local\Temp\ccIy8Y2d.s 			page 47


 2613              		.cfi_startproc
 2614              		@ args = 0, pretend = 0, frame = 0
 2615              		@ frame_needed = 0, uses_anonymous_args = 0
 2616              	.LVL280:
 2617 0000 0346     		mov	r3, r0
 2618 0002 10B5     		push	{r4, lr}
 2619              	.LCFI9:
 2620              		.cfi_def_cfa_offset 8
 2621              		.cfi_offset 4, -8
 2622              		.cfi_offset 14, -4
 2623              		.loc 1 726 0
 2624 0004 6D20     		movs	r0, #109
 2625              	.LVL281:
 2626              		.loc 1 723 0
 2627 0006 0C46     		mov	r4, r1
 2628              		.loc 1 726 0
 2629 0008 1946     		mov	r1, r3
 2630              	.LVL282:
 2631 000a FFF7FEFF 		bl	gdriverGetInstance
 2632              	.LVL283:
 2633 000e 08B1     		cbz	r0, .L239
 2634              		.loc 1 729 0
 2635 0010 0CB1     		cbz	r4, .L245
 2636              	.LVL284:
 2637              	.L241:
 2638              		.loc 1 729 0 is_stmt 0 discriminator 3
 2639 0012 C461     		str	r4, [r0, #28]
 2640              	.L239:
 2641 0014 10BD     		pop	{r4, pc}
 2642              	.LVL285:
 2643              	.L245:
 2644              		.loc 1 729 0 discriminator 2
 2645 0016 0149     		ldr	r1, .L246
 2646 0018 0C68     		ldr	r4, [r1, #0]
 2647              	.LVL286:
 2648 001a FAE7     		b	.L241
 2649              	.L247:
 2650              		.align	2
 2651              	.L246:
 2652 001c 00000000 		.word	GDISP
 2653              		.cfi_endproc
 2654              	.LFE132:
 2655              		.size	ginputSetMouseDisplay, .-ginputSetMouseDisplay
 2656              		.section	.text.ginputGetMouseDisplay,"ax",%progbits
 2657              		.align	2
 2658              		.p2align 4,,15
 2659              		.global	ginputGetMouseDisplay
 2660              		.thumb
 2661              		.thumb_func
 2662              		.type	ginputGetMouseDisplay, %function
 2663              	ginputGetMouseDisplay:
 2664              	.LFB133:
 2665              		.loc 1 732 0 is_stmt 1
 2666              		.cfi_startproc
 2667              		@ args = 0, pretend = 0, frame = 0
 2668              		@ frame_needed = 0, uses_anonymous_args = 0
 2669              	.LVL287:
ARM GAS  C:\Users\Elis\AppData\Local\Temp\ccIy8Y2d.s 			page 48


 2670 0000 08B5     		push	{r3, lr}
 2671              	.LCFI10:
 2672              		.cfi_def_cfa_offset 8
 2673              		.cfi_offset 3, -8
 2674              		.cfi_offset 14, -4
 2675              		.loc 1 732 0
 2676 0002 0146     		mov	r1, r0
 2677              		.loc 1 735 0
 2678 0004 6D20     		movs	r0, #109
 2679              	.LVL288:
 2680 0006 FFF7FEFF 		bl	gdriverGetInstance
 2681              	.LVL289:
 2682 000a 00B1     		cbz	r0, .L249
 2683              		.loc 1 738 0
 2684 000c C069     		ldr	r0, [r0, #28]
 2685              	.LVL290:
 2686              	.L249:
 2687              		.loc 1 739 0
 2688 000e 08BD     		pop	{r3, pc}
 2689              		.cfi_endproc
 2690              	.LFE133:
 2691              		.size	ginputGetMouseDisplay, .-ginputGetMouseDisplay
 2692              		.section	.text.ginputGetMouseStatus,"ax",%progbits
 2693              		.align	2
 2694              		.p2align 4,,15
 2695              		.global	ginputGetMouseStatus
 2696              		.thumb
 2697              		.thumb_func
 2698              		.type	ginputGetMouseStatus, %function
 2699              	ginputGetMouseStatus:
 2700              	.LFB134:
 2701              		.loc 1 741 0
 2702              		.cfi_startproc
 2703              		@ args = 0, pretend = 0, frame = 0
 2704              		@ frame_needed = 0, uses_anonymous_args = 0
 2705              	.LVL291:
 2706 0000 F8B5     		push	{r3, r4, r5, r6, r7, lr}
 2707              	.LCFI11:
 2708              		.cfi_def_cfa_offset 24
 2709              		.cfi_offset 3, -24
 2710              		.cfi_offset 4, -20
 2711              		.cfi_offset 5, -16
 2712              		.cfi_offset 6, -12
 2713              		.cfi_offset 7, -8
 2714              		.cfi_offset 14, -4
 2715              		.loc 1 741 0
 2716 0002 0546     		mov	r5, r0
 2717              		.loc 1 746 0
 2718 0004 0120     		movs	r0, #1
 2719              	.LVL292:
 2720              		.loc 1 741 0
 2721 0006 0C46     		mov	r4, r1
 2722              		.loc 1 746 0
 2723 0008 FFF7FEFF 		bl	gfxSleepMilliseconds
 2724              	.LVL293:
 2725              		.loc 1 748 0
 2726 000c 6D20     		movs	r0, #109
ARM GAS  C:\Users\Elis\AppData\Local\Temp\ccIy8Y2d.s 			page 49


 2727 000e 2946     		mov	r1, r5
 2728 0010 FFF7FEFF 		bl	gdriverGetInstance
 2729              	.LVL294:
 2730 0014 D8B1     		cbz	r0, .L252
 2731              		.loc 1 752 0
 2732 0016 038A     		ldrh	r3, [r0, #16]
 2733 0018 03F01001 		and	r1, r3, #16
 2734 001c 8AB2     		uxth	r2, r1
 2735 001e AAB9     		cbnz	r2, .L255
 2736              		.loc 1 757 0
 2737 0020 4568     		ldr	r5, [r0, #4]
 2738              	.LVL295:
 2739              		.loc 1 761 0
 2740 0022 0789     		ldrh	r7, [r0, #8]
 2741              		.loc 1 757 0
 2742 0024 6E88     		ldrh	r6, [r5, #2]
 2743              		.loc 1 763 0
 2744 0026 8189     		ldrh	r1, [r0, #12]
 2745              		.loc 1 762 0
 2746 0028 4589     		ldrh	r5, [r0, #10]
 2747              		.loc 1 764 0
 2748 002a C289     		ldrh	r2, [r0, #14]
 2749              		.loc 1 765 0
 2750 002c C369     		ldr	r3, [r0, #28]
 2751              		.loc 1 761 0
 2752 002e 6780     		strh	r7, [r4, #2]	@ movhi
 2753              		.loc 1 757 0
 2754 0030 16F0010F 		tst	r6, #1
 2755 0034 40F20110 		movw	r0, #257
 2756              	.LVL296:
 2757 0038 08BF     		it	eq
 2758 003a 4FF48070 		moveq	r0, #256
 2759 003e 2080     		strh	r0, [r4, #0]	@ movhi
 2760              		.loc 1 762 0
 2761 0040 A580     		strh	r5, [r4, #4]	@ movhi
 2762              		.loc 1 763 0
 2763 0042 E180     		strh	r1, [r4, #6]	@ movhi
 2764              		.loc 1 764 0
 2765 0044 2281     		strh	r2, [r4, #8]	@ movhi
 2766              		.loc 1 765 0
 2767 0046 E360     		str	r3, [r4, #12]
 2768              		.loc 1 766 0
 2769 0048 0120     		movs	r0, #1
 2770 004a F8BD     		pop	{r3, r4, r5, r6, r7, pc}
 2771              	.LVL297:
 2772              	.L255:
 2773              		.loc 1 749 0
 2774 004c 0020     		movs	r0, #0
 2775              	.LVL298:
 2776              	.L252:
 2777              		.loc 1 767 0
 2778 004e F8BD     		pop	{r3, r4, r5, r6, r7, pc}
 2779              		.cfi_endproc
 2780              	.LFE134:
 2781              		.size	ginputGetMouseStatus, .-ginputGetMouseStatus
 2782              		.section	.text.ginputSetFingerMode,"ax",%progbits
 2783              		.align	2
ARM GAS  C:\Users\Elis\AppData\Local\Temp\ccIy8Y2d.s 			page 50


 2784              		.p2align 4,,15
 2785              		.global	ginputSetFingerMode
 2786              		.thumb
 2787              		.thumb_func
 2788              		.type	ginputSetFingerMode, %function
 2789              	ginputSetFingerMode:
 2790              	.LFB135:
 2791              		.loc 1 770 0
 2792              		.cfi_startproc
 2793              		@ args = 0, pretend = 0, frame = 0
 2794              		@ frame_needed = 0, uses_anonymous_args = 0
 2795              	.LVL299:
 2796 0000 0346     		mov	r3, r0
 2797 0002 10B5     		push	{r4, lr}
 2798              	.LCFI12:
 2799              		.cfi_def_cfa_offset 8
 2800              		.cfi_offset 4, -8
 2801              		.cfi_offset 14, -4
 2802              		.loc 1 773 0
 2803 0004 6D20     		movs	r0, #109
 2804              	.LVL300:
 2805              		.loc 1 770 0
 2806 0006 0C46     		mov	r4, r1
 2807              		.loc 1 773 0
 2808 0008 1946     		mov	r1, r3
 2809              	.LVL301:
 2810 000a FFF7FEFF 		bl	gdriverGetInstance
 2811              	.LVL302:
 2812 000e 20B1     		cbz	r0, .L257
 2813              		.loc 1 777 0
 2814 0010 018A     		ldrh	r1, [r0, #16]
 2815              		.loc 1 776 0
 2816 0012 1CB9     		cbnz	r4, .L263
 2817              		.loc 1 779 0
 2818 0014 21F02002 		bic	r2, r1, #32
 2819 0018 0282     		strh	r2, [r0, #16]	@ movhi
 2820              	.L257:
 2821 001a 10BD     		pop	{r4, pc}
 2822              	.L263:
 2823              		.loc 1 777 0
 2824 001c 41F02003 		orr	r3, r1, #32
 2825 0020 0382     		strh	r3, [r0, #16]	@ movhi
 2826 0022 10BD     		pop	{r4, pc}
 2827              		.cfi_endproc
 2828              	.LFE135:
 2829              		.size	ginputSetFingerMode, .-ginputSetFingerMode
 2830 0024 AFF30080 		.section	.text.ginputCalibrateMouse,"ax",%progbits
 2830      AFF30080 
 2830      AFF30080 
 2831              		.align	2
 2832              		.p2align 4,,15
 2833              		.global	ginputCalibrateMouse
 2834              		.thumb
 2835              		.thumb_func
 2836              		.type	ginputCalibrateMouse, %function
 2837              	ginputCalibrateMouse:
 2838              	.LFB136:
ARM GAS  C:\Users\Elis\AppData\Local\Temp\ccIy8Y2d.s 			page 51


 2839              		.loc 1 785 0
 2840              		.cfi_startproc
 2841              		@ args = 0, pretend = 0, frame = 0
 2842              		@ frame_needed = 0, uses_anonymous_args = 0
 2843              	.LVL303:
 2844 0000 08B5     		push	{r3, lr}
 2845              	.LCFI13:
 2846              		.cfi_def_cfa_offset 8
 2847              		.cfi_offset 3, -8
 2848              		.cfi_offset 14, -4
 2849              		.loc 1 785 0
 2850 0002 0146     		mov	r1, r0
 2851              		.loc 1 789 0
 2852 0004 6D20     		movs	r0, #109
 2853              	.LVL304:
 2854 0006 FFF7FEFF 		bl	gdriverGetInstance
 2855              	.LVL305:
 2856 000a 28B1     		cbz	r0, .L265
 2857              		.loc 1 793 0
 2858 000c 4168     		ldr	r1, [r0, #4]
 2859 000e 4A88     		ldrh	r2, [r1, #2]
 2860 0010 02F01003 		and	r3, r2, #16
 2861 0014 99B2     		uxth	r1, r3
 2862 0016 09B9     		cbnz	r1, .L270
 2863              	.L265:
 2864              		.loc 1 797 0
 2865 0018 0020     		movs	r0, #0
 2866              	.LVL306:
 2867 001a 08BD     		pop	{r3, pc}
 2868              	.LVL307:
 2869              	.L270:
 2870 001c BDE80840 		pop	{r3, lr}
 2871              		.loc 1 796 0
 2872 0020 FFF7FEBF 		b	CalibrateMouse
 2873              	.LVL308:
 2874              		.cfi_endproc
 2875              	.LFE136:
 2876              		.size	ginputCalibrateMouse, .-ginputCalibrateMouse
 2877 0024 AFF30080 		.section	.text._gmouseWakeup,"ax",%progbits
 2877      AFF30080 
 2877      AFF30080 
 2878              		.align	2
 2879              		.p2align 4,,15
 2880              		.global	_gmouseWakeup
 2881              		.thumb
 2882              		.thumb_func
 2883              		.type	_gmouseWakeup, %function
 2884              	_gmouseWakeup:
 2885              	.LFB137:
 2886              		.loc 1 801 0
 2887              		.cfi_startproc
 2888              		@ args = 0, pretend = 0, frame = 0
 2889              		@ frame_needed = 0, uses_anonymous_args = 0
 2890              		@ link register save eliminated.
 2891              	.LVL309:
 2892              		.loc 1 802 0
 2893 0000 18B1     		cbz	r0, .L272
ARM GAS  C:\Users\Elis\AppData\Local\Temp\ccIy8Y2d.s 			page 52


 2894              		.loc 1 803 0
 2895 0002 038A     		ldrh	r3, [r0, #16]
 2896 0004 43F04001 		orr	r1, r3, #64
 2897 0008 0182     		strh	r1, [r0, #16]	@ movhi
 2898              	.L272:
 2899              		.loc 1 804 0
 2900 000a 0148     		ldr	r0, .L276
 2901              	.LVL310:
 2902              		.loc 1 805 0
 2903              		.loc 1 804 0
 2904 000c FFF7FEBF 		b	gtimerJab
 2905              	.LVL311:
 2906              	.L277:
 2907              		.align	2
 2908              	.L276:
 2909 0010 00000000 		.word	.LANCHOR0
 2910              		.cfi_endproc
 2911              	.LFE137:
 2912              		.size	_gmouseWakeup, .-_gmouseWakeup
 2913 0014 AFF30080 		.section	.text._gmouseWakeupI,"ax",%progbits
 2913      AFF30080 
 2913      AFF30080 
 2914              		.align	2
 2915              		.p2align 4,,15
 2916              		.global	_gmouseWakeupI
 2917              		.thumb
 2918              		.thumb_func
 2919              		.type	_gmouseWakeupI, %function
 2920              	_gmouseWakeupI:
 2921              	.LFB138:
 2922              		.loc 1 808 0
 2923              		.cfi_startproc
 2924              		@ args = 0, pretend = 0, frame = 0
 2925              		@ frame_needed = 0, uses_anonymous_args = 0
 2926              		@ link register save eliminated.
 2927              	.LVL312:
 2928              		.loc 1 809 0
 2929 0000 18B1     		cbz	r0, .L279
 2930              		.loc 1 810 0
 2931 0002 038A     		ldrh	r3, [r0, #16]
 2932 0004 43F04001 		orr	r1, r3, #64
 2933 0008 0182     		strh	r1, [r0, #16]	@ movhi
 2934              	.L279:
 2935              		.loc 1 811 0
 2936 000a 0148     		ldr	r0, .L283
 2937              	.LVL313:
 2938              		.loc 1 812 0
 2939              		.loc 1 811 0
 2940 000c FFF7FEBF 		b	gtimerJabI
 2941              	.LVL314:
 2942              	.L284:
 2943              		.align	2
 2944              	.L283:
 2945 0010 00000000 		.word	.LANCHOR0
 2946              		.cfi_endproc
 2947              	.LFE138:
 2948              		.size	_gmouseWakeupI, .-_gmouseWakeupI
ARM GAS  C:\Users\Elis\AppData\Local\Temp\ccIy8Y2d.s 			page 53


 2949 0014 AFF30080 		.section	.bss.MouseTimer,"aw",%nobits
 2949      AFF30080 
 2949      AFF30080 
 2950              		.align	2
 2951              		.set	.LANCHOR0,. + 0
 2952              		.type	MouseTimer, %object
 2953              		.size	MouseTimer, 28
 2954              	MouseTimer:
 2955 0000 00000000 		.space	28
 2955      00000000 
 2955      00000000 
 2955      00000000 
 2955      00000000 
 2956              		.section	.rodata.str1.4,"aMS",%progbits,1
 2957              		.align	2
 2958              	.LC0:
 2959 0000 2A20446F 		.ascii	"* Double\000"
 2959      75626C65 
 2959      00
 2960 0009 000000   		.space	3
 2961              	.LC1:
 2962 000c 2A00     		.ascii	"*\000"
 2963 000e 0000     		.space	2
 2964              	.LC2:
 2965 0010 2A204E61 		.ascii	"* Narrow\000"
 2965      72726F77 
 2965      00
 2966 0019 000000   		.space	3
 2967              	.LC3:
 2968 001c 43616C69 		.ascii	"Calibration\000"
 2968      62726174 
 2968      696F6E00 
 2969              	.LC4:
 2970 0028 43616C69 		.ascii	"Calibration Failed!\000"
 2970      62726174 
 2970      696F6E20 
 2970      4661696C 
 2970      65642100 
 2971              		.text
 2972              	.Letext0:
 2973              		.file 2 "c:\\chibistudio\\tools\\gnu tools arm embedded\\4.7 2014q2\\bin\\../lib/gcc/arm-none-eabi
 2974              		.file 3 "c:\\chibistudio\\tools\\gnu tools arm embedded\\4.7 2014q2\\bin\\../lib/gcc/arm-none-eabi
 2975              		.file 4 "../../chibios/os/ports/GCC/ARMCMx/chtypes.h"
 2976              		.file 5 "../../chibios/os/kernel/include/chlists.h"
 2977              		.file 6 "../../chibios/os/kernel/include/chthreads.h"
 2978              		.file 7 "../../chibios/os/ports/GCC/ARMCMx/chcore_v7m.h"
 2979              		.file 8 "../../chibios/os/kernel/include/chvt.h"
 2980              		.file 9 "../../chibios/os/kernel/include/chsem.h"
 2981              		.file 10 "../../chibios/os/kernel/include/chmtx.h"
 2982              		.file 11 "../../ugfx/src/gos/gos_chibios.h"
 2983              		.file 12 "../../ugfx/src/gdisp/gdisp.h"
 2984              		.file 13 "../../ugfx/src/gevent/gevent.h"
 2985              		.file 14 "../../ugfx/src/gtimer/gtimer.h"
 2986              		.file 15 "../../ugfx/src/gdisp/gdisp_colors.h"
 2987              		.file 16 "../../ugfx/src/ginput/ginput_mouse.h"
 2988              		.file 17 "../../ugfx/src/gdriver/gdriver.h"
 2989              		.file 18 "../../ugfx/src/ginput/ginput_driver_mouse.h"
ARM GAS  C:\Users\Elis\AppData\Local\Temp\ccIy8Y2d.s 			page 54


 2990              		.file 19 "../../chibios/os/ports/common/ARMCMx/CMSIS/include/core_cm4.h"
 2991              		.file 20 "../../ugfx/src/gwin/gwin.h"
 2992              		.section	.debug_info,"",%progbits
 2993              	.Ldebug_info0:
 2994 0000 5C1D0000 		.4byte	0x1d5c
 2995 0004 0200     		.2byte	0x2
 2996 0006 00000000 		.4byte	.Ldebug_abbrev0
 2997 000a 04       		.byte	0x4
 2998 000b 01       		.uleb128 0x1
 2999 000c 1A010000 		.4byte	.LASF211
 3000 0010 01       		.byte	0x1
 3001 0011 31060000 		.4byte	.LASF212
 3002 0015 F7040000 		.4byte	.LASF213
 3003 0019 F0010000 		.4byte	.Ldebug_ranges0+0x1f0
 3004 001d 00000000 		.4byte	0
 3005 0021 00000000 		.4byte	0
 3006 0025 00000000 		.4byte	.Ldebug_line0
 3007 0029 02       		.uleb128 0x2
 3008 002a 04       		.byte	0x4
 3009 002b 05       		.byte	0x5
 3010 002c 696E7400 		.ascii	"int\000"
 3011 0030 03       		.uleb128 0x3
 3012 0031 E8020000 		.4byte	.LASF2
 3013 0035 02       		.byte	0x2
 3014 0036 D5       		.byte	0xd5
 3015 0037 3B000000 		.4byte	0x3b
 3016 003b 04       		.uleb128 0x4
 3017 003c 04       		.byte	0x4
 3018 003d 07       		.byte	0x7
 3019 003e 45070000 		.4byte	.LASF0
 3020 0042 04       		.uleb128 0x4
 3021 0043 01       		.byte	0x1
 3022 0044 06       		.byte	0x6
 3023 0045 2F090000 		.4byte	.LASF1
 3024 0049 03       		.uleb128 0x3
 3025 004a 37040000 		.4byte	.LASF3
 3026 004e 03       		.byte	0x3
 3027 004f 2A       		.byte	0x2a
 3028 0050 54000000 		.4byte	0x54
 3029 0054 04       		.uleb128 0x4
 3030 0055 01       		.byte	0x1
 3031 0056 08       		.byte	0x8
 3032 0057 69080000 		.4byte	.LASF4
 3033 005b 03       		.uleb128 0x3
 3034 005c 68020000 		.4byte	.LASF5
 3035 0060 03       		.byte	0x3
 3036 0061 35       		.byte	0x35
 3037 0062 66000000 		.4byte	0x66
 3038 0066 04       		.uleb128 0x4
 3039 0067 02       		.byte	0x2
 3040 0068 05       		.byte	0x5
 3041 0069 78060000 		.4byte	.LASF6
 3042 006d 03       		.uleb128 0x3
 3043 006e E1050000 		.4byte	.LASF7
 3044 0072 03       		.byte	0x3
 3045 0073 36       		.byte	0x36
 3046 0074 78000000 		.4byte	0x78
ARM GAS  C:\Users\Elis\AppData\Local\Temp\ccIy8Y2d.s 			page 55


 3047 0078 04       		.uleb128 0x4
 3048 0079 02       		.byte	0x2
 3049 007a 07       		.byte	0x7
 3050 007b 5B090000 		.4byte	.LASF8
 3051 007f 03       		.uleb128 0x3
 3052 0080 21080000 		.4byte	.LASF9
 3053 0084 03       		.byte	0x3
 3054 0085 4F       		.byte	0x4f
 3055 0086 8A000000 		.4byte	0x8a
 3056 008a 04       		.uleb128 0x4
 3057 008b 04       		.byte	0x4
 3058 008c 05       		.byte	0x5
 3059 008d F6020000 		.4byte	.LASF10
 3060 0091 03       		.uleb128 0x3
 3061 0092 DD010000 		.4byte	.LASF11
 3062 0096 03       		.byte	0x3
 3063 0097 50       		.byte	0x50
 3064 0098 9C000000 		.4byte	0x9c
 3065 009c 04       		.uleb128 0x4
 3066 009d 04       		.byte	0x4
 3067 009e 07       		.byte	0x7
 3068 009f DA070000 		.4byte	.LASF12
 3069 00a3 04       		.uleb128 0x4
 3070 00a4 08       		.byte	0x8
 3071 00a5 05       		.byte	0x5
 3072 00a6 B4040000 		.4byte	.LASF13
 3073 00aa 04       		.uleb128 0x4
 3074 00ab 08       		.byte	0x8
 3075 00ac 07       		.byte	0x7
 3076 00ad 79020000 		.4byte	.LASF14
 3077 00b1 03       		.uleb128 0x3
 3078 00b2 0E030000 		.4byte	.LASF15
 3079 00b6 04       		.byte	0x4
 3080 00b7 2B       		.byte	0x2b
 3081 00b8 BC000000 		.4byte	0xbc
 3082 00bc 04       		.uleb128 0x4
 3083 00bd 01       		.byte	0x1
 3084 00be 02       		.byte	0x2
 3085 00bf 2B030000 		.4byte	.LASF16
 3086 00c3 03       		.uleb128 0x3
 3087 00c4 AB050000 		.4byte	.LASF17
 3088 00c8 04       		.byte	0x4
 3089 00c9 2C       		.byte	0x2c
 3090 00ca 49000000 		.4byte	0x49
 3091 00ce 03       		.uleb128 0x3
 3092 00cf 46080000 		.4byte	.LASF18
 3093 00d3 04       		.byte	0x4
 3094 00d4 2D       		.byte	0x2d
 3095 00d5 49000000 		.4byte	0x49
 3096 00d9 03       		.uleb128 0x3
 3097 00da C5070000 		.4byte	.LASF19
 3098 00de 04       		.byte	0x4
 3099 00df 2E       		.byte	0x2e
 3100 00e0 49000000 		.4byte	0x49
 3101 00e4 03       		.uleb128 0x3
 3102 00e5 9D060000 		.4byte	.LASF20
 3103 00e9 04       		.byte	0x4
ARM GAS  C:\Users\Elis\AppData\Local\Temp\ccIy8Y2d.s 			page 56


 3104 00ea 2F       		.byte	0x2f
 3105 00eb 49000000 		.4byte	0x49
 3106 00ef 03       		.uleb128 0x3
 3107 00f0 36020000 		.4byte	.LASF21
 3108 00f4 04       		.byte	0x4
 3109 00f5 30       		.byte	0x30
 3110 00f6 91000000 		.4byte	0x91
 3111 00fa 03       		.uleb128 0x3
 3112 00fb C2040000 		.4byte	.LASF22
 3113 00ff 04       		.byte	0x4
 3114 0100 31       		.byte	0x31
 3115 0101 7F000000 		.4byte	0x7f
 3116 0105 03       		.uleb128 0x3
 3117 0106 E6010000 		.4byte	.LASF23
 3118 010a 04       		.byte	0x4
 3119 010b 33       		.byte	0x33
 3120 010c 91000000 		.4byte	0x91
 3121 0110 03       		.uleb128 0x3
 3122 0111 66000000 		.4byte	.LASF24
 3123 0115 04       		.byte	0x4
 3124 0116 35       		.byte	0x35
 3125 0117 91000000 		.4byte	0x91
 3126 011b 03       		.uleb128 0x3
 3127 011c B5020000 		.4byte	.LASF25
 3128 0120 04       		.byte	0x4
 3129 0121 36       		.byte	0x36
 3130 0122 7F000000 		.4byte	0x7f
 3131 0126 03       		.uleb128 0x3
 3132 0127 D1030000 		.4byte	.LASF26
 3133 012b 05       		.byte	0x5
 3134 012c 2A       		.byte	0x2a
 3135 012d 31010000 		.4byte	0x131
 3136 0131 05       		.uleb128 0x5
 3137 0132 D1030000 		.4byte	.LASF26
 3138 0136 48       		.byte	0x48
 3139 0137 06       		.byte	0x6
 3140 0138 5E       		.byte	0x5e
 3141 0139 56020000 		.4byte	0x256
 3142 013d 06       		.uleb128 0x6
 3143 013e D0060000 		.4byte	.LASF27
 3144 0142 06       		.byte	0x6
 3145 0143 5F       		.byte	0x5f
 3146 0144 7B020000 		.4byte	0x27b
 3147 0148 02       		.byte	0x2
 3148 0149 23       		.byte	0x23
 3149 014a 00       		.uleb128 0
 3150 014b 06       		.uleb128 0x6
 3151 014c B5070000 		.4byte	.LASF28
 3152 0150 06       		.byte	0x6
 3153 0151 61       		.byte	0x61
 3154 0152 7B020000 		.4byte	0x27b
 3155 0156 02       		.byte	0x2
 3156 0157 23       		.byte	0x23
 3157 0158 04       		.uleb128 0x4
 3158 0159 06       		.uleb128 0x6
 3159 015a 39000000 		.4byte	.LASF29
 3160 015e 06       		.byte	0x6
ARM GAS  C:\Users\Elis\AppData\Local\Temp\ccIy8Y2d.s 			page 57


 3161 015f 63       		.byte	0x63
 3162 0160 EF000000 		.4byte	0xef
 3163 0164 02       		.byte	0x2
 3164 0165 23       		.byte	0x23
 3165 0166 08       		.uleb128 0x8
 3166 0167 06       		.uleb128 0x6
 3167 0168 D7060000 		.4byte	.LASF30
 3168 016c 06       		.byte	0x6
 3169 016d 64       		.byte	0x64
 3170 016e 49030000 		.4byte	0x349
 3171 0172 02       		.byte	0x2
 3172 0173 23       		.byte	0x23
 3173 0174 0C       		.uleb128 0xc
 3174 0175 06       		.uleb128 0x6
 3175 0176 D1020000 		.4byte	.LASF31
 3176 017a 06       		.byte	0x6
 3177 017b 66       		.byte	0x66
 3178 017c 7B020000 		.4byte	0x27b
 3179 0180 02       		.byte	0x2
 3180 0181 23       		.byte	0x23
 3181 0182 10       		.uleb128 0x10
 3182 0183 06       		.uleb128 0x6
 3183 0184 11040000 		.4byte	.LASF32
 3184 0188 06       		.byte	0x6
 3185 0189 67       		.byte	0x67
 3186 018a 7B020000 		.4byte	0x27b
 3187 018e 02       		.byte	0x2
 3188 018f 23       		.byte	0x23
 3189 0190 14       		.uleb128 0x14
 3190 0191 06       		.uleb128 0x6
 3191 0192 7A030000 		.4byte	.LASF33
 3192 0196 06       		.byte	0x6
 3193 0197 6E       		.byte	0x6e
 3194 0198 F6040000 		.4byte	0x4f6
 3195 019c 02       		.byte	0x2
 3196 019d 23       		.byte	0x23
 3197 019e 18       		.uleb128 0x18
 3198 019f 06       		.uleb128 0x6
 3199 01a0 19040000 		.4byte	.LASF34
 3200 01a4 06       		.byte	0x6
 3201 01a5 79       		.byte	0x79
 3202 01a6 CE000000 		.4byte	0xce
 3203 01aa 02       		.byte	0x2
 3204 01ab 23       		.byte	0x23
 3205 01ac 1C       		.uleb128 0x1c
 3206 01ad 06       		.uleb128 0x6
 3207 01ae E1040000 		.4byte	.LASF35
 3208 01b2 06       		.byte	0x6
 3209 01b3 7D       		.byte	0x7d
 3210 01b4 C3000000 		.4byte	0xc3
 3211 01b8 02       		.byte	0x2
 3212 01b9 23       		.byte	0x23
 3213 01ba 1D       		.uleb128 0x1d
 3214 01bb 06       		.uleb128 0x6
 3215 01bc 82080000 		.4byte	.LASF36
 3216 01c0 06       		.byte	0x6
 3217 01c1 82       		.byte	0x82
ARM GAS  C:\Users\Elis\AppData\Local\Temp\ccIy8Y2d.s 			page 58


 3218 01c2 D9000000 		.4byte	0xd9
 3219 01c6 02       		.byte	0x2
 3220 01c7 23       		.byte	0x23
 3221 01c8 1E       		.uleb128 0x1e
 3222 01c9 06       		.uleb128 0x6
 3223 01ca BB080000 		.4byte	.LASF37
 3224 01ce 06       		.byte	0x6
 3225 01cf 88       		.byte	0x88
 3226 01d0 E4000000 		.4byte	0xe4
 3227 01d4 02       		.byte	0x2
 3228 01d5 23       		.byte	0x23
 3229 01d6 1F       		.uleb128 0x1f
 3230 01d7 06       		.uleb128 0x6
 3231 01d8 32000000 		.4byte	.LASF38
 3232 01dc 06       		.byte	0x6
 3233 01dd 8F       		.byte	0x8f
 3234 01de 35040000 		.4byte	0x435
 3235 01e2 02       		.byte	0x2
 3236 01e3 23       		.byte	0x23
 3237 01e4 20       		.uleb128 0x20
 3238 01e5 07       		.uleb128 0x7
 3239 01e6 705F7500 		.ascii	"p_u\000"
 3240 01ea 06       		.byte	0x6
 3241 01eb B4       		.byte	0xb4
 3242 01ec C1040000 		.4byte	0x4c1
 3243 01f0 02       		.byte	0x2
 3244 01f1 23       		.byte	0x23
 3245 01f2 24       		.uleb128 0x24
 3246 01f3 06       		.uleb128 0x6
 3247 01f4 BC000000 		.4byte	.LASF39
 3248 01f8 06       		.byte	0x6
 3249 01f9 B9       		.byte	0xb9
 3250 01fa A3020000 		.4byte	0x2a3
 3251 01fe 02       		.byte	0x2
 3252 01ff 23       		.byte	0x23
 3253 0200 28       		.uleb128 0x28
 3254 0201 06       		.uleb128 0x6
 3255 0202 8B000000 		.4byte	.LASF40
 3256 0206 06       		.byte	0x6
 3257 0207 BF       		.byte	0xbf
 3258 0208 81020000 		.4byte	0x281
 3259 020c 02       		.byte	0x2
 3260 020d 23       		.byte	0x23
 3261 020e 2C       		.uleb128 0x2c
 3262 020f 06       		.uleb128 0x6
 3263 0210 99050000 		.4byte	.LASF41
 3264 0214 06       		.byte	0x6
 3265 0215 C3       		.byte	0xc3
 3266 0216 FA000000 		.4byte	0xfa
 3267 021a 02       		.byte	0x2
 3268 021b 23       		.byte	0x23
 3269 021c 34       		.uleb128 0x34
 3270 021d 06       		.uleb128 0x6
 3271 021e 82060000 		.4byte	.LASF42
 3272 0222 06       		.byte	0x6
 3273 0223 C9       		.byte	0xc9
 3274 0224 05010000 		.4byte	0x105
ARM GAS  C:\Users\Elis\AppData\Local\Temp\ccIy8Y2d.s 			page 59


 3275 0228 02       		.byte	0x2
 3276 0229 23       		.byte	0x23
 3277 022a 38       		.uleb128 0x38
 3278 022b 06       		.uleb128 0x6
 3279 022c 61040000 		.4byte	.LASF43
 3280 0230 06       		.byte	0x6
 3281 0231 D0       		.byte	0xd0
 3282 0232 08050000 		.4byte	0x508
 3283 0236 02       		.byte	0x2
 3284 0237 23       		.byte	0x23
 3285 0238 3C       		.uleb128 0x3c
 3286 0239 06       		.uleb128 0x6
 3287 023a 60060000 		.4byte	.LASF44
 3288 023e 06       		.byte	0x6
 3289 023f D4       		.byte	0xd4
 3290 0240 EF000000 		.4byte	0xef
 3291 0244 02       		.byte	0x2
 3292 0245 23       		.byte	0x23
 3293 0246 40       		.uleb128 0x40
 3294 0247 06       		.uleb128 0x6
 3295 0248 59040000 		.4byte	.LASF45
 3296 024c 06       		.byte	0x6
 3297 024d DA       		.byte	0xda
 3298 024e B9020000 		.4byte	0x2b9
 3299 0252 02       		.byte	0x2
 3300 0253 23       		.byte	0x23
 3301 0254 44       		.uleb128 0x44
 3302 0255 00       		.byte	0
 3303 0256 08       		.uleb128 0x8
 3304 0257 08       		.byte	0x8
 3305 0258 05       		.byte	0x5
 3306 0259 61       		.byte	0x61
 3307 025a 7B020000 		.4byte	0x27b
 3308 025e 06       		.uleb128 0x6
 3309 025f D0060000 		.4byte	.LASF27
 3310 0263 05       		.byte	0x5
 3311 0264 62       		.byte	0x62
 3312 0265 7B020000 		.4byte	0x27b
 3313 0269 02       		.byte	0x2
 3314 026a 23       		.byte	0x23
 3315 026b 00       		.uleb128 0
 3316 026c 06       		.uleb128 0x6
 3317 026d B5070000 		.4byte	.LASF28
 3318 0271 05       		.byte	0x5
 3319 0272 64       		.byte	0x64
 3320 0273 7B020000 		.4byte	0x27b
 3321 0277 02       		.byte	0x2
 3322 0278 23       		.byte	0x23
 3323 0279 04       		.uleb128 0x4
 3324 027a 00       		.byte	0
 3325 027b 09       		.uleb128 0x9
 3326 027c 04       		.byte	0x4
 3327 027d 26010000 		.4byte	0x126
 3328 0281 03       		.uleb128 0x3
 3329 0282 A7030000 		.4byte	.LASF46
 3330 0286 05       		.byte	0x5
 3331 0287 66       		.byte	0x66
ARM GAS  C:\Users\Elis\AppData\Local\Temp\ccIy8Y2d.s 			page 60


 3332 0288 56020000 		.4byte	0x256
 3333 028c 08       		.uleb128 0x8
 3334 028d 04       		.byte	0x4
 3335 028e 05       		.byte	0x5
 3336 028f 6B       		.byte	0x6b
 3337 0290 A3020000 		.4byte	0x2a3
 3338 0294 06       		.uleb128 0x6
 3339 0295 D0060000 		.4byte	.LASF27
 3340 0299 05       		.byte	0x5
 3341 029a 6D       		.byte	0x6d
 3342 029b 7B020000 		.4byte	0x27b
 3343 029f 02       		.byte	0x2
 3344 02a0 23       		.byte	0x23
 3345 02a1 00       		.uleb128 0
 3346 02a2 00       		.byte	0
 3347 02a3 03       		.uleb128 0x3
 3348 02a4 E4090000 		.4byte	.LASF47
 3349 02a8 05       		.byte	0x5
 3350 02a9 70       		.byte	0x70
 3351 02aa 8C020000 		.4byte	0x28c
 3352 02ae 03       		.uleb128 0x3
 3353 02af 9D040000 		.4byte	.LASF48
 3354 02b3 07       		.byte	0x7
 3355 02b4 E5       		.byte	0xe5
 3356 02b5 B9020000 		.4byte	0x2b9
 3357 02b9 0A       		.uleb128 0xa
 3358 02ba 04       		.byte	0x4
 3359 02bb 0B       		.uleb128 0xb
 3360 02bc FF050000 		.4byte	.LASF49
 3361 02c0 24       		.byte	0x24
 3362 02c1 07       		.byte	0x7
 3363 02c2 0C01     		.2byte	0x10c
 3364 02c4 49030000 		.4byte	0x349
 3365 02c8 0C       		.uleb128 0xc
 3366 02c9 723400   		.ascii	"r4\000"
 3367 02cc 07       		.byte	0x7
 3368 02cd 1F01     		.2byte	0x11f
 3369 02cf AE020000 		.4byte	0x2ae
 3370 02d3 02       		.byte	0x2
 3371 02d4 23       		.byte	0x23
 3372 02d5 00       		.uleb128 0
 3373 02d6 0C       		.uleb128 0xc
 3374 02d7 723500   		.ascii	"r5\000"
 3375 02da 07       		.byte	0x7
 3376 02db 2001     		.2byte	0x120
 3377 02dd AE020000 		.4byte	0x2ae
 3378 02e1 02       		.byte	0x2
 3379 02e2 23       		.byte	0x23
 3380 02e3 04       		.uleb128 0x4
 3381 02e4 0C       		.uleb128 0xc
 3382 02e5 723600   		.ascii	"r6\000"
 3383 02e8 07       		.byte	0x7
 3384 02e9 2101     		.2byte	0x121
 3385 02eb AE020000 		.4byte	0x2ae
 3386 02ef 02       		.byte	0x2
 3387 02f0 23       		.byte	0x23
 3388 02f1 08       		.uleb128 0x8
ARM GAS  C:\Users\Elis\AppData\Local\Temp\ccIy8Y2d.s 			page 61


 3389 02f2 0C       		.uleb128 0xc
 3390 02f3 723700   		.ascii	"r7\000"
 3391 02f6 07       		.byte	0x7
 3392 02f7 2201     		.2byte	0x122
 3393 02f9 AE020000 		.4byte	0x2ae
 3394 02fd 02       		.byte	0x2
 3395 02fe 23       		.byte	0x23
 3396 02ff 0C       		.uleb128 0xc
 3397 0300 0C       		.uleb128 0xc
 3398 0301 723800   		.ascii	"r8\000"
 3399 0304 07       		.byte	0x7
 3400 0305 2301     		.2byte	0x123
 3401 0307 AE020000 		.4byte	0x2ae
 3402 030b 02       		.byte	0x2
 3403 030c 23       		.byte	0x23
 3404 030d 10       		.uleb128 0x10
 3405 030e 0C       		.uleb128 0xc
 3406 030f 723900   		.ascii	"r9\000"
 3407 0312 07       		.byte	0x7
 3408 0313 2401     		.2byte	0x124
 3409 0315 AE020000 		.4byte	0x2ae
 3410 0319 02       		.byte	0x2
 3411 031a 23       		.byte	0x23
 3412 031b 14       		.uleb128 0x14
 3413 031c 0C       		.uleb128 0xc
 3414 031d 72313000 		.ascii	"r10\000"
 3415 0321 07       		.byte	0x7
 3416 0322 2501     		.2byte	0x125
 3417 0324 AE020000 		.4byte	0x2ae
 3418 0328 02       		.byte	0x2
 3419 0329 23       		.byte	0x23
 3420 032a 18       		.uleb128 0x18
 3421 032b 0C       		.uleb128 0xc
 3422 032c 72313100 		.ascii	"r11\000"
 3423 0330 07       		.byte	0x7
 3424 0331 2601     		.2byte	0x126
 3425 0333 AE020000 		.4byte	0x2ae
 3426 0337 02       		.byte	0x2
 3427 0338 23       		.byte	0x23
 3428 0339 1C       		.uleb128 0x1c
 3429 033a 0C       		.uleb128 0xc
 3430 033b 6C7200   		.ascii	"lr\000"
 3431 033e 07       		.byte	0x7
 3432 033f 2701     		.2byte	0x127
 3433 0341 AE020000 		.4byte	0x2ae
 3434 0345 02       		.byte	0x2
 3435 0346 23       		.byte	0x23
 3436 0347 20       		.uleb128 0x20
 3437 0348 00       		.byte	0
 3438 0349 0B       		.uleb128 0xb
 3439 034a C8040000 		.4byte	.LASF50
 3440 034e 04       		.byte	0x4
 3441 034f 07       		.byte	0x7
 3442 0350 3101     		.2byte	0x131
 3443 0352 66030000 		.4byte	0x366
 3444 0356 0C       		.uleb128 0xc
 3445 0357 72313300 		.ascii	"r13\000"
ARM GAS  C:\Users\Elis\AppData\Local\Temp\ccIy8Y2d.s 			page 62


 3446 035b 07       		.byte	0x7
 3447 035c 3201     		.2byte	0x132
 3448 035e 66030000 		.4byte	0x366
 3449 0362 02       		.byte	0x2
 3450 0363 23       		.byte	0x23
 3451 0364 00       		.uleb128 0
 3452 0365 00       		.byte	0
 3453 0366 09       		.uleb128 0x9
 3454 0367 04       		.byte	0x4
 3455 0368 BB020000 		.4byte	0x2bb
 3456 036c 04       		.uleb128 0x4
 3457 036d 04       		.byte	0x4
 3458 036e 07       		.byte	0x7
 3459 036f BC070000 		.4byte	.LASF51
 3460 0373 03       		.uleb128 0x3
 3461 0374 00000000 		.4byte	.LASF52
 3462 0378 08       		.byte	0x8
 3463 0379 58       		.byte	0x58
 3464 037a 7E030000 		.4byte	0x37e
 3465 037e 09       		.uleb128 0x9
 3466 037f 04       		.byte	0x4
 3467 0380 84030000 		.4byte	0x384
 3468 0384 0D       		.uleb128 0xd
 3469 0385 01       		.byte	0x1
 3470 0386 90030000 		.4byte	0x390
 3471 038a 0E       		.uleb128 0xe
 3472 038b B9020000 		.4byte	0x2b9
 3473 038f 00       		.byte	0
 3474 0390 03       		.uleb128 0x3
 3475 0391 CD070000 		.4byte	.LASF53
 3476 0395 08       		.byte	0x8
 3477 0396 5D       		.byte	0x5d
 3478 0397 9B030000 		.4byte	0x39b
 3479 039b 05       		.uleb128 0x5
 3480 039c CD070000 		.4byte	.LASF53
 3481 03a0 14       		.byte	0x14
 3482 03a1 08       		.byte	0x8
 3483 03a2 64       		.byte	0x64
 3484 03a3 EE030000 		.4byte	0x3ee
 3485 03a7 06       		.uleb128 0x6
 3486 03a8 FC080000 		.4byte	.LASF54
 3487 03ac 08       		.byte	0x8
 3488 03ad 65       		.byte	0x65
 3489 03ae EE030000 		.4byte	0x3ee
 3490 03b2 02       		.byte	0x2
 3491 03b3 23       		.byte	0x23
 3492 03b4 00       		.uleb128 0
 3493 03b5 06       		.uleb128 0x6
 3494 03b6 94090000 		.4byte	.LASF55
 3495 03ba 08       		.byte	0x8
 3496 03bb 67       		.byte	0x67
 3497 03bc EE030000 		.4byte	0x3ee
 3498 03c0 02       		.byte	0x2
 3499 03c1 23       		.byte	0x23
 3500 03c2 04       		.uleb128 0x4
 3501 03c3 06       		.uleb128 0x6
 3502 03c4 D5010000 		.4byte	.LASF56
ARM GAS  C:\Users\Elis\AppData\Local\Temp\ccIy8Y2d.s 			page 63


 3503 03c8 08       		.byte	0x8
 3504 03c9 69       		.byte	0x69
 3505 03ca 10010000 		.4byte	0x110
 3506 03ce 02       		.byte	0x2
 3507 03cf 23       		.byte	0x23
 3508 03d0 08       		.uleb128 0x8
 3509 03d1 06       		.uleb128 0x6
 3510 03d2 8C090000 		.4byte	.LASF57
 3511 03d6 08       		.byte	0x8
 3512 03d7 6A       		.byte	0x6a
 3513 03d8 73030000 		.4byte	0x373
 3514 03dc 02       		.byte	0x2
 3515 03dd 23       		.byte	0x23
 3516 03de 0C       		.uleb128 0xc
 3517 03df 06       		.uleb128 0x6
 3518 03e0 07020000 		.4byte	.LASF58
 3519 03e4 08       		.byte	0x8
 3520 03e5 6C       		.byte	0x6c
 3521 03e6 B9020000 		.4byte	0x2b9
 3522 03ea 02       		.byte	0x2
 3523 03eb 23       		.byte	0x23
 3524 03ec 10       		.uleb128 0x10
 3525 03ed 00       		.byte	0
 3526 03ee 09       		.uleb128 0x9
 3527 03ef 04       		.byte	0x4
 3528 03f0 90030000 		.4byte	0x390
 3529 03f4 08       		.uleb128 0x8
 3530 03f5 10       		.byte	0x10
 3531 03f6 08       		.byte	0x8
 3532 03f7 76       		.byte	0x76
 3533 03f8 35040000 		.4byte	0x435
 3534 03fc 06       		.uleb128 0x6
 3535 03fd FC080000 		.4byte	.LASF54
 3536 0401 08       		.byte	0x8
 3537 0402 77       		.byte	0x77
 3538 0403 EE030000 		.4byte	0x3ee
 3539 0407 02       		.byte	0x2
 3540 0408 23       		.byte	0x23
 3541 0409 00       		.uleb128 0
 3542 040a 06       		.uleb128 0x6
 3543 040b 94090000 		.4byte	.LASF55
 3544 040f 08       		.byte	0x8
 3545 0410 79       		.byte	0x79
 3546 0411 EE030000 		.4byte	0x3ee
 3547 0415 02       		.byte	0x2
 3548 0416 23       		.byte	0x23
 3549 0417 04       		.uleb128 0x4
 3550 0418 06       		.uleb128 0x6
 3551 0419 D5010000 		.4byte	.LASF56
 3552 041d 08       		.byte	0x8
 3553 041e 7B       		.byte	0x7b
 3554 041f 10010000 		.4byte	0x110
 3555 0423 02       		.byte	0x2
 3556 0424 23       		.byte	0x23
 3557 0425 08       		.uleb128 0x8
 3558 0426 06       		.uleb128 0x6
 3559 0427 80000000 		.4byte	.LASF59
ARM GAS  C:\Users\Elis\AppData\Local\Temp\ccIy8Y2d.s 			page 64


 3560 042b 08       		.byte	0x8
 3561 042c 7C       		.byte	0x7c
 3562 042d 35040000 		.4byte	0x435
 3563 0431 02       		.byte	0x2
 3564 0432 23       		.byte	0x23
 3565 0433 0C       		.uleb128 0xc
 3566 0434 00       		.byte	0
 3567 0435 0F       		.uleb128 0xf
 3568 0436 10010000 		.4byte	0x110
 3569 043a 03       		.uleb128 0x3
 3570 043b ED030000 		.4byte	.LASF60
 3571 043f 08       		.byte	0x8
 3572 0440 7D       		.byte	0x7d
 3573 0441 F4030000 		.4byte	0x3f4
 3574 0445 05       		.uleb128 0x5
 3575 0446 66050000 		.4byte	.LASF61
 3576 044a 0C       		.byte	0xc
 3577 044b 09       		.byte	0x9
 3578 044c 2C       		.byte	0x2c
 3579 044d 6E040000 		.4byte	0x46e
 3580 0451 06       		.uleb128 0x6
 3581 0452 78000000 		.4byte	.LASF62
 3582 0456 09       		.byte	0x9
 3583 0457 2D       		.byte	0x2d
 3584 0458 81020000 		.4byte	0x281
 3585 045c 02       		.byte	0x2
 3586 045d 23       		.byte	0x23
 3587 045e 00       		.uleb128 0
 3588 045f 06       		.uleb128 0x6
 3589 0460 A2010000 		.4byte	.LASF63
 3590 0464 09       		.byte	0x9
 3591 0465 2F       		.byte	0x2f
 3592 0466 1B010000 		.4byte	0x11b
 3593 046a 02       		.byte	0x2
 3594 046b 23       		.byte	0x23
 3595 046c 08       		.uleb128 0x8
 3596 046d 00       		.byte	0
 3597 046e 03       		.uleb128 0x3
 3598 046f 66050000 		.4byte	.LASF61
 3599 0473 09       		.byte	0x9
 3600 0474 30       		.byte	0x30
 3601 0475 45040000 		.4byte	0x445
 3602 0479 05       		.uleb128 0x5
 3603 047a 5B030000 		.4byte	.LASF64
 3604 047e 10       		.byte	0x10
 3605 047f 0A       		.byte	0xa
 3606 0480 2C       		.byte	0x2c
 3607 0481 B0040000 		.4byte	0x4b0
 3608 0485 06       		.uleb128 0x6
 3609 0486 95060000 		.4byte	.LASF65
 3610 048a 0A       		.byte	0xa
 3611 048b 2D       		.byte	0x2d
 3612 048c 81020000 		.4byte	0x281
 3613 0490 02       		.byte	0x2
 3614 0491 23       		.byte	0x23
 3615 0492 00       		.uleb128 0
 3616 0493 06       		.uleb128 0x6
ARM GAS  C:\Users\Elis\AppData\Local\Temp\ccIy8Y2d.s 			page 65


 3617 0494 70000000 		.4byte	.LASF66
 3618 0498 0A       		.byte	0xa
 3619 0499 2F       		.byte	0x2f
 3620 049a 7B020000 		.4byte	0x27b
 3621 049e 02       		.byte	0x2
 3622 049f 23       		.byte	0x23
 3623 04a0 08       		.uleb128 0x8
 3624 04a1 06       		.uleb128 0x6
 3625 04a2 13090000 		.4byte	.LASF67
 3626 04a6 0A       		.byte	0xa
 3627 04a7 31       		.byte	0x31
 3628 04a8 B0040000 		.4byte	0x4b0
 3629 04ac 02       		.byte	0x2
 3630 04ad 23       		.byte	0x23
 3631 04ae 0C       		.uleb128 0xc
 3632 04af 00       		.byte	0
 3633 04b0 09       		.uleb128 0x9
 3634 04b1 04       		.byte	0x4
 3635 04b2 79040000 		.4byte	0x479
 3636 04b6 03       		.uleb128 0x3
 3637 04b7 5B030000 		.4byte	.LASF64
 3638 04bb 0A       		.byte	0xa
 3639 04bc 33       		.byte	0x33
 3640 04bd 79040000 		.4byte	0x479
 3641 04c1 10       		.uleb128 0x10
 3642 04c2 04       		.byte	0x4
 3643 04c3 06       		.byte	0x6
 3644 04c4 96       		.byte	0x96
 3645 04c5 F6040000 		.4byte	0x4f6
 3646 04c9 11       		.uleb128 0x11
 3647 04ca EF020000 		.4byte	.LASF68
 3648 04ce 06       		.byte	0x6
 3649 04cf 9D       		.byte	0x9d
 3650 04d0 FA000000 		.4byte	0xfa
 3651 04d4 11       		.uleb128 0x11
 3652 04d5 D3090000 		.4byte	.LASF69
 3653 04d9 06       		.byte	0x6
 3654 04da A4       		.byte	0xa4
 3655 04db FA000000 		.4byte	0xfa
 3656 04df 11       		.uleb128 0x11
 3657 04e0 DA000000 		.4byte	.LASF70
 3658 04e4 06       		.byte	0x6
 3659 04e5 AB       		.byte	0xab
 3660 04e6 B9020000 		.4byte	0x2b9
 3661 04ea 11       		.uleb128 0x11
 3662 04eb DD080000 		.4byte	.LASF71
 3663 04ef 06       		.byte	0x6
 3664 04f0 B2       		.byte	0xb2
 3665 04f1 05010000 		.4byte	0x105
 3666 04f5 00       		.byte	0
 3667 04f6 09       		.uleb128 0x9
 3668 04f7 04       		.byte	0x4
 3669 04f8 FC040000 		.4byte	0x4fc
 3670 04fc 12       		.uleb128 0x12
 3671 04fd 01050000 		.4byte	0x501
 3672 0501 04       		.uleb128 0x4
 3673 0502 01       		.byte	0x1
ARM GAS  C:\Users\Elis\AppData\Local\Temp\ccIy8Y2d.s 			page 66


 3674 0503 08       		.byte	0x8
 3675 0504 C2030000 		.4byte	.LASF72
 3676 0508 09       		.uleb128 0x9
 3677 0509 04       		.byte	0x4
 3678 050a B6040000 		.4byte	0x4b6
 3679 050e 0F       		.uleb128 0xf
 3680 050f 7F000000 		.4byte	0x7f
 3681 0513 03       		.uleb128 0x3
 3682 0514 F8000000 		.4byte	.LASF73
 3683 0518 0B       		.byte	0xb
 3684 0519 2E       		.byte	0x2e
 3685 051a 10010000 		.4byte	0x110
 3686 051e 03       		.uleb128 0x3
 3687 051f 48020000 		.4byte	.LASF74
 3688 0523 0B       		.byte	0xb
 3689 0524 2F       		.byte	0x2f
 3690 0525 10010000 		.4byte	0x110
 3691 0529 03       		.uleb128 0x3
 3692 052a 1F050000 		.4byte	.LASF75
 3693 052e 0B       		.byte	0xb
 3694 052f 30       		.byte	0x30
 3695 0530 1B010000 		.4byte	0x11b
 3696 0534 08       		.uleb128 0x8
 3697 0535 10       		.byte	0x10
 3698 0536 0B       		.byte	0xb
 3699 0537 3D       		.byte	0x3d
 3700 0538 59050000 		.4byte	0x559
 3701 053c 07       		.uleb128 0x7
 3702 053d 73656D00 		.ascii	"sem\000"
 3703 0541 0B       		.byte	0xb
 3704 0542 3E       		.byte	0x3e
 3705 0543 6E040000 		.4byte	0x46e
 3706 0547 02       		.byte	0x2
 3707 0548 23       		.byte	0x23
 3708 0549 00       		.uleb128 0
 3709 054a 06       		.uleb128 0x6
 3710 054b BB020000 		.4byte	.LASF76
 3711 054f 0B       		.byte	0xb
 3712 0550 3F       		.byte	0x3f
 3713 0551 29050000 		.4byte	0x529
 3714 0555 02       		.byte	0x2
 3715 0556 23       		.byte	0x23
 3716 0557 0C       		.uleb128 0xc
 3717 0558 00       		.byte	0
 3718 0559 03       		.uleb128 0x3
 3719 055a 14020000 		.4byte	.LASF77
 3720 055e 0B       		.byte	0xb
 3721 055f 40       		.byte	0x40
 3722 0560 34050000 		.4byte	0x534
 3723 0564 05       		.uleb128 0x5
 3724 0565 86090000 		.4byte	.LASF78
 3725 0569 04       		.byte	0x4
 3726 056a 0C       		.byte	0xc
 3727 056b 32       		.byte	0x32
 3728 056c 89050000 		.4byte	0x589
 3729 0570 07       		.uleb128 0x7
 3730 0571 7800     		.ascii	"x\000"
ARM GAS  C:\Users\Elis\AppData\Local\Temp\ccIy8Y2d.s 			page 67


 3731 0573 0C       		.byte	0xc
 3732 0574 32       		.byte	0x32
 3733 0575 60070000 		.4byte	0x760
 3734 0579 02       		.byte	0x2
 3735 057a 23       		.byte	0x23
 3736 057b 00       		.uleb128 0
 3737 057c 07       		.uleb128 0x7
 3738 057d 7900     		.ascii	"y\000"
 3739 057f 0C       		.byte	0xc
 3740 0580 32       		.byte	0x32
 3741 0581 60070000 		.4byte	0x760
 3742 0585 02       		.byte	0x2
 3743 0586 23       		.byte	0x23
 3744 0587 02       		.uleb128 0x2
 3745 0588 00       		.byte	0
 3746 0589 03       		.uleb128 0x3
 3747 058a 88040000 		.4byte	.LASF79
 3748 058e 0D       		.byte	0xd
 3749 058f 21       		.byte	0x21
 3750 0590 6D000000 		.4byte	0x6d
 3751 0594 13       		.uleb128 0x13
 3752 0595 4F080000 		.4byte	.LASF214
 3753 0599 20       		.byte	0x20
 3754 059a 0D       		.byte	0xd
 3755 059b 30       		.byte	0x30
 3756 059c B7050000 		.4byte	0x5b7
 3757 05a0 11       		.uleb128 0x11
 3758 05a1 58080000 		.4byte	.LASF80
 3759 05a5 0D       		.byte	0xd
 3760 05a6 31       		.byte	0x31
 3761 05a7 89050000 		.4byte	0x589
 3762 05ab 14       		.uleb128 0x14
 3763 05ac 70616400 		.ascii	"pad\000"
 3764 05b0 0D       		.byte	0xd
 3765 05b1 32       		.byte	0x32
 3766 05b2 B7050000 		.4byte	0x5b7
 3767 05b6 00       		.byte	0
 3768 05b7 15       		.uleb128 0x15
 3769 05b8 01050000 		.4byte	0x501
 3770 05bc C7050000 		.4byte	0x5c7
 3771 05c0 16       		.uleb128 0x16
 3772 05c1 6C030000 		.4byte	0x36c
 3773 05c5 1F       		.byte	0x1f
 3774 05c6 00       		.byte	0
 3775 05c7 03       		.uleb128 0x3
 3776 05c8 7F090000 		.4byte	.LASF81
 3777 05cc 0D       		.byte	0xd
 3778 05cd 33       		.byte	0x33
 3779 05ce 94050000 		.4byte	0x594
 3780 05d2 03       		.uleb128 0x3
 3781 05d3 4A090000 		.4byte	.LASF82
 3782 05d7 0D       		.byte	0xd
 3783 05d8 36       		.byte	0x36
 3784 05d9 DD050000 		.4byte	0x5dd
 3785 05dd 09       		.uleb128 0x9
 3786 05de 04       		.byte	0x4
 3787 05df E3050000 		.4byte	0x5e3
ARM GAS  C:\Users\Elis\AppData\Local\Temp\ccIy8Y2d.s 			page 68


 3788 05e3 0D       		.uleb128 0xd
 3789 05e4 01       		.byte	0x1
 3790 05e5 F4050000 		.4byte	0x5f4
 3791 05e9 0E       		.uleb128 0xe
 3792 05ea B9020000 		.4byte	0x2b9
 3793 05ee 0E       		.uleb128 0xe
 3794 05ef F4050000 		.4byte	0x5f4
 3795 05f3 00       		.byte	0
 3796 05f4 09       		.uleb128 0x9
 3797 05f5 04       		.byte	0x4
 3798 05f6 C7050000 		.4byte	0x5c7
 3799 05fa 05       		.uleb128 0x5
 3800 05fb C7030000 		.4byte	.LASF83
 3801 05ff 3C       		.byte	0x3c
 3802 0600 0D       		.byte	0xd
 3803 0601 39       		.byte	0x39
 3804 0602 4D060000 		.4byte	0x64d
 3805 0606 06       		.uleb128 0x6
 3806 0607 04010000 		.4byte	.LASF84
 3807 060b 0D       		.byte	0xd
 3808 060c 3A       		.byte	0x3a
 3809 060d 59050000 		.4byte	0x559
 3810 0611 02       		.byte	0x2
 3811 0612 23       		.byte	0x23
 3812 0613 00       		.uleb128 0
 3813 0614 06       		.uleb128 0x6
 3814 0615 60000000 		.4byte	.LASF85
 3815 0619 0D       		.byte	0xd
 3816 061a 3B       		.byte	0x3b
 3817 061b 6D000000 		.4byte	0x6d
 3818 061f 02       		.byte	0x2
 3819 0620 23       		.byte	0x23
 3820 0621 10       		.uleb128 0x10
 3821 0622 06       		.uleb128 0x6
 3822 0623 F3080000 		.4byte	.LASF86
 3823 0627 0D       		.byte	0xd
 3824 0628 3C       		.byte	0x3c
 3825 0629 D2050000 		.4byte	0x5d2
 3826 062d 02       		.byte	0x2
 3827 062e 23       		.byte	0x23
 3828 062f 14       		.uleb128 0x14
 3829 0630 06       		.uleb128 0x6
 3830 0631 56050000 		.4byte	.LASF87
 3831 0635 0D       		.byte	0xd
 3832 0636 3D       		.byte	0x3d
 3833 0637 B9020000 		.4byte	0x2b9
 3834 063b 02       		.byte	0x2
 3835 063c 23       		.byte	0x23
 3836 063d 18       		.uleb128 0x18
 3837 063e 06       		.uleb128 0x6
 3838 063f 1B020000 		.4byte	.LASF88
 3839 0643 0D       		.byte	0xd
 3840 0644 3E       		.byte	0x3e
 3841 0645 C7050000 		.4byte	0x5c7
 3842 0649 02       		.byte	0x2
 3843 064a 23       		.byte	0x23
 3844 064b 1C       		.uleb128 0x1c
ARM GAS  C:\Users\Elis\AppData\Local\Temp\ccIy8Y2d.s 			page 69


 3845 064c 00       		.byte	0
 3846 064d 03       		.uleb128 0x3
 3847 064e C7030000 		.4byte	.LASF83
 3848 0652 0D       		.byte	0xd
 3849 0653 3F       		.byte	0x3f
 3850 0654 FA050000 		.4byte	0x5fa
 3851 0658 03       		.uleb128 0x3
 3852 0659 DC090000 		.4byte	.LASF89
 3853 065d 0D       		.byte	0xd
 3854 065e 42       		.byte	0x42
 3855 065f 63060000 		.4byte	0x663
 3856 0663 17       		.uleb128 0x17
 3857 0664 96000000 		.4byte	.LASF110
 3858 0668 01       		.byte	0x1
 3859 0669 03       		.uleb128 0x3
 3860 066a 90020000 		.4byte	.LASF90
 3861 066e 0D       		.byte	0xd
 3862 066f 42       		.byte	0x42
 3863 0670 74060000 		.4byte	0x674
 3864 0674 09       		.uleb128 0x9
 3865 0675 04       		.byte	0x4
 3866 0676 63060000 		.4byte	0x663
 3867 067a 05       		.uleb128 0x5
 3868 067b FF030000 		.4byte	.LASF91
 3869 067f 10       		.byte	0x10
 3870 0680 0D       		.byte	0xd
 3871 0681 45       		.byte	0x45
 3872 0682 BF060000 		.4byte	0x6bf
 3873 0686 06       		.uleb128 0x6
 3874 0687 A8010000 		.4byte	.LASF92
 3875 068b 0D       		.byte	0xd
 3876 068c 46       		.byte	0x46
 3877 068d BF060000 		.4byte	0x6bf
 3878 0691 02       		.byte	0x2
 3879 0692 23       		.byte	0x23
 3880 0693 00       		.uleb128 0
 3881 0694 06       		.uleb128 0x6
 3882 0695 29080000 		.4byte	.LASF93
 3883 0699 0D       		.byte	0xd
 3884 069a 47       		.byte	0x47
 3885 069b C5060000 		.4byte	0x6c5
 3886 069f 02       		.byte	0x2
 3887 06a0 23       		.byte	0x23
 3888 06a1 04       		.uleb128 0x4
 3889 06a2 06       		.uleb128 0x6
 3890 06a3 96010000 		.4byte	.LASF94
 3891 06a7 0D       		.byte	0xd
 3892 06a8 48       		.byte	0x48
 3893 06a9 3B000000 		.4byte	0x3b
 3894 06ad 02       		.byte	0x2
 3895 06ae 23       		.byte	0x23
 3896 06af 08       		.uleb128 0x8
 3897 06b0 06       		.uleb128 0x6
 3898 06b1 04090000 		.4byte	.LASF95
 3899 06b5 0D       		.byte	0xd
 3900 06b6 49       		.byte	0x49
 3901 06b7 3B000000 		.4byte	0x3b
ARM GAS  C:\Users\Elis\AppData\Local\Temp\ccIy8Y2d.s 			page 70


 3902 06bb 02       		.byte	0x2
 3903 06bc 23       		.byte	0x23
 3904 06bd 0C       		.uleb128 0xc
 3905 06be 00       		.byte	0
 3906 06bf 09       		.uleb128 0x9
 3907 06c0 04       		.byte	0x4
 3908 06c1 4D060000 		.4byte	0x64d
 3909 06c5 09       		.uleb128 0x9
 3910 06c6 04       		.byte	0x4
 3911 06c7 58060000 		.4byte	0x658
 3912 06cb 03       		.uleb128 0x3
 3913 06cc 7B070000 		.4byte	.LASF96
 3914 06d0 0D       		.byte	0xd
 3915 06d1 4A       		.byte	0x4a
 3916 06d2 7A060000 		.4byte	0x67a
 3917 06d6 03       		.uleb128 0x3
 3918 06d7 8B070000 		.4byte	.LASF97
 3919 06db 0E       		.byte	0xe
 3920 06dc 2F       		.byte	0x2f
 3921 06dd 7E030000 		.4byte	0x37e
 3922 06e1 05       		.uleb128 0x5
 3923 06e2 D8040000 		.4byte	.LASF98
 3924 06e6 1C       		.byte	0x1c
 3925 06e7 0E       		.byte	0xe
 3926 06e8 34       		.byte	0x34
 3927 06e9 4F070000 		.4byte	0x74f
 3928 06ed 07       		.uleb128 0x7
 3929 06ee 666E00   		.ascii	"fn\000"
 3930 06f1 0E       		.byte	0xe
 3931 06f2 35       		.byte	0x35
 3932 06f3 D6060000 		.4byte	0x6d6
 3933 06f7 02       		.byte	0x2
 3934 06f8 23       		.byte	0x23
 3935 06f9 00       		.uleb128 0
 3936 06fa 06       		.uleb128 0x6
 3937 06fb 56050000 		.4byte	.LASF87
 3938 06ff 0E       		.byte	0xe
 3939 0700 36       		.byte	0x36
 3940 0701 B9020000 		.4byte	0x2b9
 3941 0705 02       		.byte	0x2
 3942 0706 23       		.byte	0x23
 3943 0707 04       		.uleb128 0x4
 3944 0708 06       		.uleb128 0x6
 3945 0709 D5000000 		.4byte	.LASF99
 3946 070d 0E       		.byte	0xe
 3947 070e 37       		.byte	0x37
 3948 070f 1E050000 		.4byte	0x51e
 3949 0713 02       		.byte	0x2
 3950 0714 23       		.byte	0x23
 3951 0715 08       		.uleb128 0x8
 3952 0716 06       		.uleb128 0x6
 3953 0717 81040000 		.4byte	.LASF100
 3954 071b 0E       		.byte	0xe
 3955 071c 38       		.byte	0x38
 3956 071d 1E050000 		.4byte	0x51e
 3957 0721 02       		.byte	0x2
 3958 0722 23       		.byte	0x23
ARM GAS  C:\Users\Elis\AppData\Local\Temp\ccIy8Y2d.s 			page 71


 3959 0723 0C       		.uleb128 0xc
 3960 0724 06       		.uleb128 0x6
 3961 0725 60000000 		.4byte	.LASF85
 3962 0729 0E       		.byte	0xe
 3963 072a 39       		.byte	0x39
 3964 072b 6D000000 		.4byte	0x6d
 3965 072f 02       		.byte	0x2
 3966 0730 23       		.byte	0x23
 3967 0731 10       		.uleb128 0x10
 3968 0732 06       		.uleb128 0x6
 3969 0733 B0000000 		.4byte	.LASF101
 3970 0737 0E       		.byte	0xe
 3971 0738 3A       		.byte	0x3a
 3972 0739 4F070000 		.4byte	0x74f
 3973 073d 02       		.byte	0x2
 3974 073e 23       		.byte	0x23
 3975 073f 14       		.uleb128 0x14
 3976 0740 06       		.uleb128 0x6
 3977 0741 15010000 		.4byte	.LASF102
 3978 0745 0E       		.byte	0xe
 3979 0746 3B       		.byte	0x3b
 3980 0747 4F070000 		.4byte	0x74f
 3981 074b 02       		.byte	0x2
 3982 074c 23       		.byte	0x23
 3983 074d 18       		.uleb128 0x18
 3984 074e 00       		.byte	0
 3985 074f 09       		.uleb128 0x9
 3986 0750 04       		.byte	0x4
 3987 0751 E1060000 		.4byte	0x6e1
 3988 0755 03       		.uleb128 0x3
 3989 0756 8F010000 		.4byte	.LASF103
 3990 075a 0E       		.byte	0xe
 3991 075b 3C       		.byte	0x3c
 3992 075c E1060000 		.4byte	0x6e1
 3993 0760 03       		.uleb128 0x3
 3994 0761 B9090000 		.4byte	.LASF104
 3995 0765 0C       		.byte	0xc
 3996 0766 27       		.byte	0x27
 3997 0767 5B000000 		.4byte	0x5b
 3998 076b 18       		.uleb128 0x18
 3999 076c 2D070000 		.4byte	.LASF112
 4000 0770 01       		.byte	0x1
 4001 0771 0C       		.byte	0xc
 4002 0772 36       		.byte	0x36
 4003 0773 8A070000 		.4byte	0x78a
 4004 0777 19       		.uleb128 0x19
 4005 0778 3E050000 		.4byte	.LASF105
 4006 077c 00       		.sleb128 0
 4007 077d 19       		.uleb128 0x19
 4008 077e 70050000 		.4byte	.LASF106
 4009 0782 01       		.sleb128 1
 4010 0783 19       		.uleb128 0x19
 4011 0784 6B060000 		.4byte	.LASF107
 4012 0788 02       		.sleb128 2
 4013 0789 00       		.byte	0
 4014 078a 03       		.uleb128 0x3
 4015 078b C5080000 		.4byte	.LASF108
ARM GAS  C:\Users\Elis\AppData\Local\Temp\ccIy8Y2d.s 			page 72


 4016 078f 0C       		.byte	0xc
 4017 0790 36       		.byte	0x36
 4018 0791 6B070000 		.4byte	0x76b
 4019 0795 03       		.uleb128 0x3
 4020 0796 61030000 		.4byte	.LASF109
 4021 079a 0C       		.byte	0xc
 4022 079b 3E       		.byte	0x3e
 4023 079c A0070000 		.4byte	0x7a0
 4024 07a0 09       		.uleb128 0x9
 4025 07a1 04       		.byte	0x4
 4026 07a2 A6070000 		.4byte	0x7a6
 4027 07a6 12       		.uleb128 0x12
 4028 07a7 AB070000 		.4byte	0x7ab
 4029 07ab 17       		.uleb128 0x17
 4030 07ac 6F010000 		.4byte	.LASF111
 4031 07b0 01       		.byte	0x1
 4032 07b1 18       		.uleb128 0x18
 4033 07b2 63010000 		.4byte	.LASF113
 4034 07b6 02       		.byte	0x2
 4035 07b7 0C       		.byte	0xc
 4036 07b8 44       		.byte	0x44
 4037 07b9 E7070000 		.4byte	0x7e7
 4038 07bd 19       		.uleb128 0x19
 4039 07be FF020000 		.4byte	.LASF114
 4040 07c2 00       		.sleb128 0
 4041 07c3 19       		.uleb128 0x19
 4042 07c4 35070000 		.4byte	.LASF115
 4043 07c8 DA00     		.sleb128 90
 4044 07ca 19       		.uleb128 0x19
 4045 07cb DD060000 		.4byte	.LASF116
 4046 07cf B401     		.sleb128 180
 4047 07d1 19       		.uleb128 0x19
 4048 07d2 4F000000 		.4byte	.LASF117
 4049 07d6 8E02     		.sleb128 270
 4050 07d8 19       		.uleb128 0x19
 4051 07d9 6B040000 		.4byte	.LASF118
 4052 07dd E807     		.sleb128 1000
 4053 07df 19       		.uleb128 0x19
 4054 07e0 FB070000 		.4byte	.LASF119
 4055 07e4 E907     		.sleb128 1001
 4056 07e6 00       		.byte	0
 4057 07e7 03       		.uleb128 0x3
 4058 07e8 B4030000 		.4byte	.LASF120
 4059 07ec 0C       		.byte	0xc
 4060 07ed 44       		.byte	0x44
 4061 07ee B1070000 		.4byte	0x7b1
 4062 07f2 03       		.uleb128 0x3
 4063 07f3 B3050000 		.4byte	.LASF121
 4064 07f7 0C       		.byte	0xc
 4065 07f8 4D       		.byte	0x4d
 4066 07f9 FD070000 		.4byte	0x7fd
 4067 07fd 17       		.uleb128 0x17
 4068 07fe B3050000 		.4byte	.LASF121
 4069 0802 01       		.byte	0x1
 4070 0803 1A       		.uleb128 0x1a
 4071 0804 89080000 		.4byte	.LASF122
 4072 0808 0F       		.byte	0xf
ARM GAS  C:\Users\Elis\AppData\Local\Temp\ccIy8Y2d.s 			page 73


 4073 0809 8C01     		.2byte	0x18c
 4074 080b 6D000000 		.4byte	0x6d
 4075 080f 09       		.uleb128 0x9
 4076 0810 04       		.byte	0x4
 4077 0811 15080000 		.4byte	0x815
 4078 0815 1B       		.uleb128 0x1b
 4079 0816 09       		.uleb128 0x9
 4080 0817 04       		.byte	0x4
 4081 0818 F2070000 		.4byte	0x7f2
 4082 081c 05       		.uleb128 0x5
 4083 081d AB090000 		.4byte	.LASF123
 4084 0821 10       		.byte	0x10
 4085 0822 10       		.byte	0x10
 4086 0823 22       		.byte	0x22
 4087 0824 77080000 		.4byte	0x877
 4088 0828 06       		.uleb128 0x6
 4089 0829 58080000 		.4byte	.LASF80
 4090 082d 10       		.byte	0x10
 4091 082e 23       		.byte	0x23
 4092 082f 89050000 		.4byte	0x589
 4093 0833 02       		.byte	0x2
 4094 0834 23       		.byte	0x23
 4095 0835 00       		.uleb128 0
 4096 0836 07       		.uleb128 0x7
 4097 0837 7800     		.ascii	"x\000"
 4098 0839 10       		.byte	0x10
 4099 083a 24       		.byte	0x24
 4100 083b 60070000 		.4byte	0x760
 4101 083f 02       		.byte	0x2
 4102 0840 23       		.byte	0x23
 4103 0841 02       		.uleb128 0x2
 4104 0842 07       		.uleb128 0x7
 4105 0843 7900     		.ascii	"y\000"
 4106 0845 10       		.byte	0x10
 4107 0846 24       		.byte	0x24
 4108 0847 60070000 		.4byte	0x760
 4109 084b 02       		.byte	0x2
 4110 084c 23       		.byte	0x23
 4111 084d 04       		.uleb128 0x4
 4112 084e 07       		.uleb128 0x7
 4113 084f 7A00     		.ascii	"z\000"
 4114 0851 10       		.byte	0x10
 4115 0852 24       		.byte	0x24
 4116 0853 60070000 		.4byte	0x760
 4117 0857 02       		.byte	0x2
 4118 0858 23       		.byte	0x23
 4119 0859 06       		.uleb128 0x6
 4120 085a 06       		.uleb128 0x6
 4121 085b 29060000 		.4byte	.LASF124
 4122 085f 10       		.byte	0x10
 4123 0860 27       		.byte	0x27
 4124 0861 6D000000 		.4byte	0x6d
 4125 0865 02       		.byte	0x2
 4126 0866 23       		.byte	0x23
 4127 0867 08       		.uleb128 0x8
 4128 0868 06       		.uleb128 0x6
 4129 0869 8D060000 		.4byte	.LASF125
ARM GAS  C:\Users\Elis\AppData\Local\Temp\ccIy8Y2d.s 			page 74


 4130 086d 10       		.byte	0x10
 4131 086e 38       		.byte	0x38
 4132 086f 16080000 		.4byte	0x816
 4133 0873 02       		.byte	0x2
 4134 0874 23       		.byte	0x23
 4135 0875 0C       		.uleb128 0xc
 4136 0876 00       		.byte	0
 4137 0877 03       		.uleb128 0x3
 4138 0878 31030000 		.4byte	.LASF126
 4139 087c 10       		.byte	0x10
 4140 087d 39       		.byte	0x39
 4141 087e 1C080000 		.4byte	0x81c
 4142 0882 05       		.uleb128 0x5
 4143 0883 91050000 		.4byte	.LASF127
 4144 0887 08       		.byte	0x8
 4145 0888 11       		.byte	0x11
 4146 0889 3A       		.byte	0x3a
 4147 088a AB080000 		.4byte	0x8ab
 4148 088e 06       		.uleb128 0x6
 4149 088f AF080000 		.4byte	.LASF128
 4150 0893 11       		.byte	0x11
 4151 0894 3B       		.byte	0x3b
 4152 0895 AB080000 		.4byte	0x8ab
 4153 0899 02       		.byte	0x2
 4154 089a 23       		.byte	0x23
 4155 089b 00       		.uleb128 0
 4156 089c 07       		.uleb128 0x7
 4157 089d 766D7400 		.ascii	"vmt\000"
 4158 08a1 11       		.byte	0x11
 4159 08a2 3C       		.byte	0x3c
 4160 08a3 12090000 		.4byte	0x912
 4161 08a7 02       		.byte	0x2
 4162 08a8 23       		.byte	0x23
 4163 08a9 04       		.uleb128 0x4
 4164 08aa 00       		.byte	0
 4165 08ab 09       		.uleb128 0x9
 4166 08ac 04       		.byte	0x4
 4167 08ad 82080000 		.4byte	0x882
 4168 08b1 05       		.uleb128 0x5
 4169 08b2 77080000 		.4byte	.LASF129
 4170 08b6 14       		.byte	0x14
 4171 08b7 11       		.byte	0x11
 4172 08b8 42       		.byte	0x42
 4173 08b9 12090000 		.4byte	0x912
 4174 08bd 06       		.uleb128 0x6
 4175 08be 58080000 		.4byte	.LASF80
 4176 08c2 11       		.byte	0x11
 4177 08c3 43       		.byte	0x43
 4178 08c4 6D000000 		.4byte	0x6d
 4179 08c8 02       		.byte	0x2
 4180 08c9 23       		.byte	0x23
 4181 08ca 00       		.uleb128 0
 4182 08cb 06       		.uleb128 0x6
 4183 08cc 60000000 		.4byte	.LASF85
 4184 08d0 11       		.byte	0x11
 4185 08d1 44       		.byte	0x44
 4186 08d2 6D000000 		.4byte	0x6d
ARM GAS  C:\Users\Elis\AppData\Local\Temp\ccIy8Y2d.s 			page 75


 4187 08d6 02       		.byte	0x2
 4188 08d7 23       		.byte	0x23
 4189 08d8 02       		.uleb128 0x2
 4190 08d9 06       		.uleb128 0x6
 4191 08da 9E020000 		.4byte	.LASF130
 4192 08de 11       		.byte	0x11
 4193 08df 45       		.byte	0x45
 4194 08e0 91000000 		.4byte	0x91
 4195 08e4 02       		.byte	0x2
 4196 08e5 23       		.byte	0x23
 4197 08e6 04       		.uleb128 0x4
 4198 08e7 06       		.uleb128 0x6
 4199 08e8 B0070000 		.4byte	.LASF131
 4200 08ec 11       		.byte	0x11
 4201 08ed 46       		.byte	0x46
 4202 08ee 4D090000 		.4byte	0x94d
 4203 08f2 02       		.byte	0x2
 4204 08f3 23       		.byte	0x23
 4205 08f4 08       		.uleb128 0x8
 4206 08f5 06       		.uleb128 0x6
 4207 08f6 90030000 		.4byte	.LASF132
 4208 08fa 11       		.byte	0x11
 4209 08fb 4A       		.byte	0x4a
 4210 08fc 5F090000 		.4byte	0x95f
 4211 0900 02       		.byte	0x2
 4212 0901 23       		.byte	0x23
 4213 0902 0C       		.uleb128 0xc
 4214 0903 06       		.uleb128 0x6
 4215 0904 B5000000 		.4byte	.LASF133
 4216 0908 11       		.byte	0x11
 4217 0909 4B       		.byte	0x4b
 4218 090a 5F090000 		.4byte	0x95f
 4219 090e 02       		.byte	0x2
 4220 090f 23       		.byte	0x23
 4221 0910 10       		.uleb128 0x10
 4222 0911 00       		.byte	0
 4223 0912 09       		.uleb128 0x9
 4224 0913 04       		.byte	0x4
 4225 0914 18090000 		.4byte	0x918
 4226 0918 12       		.uleb128 0x12
 4227 0919 B1080000 		.4byte	0x8b1
 4228 091d 03       		.uleb128 0x3
 4229 091e 91050000 		.4byte	.LASF127
 4230 0922 11       		.byte	0x11
 4231 0923 3D       		.byte	0x3d
 4232 0924 82080000 		.4byte	0x882
 4233 0928 1C       		.uleb128 0x1c
 4234 0929 01       		.byte	0x1
 4235 092a B1000000 		.4byte	0xb1
 4236 092e 47090000 		.4byte	0x947
 4237 0932 0E       		.uleb128 0xe
 4238 0933 47090000 		.4byte	0x947
 4239 0937 0E       		.uleb128 0xe
 4240 0938 B9020000 		.4byte	0x2b9
 4241 093c 0E       		.uleb128 0xe
 4242 093d 3B000000 		.4byte	0x3b
 4243 0941 0E       		.uleb128 0xe
ARM GAS  C:\Users\Elis\AppData\Local\Temp\ccIy8Y2d.s 			page 76


 4244 0942 3B000000 		.4byte	0x3b
 4245 0946 00       		.byte	0
 4246 0947 09       		.uleb128 0x9
 4247 0948 04       		.byte	0x4
 4248 0949 1D090000 		.4byte	0x91d
 4249 094d 09       		.uleb128 0x9
 4250 094e 04       		.byte	0x4
 4251 094f 28090000 		.4byte	0x928
 4252 0953 0D       		.uleb128 0xd
 4253 0954 01       		.byte	0x1
 4254 0955 5F090000 		.4byte	0x95f
 4255 0959 0E       		.uleb128 0xe
 4256 095a 47090000 		.4byte	0x947
 4257 095e 00       		.byte	0
 4258 095f 09       		.uleb128 0x9
 4259 0960 04       		.byte	0x4
 4260 0961 53090000 		.4byte	0x953
 4261 0965 03       		.uleb128 0x3
 4262 0966 77080000 		.4byte	.LASF129
 4263 096a 11       		.byte	0x11
 4264 096b 4C       		.byte	0x4c
 4265 096c B1080000 		.4byte	0x8b1
 4266 0970 05       		.uleb128 0x5
 4267 0971 99030000 		.4byte	.LASF134
 4268 0975 08       		.byte	0x8
 4269 0976 12       		.byte	0x12
 4270 0977 19       		.byte	0x19
 4271 0978 AF090000 		.4byte	0x9af
 4272 097c 07       		.uleb128 0x7
 4273 097d 7800     		.ascii	"x\000"
 4274 097f 12       		.byte	0x12
 4275 0980 1A       		.byte	0x1a
 4276 0981 60070000 		.4byte	0x760
 4277 0985 02       		.byte	0x2
 4278 0986 23       		.byte	0x23
 4279 0987 00       		.uleb128 0
 4280 0988 07       		.uleb128 0x7
 4281 0989 7900     		.ascii	"y\000"
 4282 098b 12       		.byte	0x12
 4283 098c 1A       		.byte	0x1a
 4284 098d 60070000 		.4byte	0x760
 4285 0991 02       		.byte	0x2
 4286 0992 23       		.byte	0x23
 4287 0993 02       		.uleb128 0x2
 4288 0994 07       		.uleb128 0x7
 4289 0995 7A00     		.ascii	"z\000"
 4290 0997 12       		.byte	0x12
 4291 0998 1A       		.byte	0x1a
 4292 0999 60070000 		.4byte	0x760
 4293 099d 02       		.byte	0x2
 4294 099e 23       		.byte	0x23
 4295 099f 04       		.uleb128 0x4
 4296 09a0 06       		.uleb128 0x6
 4297 09a1 29060000 		.4byte	.LASF124
 4298 09a5 12       		.byte	0x12
 4299 09a6 1B       		.byte	0x1b
 4300 09a7 6D000000 		.4byte	0x6d
ARM GAS  C:\Users\Elis\AppData\Local\Temp\ccIy8Y2d.s 			page 77


 4301 09ab 02       		.byte	0x2
 4302 09ac 23       		.byte	0x23
 4303 09ad 06       		.uleb128 0x6
 4304 09ae 00       		.byte	0
 4305 09af 03       		.uleb128 0x3
 4306 09b0 99030000 		.4byte	.LASF134
 4307 09b4 12       		.byte	0x12
 4308 09b5 1C       		.byte	0x1c
 4309 09b6 70090000 		.4byte	0x970
 4310 09ba 05       		.uleb128 0x5
 4311 09bb 1B070000 		.4byte	.LASF135
 4312 09bf 18       		.byte	0x18
 4313 09c0 12       		.byte	0x12
 4314 09c1 1F       		.byte	0x1f
 4315 09c2 150A0000 		.4byte	0xa15
 4316 09c6 07       		.uleb128 0x7
 4317 09c7 617800   		.ascii	"ax\000"
 4318 09ca 12       		.byte	0x12
 4319 09cb 20       		.byte	0x20
 4320 09cc 150A0000 		.4byte	0xa15
 4321 09d0 02       		.byte	0x2
 4322 09d1 23       		.byte	0x23
 4323 09d2 00       		.uleb128 0
 4324 09d3 07       		.uleb128 0x7
 4325 09d4 627800   		.ascii	"bx\000"
 4326 09d7 12       		.byte	0x12
 4327 09d8 21       		.byte	0x21
 4328 09d9 150A0000 		.4byte	0xa15
 4329 09dd 02       		.byte	0x2
 4330 09de 23       		.byte	0x23
 4331 09df 04       		.uleb128 0x4
 4332 09e0 07       		.uleb128 0x7
 4333 09e1 637800   		.ascii	"cx\000"
 4334 09e4 12       		.byte	0x12
 4335 09e5 22       		.byte	0x22
 4336 09e6 150A0000 		.4byte	0xa15
 4337 09ea 02       		.byte	0x2
 4338 09eb 23       		.byte	0x23
 4339 09ec 08       		.uleb128 0x8
 4340 09ed 07       		.uleb128 0x7
 4341 09ee 617900   		.ascii	"ay\000"
 4342 09f1 12       		.byte	0x12
 4343 09f2 23       		.byte	0x23
 4344 09f3 150A0000 		.4byte	0xa15
 4345 09f7 02       		.byte	0x2
 4346 09f8 23       		.byte	0x23
 4347 09f9 0C       		.uleb128 0xc
 4348 09fa 07       		.uleb128 0x7
 4349 09fb 627900   		.ascii	"by\000"
 4350 09fe 12       		.byte	0x12
 4351 09ff 24       		.byte	0x24
 4352 0a00 150A0000 		.4byte	0xa15
 4353 0a04 02       		.byte	0x2
 4354 0a05 23       		.byte	0x23
 4355 0a06 10       		.uleb128 0x10
 4356 0a07 07       		.uleb128 0x7
 4357 0a08 637900   		.ascii	"cy\000"
ARM GAS  C:\Users\Elis\AppData\Local\Temp\ccIy8Y2d.s 			page 78


 4358 0a0b 12       		.byte	0x12
 4359 0a0c 25       		.byte	0x25
 4360 0a0d 150A0000 		.4byte	0xa15
 4361 0a11 02       		.byte	0x2
 4362 0a12 23       		.byte	0x23
 4363 0a13 14       		.uleb128 0x14
 4364 0a14 00       		.byte	0
 4365 0a15 04       		.uleb128 0x4
 4366 0a16 04       		.byte	0x4
 4367 0a17 04       		.byte	0x4
 4368 0a18 0E020000 		.4byte	.LASF136
 4369 0a1c 03       		.uleb128 0x3
 4370 0a1d 1B070000 		.4byte	.LASF135
 4371 0a21 12       		.byte	0x12
 4372 0a22 26       		.byte	0x26
 4373 0a23 BA090000 		.4byte	0x9ba
 4374 0a27 05       		.uleb128 0x5
 4375 0a28 67070000 		.4byte	.LASF137
 4376 0a2c 38       		.byte	0x38
 4377 0a2d 12       		.byte	0x12
 4378 0a2e 29       		.byte	0x29
 4379 0a2f 920A0000 		.4byte	0xa92
 4380 0a33 07       		.uleb128 0x7
 4381 0a34 6400     		.ascii	"d\000"
 4382 0a36 12       		.byte	0x12
 4383 0a37 2A       		.byte	0x2a
 4384 0a38 1D090000 		.4byte	0x91d
 4385 0a3c 02       		.byte	0x2
 4386 0a3d 23       		.byte	0x23
 4387 0a3e 00       		.uleb128 0
 4388 0a3f 07       		.uleb128 0x7
 4389 0a40 7200     		.ascii	"r\000"
 4390 0a42 12       		.byte	0x12
 4391 0a43 2B       		.byte	0x2b
 4392 0a44 AF090000 		.4byte	0x9af
 4393 0a48 02       		.byte	0x2
 4394 0a49 23       		.byte	0x23
 4395 0a4a 08       		.uleb128 0x8
 4396 0a4b 06       		.uleb128 0x6
 4397 0a4c 60000000 		.4byte	.LASF85
 4398 0a50 12       		.byte	0x12
 4399 0a51 2C       		.byte	0x2c
 4400 0a52 6D000000 		.4byte	0x6d
 4401 0a56 02       		.byte	0x2
 4402 0a57 23       		.byte	0x23
 4403 0a58 10       		.uleb128 0x10
 4404 0a59 06       		.uleb128 0x6
 4405 0a5a 70020000 		.4byte	.LASF138
 4406 0a5e 12       		.byte	0x12
 4407 0a5f 35       		.byte	0x35
 4408 0a60 64050000 		.4byte	0x564
 4409 0a64 02       		.byte	0x2
 4410 0a65 23       		.byte	0x23
 4411 0a66 12       		.uleb128 0x12
 4412 0a67 06       		.uleb128 0x6
 4413 0a68 56060000 		.4byte	.LASF139
 4414 0a6c 12       		.byte	0x12
ARM GAS  C:\Users\Elis\AppData\Local\Temp\ccIy8Y2d.s 			page 79


 4415 0a6d 36       		.byte	0x36
 4416 0a6e 1E050000 		.4byte	0x51e
 4417 0a72 02       		.byte	0x2
 4418 0a73 23       		.byte	0x23
 4419 0a74 18       		.uleb128 0x18
 4420 0a75 06       		.uleb128 0x6
 4421 0a76 8D060000 		.4byte	.LASF125
 4422 0a7a 12       		.byte	0x12
 4423 0a7b 37       		.byte	0x37
 4424 0a7c 16080000 		.4byte	0x816
 4425 0a80 02       		.byte	0x2
 4426 0a81 23       		.byte	0x23
 4427 0a82 1C       		.uleb128 0x1c
 4428 0a83 06       		.uleb128 0x6
 4429 0a84 89050000 		.4byte	.LASF140
 4430 0a88 12       		.byte	0x12
 4431 0a89 39       		.byte	0x39
 4432 0a8a 1C0A0000 		.4byte	0xa1c
 4433 0a8e 02       		.byte	0x2
 4434 0a8f 23       		.byte	0x23
 4435 0a90 20       		.uleb128 0x20
 4436 0a91 00       		.byte	0
 4437 0a92 03       		.uleb128 0x3
 4438 0a93 67070000 		.4byte	.LASF137
 4439 0a97 12       		.byte	0x12
 4440 0a98 3C       		.byte	0x3c
 4441 0a99 270A0000 		.4byte	0xa27
 4442 0a9d 05       		.uleb128 0x5
 4443 0a9e 1C060000 		.4byte	.LASF141
 4444 0aa2 06       		.byte	0x6
 4445 0aa3 12       		.byte	0x12
 4446 0aa4 3E       		.byte	0x3e
 4447 0aa5 D40A0000 		.4byte	0xad4
 4448 0aa9 06       		.uleb128 0x6
 4449 0aaa 3E020000 		.4byte	.LASF142
 4450 0aae 12       		.byte	0x12
 4451 0aaf 3F       		.byte	0x3f
 4452 0ab0 60070000 		.4byte	0x760
 4453 0ab4 02       		.byte	0x2
 4454 0ab5 23       		.byte	0x23
 4455 0ab6 00       		.uleb128 0
 4456 0ab7 06       		.uleb128 0x6
 4457 0ab8 09000000 		.4byte	.LASF143
 4458 0abc 12       		.byte	0x12
 4459 0abd 40       		.byte	0x40
 4460 0abe 60070000 		.4byte	0x760
 4461 0ac2 02       		.byte	0x2
 4462 0ac3 23       		.byte	0x23
 4463 0ac4 02       		.uleb128 0x2
 4464 0ac5 06       		.uleb128 0x6
 4465 0ac6 C6060000 		.4byte	.LASF144
 4466 0aca 12       		.byte	0x12
 4467 0acb 41       		.byte	0x41
 4468 0acc 60070000 		.4byte	0x760
 4469 0ad0 02       		.byte	0x2
 4470 0ad1 23       		.byte	0x23
 4471 0ad2 04       		.uleb128 0x4
ARM GAS  C:\Users\Elis\AppData\Local\Temp\ccIy8Y2d.s 			page 80


 4472 0ad3 00       		.byte	0
 4473 0ad4 03       		.uleb128 0x3
 4474 0ad5 1C060000 		.4byte	.LASF141
 4475 0ad9 12       		.byte	0x12
 4476 0ada 42       		.byte	0x42
 4477 0adb 9D0A0000 		.4byte	0xa9d
 4478 0adf 05       		.uleb128 0x5
 4479 0ae0 5C050000 		.4byte	.LASF145
 4480 0ae4 3C       		.byte	0x3c
 4481 0ae5 12       		.byte	0x12
 4482 0ae6 44       		.byte	0x44
 4483 0ae7 920B0000 		.4byte	0xb92
 4484 0aeb 07       		.uleb128 0x7
 4485 0aec 6400     		.ascii	"d\000"
 4486 0aee 12       		.byte	0x12
 4487 0aef 45       		.byte	0x45
 4488 0af0 65090000 		.4byte	0x965
 4489 0af4 02       		.byte	0x2
 4490 0af5 23       		.byte	0x23
 4491 0af6 00       		.uleb128 0
 4492 0af7 06       		.uleb128 0x6
 4493 0af8 91080000 		.4byte	.LASF146
 4494 0afc 12       		.byte	0x12
 4495 0afd 50       		.byte	0x50
 4496 0afe 60070000 		.4byte	0x760
 4497 0b02 02       		.byte	0x2
 4498 0b03 23       		.byte	0x23
 4499 0b04 14       		.uleb128 0x14
 4500 0b05 06       		.uleb128 0x6
 4501 0b06 3D030000 		.4byte	.LASF147
 4502 0b0a 12       		.byte	0x12
 4503 0b0b 51       		.byte	0x51
 4504 0b0c 60070000 		.4byte	0x760
 4505 0b10 02       		.byte	0x2
 4506 0b11 23       		.byte	0x23
 4507 0b12 16       		.uleb128 0x16
 4508 0b13 06       		.uleb128 0x6
 4509 0b14 70030000 		.4byte	.LASF148
 4510 0b18 12       		.byte	0x12
 4511 0b19 52       		.byte	0x52
 4512 0b1a 60070000 		.4byte	0x760
 4513 0b1e 02       		.byte	0x2
 4514 0b1f 23       		.byte	0x23
 4515 0b20 18       		.uleb128 0x18
 4516 0b21 06       		.uleb128 0x6
 4517 0b22 7E050000 		.4byte	.LASF149
 4518 0b26 12       		.byte	0x12
 4519 0b27 53       		.byte	0x53
 4520 0b28 60070000 		.4byte	0x760
 4521 0b2c 02       		.byte	0x2
 4522 0b2d 23       		.byte	0x23
 4523 0b2e 1A       		.uleb128 0x1a
 4524 0b2f 06       		.uleb128 0x6
 4525 0b30 74090000 		.4byte	.LASF150
 4526 0b34 12       		.byte	0x12
 4527 0b35 55       		.byte	0x55
 4528 0b36 D40A0000 		.4byte	0xad4
ARM GAS  C:\Users\Elis\AppData\Local\Temp\ccIy8Y2d.s 			page 81


 4529 0b3a 02       		.byte	0x2
 4530 0b3b 23       		.byte	0x23
 4531 0b3c 1C       		.uleb128 0x1c
 4532 0b3d 06       		.uleb128 0x6
 4533 0b3e 2A050000 		.4byte	.LASF151
 4534 0b42 12       		.byte	0x12
 4535 0b43 56       		.byte	0x56
 4536 0b44 D40A0000 		.4byte	0xad4
 4537 0b48 02       		.byte	0x2
 4538 0b49 23       		.byte	0x23
 4539 0b4a 22       		.uleb128 0x22
 4540 0b4b 06       		.uleb128 0x6
 4541 0b4c B0070000 		.4byte	.LASF131
 4542 0b50 12       		.byte	0x12
 4543 0b51 58       		.byte	0x58
 4544 0b52 AD0B0000 		.4byte	0xbad
 4545 0b56 02       		.byte	0x2
 4546 0b57 23       		.byte	0x23
 4547 0b58 28       		.uleb128 0x28
 4548 0b59 06       		.uleb128 0x6
 4549 0b5a B5000000 		.4byte	.LASF133
 4550 0b5e 12       		.byte	0x12
 4551 0b5f 59       		.byte	0x59
 4552 0b60 BF0B0000 		.4byte	0xbbf
 4553 0b64 02       		.byte	0x2
 4554 0b65 23       		.byte	0x23
 4555 0b66 2C       		.uleb128 0x2c
 4556 0b67 07       		.uleb128 0x7
 4557 0b68 67657400 		.ascii	"get\000"
 4558 0b6c 12       		.byte	0x12
 4559 0b6d 5A       		.byte	0x5a
 4560 0b6e E00B0000 		.4byte	0xbe0
 4561 0b72 02       		.byte	0x2
 4562 0b73 23       		.byte	0x23
 4563 0b74 30       		.uleb128 0x30
 4564 0b75 06       		.uleb128 0x6
 4565 0b76 68030000 		.4byte	.LASF152
 4566 0b7a 12       		.byte	0x12
 4567 0b7b 5B       		.byte	0x5b
 4568 0b7c FC0B0000 		.4byte	0xbfc
 4569 0b80 02       		.byte	0x2
 4570 0b81 23       		.byte	0x23
 4571 0b82 34       		.uleb128 0x34
 4572 0b83 06       		.uleb128 0x6
 4573 0b84 D0040000 		.4byte	.LASF153
 4574 0b88 12       		.byte	0x12
 4575 0b89 5C       		.byte	0x5c
 4576 0b8a 1C0C0000 		.4byte	0xc1c
 4577 0b8e 02       		.byte	0x2
 4578 0b8f 23       		.byte	0x23
 4579 0b90 38       		.uleb128 0x38
 4580 0b91 00       		.byte	0
 4581 0b92 1C       		.uleb128 0x1c
 4582 0b93 01       		.byte	0x1
 4583 0b94 B1000000 		.4byte	0xb1
 4584 0b98 A70B0000 		.4byte	0xba7
 4585 0b9c 0E       		.uleb128 0xe
ARM GAS  C:\Users\Elis\AppData\Local\Temp\ccIy8Y2d.s 			page 82


 4586 0b9d A70B0000 		.4byte	0xba7
 4587 0ba1 0E       		.uleb128 0xe
 4588 0ba2 3B000000 		.4byte	0x3b
 4589 0ba6 00       		.byte	0
 4590 0ba7 09       		.uleb128 0x9
 4591 0ba8 04       		.byte	0x4
 4592 0ba9 920A0000 		.4byte	0xa92
 4593 0bad 09       		.uleb128 0x9
 4594 0bae 04       		.byte	0x4
 4595 0baf 920B0000 		.4byte	0xb92
 4596 0bb3 0D       		.uleb128 0xd
 4597 0bb4 01       		.byte	0x1
 4598 0bb5 BF0B0000 		.4byte	0xbbf
 4599 0bb9 0E       		.uleb128 0xe
 4600 0bba A70B0000 		.4byte	0xba7
 4601 0bbe 00       		.byte	0
 4602 0bbf 09       		.uleb128 0x9
 4603 0bc0 04       		.byte	0x4
 4604 0bc1 B30B0000 		.4byte	0xbb3
 4605 0bc5 1C       		.uleb128 0x1c
 4606 0bc6 01       		.byte	0x1
 4607 0bc7 B1000000 		.4byte	0xb1
 4608 0bcb DA0B0000 		.4byte	0xbda
 4609 0bcf 0E       		.uleb128 0xe
 4610 0bd0 A70B0000 		.4byte	0xba7
 4611 0bd4 0E       		.uleb128 0xe
 4612 0bd5 DA0B0000 		.4byte	0xbda
 4613 0bd9 00       		.byte	0
 4614 0bda 09       		.uleb128 0x9
 4615 0bdb 04       		.byte	0x4
 4616 0bdc AF090000 		.4byte	0x9af
 4617 0be0 09       		.uleb128 0x9
 4618 0be1 04       		.byte	0x4
 4619 0be2 C50B0000 		.4byte	0xbc5
 4620 0be6 0D       		.uleb128 0xd
 4621 0be7 01       		.byte	0x1
 4622 0be8 FC0B0000 		.4byte	0xbfc
 4623 0bec 0E       		.uleb128 0xe
 4624 0bed A70B0000 		.4byte	0xba7
 4625 0bf1 0E       		.uleb128 0xe
 4626 0bf2 0F080000 		.4byte	0x80f
 4627 0bf6 0E       		.uleb128 0xe
 4628 0bf7 30000000 		.4byte	0x30
 4629 0bfb 00       		.byte	0
 4630 0bfc 09       		.uleb128 0x9
 4631 0bfd 04       		.byte	0x4
 4632 0bfe E60B0000 		.4byte	0xbe6
 4633 0c02 1C       		.uleb128 0x1c
 4634 0c03 01       		.byte	0x1
 4635 0c04 B1000000 		.4byte	0xb1
 4636 0c08 1C0C0000 		.4byte	0xc1c
 4637 0c0c 0E       		.uleb128 0xe
 4638 0c0d A70B0000 		.4byte	0xba7
 4639 0c11 0E       		.uleb128 0xe
 4640 0c12 B9020000 		.4byte	0x2b9
 4641 0c16 0E       		.uleb128 0xe
 4642 0c17 30000000 		.4byte	0x30
ARM GAS  C:\Users\Elis\AppData\Local\Temp\ccIy8Y2d.s 			page 83


 4643 0c1b 00       		.byte	0
 4644 0c1c 09       		.uleb128 0x9
 4645 0c1d 04       		.byte	0x4
 4646 0c1e 020C0000 		.4byte	0xc02
 4647 0c22 03       		.uleb128 0x3
 4648 0c23 5C050000 		.4byte	.LASF145
 4649 0c27 12       		.byte	0x12
 4650 0c28 5D       		.byte	0x5d
 4651 0c29 DF0A0000 		.4byte	0xadf
 4652 0c2d 1D       		.uleb128 0x1d
 4653 0c2e D9020000 		.4byte	.LASF154
 4654 0c32 01       		.byte	0x1
 4655 0c33 40       		.byte	0x40
 4656 0c34 01       		.byte	0x1
 4657 0c35 00000000 		.4byte	.LFB119
 4658 0c39 C0000000 		.4byte	.LFE119
 4659 0c3d 00000000 		.4byte	.LLST0
 4660 0c41 01       		.byte	0x1
 4661 0c42 A30C0000 		.4byte	0xca3
 4662 0c46 1E       		.uleb128 0x1e
 4663 0c47 70736C00 		.ascii	"psl\000"
 4664 0c4b 01       		.byte	0x1
 4665 0c4c 40       		.byte	0x40
 4666 0c4d A30C0000 		.4byte	0xca3
 4667 0c51 20000000 		.4byte	.LLST1
 4668 0c55 1E       		.uleb128 0x1e
 4669 0c56 6D00     		.ascii	"m\000"
 4670 0c58 01       		.byte	0x1
 4671 0c59 40       		.byte	0x40
 4672 0c5a A70B0000 		.4byte	0xba7
 4673 0c5e 3E000000 		.4byte	.LLST2
 4674 0c62 1E       		.uleb128 0x1e
 4675 0c63 7200     		.ascii	"r\000"
 4676 0c65 01       		.byte	0x1
 4677 0c66 40       		.byte	0x40
 4678 0c67 DA0B0000 		.4byte	0xbda
 4679 0c6b 75000000 		.4byte	.LLST3
 4680 0c6f 1F       		.uleb128 0x1f
 4681 0c70 706500   		.ascii	"pe\000"
 4682 0c73 01       		.byte	0x1
 4683 0c74 41       		.byte	0x41
 4684 0c75 A90C0000 		.4byte	0xca9
 4685 0c79 AC000000 		.4byte	.LLST4
 4686 0c7d 20       		.uleb128 0x20
 4687 0c7e 0E000000 		.4byte	.LVL1
 4688 0c82 BA1A0000 		.4byte	0x1aba
 4689 0c86 910C0000 		.4byte	0xc91
 4690 0c8a 21       		.uleb128 0x21
 4691 0c8b 01       		.byte	0x1
 4692 0c8c 50       		.byte	0x50
 4693 0c8d 02       		.byte	0x2
 4694 0c8e 74       		.byte	0x74
 4695 0c8f 00       		.sleb128 0
 4696 0c90 00       		.byte	0
 4697 0c91 22       		.uleb128 0x22
 4698 0c92 A4000000 		.4byte	.LVL5
 4699 0c96 01       		.byte	0x1
ARM GAS  C:\Users\Elis\AppData\Local\Temp\ccIy8Y2d.s 			page 84


 4700 0c97 D21A0000 		.4byte	0x1ad2
 4701 0c9b 21       		.uleb128 0x21
 4702 0c9c 01       		.byte	0x1
 4703 0c9d 50       		.byte	0x50
 4704 0c9e 02       		.byte	0x2
 4705 0c9f 74       		.byte	0x74
 4706 0ca0 00       		.sleb128 0
 4707 0ca1 00       		.byte	0
 4708 0ca2 00       		.byte	0
 4709 0ca3 09       		.uleb128 0x9
 4710 0ca4 04       		.byte	0x4
 4711 0ca5 CB060000 		.4byte	0x6cb
 4712 0ca9 09       		.uleb128 0x9
 4713 0caa 04       		.byte	0x4
 4714 0cab 77080000 		.4byte	0x877
 4715 0caf 23       		.uleb128 0x23
 4716 0cb0 D8030000 		.4byte	.LASF160
 4717 0cb4 01       		.byte	0x1
 4718 0cb5 3A       		.byte	0x3a
 4719 0cb6 01       		.byte	0x1
 4720 0cb7 03       		.byte	0x3
 4721 0cb8 D00C0000 		.4byte	0xcd0
 4722 0cbc 24       		.uleb128 0x24
 4723 0cbd 707400   		.ascii	"pt\000"
 4724 0cc0 01       		.byte	0x1
 4725 0cc1 3A       		.byte	0x3a
 4726 0cc2 DA0B0000 		.4byte	0xbda
 4727 0cc6 24       		.uleb128 0x24
 4728 0cc7 6300     		.ascii	"c\000"
 4729 0cc9 01       		.byte	0x1
 4730 0cca 3A       		.byte	0x3a
 4731 0ccb D00C0000 		.4byte	0xcd0
 4732 0ccf 00       		.byte	0
 4733 0cd0 09       		.uleb128 0x9
 4734 0cd1 04       		.byte	0x4
 4735 0cd2 D60C0000 		.4byte	0xcd6
 4736 0cd6 12       		.uleb128 0x12
 4737 0cd7 1C0A0000 		.4byte	0xa1c
 4738 0cdb 25       		.uleb128 0x25
 4739 0cdc E8000000 		.4byte	.LASF155
 4740 0ce0 01       		.byte	0x1
 4741 0ce1 63       		.byte	0x63
 4742 0ce2 01       		.byte	0x1
 4743 0ce3 00000000 		.4byte	.LFB120
 4744 0ce7 D8030000 		.4byte	.LFE120
 4745 0ceb E0000000 		.4byte	.LLST5
 4746 0cef 01       		.byte	0x1
 4747 0cf0 4E0E0000 		.4byte	0xe4e
 4748 0cf4 1E       		.uleb128 0x1e
 4749 0cf5 6D00     		.ascii	"m\000"
 4750 0cf7 01       		.byte	0x1
 4751 0cf8 63       		.byte	0x63
 4752 0cf9 A70B0000 		.4byte	0xba7
 4753 0cfd 0C010000 		.4byte	.LLST6
 4754 0d01 26       		.uleb128 0x26
 4755 0d02 7200     		.ascii	"r\000"
 4756 0d04 01       		.byte	0x1
ARM GAS  C:\Users\Elis\AppData\Local\Temp\ccIy8Y2d.s 			page 85


 4757 0d05 64       		.byte	0x64
 4758 0d06 AF090000 		.4byte	0x9af
 4759 0d0a 02       		.byte	0x2
 4760 0d0b 91       		.byte	0x91
 4761 0d0c 60       		.sleb128 -32
 4762 0d0d 27       		.uleb128 0x27
 4763 0d0e 00000000 		.4byte	.Ldebug_ranges0+0
 4764 0d12 630D0000 		.4byte	0xd63
 4765 0d16 1F       		.uleb128 0x1f
 4766 0d17 7700     		.ascii	"w\000"
 4767 0d19 01       		.byte	0x1
 4768 0d1a B2       		.byte	0xb2
 4769 0d1b 60070000 		.4byte	0x760
 4770 0d1f 82010000 		.4byte	.LLST7
 4771 0d23 1F       		.uleb128 0x1f
 4772 0d24 6800     		.ascii	"h\000"
 4773 0d26 01       		.byte	0x1
 4774 0d27 B2       		.byte	0xb2
 4775 0d28 60070000 		.4byte	0x760
 4776 0d2c CE010000 		.4byte	.LLST8
 4777 0d30 27       		.uleb128 0x27
 4778 0d31 20000000 		.4byte	.Ldebug_ranges0+0x20
 4779 0d35 500D0000 		.4byte	0xd50
 4780 0d39 1F       		.uleb128 0x1f
 4781 0d3a 7400     		.ascii	"t\000"
 4782 0d3c 01       		.byte	0x1
 4783 0d3d BB       		.byte	0xbb
 4784 0d3e 60070000 		.4byte	0x760
 4785 0d42 0F020000 		.4byte	.LLST9
 4786 0d46 28       		.uleb128 0x28
 4787 0d47 5A030000 		.4byte	.LVL63
 4788 0d4b E61A0000 		.4byte	0x1ae6
 4789 0d4f 00       		.byte	0
 4790 0d50 28       		.uleb128 0x28
 4791 0d51 DC000000 		.4byte	.LVL10
 4792 0d55 FF1A0000 		.4byte	0x1aff
 4793 0d59 28       		.uleb128 0x28
 4794 0d5a E4000000 		.4byte	.LVL13
 4795 0d5e 181B0000 		.4byte	0x1b18
 4796 0d62 00       		.byte	0
 4797 0d63 27       		.uleb128 0x27
 4798 0d64 38000000 		.4byte	.Ldebug_ranges0+0x38
 4799 0d68 8A0D0000 		.4byte	0xd8a
 4800 0d6c 1F       		.uleb128 0x1f
 4801 0d6d 706A00   		.ascii	"pj\000"
 4802 0d70 01       		.byte	0x1
 4803 0d71 E2       		.byte	0xe2
 4804 0d72 4E0E0000 		.4byte	0xe4e
 4805 0d76 2F020000 		.4byte	.LLST10
 4806 0d7a 29       		.uleb128 0x29
 4807 0d7b CB060000 		.4byte	.LASF156
 4808 0d7f 01       		.byte	0x1
 4809 0d80 E3       		.byte	0xe3
 4810 0d81 91000000 		.4byte	0x91
 4811 0d85 42020000 		.4byte	.LLST11
 4812 0d89 00       		.byte	0
 4813 0d8a 2A       		.uleb128 0x2a
ARM GAS  C:\Users\Elis\AppData\Local\Temp\ccIy8Y2d.s 			page 86


 4814 0d8b 8E010000 		.4byte	.LBB13
 4815 0d8f 30020000 		.4byte	.LBE13
 4816 0d93 B60D0000 		.4byte	0xdb6
 4817 0d97 29       		.uleb128 0x29
 4818 0d98 0E010000 		.4byte	.LASF157
 4819 0d9c 01       		.byte	0x1
 4820 0d9d FC       		.byte	0xfc
 4821 0d9e 6D000000 		.4byte	0x6d
 4822 0da2 E4020000 		.4byte	.LLST12
 4823 0da6 29       		.uleb128 0x29
 4824 0da7 BC050000 		.4byte	.LASF158
 4825 0dab 01       		.byte	0x1
 4826 0dac FC       		.byte	0xfc
 4827 0dad 6D000000 		.4byte	0x6d
 4828 0db1 F7020000 		.4byte	.LLST13
 4829 0db5 00       		.byte	0
 4830 0db6 27       		.uleb128 0x27
 4831 0db7 50000000 		.4byte	.Ldebug_ranges0+0x50
 4832 0dbb 150E0000 		.4byte	0xe15
 4833 0dbf 2B       		.uleb128 0x2b
 4834 0dc0 70736C00 		.ascii	"psl\000"
 4835 0dc4 01       		.byte	0x1
 4836 0dc5 2901     		.2byte	0x129
 4837 0dc7 A30C0000 		.4byte	0xca3
 4838 0dcb 0A030000 		.4byte	.LLST14
 4839 0dcf 28       		.uleb128 0x28
 4840 0dd0 38020000 		.4byte	.LVL32
 4841 0dd4 2D0C0000 		.4byte	0xc2d
 4842 0dd8 20       		.uleb128 0x20
 4843 0dd9 40020000 		.4byte	.LVL33
 4844 0ddd 311B0000 		.4byte	0x1b31
 4845 0de1 F50D0000 		.4byte	0xdf5
 4846 0de5 21       		.uleb128 0x21
 4847 0de6 01       		.byte	0x1
 4848 0de7 51       		.byte	0x51
 4849 0de8 02       		.byte	0x2
 4850 0de9 75       		.byte	0x75
 4851 0dea 00       		.sleb128 0
 4852 0deb 21       		.uleb128 0x21
 4853 0dec 01       		.byte	0x1
 4854 0ded 50       		.byte	0x50
 4855 0dee 05       		.byte	0x5
 4856 0def 03       		.byte	0x3
 4857 0df0 00000000 		.4byte	.LANCHOR0
 4858 0df4 00       		.byte	0
 4859 0df5 28       		.uleb128 0x28
 4860 0df6 76020000 		.4byte	.LVL37
 4861 0dfa 2D0C0000 		.4byte	0xc2d
 4862 0dfe 2C       		.uleb128 0x2c
 4863 0dff 7E020000 		.4byte	.LVL38
 4864 0e03 311B0000 		.4byte	0x1b31
 4865 0e07 21       		.uleb128 0x21
 4866 0e08 01       		.byte	0x1
 4867 0e09 51       		.byte	0x51
 4868 0e0a 02       		.byte	0x2
 4869 0e0b 75       		.byte	0x75
 4870 0e0c 00       		.sleb128 0
ARM GAS  C:\Users\Elis\AppData\Local\Temp\ccIy8Y2d.s 			page 87


 4871 0e0d 21       		.uleb128 0x21
 4872 0e0e 01       		.byte	0x1
 4873 0e0f 50       		.byte	0x50
 4874 0e10 02       		.byte	0x2
 4875 0e11 74       		.byte	0x74
 4876 0e12 00       		.sleb128 0
 4877 0e13 00       		.byte	0
 4878 0e14 00       		.byte	0
 4879 0e15 2D       		.uleb128 0x2d
 4880 0e16 AF0C0000 		.4byte	0xcaf
 4881 0e1a EC020000 		.4byte	.LBB18
 4882 0e1e 54030000 		.4byte	.LBE18
 4883 0e22 01       		.byte	0x1
 4884 0e23 AD       		.byte	0xad
 4885 0e24 3B0E0000 		.4byte	0xe3b
 4886 0e28 2E       		.uleb128 0x2e
 4887 0e29 C60C0000 		.4byte	0xcc6
 4888 0e2d 5F030000 		.4byte	.LLST15
 4889 0e31 2E       		.uleb128 0x2e
 4890 0e32 BC0C0000 		.4byte	0xcbc
 4891 0e36 74030000 		.4byte	.LLST16
 4892 0e3a 00       		.byte	0
 4893 0e3b 2F       		.uleb128 0x2f
 4894 0e3c 18000000 		.4byte	.LVL9
 4895 0e40 21       		.uleb128 0x21
 4896 0e41 01       		.byte	0x1
 4897 0e42 51       		.byte	0x51
 4898 0e43 02       		.byte	0x2
 4899 0e44 7D       		.byte	0x7d
 4900 0e45 00       		.sleb128 0
 4901 0e46 21       		.uleb128 0x21
 4902 0e47 01       		.byte	0x1
 4903 0e48 50       		.byte	0x50
 4904 0e49 02       		.byte	0x2
 4905 0e4a 74       		.byte	0x74
 4906 0e4b 00       		.sleb128 0
 4907 0e4c 00       		.byte	0
 4908 0e4d 00       		.byte	0
 4909 0e4e 09       		.uleb128 0x9
 4910 0e4f 04       		.byte	0x4
 4911 0e50 540E0000 		.4byte	0xe54
 4912 0e54 12       		.uleb128 0x12
 4913 0e55 D40A0000 		.4byte	0xad4
 4914 0e59 30       		.uleb128 0x30
 4915 0e5a 93040000 		.4byte	.LASF159
 4916 0e5e 01       		.byte	0x1
 4917 0e5f 3D01     		.2byte	0x13d
 4918 0e61 01       		.byte	0x1
 4919 0e62 00000000 		.4byte	.LFB121
 4920 0e66 3A000000 		.4byte	.LFE121
 4921 0e6a 87030000 		.4byte	.LLST17
 4922 0e6e 01       		.byte	0x1
 4923 0e6f CA0E0000 		.4byte	0xeca
 4924 0e73 31       		.uleb128 0x31
 4925 0e74 56050000 		.4byte	.LASF87
 4926 0e78 01       		.byte	0x1
 4927 0e79 3D01     		.2byte	0x13d
ARM GAS  C:\Users\Elis\AppData\Local\Temp\ccIy8Y2d.s 			page 88


 4928 0e7b B9020000 		.4byte	0x2b9
 4929 0e7f A7030000 		.4byte	.LLST18
 4930 0e83 2B       		.uleb128 0x2b
 4931 0e84 6D00     		.ascii	"m\000"
 4932 0e86 01       		.byte	0x1
 4933 0e87 3E01     		.2byte	0x13e
 4934 0e89 A70B0000 		.4byte	0xba7
 4935 0e8d C8030000 		.4byte	.LLST19
 4936 0e91 20       		.uleb128 0x20
 4937 0e92 0A000000 		.4byte	.LVL72
 4938 0e96 4E1B0000 		.4byte	0x1b4e
 4939 0e9a AA0E0000 		.4byte	0xeaa
 4940 0e9e 21       		.uleb128 0x21
 4941 0e9f 01       		.byte	0x1
 4942 0ea0 51       		.byte	0x51
 4943 0ea1 01       		.byte	0x1
 4944 0ea2 30       		.byte	0x30
 4945 0ea3 21       		.uleb128 0x21
 4946 0ea4 01       		.byte	0x1
 4947 0ea5 50       		.byte	0x50
 4948 0ea6 02       		.byte	0x2
 4949 0ea7 08       		.byte	0x8
 4950 0ea8 6D       		.byte	0x6d
 4951 0ea9 00       		.byte	0
 4952 0eaa 28       		.uleb128 0x28
 4953 0eab 2A000000 		.4byte	.LVL75
 4954 0eaf DB0C0000 		.4byte	0xcdb
 4955 0eb3 2C       		.uleb128 0x2c
 4956 0eb4 32000000 		.4byte	.LVL76
 4957 0eb8 4E1B0000 		.4byte	0x1b4e
 4958 0ebc 21       		.uleb128 0x21
 4959 0ebd 01       		.byte	0x1
 4960 0ebe 51       		.byte	0x51
 4961 0ebf 02       		.byte	0x2
 4962 0ec0 74       		.byte	0x74
 4963 0ec1 00       		.sleb128 0
 4964 0ec2 21       		.uleb128 0x21
 4965 0ec3 01       		.byte	0x1
 4966 0ec4 50       		.byte	0x50
 4967 0ec5 02       		.byte	0x2
 4968 0ec6 08       		.byte	0x8
 4969 0ec7 6D       		.byte	0x6d
 4970 0ec8 00       		.byte	0
 4971 0ec9 00       		.byte	0
 4972 0eca 32       		.uleb128 0x32
 4973 0ecb 1A090000 		.4byte	.LASF161
 4974 0ecf 01       		.byte	0x1
 4975 0ed0 4D01     		.2byte	0x14d
 4976 0ed2 01       		.byte	0x1
 4977 0ed3 03       		.byte	0x3
 4978 0ed4 EE0E0000 		.4byte	0xeee
 4979 0ed8 33       		.uleb128 0x33
 4980 0ed9 6D00     		.ascii	"m\000"
 4981 0edb 01       		.byte	0x1
 4982 0edc 4D01     		.2byte	0x14d
 4983 0ede A70B0000 		.4byte	0xba7
 4984 0ee2 33       		.uleb128 0x33
ARM GAS  C:\Users\Elis\AppData\Local\Temp\ccIy8Y2d.s 			page 89


 4985 0ee3 707000   		.ascii	"pp\000"
 4986 0ee6 01       		.byte	0x1
 4987 0ee7 4D01     		.2byte	0x14d
 4988 0ee9 EE0E0000 		.4byte	0xeee
 4989 0eed 00       		.byte	0
 4990 0eee 09       		.uleb128 0x9
 4991 0eef 04       		.byte	0x4
 4992 0ef0 F40E0000 		.4byte	0xef4
 4993 0ef4 12       		.uleb128 0x12
 4994 0ef5 64050000 		.4byte	0x564
 4995 0ef9 32       		.uleb128 0x32
 4996 0efa 21040000 		.4byte	.LASF162
 4997 0efe 01       		.byte	0x1
 4998 0eff 5C01     		.2byte	0x15c
 4999 0f01 01       		.byte	0x1
 5000 0f02 03       		.byte	0x3
 5001 0f03 1D0F0000 		.4byte	0xf1d
 5002 0f07 33       		.uleb128 0x33
 5003 0f08 6D00     		.ascii	"m\000"
 5004 0f0a 01       		.byte	0x1
 5005 0f0b 5C01     		.2byte	0x15c
 5006 0f0d A70B0000 		.4byte	0xba7
 5007 0f11 33       		.uleb128 0x33
 5008 0f12 707000   		.ascii	"pp\000"
 5009 0f15 01       		.byte	0x1
 5010 0f16 5C01     		.2byte	0x15c
 5011 0f18 EE0E0000 		.4byte	0xeee
 5012 0f1c 00       		.byte	0
 5013 0f1d 32       		.uleb128 0x32
 5014 0f1e 21020000 		.4byte	.LASF163
 5015 0f22 01       		.byte	0x1
 5016 0f23 6001     		.2byte	0x160
 5017 0f25 01       		.byte	0x1
 5018 0f26 03       		.byte	0x3
 5019 0f27 7A0F0000 		.4byte	0xf7a
 5020 0f2b 33       		.uleb128 0x33
 5021 0f2c 6D00     		.ascii	"m\000"
 5022 0f2e 01       		.byte	0x1
 5023 0f2f 6001     		.2byte	0x160
 5024 0f31 A70B0000 		.4byte	0xba7
 5025 0f35 34       		.uleb128 0x34
 5026 0f36 0D090000 		.4byte	.LASF164
 5027 0f3a 01       		.byte	0x1
 5028 0f3b 6001     		.2byte	0x160
 5029 0f3d EE0E0000 		.4byte	0xeee
 5030 0f41 34       		.uleb128 0x34
 5031 0f42 C1090000 		.4byte	.LASF165
 5032 0f46 01       		.byte	0x1
 5033 0f47 6001     		.2byte	0x160
 5034 0f49 EE0E0000 		.4byte	0xeee
 5035 0f4d 35       		.uleb128 0x35
 5036 0f4e 647800   		.ascii	"dx\000"
 5037 0f51 01       		.byte	0x1
 5038 0f52 6101     		.2byte	0x161
 5039 0f54 150A0000 		.4byte	0xa15
 5040 0f58 35       		.uleb128 0x35
 5041 0f59 633000   		.ascii	"c0\000"
ARM GAS  C:\Users\Elis\AppData\Local\Temp\ccIy8Y2d.s 			page 90


 5042 0f5c 01       		.byte	0x1
 5043 0f5d 6201     		.2byte	0x162
 5044 0f5f 60070000 		.4byte	0x760
 5045 0f63 35       		.uleb128 0x35
 5046 0f64 633100   		.ascii	"c1\000"
 5047 0f67 01       		.byte	0x1
 5048 0f68 6201     		.2byte	0x162
 5049 0f6a 60070000 		.4byte	0x760
 5050 0f6e 35       		.uleb128 0x35
 5051 0f6f 633200   		.ascii	"c2\000"
 5052 0f72 01       		.byte	0x1
 5053 0f73 6201     		.2byte	0x162
 5054 0f75 60070000 		.4byte	0x760
 5055 0f79 00       		.byte	0
 5056 0f7a 36       		.uleb128 0x36
 5057 0f7b 40000000 		.4byte	.LASF215
 5058 0f7f 01       		.byte	0x1
 5059 0f80 BB01     		.2byte	0x1bb
 5060 0f82 01       		.byte	0x1
 5061 0f83 91000000 		.4byte	0x91
 5062 0f87 00000000 		.4byte	.LFB125
 5063 0f8b 88080000 		.4byte	.LFE125
 5064 0f8f 07040000 		.4byte	.LLST20
 5065 0f93 01       		.byte	0x1
 5066 0f94 F9150000 		.4byte	0x15f9
 5067 0f98 37       		.uleb128 0x37
 5068 0f99 6D00     		.ascii	"m\000"
 5069 0f9b 01       		.byte	0x1
 5070 0f9c BB01     		.2byte	0x1bb
 5071 0f9e A70B0000 		.4byte	0xba7
 5072 0fa2 34040000 		.4byte	.LLST21
 5073 0fa6 2B       		.uleb128 0x2b
 5074 0fa7 7700     		.ascii	"w\000"
 5075 0fa9 01       		.byte	0x1
 5076 0faa BC01     		.2byte	0x1bc
 5077 0fac 60070000 		.4byte	0x760
 5078 0fb0 6B040000 		.4byte	.LLST22
 5079 0fb4 2B       		.uleb128 0x2b
 5080 0fb5 6800     		.ascii	"h\000"
 5081 0fb7 01       		.byte	0x1
 5082 0fb8 BC01     		.2byte	0x1bc
 5083 0fba 60070000 		.4byte	0x760
 5084 0fbe 8D040000 		.4byte	.LLST23
 5085 0fc2 38       		.uleb128 0x38
 5086 0fc3 0D090000 		.4byte	.LASF164
 5087 0fc7 01       		.byte	0x1
 5088 0fc8 BD01     		.2byte	0x1bd
 5089 0fca F9150000 		.4byte	0x15f9
 5090 0fce 03       		.byte	0x3
 5091 0fcf 91       		.byte	0x91
 5092 0fd0 B87F     		.sleb128 -72
 5093 0fd2 38       		.uleb128 0x38
 5094 0fd3 C1090000 		.4byte	.LASF165
 5095 0fd7 01       		.byte	0x1
 5096 0fd8 BE01     		.2byte	0x1be
 5097 0fda F9150000 		.4byte	0x15f9
 5098 0fde 02       		.byte	0x2
ARM GAS  C:\Users\Elis\AppData\Local\Temp\ccIy8Y2d.s 			page 91


 5099 0fdf 91       		.byte	0x91
 5100 0fe0 48       		.sleb128 -56
 5101 0fe1 2B       		.uleb128 0x2b
 5102 0fe2 65727200 		.ascii	"err\000"
 5103 0fe6 01       		.byte	0x1
 5104 0fe7 BF01     		.2byte	0x1bf
 5105 0fe9 91000000 		.4byte	0x91
 5106 0fed AF040000 		.4byte	.LLST24
 5107 0ff1 39       		.uleb128 0x39
 5108 0ff2 38050000 		.4byte	.LASF166
 5109 0ff6 01       		.byte	0x1
 5110 0ff7 C101     		.2byte	0x1c1
 5111 0ff9 95070000 		.4byte	0x795
 5112 0ffd 09050000 		.4byte	.LLST25
 5113 1001 39       		.uleb128 0x39
 5114 1002 02070000 		.4byte	.LASF167
 5115 1006 01       		.byte	0x1
 5116 1007 C101     		.2byte	0x1c1
 5117 1009 95070000 		.4byte	0x795
 5118 100d 59050000 		.4byte	.LLST26
 5119 1011 27       		.uleb128 0x27
 5120 1012 68000000 		.4byte	.Ldebug_ranges0+0x68
 5121 1016 0C130000 		.4byte	0x130c
 5122 101a 2B       		.uleb128 0x2b
 5123 101b 6900     		.ascii	"i\000"
 5124 101d 01       		.byte	0x1
 5125 101e EC01     		.2byte	0x1ec
 5126 1020 3B000000 		.4byte	0x3b
 5127 1024 A9050000 		.4byte	.LLST27
 5128 1028 39       		.uleb128 0x39
 5129 1029 4F040000 		.4byte	.LASF168
 5130 102d 01       		.byte	0x1
 5131 102e EC01     		.2byte	0x1ec
 5132 1030 3B000000 		.4byte	0x3b
 5133 1034 FC050000 		.4byte	.LLST28
 5134 1038 3A       		.uleb128 0x3a
 5135 1039 80000000 		.4byte	.Ldebug_ranges0+0x80
 5136 103d 2B       		.uleb128 0x2b
 5137 103e 707800   		.ascii	"px\000"
 5138 1041 01       		.byte	0x1
 5139 1042 F201     		.2byte	0x1f2
 5140 1044 7F000000 		.4byte	0x7f
 5141 1048 36060000 		.4byte	.LLST29
 5142 104c 2B       		.uleb128 0x2b
 5143 104d 707900   		.ascii	"py\000"
 5144 1050 01       		.byte	0x1
 5145 1051 F201     		.2byte	0x1f2
 5146 1053 7F000000 		.4byte	0x7f
 5147 1057 6A060000 		.4byte	.LLST30
 5148 105b 2B       		.uleb128 0x2b
 5149 105c 6A00     		.ascii	"j\000"
 5150 105e 01       		.byte	0x1
 5151 105f F301     		.2byte	0x1f3
 5152 1061 3B000000 		.4byte	0x3b
 5153 1065 7D060000 		.4byte	.LLST31
 5154 1069 3B       		.uleb128 0x3b
 5155 106a CA0E0000 		.4byte	0xeca
ARM GAS  C:\Users\Elis\AppData\Local\Temp\ccIy8Y2d.s 			page 92


 5156 106e E6000000 		.4byte	.LBB35
 5157 1072 A8000000 		.4byte	.Ldebug_ranges0+0xa8
 5158 1076 01       		.byte	0x1
 5159 1077 F601     		.2byte	0x1f6
 5160 1079 C0120000 		.4byte	0x12c0
 5161 107d 2E       		.uleb128 0x2e
 5162 107e E20E0000 		.4byte	0xee2
 5163 1082 90060000 		.4byte	.LLST32
 5164 1086 2E       		.uleb128 0x2e
 5165 1087 D80E0000 		.4byte	0xed8
 5166 108b FD060000 		.4byte	.LLST33
 5167 108f 20       		.uleb128 0x20
 5168 1090 20010000 		.4byte	.LVL95
 5169 1094 6B1B0000 		.4byte	0x1b6b
 5170 1098 BD100000 		.4byte	0x10bd
 5171 109c 21       		.uleb128 0x21
 5172 109d 01       		.byte	0x1
 5173 109e 53       		.byte	0x53
 5174 109f 02       		.byte	0x2
 5175 10a0 7A       		.byte	0x7a
 5176 10a1 7E       		.sleb128 -2
 5177 10a2 21       		.uleb128 0x21
 5178 10a3 01       		.byte	0x1
 5179 10a4 52       		.byte	0x52
 5180 10a5 02       		.byte	0x2
 5181 10a6 75       		.byte	0x75
 5182 10a7 00       		.sleb128 0
 5183 10a8 21       		.uleb128 0x21
 5184 10a9 01       		.byte	0x1
 5185 10aa 51       		.byte	0x51
 5186 10ab 02       		.byte	0x2
 5187 10ac 76       		.byte	0x76
 5188 10ad 00       		.sleb128 0
 5189 10ae 21       		.uleb128 0x21
 5190 10af 02       		.byte	0x2
 5191 10b0 7D       		.byte	0x7d
 5192 10b1 04       		.sleb128 4
 5193 10b2 02       		.byte	0x2
 5194 10b3 77       		.byte	0x77
 5195 10b4 00       		.sleb128 0
 5196 10b5 21       		.uleb128 0x21
 5197 10b6 02       		.byte	0x2
 5198 10b7 7D       		.byte	0x7d
 5199 10b8 00       		.sleb128 0
 5200 10b9 02       		.byte	0x2
 5201 10ba 75       		.byte	0x75
 5202 10bb 00       		.sleb128 0
 5203 10bc 00       		.byte	0
 5204 10bd 20       		.uleb128 0x20
 5205 10be 3C010000 		.4byte	.LVL96
 5206 10c2 6B1B0000 		.4byte	0x1b6b
 5207 10c6 EB100000 		.4byte	0x10eb
 5208 10ca 21       		.uleb128 0x21
 5209 10cb 01       		.byte	0x1
 5210 10cc 53       		.byte	0x53
 5211 10cd 02       		.byte	0x2
 5212 10ce 78       		.byte	0x78
ARM GAS  C:\Users\Elis\AppData\Local\Temp\ccIy8Y2d.s 			page 93


 5213 10cf 00       		.sleb128 0
 5214 10d0 21       		.uleb128 0x21
 5215 10d1 01       		.byte	0x1
 5216 10d2 52       		.byte	0x52
 5217 10d3 02       		.byte	0x2
 5218 10d4 75       		.byte	0x75
 5219 10d5 00       		.sleb128 0
 5220 10d6 21       		.uleb128 0x21
 5221 10d7 01       		.byte	0x1
 5222 10d8 51       		.byte	0x51
 5223 10d9 02       		.byte	0x2
 5224 10da 7A       		.byte	0x7a
 5225 10db 02       		.sleb128 2
 5226 10dc 21       		.uleb128 0x21
 5227 10dd 02       		.byte	0x2
 5228 10de 7D       		.byte	0x7d
 5229 10df 04       		.sleb128 4
 5230 10e0 02       		.byte	0x2
 5231 10e1 77       		.byte	0x77
 5232 10e2 00       		.sleb128 0
 5233 10e3 21       		.uleb128 0x21
 5234 10e4 02       		.byte	0x2
 5235 10e5 7D       		.byte	0x7d
 5236 10e6 00       		.sleb128 0
 5237 10e7 02       		.byte	0x2
 5238 10e8 75       		.byte	0x75
 5239 10e9 00       		.sleb128 0
 5240 10ea 00       		.byte	0
 5241 10eb 20       		.uleb128 0x20
 5242 10ec 5C010000 		.4byte	.LVL97
 5243 10f0 6B1B0000 		.4byte	0x1b6b
 5244 10f4 19110000 		.4byte	0x1119
 5245 10f8 21       		.uleb128 0x21
 5246 10f9 01       		.byte	0x1
 5247 10fa 53       		.byte	0x53
 5248 10fb 02       		.byte	0x2
 5249 10fc 7B       		.byte	0x7b
 5250 10fd 00       		.sleb128 0
 5251 10fe 21       		.uleb128 0x21
 5252 10ff 01       		.byte	0x1
 5253 1100 52       		.byte	0x52
 5254 1101 02       		.byte	0x2
 5255 1102 75       		.byte	0x75
 5256 1103 00       		.sleb128 0
 5257 1104 21       		.uleb128 0x21
 5258 1105 01       		.byte	0x1
 5259 1106 51       		.byte	0x51
 5260 1107 02       		.byte	0x2
 5261 1108 7B       		.byte	0x7b
 5262 1109 00       		.sleb128 0
 5263 110a 21       		.uleb128 0x21
 5264 110b 02       		.byte	0x2
 5265 110c 7D       		.byte	0x7d
 5266 110d 04       		.sleb128 4
 5267 110e 02       		.byte	0x2
 5268 110f 09       		.byte	0x9
 5269 1110 FF       		.byte	0xff
ARM GAS  C:\Users\Elis\AppData\Local\Temp\ccIy8Y2d.s 			page 94


 5270 1111 21       		.uleb128 0x21
 5271 1112 02       		.byte	0x2
 5272 1113 7D       		.byte	0x7d
 5273 1114 00       		.sleb128 0
 5274 1115 02       		.byte	0x2
 5275 1116 77       		.byte	0x77
 5276 1117 00       		.sleb128 0
 5277 1118 00       		.byte	0
 5278 1119 20       		.uleb128 0x20
 5279 111a 7C010000 		.4byte	.LVL98
 5280 111e 6B1B0000 		.4byte	0x1b6b
 5281 1122 47110000 		.4byte	0x1147
 5282 1126 21       		.uleb128 0x21
 5283 1127 01       		.byte	0x1
 5284 1128 53       		.byte	0x53
 5285 1129 02       		.byte	0x2
 5286 112a 7B       		.byte	0x7b
 5287 112b 00       		.sleb128 0
 5288 112c 21       		.uleb128 0x21
 5289 112d 01       		.byte	0x1
 5290 112e 52       		.byte	0x52
 5291 112f 02       		.byte	0x2
 5292 1130 79       		.byte	0x79
 5293 1131 02       		.sleb128 2
 5294 1132 21       		.uleb128 0x21
 5295 1133 01       		.byte	0x1
 5296 1134 51       		.byte	0x51
 5297 1135 02       		.byte	0x2
 5298 1136 7B       		.byte	0x7b
 5299 1137 00       		.sleb128 0
 5300 1138 21       		.uleb128 0x21
 5301 1139 02       		.byte	0x2
 5302 113a 7D       		.byte	0x7d
 5303 113b 04       		.sleb128 4
 5304 113c 02       		.byte	0x2
 5305 113d 09       		.byte	0x9
 5306 113e FF       		.byte	0xff
 5307 113f 21       		.uleb128 0x21
 5308 1140 02       		.byte	0x2
 5309 1141 7D       		.byte	0x7d
 5310 1142 00       		.sleb128 0
 5311 1143 02       		.byte	0x2
 5312 1144 77       		.byte	0x77
 5313 1145 00       		.sleb128 0
 5314 1146 00       		.byte	0
 5315 1147 20       		.uleb128 0x20
 5316 1148 9C010000 		.4byte	.LVL99
 5317 114c 6B1B0000 		.4byte	0x1b6b
 5318 1150 7B110000 		.4byte	0x117b
 5319 1154 21       		.uleb128 0x21
 5320 1155 01       		.byte	0x1
 5321 1156 53       		.byte	0x53
 5322 1157 02       		.byte	0x2
 5323 1158 7B       		.byte	0x7b
 5324 1159 00       		.sleb128 0
 5325 115a 21       		.uleb128 0x21
 5326 115b 01       		.byte	0x1
ARM GAS  C:\Users\Elis\AppData\Local\Temp\ccIy8Y2d.s 			page 95


 5327 115c 52       		.byte	0x52
 5328 115d 05       		.byte	0x5
 5329 115e 91       		.byte	0x91
 5330 115f 847F     		.sleb128 -124
 5331 1161 94       		.byte	0x94
 5332 1162 02       		.byte	0x2
 5333 1163 21       		.uleb128 0x21
 5334 1164 01       		.byte	0x1
 5335 1165 51       		.byte	0x51
 5336 1166 02       		.byte	0x2
 5337 1167 76       		.byte	0x76
 5338 1168 00       		.sleb128 0
 5339 1169 21       		.uleb128 0x21
 5340 116a 02       		.byte	0x2
 5341 116b 7D       		.byte	0x7d
 5342 116c 04       		.sleb128 4
 5343 116d 02       		.byte	0x2
 5344 116e 77       		.byte	0x77
 5345 116f 00       		.sleb128 0
 5346 1170 21       		.uleb128 0x21
 5347 1171 02       		.byte	0x2
 5348 1172 7D       		.byte	0x7d
 5349 1173 00       		.sleb128 0
 5350 1174 05       		.byte	0x5
 5351 1175 91       		.byte	0x91
 5352 1176 847F     		.sleb128 -124
 5353 1178 94       		.byte	0x94
 5354 1179 02       		.byte	0x2
 5355 117a 00       		.byte	0
 5356 117b 20       		.uleb128 0x20
 5357 117c BA010000 		.4byte	.LVL100
 5358 1180 6B1B0000 		.4byte	0x1b6b
 5359 1184 AC110000 		.4byte	0x11ac
 5360 1188 21       		.uleb128 0x21
 5361 1189 01       		.byte	0x1
 5362 118a 53       		.byte	0x53
 5363 118b 02       		.byte	0x2
 5364 118c 76       		.byte	0x76
 5365 118d 00       		.sleb128 0
 5366 118e 21       		.uleb128 0x21
 5367 118f 01       		.byte	0x1
 5368 1190 52       		.byte	0x52
 5369 1191 02       		.byte	0x2
 5370 1192 7B       		.byte	0x7b
 5371 1193 00       		.sleb128 0
 5372 1194 21       		.uleb128 0x21
 5373 1195 01       		.byte	0x1
 5374 1196 51       		.byte	0x51
 5375 1197 02       		.byte	0x2
 5376 1198 76       		.byte	0x76
 5377 1199 00       		.sleb128 0
 5378 119a 21       		.uleb128 0x21
 5379 119b 02       		.byte	0x2
 5380 119c 7D       		.byte	0x7d
 5381 119d 04       		.sleb128 4
 5382 119e 02       		.byte	0x2
 5383 119f 77       		.byte	0x77
ARM GAS  C:\Users\Elis\AppData\Local\Temp\ccIy8Y2d.s 			page 96


 5384 11a0 00       		.sleb128 0
 5385 11a1 21       		.uleb128 0x21
 5386 11a2 02       		.byte	0x2
 5387 11a3 7D       		.byte	0x7d
 5388 11a4 00       		.sleb128 0
 5389 11a5 05       		.byte	0x5
 5390 11a6 91       		.byte	0x91
 5391 11a7 847F     		.sleb128 -124
 5392 11a9 94       		.byte	0x94
 5393 11aa 02       		.byte	0x2
 5394 11ab 00       		.byte	0
 5395 11ac 20       		.uleb128 0x20
 5396 11ad D6010000 		.4byte	.LVL101
 5397 11b1 6B1B0000 		.4byte	0x1b6b
 5398 11b5 D4110000 		.4byte	0x11d4
 5399 11b9 21       		.uleb128 0x21
 5400 11ba 01       		.byte	0x1
 5401 11bb 52       		.byte	0x52
 5402 11bc 02       		.byte	0x2
 5403 11bd 75       		.byte	0x75
 5404 11be 00       		.sleb128 0
 5405 11bf 21       		.uleb128 0x21
 5406 11c0 01       		.byte	0x1
 5407 11c1 51       		.byte	0x51
 5408 11c2 02       		.byte	0x2
 5409 11c3 76       		.byte	0x76
 5410 11c4 00       		.sleb128 0
 5411 11c5 21       		.uleb128 0x21
 5412 11c6 02       		.byte	0x2
 5413 11c7 7D       		.byte	0x7d
 5414 11c8 04       		.sleb128 4
 5415 11c9 02       		.byte	0x2
 5416 11ca 77       		.byte	0x77
 5417 11cb 00       		.sleb128 0
 5418 11cc 21       		.uleb128 0x21
 5419 11cd 02       		.byte	0x2
 5420 11ce 7D       		.byte	0x7d
 5421 11cf 00       		.sleb128 0
 5422 11d0 02       		.byte	0x2
 5423 11d1 75       		.byte	0x75
 5424 11d2 00       		.sleb128 0
 5425 11d3 00       		.byte	0
 5426 11d4 20       		.uleb128 0x20
 5427 11d5 E6010000 		.4byte	.LVL102
 5428 11d9 6B1B0000 		.4byte	0x1b6b
 5429 11dd 02120000 		.4byte	0x1202
 5430 11e1 21       		.uleb128 0x21
 5431 11e2 01       		.byte	0x1
 5432 11e3 53       		.byte	0x53
 5433 11e4 02       		.byte	0x2
 5434 11e5 76       		.byte	0x76
 5435 11e6 00       		.sleb128 0
 5436 11e7 21       		.uleb128 0x21
 5437 11e8 01       		.byte	0x1
 5438 11e9 52       		.byte	0x52
 5439 11ea 02       		.byte	0x2
 5440 11eb 79       		.byte	0x79
ARM GAS  C:\Users\Elis\AppData\Local\Temp\ccIy8Y2d.s 			page 97


 5441 11ec 00       		.sleb128 0
 5442 11ed 21       		.uleb128 0x21
 5443 11ee 01       		.byte	0x1
 5444 11ef 51       		.byte	0x51
 5445 11f0 02       		.byte	0x2
 5446 11f1 76       		.byte	0x76
 5447 11f2 00       		.sleb128 0
 5448 11f3 21       		.uleb128 0x21
 5449 11f4 02       		.byte	0x2
 5450 11f5 7D       		.byte	0x7d
 5451 11f6 04       		.sleb128 4
 5452 11f7 02       		.byte	0x2
 5453 11f8 77       		.byte	0x77
 5454 11f9 00       		.sleb128 0
 5455 11fa 21       		.uleb128 0x21
 5456 11fb 02       		.byte	0x2
 5457 11fc 7D       		.byte	0x7d
 5458 11fd 00       		.sleb128 0
 5459 11fe 02       		.byte	0x2
 5460 11ff 75       		.byte	0x75
 5461 1200 00       		.sleb128 0
 5462 1201 00       		.byte	0
 5463 1202 20       		.uleb128 0x20
 5464 1203 02020000 		.4byte	.LVL103
 5465 1207 6B1B0000 		.4byte	0x1b6b
 5466 120b 36120000 		.4byte	0x1236
 5467 120f 21       		.uleb128 0x21
 5468 1210 01       		.byte	0x1
 5469 1211 53       		.byte	0x53
 5470 1212 02       		.byte	0x2
 5471 1213 78       		.byte	0x78
 5472 1214 00       		.sleb128 0
 5473 1215 21       		.uleb128 0x21
 5474 1216 01       		.byte	0x1
 5475 1217 52       		.byte	0x52
 5476 1218 05       		.byte	0x5
 5477 1219 91       		.byte	0x91
 5478 121a 847F     		.sleb128 -124
 5479 121c 94       		.byte	0x94
 5480 121d 02       		.byte	0x2
 5481 121e 21       		.uleb128 0x21
 5482 121f 01       		.byte	0x1
 5483 1220 51       		.byte	0x51
 5484 1221 02       		.byte	0x2
 5485 1222 7A       		.byte	0x7a
 5486 1223 00       		.sleb128 0
 5487 1224 21       		.uleb128 0x21
 5488 1225 02       		.byte	0x2
 5489 1226 7D       		.byte	0x7d
 5490 1227 04       		.sleb128 4
 5491 1228 02       		.byte	0x2
 5492 1229 77       		.byte	0x77
 5493 122a 00       		.sleb128 0
 5494 122b 21       		.uleb128 0x21
 5495 122c 02       		.byte	0x2
 5496 122d 7D       		.byte	0x7d
 5497 122e 00       		.sleb128 0
ARM GAS  C:\Users\Elis\AppData\Local\Temp\ccIy8Y2d.s 			page 98


 5498 122f 05       		.byte	0x5
 5499 1230 91       		.byte	0x91
 5500 1231 847F     		.sleb128 -124
 5501 1233 94       		.byte	0x94
 5502 1234 02       		.byte	0x2
 5503 1235 00       		.byte	0
 5504 1236 20       		.uleb128 0x20
 5505 1237 18020000 		.4byte	.LVL104
 5506 123b 6B1B0000 		.4byte	0x1b6b
 5507 123f 67120000 		.4byte	0x1267
 5508 1243 21       		.uleb128 0x21
 5509 1244 01       		.byte	0x1
 5510 1245 53       		.byte	0x53
 5511 1246 02       		.byte	0x2
 5512 1247 78       		.byte	0x78
 5513 1248 00       		.sleb128 0
 5514 1249 21       		.uleb128 0x21
 5515 124a 01       		.byte	0x1
 5516 124b 52       		.byte	0x52
 5517 124c 02       		.byte	0x2
 5518 124d 7B       		.byte	0x7b
 5519 124e 00       		.sleb128 0
 5520 124f 21       		.uleb128 0x21
 5521 1250 01       		.byte	0x1
 5522 1251 51       		.byte	0x51
 5523 1252 02       		.byte	0x2
 5524 1253 78       		.byte	0x78
 5525 1254 00       		.sleb128 0
 5526 1255 21       		.uleb128 0x21
 5527 1256 02       		.byte	0x2
 5528 1257 7D       		.byte	0x7d
 5529 1258 04       		.sleb128 4
 5530 1259 02       		.byte	0x2
 5531 125a 77       		.byte	0x77
 5532 125b 00       		.sleb128 0
 5533 125c 21       		.uleb128 0x21
 5534 125d 02       		.byte	0x2
 5535 125e 7D       		.byte	0x7d
 5536 125f 00       		.sleb128 0
 5537 1260 05       		.byte	0x5
 5538 1261 91       		.byte	0x91
 5539 1262 847F     		.sleb128 -124
 5540 1264 94       		.byte	0x94
 5541 1265 02       		.byte	0x2
 5542 1266 00       		.byte	0
 5543 1267 20       		.uleb128 0x20
 5544 1268 28020000 		.4byte	.LVL105
 5545 126c 6B1B0000 		.4byte	0x1b6b
 5546 1270 95120000 		.4byte	0x1295
 5547 1274 21       		.uleb128 0x21
 5548 1275 01       		.byte	0x1
 5549 1276 53       		.byte	0x53
 5550 1277 02       		.byte	0x2
 5551 1278 78       		.byte	0x78
 5552 1279 00       		.sleb128 0
 5553 127a 21       		.uleb128 0x21
 5554 127b 01       		.byte	0x1
ARM GAS  C:\Users\Elis\AppData\Local\Temp\ccIy8Y2d.s 			page 99


 5555 127c 52       		.byte	0x52
 5556 127d 02       		.byte	0x2
 5557 127e 75       		.byte	0x75
 5558 127f 00       		.sleb128 0
 5559 1280 21       		.uleb128 0x21
 5560 1281 01       		.byte	0x1
 5561 1282 51       		.byte	0x51
 5562 1283 02       		.byte	0x2
 5563 1284 7A       		.byte	0x7a
 5564 1285 00       		.sleb128 0
 5565 1286 21       		.uleb128 0x21
 5566 1287 02       		.byte	0x2
 5567 1288 7D       		.byte	0x7d
 5568 1289 04       		.sleb128 4
 5569 128a 02       		.byte	0x2
 5570 128b 77       		.byte	0x77
 5571 128c 00       		.sleb128 0
 5572 128d 21       		.uleb128 0x21
 5573 128e 02       		.byte	0x2
 5574 128f 7D       		.byte	0x7d
 5575 1290 00       		.sleb128 0
 5576 1291 02       		.byte	0x2
 5577 1292 75       		.byte	0x75
 5578 1293 00       		.sleb128 0
 5579 1294 00       		.byte	0
 5580 1295 2C       		.uleb128 0x2c
 5581 1296 3A020000 		.4byte	.LVL106
 5582 129a 6B1B0000 		.4byte	0x1b6b
 5583 129e 21       		.uleb128 0x21
 5584 129f 01       		.byte	0x1
 5585 12a0 53       		.byte	0x53
 5586 12a1 02       		.byte	0x2
 5587 12a2 78       		.byte	0x78
 5588 12a3 00       		.sleb128 0
 5589 12a4 21       		.uleb128 0x21
 5590 12a5 01       		.byte	0x1
 5591 12a6 52       		.byte	0x52
 5592 12a7 02       		.byte	0x2
 5593 12a8 75       		.byte	0x75
 5594 12a9 00       		.sleb128 0
 5595 12aa 21       		.uleb128 0x21
 5596 12ab 01       		.byte	0x1
 5597 12ac 51       		.byte	0x51
 5598 12ad 02       		.byte	0x2
 5599 12ae 78       		.byte	0x78
 5600 12af 00       		.sleb128 0
 5601 12b0 21       		.uleb128 0x21
 5602 12b1 02       		.byte	0x2
 5603 12b2 7D       		.byte	0x7d
 5604 12b3 04       		.sleb128 4
 5605 12b4 02       		.byte	0x2
 5606 12b5 77       		.byte	0x77
 5607 12b6 00       		.sleb128 0
 5608 12b7 21       		.uleb128 0x21
 5609 12b8 02       		.byte	0x2
 5610 12b9 7D       		.byte	0x7d
 5611 12ba 00       		.sleb128 0
ARM GAS  C:\Users\Elis\AppData\Local\Temp\ccIy8Y2d.s 			page 100


 5612 12bb 02       		.byte	0x2
 5613 12bc 79       		.byte	0x79
 5614 12bd 00       		.sleb128 0
 5615 12be 00       		.byte	0
 5616 12bf 00       		.byte	0
 5617 12c0 3B       		.uleb128 0x3b
 5618 12c1 F90E0000 		.4byte	0xef9
 5619 12c5 86020000 		.4byte	.LBB39
 5620 12c9 C0000000 		.4byte	.Ldebug_ranges0+0xc0
 5621 12cd 01       		.byte	0x1
 5622 12ce 1002     		.2byte	0x210
 5623 12d0 F2120000 		.4byte	0x12f2
 5624 12d4 3C       		.uleb128 0x3c
 5625 12d5 110F0000 		.4byte	0xf11
 5626 12d9 2E       		.uleb128 0x2e
 5627 12da 070F0000 		.4byte	0xf07
 5628 12de 3F070000 		.4byte	.LLST34
 5629 12e2 2C       		.uleb128 0x2c
 5630 12e3 BE020000 		.4byte	.LVL113
 5631 12e7 991B0000 		.4byte	0x1b99
 5632 12eb 21       		.uleb128 0x21
 5633 12ec 01       		.byte	0x1
 5634 12ed 53       		.byte	0x53
 5635 12ee 01       		.byte	0x1
 5636 12ef 4F       		.byte	0x4f
 5637 12f0 00       		.byte	0
 5638 12f1 00       		.byte	0
 5639 12f2 28       		.uleb128 0x28
 5640 12f3 78020000 		.4byte	.LVL110
 5641 12f7 C71B0000 		.4byte	0x1bc7
 5642 12fb 2C       		.uleb128 0x2c
 5643 12fc 58060000 		.4byte	.LVL212
 5644 1300 C71B0000 		.4byte	0x1bc7
 5645 1304 21       		.uleb128 0x21
 5646 1305 01       		.byte	0x1
 5647 1306 50       		.byte	0x50
 5648 1307 01       		.byte	0x1
 5649 1308 44       		.byte	0x44
 5650 1309 00       		.byte	0
 5651 130a 00       		.byte	0
 5652 130b 00       		.byte	0
 5653 130c 3B       		.uleb128 0x3b
 5654 130d 1D0F0000 		.4byte	0xf1d
 5655 1311 C8020000 		.4byte	.LBB52
 5656 1315 F0000000 		.4byte	.Ldebug_ranges0+0xf0
 5657 1319 01       		.byte	0x1
 5658 131a 1502     		.2byte	0x215
 5659 131c 9C130000 		.4byte	0x139c
 5660 1320 2E       		.uleb128 0x2e
 5661 1321 410F0000 		.4byte	0xf41
 5662 1325 76070000 		.4byte	.LLST35
 5663 1329 2E       		.uleb128 0x2e
 5664 132a 350F0000 		.4byte	0xf35
 5665 132e EB070000 		.4byte	.LLST36
 5666 1332 2E       		.uleb128 0x2e
 5667 1333 2B0F0000 		.4byte	0xf2b
 5668 1337 1D080000 		.4byte	.LLST37
ARM GAS  C:\Users\Elis\AppData\Local\Temp\ccIy8Y2d.s 			page 101


 5669 133b 3A       		.uleb128 0x3a
 5670 133c 30010000 		.4byte	.Ldebug_ranges0+0x130
 5671 1340 3D       		.uleb128 0x3d
 5672 1341 4D0F0000 		.4byte	0xf4d
 5673 1345 54080000 		.4byte	.LLST38
 5674 1349 3D       		.uleb128 0x3d
 5675 134a 580F0000 		.4byte	0xf58
 5676 134e 93080000 		.4byte	.LLST39
 5677 1352 3D       		.uleb128 0x3d
 5678 1353 630F0000 		.4byte	0xf63
 5679 1357 BD090000 		.4byte	.LLST40
 5680 135b 3D       		.uleb128 0x3d
 5681 135c 6E0F0000 		.4byte	0xf6e
 5682 1360 0E0B0000 		.4byte	.LLST41
 5683 1364 28       		.uleb128 0x28
 5684 1365 DE060000 		.4byte	.LVL216
 5685 1369 E61A0000 		.4byte	0x1ae6
 5686 136d 28       		.uleb128 0x28
 5687 136e 02070000 		.4byte	.LVL218
 5688 1372 E61A0000 		.4byte	0x1ae6
 5689 1376 28       		.uleb128 0x28
 5690 1377 7C070000 		.4byte	.LVL227
 5691 137b FF1A0000 		.4byte	0x1aff
 5692 137f 28       		.uleb128 0x28
 5693 1380 A2070000 		.4byte	.LVL232
 5694 1384 181B0000 		.4byte	0x1b18
 5695 1388 28       		.uleb128 0x28
 5696 1389 FE070000 		.4byte	.LVL242
 5697 138d 181B0000 		.4byte	0x1b18
 5698 1391 28       		.uleb128 0x28
 5699 1392 3C080000 		.4byte	.LVL257
 5700 1396 FF1A0000 		.4byte	0x1aff
 5701 139a 00       		.byte	0
 5702 139b 00       		.byte	0
 5703 139c 27       		.uleb128 0x27
 5704 139d 78010000 		.4byte	.Ldebug_ranges0+0x178
 5705 13a1 60140000 		.4byte	0x1460
 5706 13a5 2B       		.uleb128 0x2b
 5707 13a6 706A00   		.ascii	"pj\000"
 5708 13a9 01       		.byte	0x1
 5709 13aa 1D02     		.2byte	0x21d
 5710 13ac 4E0E0000 		.4byte	0xe4e
 5711 13b0 380C0000 		.4byte	.LLST42
 5712 13b4 3B       		.uleb128 0x3b
 5713 13b5 AF0C0000 		.4byte	0xcaf
 5714 13b9 68050000 		.4byte	.LBB64
 5715 13bd A8010000 		.4byte	.Ldebug_ranges0+0x1a8
 5716 13c1 01       		.byte	0x1
 5717 13c2 2302     		.2byte	0x223
 5718 13c4 DB130000 		.4byte	0x13db
 5719 13c8 2E       		.uleb128 0x2e
 5720 13c9 C60C0000 		.4byte	0xcc6
 5721 13cd 6C0C0000 		.4byte	.LLST43
 5722 13d1 2E       		.uleb128 0x2e
 5723 13d2 BC0C0000 		.4byte	0xcbc
 5724 13d6 A80C0000 		.4byte	.LLST44
 5725 13da 00       		.byte	0
ARM GAS  C:\Users\Elis\AppData\Local\Temp\ccIy8Y2d.s 			page 102


 5726 13db 27       		.uleb128 0x27
 5727 13dc C0010000 		.4byte	.Ldebug_ranges0+0x1c0
 5728 13e0 F8130000 		.4byte	0x13f8
 5729 13e4 35       		.uleb128 0x35
 5730 13e5 7400     		.ascii	"t\000"
 5731 13e7 01       		.byte	0x1
 5732 13e8 2802     		.2byte	0x228
 5733 13ea 60070000 		.4byte	0x760
 5734 13ee 28       		.uleb128 0x28
 5735 13ef CA070000 		.4byte	.LVL239
 5736 13f3 E61A0000 		.4byte	0x1ae6
 5737 13f7 00       		.byte	0
 5738 13f8 20       		.uleb128 0x20
 5739 13f9 54070000 		.4byte	.LVL222
 5740 13fd DB1B0000 		.4byte	0x1bdb
 5741 1401 4E140000 		.4byte	0x144e
 5742 1405 21       		.uleb128 0x21
 5743 1406 01       		.byte	0x1
 5744 1407 53       		.byte	0x53
 5745 1408 05       		.byte	0x5
 5746 1409 91       		.byte	0x91
 5747 140a F87E     		.sleb128 -136
 5748 140c 94       		.byte	0x94
 5749 140d 02       		.byte	0x2
 5750 140e 21       		.uleb128 0x21
 5751 140f 01       		.byte	0x1
 5752 1410 52       		.byte	0x52
 5753 1411 02       		.byte	0x2
 5754 1412 08       		.byte	0x8
 5755 1413 23       		.byte	0x23
 5756 1414 21       		.uleb128 0x21
 5757 1415 01       		.byte	0x1
 5758 1416 51       		.byte	0x51
 5759 1417 05       		.byte	0x5
 5760 1418 91       		.byte	0x91
 5761 1419 F07E     		.sleb128 -144
 5762 141b 94       		.byte	0x94
 5763 141c 02       		.byte	0x2
 5764 141d 21       		.uleb128 0x21
 5765 141e 02       		.byte	0x2
 5766 141f 7D       		.byte	0x7d
 5767 1420 14       		.sleb128 20
 5768 1421 02       		.byte	0x2
 5769 1422 76       		.byte	0x76
 5770 1423 00       		.sleb128 0
 5771 1424 21       		.uleb128 0x21
 5772 1425 02       		.byte	0x2
 5773 1426 7D       		.byte	0x7d
 5774 1427 10       		.sleb128 16
 5775 1428 02       		.byte	0x2
 5776 1429 09       		.byte	0x9
 5777 142a E0       		.byte	0xe0
 5778 142b 21       		.uleb128 0x21
 5779 142c 02       		.byte	0x2
 5780 142d 7D       		.byte	0x7d
 5781 142e 0C       		.sleb128 12
 5782 142f 03       		.byte	0x3
ARM GAS  C:\Users\Elis\AppData\Local\Temp\ccIy8Y2d.s 			page 103


 5783 1430 0B       		.byte	0xb
 5784 1431 00F8     		.2byte	0xf800
 5785 1433 21       		.uleb128 0x21
 5786 1434 02       		.byte	0x2
 5787 1435 7D       		.byte	0x7d
 5788 1436 08       		.sleb128 8
 5789 1437 04       		.byte	0x4
 5790 1438 91       		.byte	0x91
 5791 1439 947F     		.sleb128 -108
 5792 143b 06       		.byte	0x6
 5793 143c 21       		.uleb128 0x21
 5794 143d 02       		.byte	0x2
 5795 143e 7D       		.byte	0x7d
 5796 143f 04       		.sleb128 4
 5797 1440 05       		.byte	0x5
 5798 1441 03       		.byte	0x3
 5799 1442 28000000 		.4byte	.LC4
 5800 1446 21       		.uleb128 0x21
 5801 1447 02       		.byte	0x2
 5802 1448 7D       		.byte	0x7d
 5803 1449 00       		.sleb128 0
 5804 144a 02       		.byte	0x2
 5805 144b 08       		.byte	0x8
 5806 144c 28       		.byte	0x28
 5807 144d 00       		.byte	0
 5808 144e 2C       		.uleb128 0x2c
 5809 144f 5C070000 		.4byte	.LVL223
 5810 1453 C71B0000 		.4byte	0x1bc7
 5811 1457 21       		.uleb128 0x21
 5812 1458 01       		.byte	0x1
 5813 1459 50       		.byte	0x50
 5814 145a 03       		.byte	0x3
 5815 145b 0A       		.byte	0xa
 5816 145c B80B     		.2byte	0xbb8
 5817 145e 00       		.byte	0
 5818 145f 00       		.byte	0
 5819 1460 20       		.uleb128 0x20
 5820 1461 0E000000 		.4byte	.LVL79
 5821 1465 1D1C0000 		.4byte	0x1c1d
 5822 1469 77140000 		.4byte	0x1477
 5823 146d 21       		.uleb128 0x21
 5824 146e 01       		.byte	0x1
 5825 146f 50       		.byte	0x50
 5826 1470 05       		.byte	0x5
 5827 1471 03       		.byte	0x3
 5828 1472 00000000 		.4byte	.LC0
 5829 1476 00       		.byte	0
 5830 1477 20       		.uleb128 0x20
 5831 1478 1C000000 		.4byte	.LVL81
 5832 147c 1D1C0000 		.4byte	0x1c1d
 5833 1480 8E140000 		.4byte	0x148e
 5834 1484 21       		.uleb128 0x21
 5835 1485 01       		.byte	0x1
 5836 1486 50       		.byte	0x50
 5837 1487 05       		.byte	0x5
 5838 1488 03       		.byte	0x3
 5839 1489 10000000 		.4byte	.LC2
ARM GAS  C:\Users\Elis\AppData\Local\Temp\ccIy8Y2d.s 			page 104


 5840 148d 00       		.byte	0
 5841 148e 28       		.uleb128 0x28
 5842 148f 2A000000 		.4byte	.LVL83
 5843 1493 FF1A0000 		.4byte	0x1aff
 5844 1497 28       		.uleb128 0x28
 5845 1498 32000000 		.4byte	.LVL85
 5846 149c 181B0000 		.4byte	0x1b18
 5847 14a0 20       		.uleb128 0x20
 5848 14a1 44000000 		.4byte	.LVL87
 5849 14a5 361C0000 		.4byte	0x1c36
 5850 14a9 C8140000 		.4byte	0x14c8
 5851 14ad 21       		.uleb128 0x21
 5852 14ae 01       		.byte	0x1
 5853 14af 53       		.byte	0x53
 5854 14b0 05       		.byte	0x5
 5855 14b1 91       		.byte	0x91
 5856 14b2 F87E     		.sleb128 -136
 5857 14b4 94       		.byte	0x94
 5858 14b5 02       		.byte	0x2
 5859 14b6 21       		.uleb128 0x21
 5860 14b7 01       		.byte	0x1
 5861 14b8 52       		.byte	0x52
 5862 14b9 01       		.byte	0x1
 5863 14ba 30       		.byte	0x30
 5864 14bb 21       		.uleb128 0x21
 5865 14bc 01       		.byte	0x1
 5866 14bd 51       		.byte	0x51
 5867 14be 01       		.byte	0x1
 5868 14bf 30       		.byte	0x30
 5869 14c0 21       		.uleb128 0x21
 5870 14c1 02       		.byte	0x2
 5871 14c2 7D       		.byte	0x7d
 5872 14c3 00       		.sleb128 0
 5873 14c4 02       		.byte	0x2
 5874 14c5 75       		.byte	0x75
 5875 14c6 00       		.sleb128 0
 5876 14c7 00       		.byte	0
 5877 14c8 20       		.uleb128 0x20
 5878 14c9 A8000000 		.4byte	.LVL88
 5879 14cd 5F1C0000 		.4byte	0x1c5f
 5880 14d1 DB140000 		.4byte	0x14db
 5881 14d5 21       		.uleb128 0x21
 5882 14d6 01       		.byte	0x1
 5883 14d7 51       		.byte	0x51
 5884 14d8 01       		.byte	0x1
 5885 14d9 4F       		.byte	0x4f
 5886 14da 00       		.byte	0
 5887 14db 20       		.uleb128 0x20
 5888 14dc CC000000 		.4byte	.LVL89
 5889 14e0 DB1B0000 		.4byte	0x1bdb
 5890 14e4 27150000 		.4byte	0x1527
 5891 14e8 21       		.uleb128 0x21
 5892 14e9 01       		.byte	0x1
 5893 14ea 53       		.byte	0x53
 5894 14eb 05       		.byte	0x5
 5895 14ec 91       		.byte	0x91
 5896 14ed F87E     		.sleb128 -136
ARM GAS  C:\Users\Elis\AppData\Local\Temp\ccIy8Y2d.s 			page 105


 5897 14ef 94       		.byte	0x94
 5898 14f0 02       		.byte	0x2
 5899 14f1 21       		.uleb128 0x21
 5900 14f2 01       		.byte	0x1
 5901 14f3 52       		.byte	0x52
 5902 14f4 01       		.byte	0x1
 5903 14f5 35       		.byte	0x35
 5904 14f6 21       		.uleb128 0x21
 5905 14f7 01       		.byte	0x1
 5906 14f8 51       		.byte	0x51
 5907 14f9 01       		.byte	0x1
 5908 14fa 30       		.byte	0x30
 5909 14fb 21       		.uleb128 0x21
 5910 14fc 02       		.byte	0x2
 5911 14fd 7D       		.byte	0x7d
 5912 14fe 14       		.sleb128 20
 5913 14ff 02       		.byte	0x2
 5914 1500 77       		.byte	0x77
 5915 1501 00       		.sleb128 0
 5916 1502 21       		.uleb128 0x21
 5917 1503 02       		.byte	0x2
 5918 1504 7D       		.byte	0x7d
 5919 1505 10       		.sleb128 16
 5920 1506 01       		.byte	0x1
 5921 1507 4F       		.byte	0x4f
 5922 1508 21       		.uleb128 0x21
 5923 1509 02       		.byte	0x2
 5924 150a 7D       		.byte	0x7d
 5925 150b 0C       		.sleb128 12
 5926 150c 02       		.byte	0x2
 5927 150d 09       		.byte	0x9
 5928 150e FF       		.byte	0xff
 5929 150f 21       		.uleb128 0x21
 5930 1510 02       		.byte	0x2
 5931 1511 7D       		.byte	0x7d
 5932 1512 08       		.sleb128 8
 5933 1513 04       		.byte	0x4
 5934 1514 91       		.byte	0x91
 5935 1515 907F     		.sleb128 -112
 5936 1517 06       		.byte	0x6
 5937 1518 21       		.uleb128 0x21
 5938 1519 02       		.byte	0x2
 5939 151a 7D       		.byte	0x7d
 5940 151b 04       		.sleb128 4
 5941 151c 02       		.byte	0x2
 5942 151d 76       		.byte	0x76
 5943 151e 00       		.sleb128 0
 5944 151f 21       		.uleb128 0x21
 5945 1520 02       		.byte	0x2
 5946 1521 7D       		.byte	0x7d
 5947 1522 00       		.sleb128 0
 5948 1523 02       		.byte	0x2
 5949 1524 75       		.byte	0x75
 5950 1525 00       		.sleb128 0
 5951 1526 00       		.byte	0
 5952 1527 20       		.uleb128 0x20
 5953 1528 0E060000 		.4byte	.LVL203
ARM GAS  C:\Users\Elis\AppData\Local\Temp\ccIy8Y2d.s 			page 106


 5954 152c 791C0000 		.4byte	0x1c79
 5955 1530 3D150000 		.4byte	0x153d
 5956 1534 21       		.uleb128 0x21
 5957 1535 01       		.byte	0x1
 5958 1536 50       		.byte	0x50
 5959 1537 04       		.byte	0x4
 5960 1538 91       		.byte	0x91
 5961 1539 907F     		.sleb128 -112
 5962 153b 06       		.byte	0x6
 5963 153c 00       		.byte	0
 5964 153d 20       		.uleb128 0x20
 5965 153e 14060000 		.4byte	.LVL204
 5966 1542 791C0000 		.4byte	0x1c79
 5967 1546 53150000 		.4byte	0x1553
 5968 154a 21       		.uleb128 0x21
 5969 154b 01       		.byte	0x1
 5970 154c 50       		.byte	0x50
 5971 154d 04       		.byte	0x4
 5972 154e 91       		.byte	0x91
 5973 154f 947F     		.sleb128 -108
 5974 1551 06       		.byte	0x6
 5975 1552 00       		.byte	0
 5976 1553 3E       		.uleb128 0x3e
 5977 1554 30060000 		.4byte	.LVL205
 5978 1558 02       		.byte	0x2
 5979 1559 75       		.byte	0x75
 5980 155a 00       		.sleb128 0
 5981 155b 71150000 		.4byte	0x1571
 5982 155f 21       		.uleb128 0x21
 5983 1560 01       		.byte	0x1
 5984 1561 52       		.byte	0x52
 5985 1562 01       		.byte	0x1
 5986 1563 48       		.byte	0x48
 5987 1564 21       		.uleb128 0x21
 5988 1565 01       		.byte	0x1
 5989 1566 51       		.byte	0x51
 5990 1567 02       		.byte	0x2
 5991 1568 74       		.byte	0x74
 5992 1569 20       		.sleb128 32
 5993 156a 21       		.uleb128 0x21
 5994 156b 01       		.byte	0x1
 5995 156c 50       		.byte	0x50
 5996 156d 02       		.byte	0x2
 5997 156e 74       		.byte	0x74
 5998 156f 00       		.sleb128 0
 5999 1570 00       		.byte	0
 6000 1571 20       		.uleb128 0x20
 6001 1572 3C060000 		.4byte	.LVL207
 6002 1576 DB0C0000 		.4byte	0xcdb
 6003 157a 85150000 		.4byte	0x1585
 6004 157e 21       		.uleb128 0x21
 6005 157f 01       		.byte	0x1
 6006 1580 50       		.byte	0x50
 6007 1581 02       		.byte	0x2
 6008 1582 74       		.byte	0x74
 6009 1583 00       		.sleb128 0
 6010 1584 00       		.byte	0
ARM GAS  C:\Users\Elis\AppData\Local\Temp\ccIy8Y2d.s 			page 107


 6011 1585 28       		.uleb128 0x28
 6012 1586 42060000 		.4byte	.LVL209
 6013 158a 8E1C0000 		.4byte	0x1c8e
 6014 158e 20       		.uleb128 0x20
 6015 158f 4A060000 		.4byte	.LVL210
 6016 1593 5F1C0000 		.4byte	0x1c5f
 6017 1597 A2150000 		.4byte	0x15a2
 6018 159b 21       		.uleb128 0x21
 6019 159c 01       		.byte	0x1
 6020 159d 50       		.byte	0x50
 6021 159e 02       		.byte	0x2
 6022 159f 74       		.byte	0x74
 6023 15a0 00       		.sleb128 0
 6024 15a1 00       		.byte	0
 6025 15a2 20       		.uleb128 0x20
 6026 15a3 62070000 		.4byte	.LVL224
 6027 15a7 791C0000 		.4byte	0x1c79
 6028 15ab B8150000 		.4byte	0x15b8
 6029 15af 21       		.uleb128 0x21
 6030 15b0 01       		.byte	0x1
 6031 15b1 50       		.byte	0x50
 6032 15b2 04       		.byte	0x4
 6033 15b3 91       		.byte	0x91
 6034 15b4 907F     		.sleb128 -112
 6035 15b6 06       		.byte	0x6
 6036 15b7 00       		.byte	0
 6037 15b8 20       		.uleb128 0x20
 6038 15b9 68070000 		.4byte	.LVL225
 6039 15bd 791C0000 		.4byte	0x1c79
 6040 15c1 CE150000 		.4byte	0x15ce
 6041 15c5 21       		.uleb128 0x21
 6042 15c6 01       		.byte	0x1
 6043 15c7 50       		.byte	0x50
 6044 15c8 04       		.byte	0x4
 6045 15c9 91       		.byte	0x91
 6046 15ca 947F     		.sleb128 -108
 6047 15cc 06       		.byte	0x6
 6048 15cd 00       		.byte	0
 6049 15ce 20       		.uleb128 0x20
 6050 15cf 24080000 		.4byte	.LVL250
 6051 15d3 1D1C0000 		.4byte	0x1c1d
 6052 15d7 E5150000 		.4byte	0x15e5
 6053 15db 21       		.uleb128 0x21
 6054 15dc 01       		.byte	0x1
 6055 15dd 50       		.byte	0x50
 6056 15de 05       		.byte	0x5
 6057 15df 03       		.byte	0x3
 6058 15e0 0C000000 		.4byte	.LC1
 6059 15e4 00       		.byte	0
 6060 15e5 2C       		.uleb128 0x2c
 6061 15e6 30080000 		.4byte	.LVL254
 6062 15ea 1D1C0000 		.4byte	0x1c1d
 6063 15ee 21       		.uleb128 0x21
 6064 15ef 01       		.byte	0x1
 6065 15f0 50       		.byte	0x50
 6066 15f1 05       		.byte	0x5
 6067 15f2 03       		.byte	0x3
ARM GAS  C:\Users\Elis\AppData\Local\Temp\ccIy8Y2d.s 			page 108


 6068 15f3 0C000000 		.4byte	.LC1
 6069 15f7 00       		.byte	0
 6070 15f8 00       		.byte	0
 6071 15f9 15       		.uleb128 0x15
 6072 15fa 64050000 		.4byte	0x564
 6073 15fe 09160000 		.4byte	0x1609
 6074 1602 16       		.uleb128 0x16
 6075 1603 6C030000 		.4byte	0x36c
 6076 1607 03       		.byte	0x3
 6077 1608 00       		.byte	0
 6078 1609 3F       		.uleb128 0x3f
 6079 160a 01       		.byte	0x1
 6080 160b 5D080000 		.4byte	.LASF169
 6081 160f 01       		.byte	0x1
 6082 1610 7202     		.2byte	0x272
 6083 1612 01       		.byte	0x1
 6084 1613 00000000 		.4byte	.LFB126
 6085 1617 1C000000 		.4byte	.LFE126
 6086 161b 02       		.byte	0x2
 6087 161c 7D       		.byte	0x7d
 6088 161d 00       		.sleb128 0
 6089 161e 01       		.byte	0x1
 6090 161f 42160000 		.4byte	0x1642
 6091 1623 3A       		.uleb128 0x3a
 6092 1624 D8010000 		.4byte	.Ldebug_ranges0+0x1d8
 6093 1628 40       		.uleb128 0x40
 6094 1629 B4060000 		.4byte	.LASF186
 6095 162d 01       		.byte	0x1
 6096 162e 8502     		.2byte	0x285
 6097 1630 52160000 		.4byte	0x1652
 6098 1634 01       		.byte	0x1
 6099 1635 01       		.byte	0x1
 6100 1636 41       		.uleb128 0x41
 6101 1637 12000000 		.4byte	.LVL263
 6102 163b 01       		.byte	0x1
 6103 163c 9C1C0000 		.4byte	0x1c9c
 6104 1640 00       		.byte	0
 6105 1641 00       		.byte	0
 6106 1642 15       		.uleb128 0x15
 6107 1643 220C0000 		.4byte	0xc22
 6108 1647 52160000 		.4byte	0x1652
 6109 164b 16       		.uleb128 0x16
 6110 164c 6C030000 		.4byte	0x36c
 6111 1650 00       		.byte	0
 6112 1651 00       		.byte	0
 6113 1652 12       		.uleb128 0x12
 6114 1653 42160000 		.4byte	0x1642
 6115 1657 3F       		.uleb128 0x3f
 6116 1658 01       		.byte	0x1
 6117 1659 A6040000 		.4byte	.LASF170
 6118 165d 01       		.byte	0x1
 6119 165e 8E02     		.2byte	0x28e
 6120 1660 01       		.byte	0x1
 6121 1661 00000000 		.4byte	.LFB127
 6122 1665 0C000000 		.4byte	.LFE127
 6123 1669 02       		.byte	0x2
 6124 166a 7D       		.byte	0x7d
ARM GAS  C:\Users\Elis\AppData\Local\Temp\ccIy8Y2d.s 			page 109


 6125 166b 00       		.sleb128 0
 6126 166c 01       		.byte	0x1
 6127 166d 86160000 		.4byte	0x1686
 6128 1671 22       		.uleb128 0x22
 6129 1672 0C000000 		.4byte	.LVL264
 6130 1676 01       		.byte	0x1
 6131 1677 C41C0000 		.4byte	0x1cc4
 6132 167b 21       		.uleb128 0x21
 6133 167c 01       		.byte	0x1
 6134 167d 50       		.byte	0x50
 6135 167e 05       		.byte	0x5
 6136 167f 03       		.byte	0x3
 6137 1680 00000000 		.4byte	.LANCHOR0
 6138 1684 00       		.byte	0
 6139 1685 00       		.byte	0
 6140 1686 42       		.uleb128 0x42
 6141 1687 01       		.byte	0x1
 6142 1688 56020000 		.4byte	.LASF175
 6143 168c 01       		.byte	0x1
 6144 168d 9202     		.2byte	0x292
 6145 168f 01       		.byte	0x1
 6146 1690 B1000000 		.4byte	0xb1
 6147 1694 00000000 		.4byte	.LFB128
 6148 1698 50000000 		.4byte	.LFE128
 6149 169c E40C0000 		.4byte	.LLST45
 6150 16a0 01       		.byte	0x1
 6151 16a1 33170000 		.4byte	0x1733
 6152 16a5 37       		.uleb128 0x37
 6153 16a6 6700     		.ascii	"g\000"
 6154 16a8 01       		.byte	0x1
 6155 16a9 9202     		.2byte	0x292
 6156 16ab 47090000 		.4byte	0x947
 6157 16af 100D0000 		.4byte	.LLST46
 6158 16b3 31       		.uleb128 0x31
 6159 16b4 8D060000 		.4byte	.LASF125
 6160 16b8 01       		.byte	0x1
 6161 16b9 9202     		.2byte	0x292
 6162 16bb B9020000 		.4byte	0x2b9
 6163 16bf 310D0000 		.4byte	.LLST47
 6164 16c3 31       		.uleb128 0x31
 6165 16c4 EC070000 		.4byte	.LASF171
 6166 16c8 01       		.byte	0x1
 6167 16c9 9202     		.2byte	0x292
 6168 16cb 3B000000 		.4byte	0x3b
 6169 16cf 5E0D0000 		.4byte	.LLST48
 6170 16d3 31       		.uleb128 0x31
 6171 16d4 81030000 		.4byte	.LASF172
 6172 16d8 01       		.byte	0x1
 6173 16d9 9202     		.2byte	0x292
 6174 16db 3B000000 		.4byte	0x3b
 6175 16df 7F0D0000 		.4byte	.LLST49
 6176 16e3 43       		.uleb128 0x43
 6177 16e4 20000000 		.4byte	.LVL268
 6178 16e8 F4160000 		.4byte	0x16f4
 6179 16ec 21       		.uleb128 0x21
 6180 16ed 01       		.byte	0x1
 6181 16ee 51       		.byte	0x51
ARM GAS  C:\Users\Elis\AppData\Local\Temp\ccIy8Y2d.s 			page 110


 6182 16ef 03       		.byte	0x3
 6183 16f0 F3       		.byte	0xf3
 6184 16f1 01       		.uleb128 0x1
 6185 16f2 52       		.byte	0x52
 6186 16f3 00       		.byte	0
 6187 16f4 20       		.uleb128 0x20
 6188 16f5 2C000000 		.4byte	.LVL269
 6189 16f9 DE1C0000 		.4byte	0x1cde
 6190 16fd 0B170000 		.4byte	0x170b
 6191 1701 21       		.uleb128 0x21
 6192 1702 01       		.byte	0x1
 6193 1703 50       		.byte	0x50
 6194 1704 05       		.byte	0x5
 6195 1705 03       		.byte	0x3
 6196 1706 00000000 		.4byte	.LANCHOR0
 6197 170a 00       		.byte	0
 6198 170b 2C       		.uleb128 0x2c
 6199 170c 42000000 		.4byte	.LVL270
 6200 1710 F61C0000 		.4byte	0x1cf6
 6201 1714 21       		.uleb128 0x21
 6202 1715 01       		.byte	0x1
 6203 1716 53       		.byte	0x53
 6204 1717 01       		.byte	0x1
 6205 1718 31       		.byte	0x31
 6206 1719 21       		.uleb128 0x21
 6207 171a 01       		.byte	0x1
 6208 171b 51       		.byte	0x51
 6209 171c 05       		.byte	0x5
 6210 171d 03       		.byte	0x3
 6211 171e 00000000 		.4byte	MousePoll
 6212 1722 21       		.uleb128 0x21
 6213 1723 01       		.byte	0x1
 6214 1724 50       		.byte	0x50
 6215 1725 05       		.byte	0x5
 6216 1726 03       		.byte	0x3
 6217 1727 00000000 		.4byte	.LANCHOR0
 6218 172b 21       		.uleb128 0x21
 6219 172c 02       		.byte	0x2
 6220 172d 7D       		.byte	0x7d
 6221 172e 00       		.sleb128 0
 6222 172f 01       		.byte	0x1
 6223 1730 49       		.byte	0x49
 6224 1731 00       		.byte	0
 6225 1732 00       		.byte	0
 6226 1733 44       		.uleb128 0x44
 6227 1734 01       		.byte	0x1
 6228 1735 79010000 		.4byte	.LASF173
 6229 1739 01       		.byte	0x1
 6230 173a AC02     		.2byte	0x2ac
 6231 173c 01       		.byte	0x1
 6232 173d 00000000 		.4byte	.LFB129
 6233 1741 44000000 		.4byte	.LFE129
 6234 1745 A00D0000 		.4byte	.LLST50
 6235 1749 01       		.byte	0x1
 6236 174a 9D170000 		.4byte	0x179d
 6237 174e 37       		.uleb128 0x37
 6238 174f 6700     		.ascii	"g\000"
ARM GAS  C:\Users\Elis\AppData\Local\Temp\ccIy8Y2d.s 			page 111


 6239 1751 01       		.byte	0x1
 6240 1752 AC02     		.2byte	0x2ac
 6241 1754 47090000 		.4byte	0x947
 6242 1758 C00D0000 		.4byte	.LLST51
 6243 175c 43       		.uleb128 0x43
 6244 175d 24000000 		.4byte	.LVL272
 6245 1761 77170000 		.4byte	0x1777
 6246 1765 21       		.uleb128 0x21
 6247 1766 01       		.byte	0x1
 6248 1767 52       		.byte	0x52
 6249 1768 01       		.byte	0x1
 6250 1769 48       		.byte	0x48
 6251 176a 21       		.uleb128 0x21
 6252 176b 01       		.byte	0x1
 6253 176c 51       		.byte	0x51
 6254 176d 02       		.byte	0x2
 6255 176e 74       		.byte	0x74
 6256 176f 20       		.sleb128 32
 6257 1770 21       		.uleb128 0x21
 6258 1771 01       		.byte	0x1
 6259 1772 50       		.byte	0x50
 6260 1773 02       		.byte	0x2
 6261 1774 74       		.byte	0x74
 6262 1775 00       		.sleb128 0
 6263 1776 00       		.byte	0
 6264 1777 20       		.uleb128 0x20
 6265 1778 2C000000 		.4byte	.LVL273
 6266 177c 7A0F0000 		.4byte	0xf7a
 6267 1780 8B170000 		.4byte	0x178b
 6268 1784 21       		.uleb128 0x21
 6269 1785 01       		.byte	0x1
 6270 1786 50       		.byte	0x50
 6271 1787 02       		.byte	0x2
 6272 1788 74       		.byte	0x74
 6273 1789 00       		.sleb128 0
 6274 178a 00       		.byte	0
 6275 178b 22       		.uleb128 0x22
 6276 178c 3A000000 		.4byte	.LVL274
 6277 1790 01       		.byte	0x1
 6278 1791 DB0C0000 		.4byte	0xcdb
 6279 1795 21       		.uleb128 0x21
 6280 1796 01       		.byte	0x1
 6281 1797 50       		.byte	0x50
 6282 1798 02       		.byte	0x2
 6283 1799 74       		.byte	0x74
 6284 179a 00       		.sleb128 0
 6285 179b 00       		.byte	0
 6286 179c 00       		.byte	0
 6287 179d 3F       		.uleb128 0x3f
 6288 179e 01       		.byte	0x1
 6289 179f EE060000 		.4byte	.LASF174
 6290 17a3 01       		.byte	0x1
 6291 17a4 C902     		.2byte	0x2c9
 6292 17a6 01       		.byte	0x1
 6293 17a7 00000000 		.4byte	.LFB130
 6294 17ab 02000000 		.4byte	.LFE130
 6295 17af 02       		.byte	0x2
ARM GAS  C:\Users\Elis\AppData\Local\Temp\ccIy8Y2d.s 			page 112


 6296 17b0 7D       		.byte	0x7d
 6297 17b1 00       		.sleb128 0
 6298 17b2 01       		.byte	0x1
 6299 17b3 C4170000 		.4byte	0x17c4
 6300 17b7 45       		.uleb128 0x45
 6301 17b8 6700     		.ascii	"g\000"
 6302 17ba 01       		.byte	0x1
 6303 17bb C902     		.2byte	0x2c9
 6304 17bd 47090000 		.4byte	0x947
 6305 17c1 01       		.byte	0x1
 6306 17c2 50       		.byte	0x50
 6307 17c3 00       		.byte	0
 6308 17c4 46       		.uleb128 0x46
 6309 17c5 01       		.byte	0x1
 6310 17c6 C6010000 		.4byte	.LASF176
 6311 17ca 01       		.byte	0x1
 6312 17cb CD02     		.2byte	0x2cd
 6313 17cd 01       		.byte	0x1
 6314 17ce 69060000 		.4byte	0x669
 6315 17d2 00000000 		.4byte	.LFB131
 6316 17d6 14000000 		.4byte	.LFE131
 6317 17da 02       		.byte	0x2
 6318 17db 7D       		.byte	0x7d
 6319 17dc 00       		.sleb128 0
 6320 17dd 01       		.byte	0x1
 6321 17de 0B180000 		.4byte	0x180b
 6322 17e2 31       		.uleb128 0x31
 6323 17e3 43030000 		.4byte	.LASF177
 6324 17e7 01       		.byte	0x1
 6325 17e8 CD02     		.2byte	0x2cd
 6326 17ea 3B000000 		.4byte	0x3b
 6327 17ee DE0D0000 		.4byte	.LLST52
 6328 17f2 22       		.uleb128 0x22
 6329 17f3 0C000000 		.4byte	.LVL278
 6330 17f7 01       		.byte	0x1
 6331 17f8 1E1D0000 		.4byte	0x1d1e
 6332 17fc 21       		.uleb128 0x21
 6333 17fd 01       		.byte	0x1
 6334 17fe 51       		.byte	0x51
 6335 17ff 03       		.byte	0x3
 6336 1800 F3       		.byte	0xf3
 6337 1801 01       		.uleb128 0x1
 6338 1802 50       		.byte	0x50
 6339 1803 21       		.uleb128 0x21
 6340 1804 01       		.byte	0x1
 6341 1805 50       		.byte	0x50
 6342 1806 02       		.byte	0x2
 6343 1807 08       		.byte	0x8
 6344 1808 6D       		.byte	0x6d
 6345 1809 00       		.byte	0
 6346 180a 00       		.byte	0
 6347 180b 44       		.uleb128 0x44
 6348 180c 01       		.byte	0x1
 6349 180d 15030000 		.4byte	.LASF178
 6350 1811 01       		.byte	0x1
 6351 1812 D302     		.2byte	0x2d3
 6352 1814 01       		.byte	0x1
ARM GAS  C:\Users\Elis\AppData\Local\Temp\ccIy8Y2d.s 			page 113


 6353 1815 00000000 		.4byte	.LFB132
 6354 1819 20000000 		.4byte	.LFE132
 6355 181d 200E0000 		.4byte	.LLST53
 6356 1821 01       		.byte	0x1
 6357 1822 68180000 		.4byte	0x1868
 6358 1826 31       		.uleb128 0x31
 6359 1827 43030000 		.4byte	.LASF177
 6360 182b 01       		.byte	0x1
 6361 182c D302     		.2byte	0x2d3
 6362 182e 3B000000 		.4byte	0x3b
 6363 1832 400E0000 		.4byte	.LLST54
 6364 1836 37       		.uleb128 0x37
 6365 1837 6700     		.ascii	"g\000"
 6366 1839 01       		.byte	0x1
 6367 183a D302     		.2byte	0x2d3
 6368 183c 16080000 		.4byte	0x816
 6369 1840 6C0E0000 		.4byte	.LLST55
 6370 1844 47       		.uleb128 0x47
 6371 1845 6D00     		.ascii	"m\000"
 6372 1847 01       		.byte	0x1
 6373 1848 D402     		.2byte	0x2d4
 6374 184a A70B0000 		.4byte	0xba7
 6375 184e 01       		.byte	0x1
 6376 184f 50       		.byte	0x50
 6377 1850 2C       		.uleb128 0x2c
 6378 1851 0E000000 		.4byte	.LVL283
 6379 1855 1E1D0000 		.4byte	0x1d1e
 6380 1859 21       		.uleb128 0x21
 6381 185a 01       		.byte	0x1
 6382 185b 51       		.byte	0x51
 6383 185c 03       		.byte	0x3
 6384 185d F3       		.byte	0xf3
 6385 185e 01       		.uleb128 0x1
 6386 185f 50       		.byte	0x50
 6387 1860 21       		.uleb128 0x21
 6388 1861 01       		.byte	0x1
 6389 1862 50       		.byte	0x50
 6390 1863 02       		.byte	0x2
 6391 1864 08       		.byte	0x8
 6392 1865 6D       		.byte	0x6d
 6393 1866 00       		.byte	0
 6394 1867 00       		.byte	0
 6395 1868 42       		.uleb128 0x42
 6396 1869 01       		.byte	0x1
 6397 186a 9A070000 		.4byte	.LASF179
 6398 186e 01       		.byte	0x1
 6399 186f DC02     		.2byte	0x2dc
 6400 1871 01       		.byte	0x1
 6401 1872 16080000 		.4byte	0x816
 6402 1876 00000000 		.4byte	.LFB133
 6403 187a 10000000 		.4byte	.LFE133
 6404 187e B10E0000 		.4byte	.LLST56
 6405 1882 01       		.byte	0x1
 6406 1883 BD180000 		.4byte	0x18bd
 6407 1887 31       		.uleb128 0x31
 6408 1888 43030000 		.4byte	.LASF177
 6409 188c 01       		.byte	0x1
ARM GAS  C:\Users\Elis\AppData\Local\Temp\ccIy8Y2d.s 			page 114


 6410 188d DC02     		.2byte	0x2dc
 6411 188f 3B000000 		.4byte	0x3b
 6412 1893 D10E0000 		.4byte	.LLST57
 6413 1897 2B       		.uleb128 0x2b
 6414 1898 6D00     		.ascii	"m\000"
 6415 189a 01       		.byte	0x1
 6416 189b DD02     		.2byte	0x2dd
 6417 189d A70B0000 		.4byte	0xba7
 6418 18a1 FD0E0000 		.4byte	.LLST58
 6419 18a5 2C       		.uleb128 0x2c
 6420 18a6 0A000000 		.4byte	.LVL289
 6421 18aa 1E1D0000 		.4byte	0x1d1e
 6422 18ae 21       		.uleb128 0x21
 6423 18af 01       		.byte	0x1
 6424 18b0 51       		.byte	0x51
 6425 18b1 03       		.byte	0x3
 6426 18b2 F3       		.byte	0xf3
 6427 18b3 01       		.uleb128 0x1
 6428 18b4 50       		.byte	0x50
 6429 18b5 21       		.uleb128 0x21
 6430 18b6 01       		.byte	0x1
 6431 18b7 50       		.byte	0x50
 6432 18b8 02       		.byte	0x2
 6433 18b9 08       		.byte	0x8
 6434 18ba 6D       		.byte	0x6d
 6435 18bb 00       		.byte	0
 6436 18bc 00       		.byte	0
 6437 18bd 42       		.uleb128 0x42
 6438 18be 01       		.byte	0x1
 6439 18bf EA050000 		.4byte	.LASF180
 6440 18c3 01       		.byte	0x1
 6441 18c4 E502     		.2byte	0x2e5
 6442 18c6 01       		.byte	0x1
 6443 18c7 B1000000 		.4byte	0xb1
 6444 18cb 00000000 		.4byte	.LFB134
 6445 18cf 50000000 		.4byte	.LFE134
 6446 18d3 100F0000 		.4byte	.LLST59
 6447 18d7 01       		.byte	0x1
 6448 18d8 33190000 		.4byte	0x1933
 6449 18dc 31       		.uleb128 0x31
 6450 18dd 43030000 		.4byte	.LASF177
 6451 18e1 01       		.byte	0x1
 6452 18e2 E502     		.2byte	0x2e5
 6453 18e4 3B000000 		.4byte	0x3b
 6454 18e8 300F0000 		.4byte	.LLST60
 6455 18ec 37       		.uleb128 0x37
 6456 18ed 706500   		.ascii	"pe\000"
 6457 18f0 01       		.byte	0x1
 6458 18f1 E502     		.2byte	0x2e5
 6459 18f3 A90C0000 		.4byte	0xca9
 6460 18f7 670F0000 		.4byte	.LLST61
 6461 18fb 2B       		.uleb128 0x2b
 6462 18fc 6D00     		.ascii	"m\000"
 6463 18fe 01       		.byte	0x1
 6464 18ff E602     		.2byte	0x2e6
 6465 1901 A70B0000 		.4byte	0xba7
 6466 1905 850F0000 		.4byte	.LLST62
ARM GAS  C:\Users\Elis\AppData\Local\Temp\ccIy8Y2d.s 			page 115


 6467 1909 20       		.uleb128 0x20
 6468 190a 0C000000 		.4byte	.LVL293
 6469 190e C71B0000 		.4byte	0x1bc7
 6470 1912 1C190000 		.4byte	0x191c
 6471 1916 21       		.uleb128 0x21
 6472 1917 01       		.byte	0x1
 6473 1918 50       		.byte	0x50
 6474 1919 01       		.byte	0x1
 6475 191a 31       		.byte	0x31
 6476 191b 00       		.byte	0
 6477 191c 2C       		.uleb128 0x2c
 6478 191d 14000000 		.4byte	.LVL294
 6479 1921 1E1D0000 		.4byte	0x1d1e
 6480 1925 21       		.uleb128 0x21
 6481 1926 01       		.byte	0x1
 6482 1927 51       		.byte	0x51
 6483 1928 02       		.byte	0x2
 6484 1929 75       		.byte	0x75
 6485 192a 00       		.sleb128 0
 6486 192b 21       		.uleb128 0x21
 6487 192c 01       		.byte	0x1
 6488 192d 50       		.byte	0x50
 6489 192e 02       		.byte	0x2
 6490 192f 08       		.byte	0x8
 6491 1930 6D       		.byte	0x6d
 6492 1931 00       		.byte	0
 6493 1932 00       		.byte	0
 6494 1933 44       		.uleb128 0x44
 6495 1934 01       		.byte	0x1
 6496 1935 B2010000 		.4byte	.LASF181
 6497 1939 01       		.byte	0x1
 6498 193a 0203     		.2byte	0x302
 6499 193c 01       		.byte	0x1
 6500 193d 00000000 		.4byte	.LFB135
 6501 1941 24000000 		.4byte	.LFE135
 6502 1945 A30F0000 		.4byte	.LLST63
 6503 1949 01       		.byte	0x1
 6504 194a 91190000 		.4byte	0x1991
 6505 194e 31       		.uleb128 0x31
 6506 194f 43030000 		.4byte	.LASF177
 6507 1953 01       		.byte	0x1
 6508 1954 0203     		.2byte	0x302
 6509 1956 3B000000 		.4byte	0x3b
 6510 195a C30F0000 		.4byte	.LLST64
 6511 195e 37       		.uleb128 0x37
 6512 195f 6F6E00   		.ascii	"on\000"
 6513 1962 01       		.byte	0x1
 6514 1963 0203     		.2byte	0x302
 6515 1965 B1000000 		.4byte	0xb1
 6516 1969 EF0F0000 		.4byte	.LLST65
 6517 196d 47       		.uleb128 0x47
 6518 196e 6D00     		.ascii	"m\000"
 6519 1970 01       		.byte	0x1
 6520 1971 0303     		.2byte	0x303
 6521 1973 A70B0000 		.4byte	0xba7
 6522 1977 01       		.byte	0x1
 6523 1978 50       		.byte	0x50
ARM GAS  C:\Users\Elis\AppData\Local\Temp\ccIy8Y2d.s 			page 116


 6524 1979 2C       		.uleb128 0x2c
 6525 197a 0E000000 		.4byte	.LVL302
 6526 197e 1E1D0000 		.4byte	0x1d1e
 6527 1982 21       		.uleb128 0x21
 6528 1983 01       		.byte	0x1
 6529 1984 51       		.byte	0x51
 6530 1985 03       		.byte	0x3
 6531 1986 F3       		.byte	0xf3
 6532 1987 01       		.uleb128 0x1
 6533 1988 50       		.byte	0x50
 6534 1989 21       		.uleb128 0x21
 6535 198a 01       		.byte	0x1
 6536 198b 50       		.byte	0x50
 6537 198c 02       		.byte	0x2
 6538 198d 08       		.byte	0x8
 6539 198e 6D       		.byte	0x6d
 6540 198f 00       		.byte	0
 6541 1990 00       		.byte	0
 6542 1991 42       		.uleb128 0x42
 6543 1992 01       		.byte	0x1
 6544 1993 31080000 		.4byte	.LASF182
 6545 1997 01       		.byte	0x1
 6546 1998 1103     		.2byte	0x311
 6547 199a 01       		.byte	0x1
 6548 199b 91000000 		.4byte	0x91
 6549 199f 00000000 		.4byte	.LFB136
 6550 19a3 24000000 		.4byte	.LFE136
 6551 19a7 10100000 		.4byte	.LLST66
 6552 19ab 01       		.byte	0x1
 6553 19ac F4190000 		.4byte	0x19f4
 6554 19b0 31       		.uleb128 0x31
 6555 19b1 43030000 		.4byte	.LASF177
 6556 19b5 01       		.byte	0x1
 6557 19b6 1103     		.2byte	0x311
 6558 19b8 3B000000 		.4byte	0x3b
 6559 19bc 30100000 		.4byte	.LLST67
 6560 19c0 2B       		.uleb128 0x2b
 6561 19c1 6D00     		.ascii	"m\000"
 6562 19c3 01       		.byte	0x1
 6563 19c4 1203     		.2byte	0x312
 6564 19c6 A70B0000 		.4byte	0xba7
 6565 19ca 5C100000 		.4byte	.LLST68
 6566 19ce 20       		.uleb128 0x20
 6567 19cf 0A000000 		.4byte	.LVL305
 6568 19d3 1E1D0000 		.4byte	0x1d1e
 6569 19d7 E9190000 		.4byte	0x19e9
 6570 19db 21       		.uleb128 0x21
 6571 19dc 01       		.byte	0x1
 6572 19dd 51       		.byte	0x51
 6573 19de 03       		.byte	0x3
 6574 19df F3       		.byte	0xf3
 6575 19e0 01       		.uleb128 0x1
 6576 19e1 50       		.byte	0x50
 6577 19e2 21       		.uleb128 0x21
 6578 19e3 01       		.byte	0x1
 6579 19e4 50       		.byte	0x50
 6580 19e5 02       		.byte	0x2
ARM GAS  C:\Users\Elis\AppData\Local\Temp\ccIy8Y2d.s 			page 117


 6581 19e6 08       		.byte	0x8
 6582 19e7 6D       		.byte	0x6d
 6583 19e8 00       		.byte	0
 6584 19e9 41       		.uleb128 0x41
 6585 19ea 24000000 		.4byte	.LVL308
 6586 19ee 01       		.byte	0x1
 6587 19ef 7A0F0000 		.4byte	0xf7a
 6588 19f3 00       		.byte	0
 6589 19f4 3F       		.uleb128 0x3f
 6590 19f5 01       		.byte	0x1
 6591 19f6 0F000000 		.4byte	.LASF183
 6592 19fa 01       		.byte	0x1
 6593 19fb 2103     		.2byte	0x321
 6594 19fd 01       		.byte	0x1
 6595 19fe 00000000 		.4byte	.LFB137
 6596 1a02 14000000 		.4byte	.LFE137
 6597 1a06 02       		.byte	0x2
 6598 1a07 7D       		.byte	0x7d
 6599 1a08 00       		.sleb128 0
 6600 1a09 01       		.byte	0x1
 6601 1a0a 311A0000 		.4byte	0x1a31
 6602 1a0e 37       		.uleb128 0x37
 6603 1a0f 6D00     		.ascii	"m\000"
 6604 1a11 01       		.byte	0x1
 6605 1a12 2103     		.2byte	0x321
 6606 1a14 A70B0000 		.4byte	0xba7
 6607 1a18 7A100000 		.4byte	.LLST69
 6608 1a1c 22       		.uleb128 0x22
 6609 1a1d 10000000 		.4byte	.LVL311
 6610 1a21 01       		.byte	0x1
 6611 1a22 3B1D0000 		.4byte	0x1d3b
 6612 1a26 21       		.uleb128 0x21
 6613 1a27 01       		.byte	0x1
 6614 1a28 50       		.byte	0x50
 6615 1a29 05       		.byte	0x5
 6616 1a2a 03       		.byte	0x3
 6617 1a2b 00000000 		.4byte	.LANCHOR0
 6618 1a2f 00       		.byte	0
 6619 1a30 00       		.byte	0
 6620 1a31 3F       		.uleb128 0x3f
 6621 1a32 01       		.byte	0x1
 6622 1a33 E4080000 		.4byte	.LASF184
 6623 1a37 01       		.byte	0x1
 6624 1a38 2803     		.2byte	0x328
 6625 1a3a 01       		.byte	0x1
 6626 1a3b 00000000 		.4byte	.LFB138
 6627 1a3f 14000000 		.4byte	.LFE138
 6628 1a43 02       		.byte	0x2
 6629 1a44 7D       		.byte	0x7d
 6630 1a45 00       		.sleb128 0
 6631 1a46 01       		.byte	0x1
 6632 1a47 6E1A0000 		.4byte	0x1a6e
 6633 1a4b 37       		.uleb128 0x37
 6634 1a4c 6D00     		.ascii	"m\000"
 6635 1a4e 01       		.byte	0x1
 6636 1a4f 2803     		.2byte	0x328
 6637 1a51 A70B0000 		.4byte	0xba7
ARM GAS  C:\Users\Elis\AppData\Local\Temp\ccIy8Y2d.s 			page 118


 6638 1a55 9B100000 		.4byte	.LLST70
 6639 1a59 22       		.uleb128 0x22
 6640 1a5a 10000000 		.4byte	.LVL314
 6641 1a5e 01       		.byte	0x1
 6642 1a5f 4F1D0000 		.4byte	0x1d4f
 6643 1a63 21       		.uleb128 0x21
 6644 1a64 01       		.byte	0x1
 6645 1a65 50       		.byte	0x50
 6646 1a66 05       		.byte	0x5
 6647 1a67 03       		.byte	0x3
 6648 1a68 00000000 		.4byte	.LANCHOR0
 6649 1a6c 00       		.byte	0
 6650 1a6d 00       		.byte	0
 6651 1a6e 48       		.uleb128 0x48
 6652 1a6f F4030000 		.4byte	.LASF185
 6653 1a73 01       		.byte	0x1
 6654 1a74 34       		.byte	0x34
 6655 1a75 55070000 		.4byte	0x755
 6656 1a79 05       		.byte	0x5
 6657 1a7a 03       		.byte	0x3
 6658 1a7b 00000000 		.4byte	MouseTimer
 6659 1a7f 49       		.uleb128 0x49
 6660 1a80 E1000000 		.4byte	.LASF187
 6661 1a84 08       		.byte	0x8
 6662 1a85 F5       		.byte	0xf5
 6663 1a86 3A040000 		.4byte	0x43a
 6664 1a8a 01       		.byte	0x1
 6665 1a8b 01       		.byte	0x1
 6666 1a8c 40       		.uleb128 0x40
 6667 1a8d A7060000 		.4byte	.LASF188
 6668 1a91 13       		.byte	0x13
 6669 1a92 9806     		.2byte	0x698
 6670 1a94 0E050000 		.4byte	0x50e
 6671 1a98 01       		.byte	0x1
 6672 1a99 01       		.byte	0x1
 6673 1a9a 49       		.uleb128 0x49
 6674 1a9b 6E090000 		.4byte	.LASF189
 6675 1a9f 0C       		.byte	0xc
 6676 1aa0 54       		.byte	0x54
 6677 1aa1 16080000 		.4byte	0x816
 6678 1aa5 01       		.byte	0x1
 6679 1aa6 01       		.byte	0x1
 6680 1aa7 40       		.uleb128 0x40
 6681 1aa8 B4060000 		.4byte	.LASF186
 6682 1aac 01       		.byte	0x1
 6683 1aad 8502     		.2byte	0x285
 6684 1aaf B51A0000 		.4byte	0x1ab5
 6685 1ab3 01       		.byte	0x1
 6686 1ab4 01       		.byte	0x1
 6687 1ab5 12       		.uleb128 0x12
 6688 1ab6 42160000 		.4byte	0x1642
 6689 1aba 4A       		.uleb128 0x4a
 6690 1abb 01       		.byte	0x1
 6691 1abc 52070000 		.4byte	.LASF190
 6692 1ac0 0D       		.byte	0xd
 6693 1ac1 DD       		.byte	0xdd
 6694 1ac2 01       		.byte	0x1
ARM GAS  C:\Users\Elis\AppData\Local\Temp\ccIy8Y2d.s 			page 119


 6695 1ac3 F4050000 		.4byte	0x5f4
 6696 1ac7 01       		.byte	0x1
 6697 1ac8 D21A0000 		.4byte	0x1ad2
 6698 1acc 0E       		.uleb128 0xe
 6699 1acd A30C0000 		.4byte	0xca3
 6700 1ad1 00       		.byte	0
 6701 1ad2 4B       		.uleb128 0x4b
 6702 1ad3 01       		.byte	0x1
 6703 1ad4 A0000000 		.4byte	.LASF196
 6704 1ad8 0D       		.byte	0xd
 6705 1ad9 E5       		.byte	0xe5
 6706 1ada 01       		.byte	0x1
 6707 1adb 01       		.byte	0x1
 6708 1adc E61A0000 		.4byte	0x1ae6
 6709 1ae0 0E       		.uleb128 0xe
 6710 1ae1 A30C0000 		.4byte	0xca3
 6711 1ae5 00       		.byte	0
 6712 1ae6 4C       		.uleb128 0x4c
 6713 1ae7 01       		.byte	0x1
 6714 1ae8 1D000000 		.4byte	.LASF191
 6715 1aec 0C       		.byte	0xc
 6716 1aed 2501     		.2byte	0x125
 6717 1aef 01       		.byte	0x1
 6718 1af0 E7070000 		.4byte	0x7e7
 6719 1af4 01       		.byte	0x1
 6720 1af5 FF1A0000 		.4byte	0x1aff
 6721 1af9 0E       		.uleb128 0xe
 6722 1afa 16080000 		.4byte	0x816
 6723 1afe 00       		.byte	0
 6724 1aff 4C       		.uleb128 0x4c
 6725 1b00 01       		.byte	0x1
 6726 1b01 12080000 		.4byte	.LASF192
 6727 1b05 0C       		.byte	0xc
 6728 1b06 0101     		.2byte	0x101
 6729 1b08 01       		.byte	0x1
 6730 1b09 60070000 		.4byte	0x760
 6731 1b0d 01       		.byte	0x1
 6732 1b0e 181B0000 		.4byte	0x1b18
 6733 1b12 0E       		.uleb128 0xe
 6734 1b13 16080000 		.4byte	0x816
 6735 1b17 00       		.byte	0
 6736 1b18 4C       		.uleb128 0x4c
 6737 1b19 01       		.byte	0x1
 6738 1b1a C1020000 		.4byte	.LASF193
 6739 1b1e 0C       		.byte	0xc
 6740 1b1f 0D01     		.2byte	0x10d
 6741 1b21 01       		.byte	0x1
 6742 1b22 60070000 		.4byte	0x760
 6743 1b26 01       		.byte	0x1
 6744 1b27 311B0000 		.4byte	0x1b31
 6745 1b2b 0E       		.uleb128 0xe
 6746 1b2c 16080000 		.4byte	0x816
 6747 1b30 00       		.byte	0
 6748 1b31 4A       		.uleb128 0x4a
 6749 1b32 01       		.byte	0x1
 6750 1b33 97080000 		.4byte	.LASF194
 6751 1b37 0D       		.byte	0xd
ARM GAS  C:\Users\Elis\AppData\Local\Temp\ccIy8Y2d.s 			page 120


 6752 1b38 D0       		.byte	0xd0
 6753 1b39 01       		.byte	0x1
 6754 1b3a A30C0000 		.4byte	0xca3
 6755 1b3e 01       		.byte	0x1
 6756 1b3f 4E1B0000 		.4byte	0x1b4e
 6757 1b43 0E       		.uleb128 0xe
 6758 1b44 69060000 		.4byte	0x669
 6759 1b48 0E       		.uleb128 0xe
 6760 1b49 A30C0000 		.4byte	0xca3
 6761 1b4d 00       		.byte	0
 6762 1b4e 4A       		.uleb128 0x4a
 6763 1b4f 01       		.byte	0x1
 6764 1b50 A6020000 		.4byte	.LASF195
 6765 1b54 11       		.byte	0x11
 6766 1b55 96       		.byte	0x96
 6767 1b56 01       		.byte	0x1
 6768 1b57 47090000 		.4byte	0x947
 6769 1b5b 01       		.byte	0x1
 6770 1b5c 6B1B0000 		.4byte	0x1b6b
 6771 1b60 0E       		.uleb128 0xe
 6772 1b61 6D000000 		.4byte	0x6d
 6773 1b65 0E       		.uleb128 0xe
 6774 1b66 47090000 		.4byte	0x947
 6775 1b6a 00       		.byte	0
 6776 1b6b 4D       		.uleb128 0x4d
 6777 1b6c 01       		.byte	0x1
 6778 1b6d C6000000 		.4byte	.LASF197
 6779 1b71 0C       		.byte	0xc
 6780 1b72 7801     		.2byte	0x178
 6781 1b74 01       		.byte	0x1
 6782 1b75 01       		.byte	0x1
 6783 1b76 991B0000 		.4byte	0x1b99
 6784 1b7a 0E       		.uleb128 0xe
 6785 1b7b 16080000 		.4byte	0x816
 6786 1b7f 0E       		.uleb128 0xe
 6787 1b80 60070000 		.4byte	0x760
 6788 1b84 0E       		.uleb128 0xe
 6789 1b85 60070000 		.4byte	0x760
 6790 1b89 0E       		.uleb128 0xe
 6791 1b8a 60070000 		.4byte	0x760
 6792 1b8e 0E       		.uleb128 0xe
 6793 1b8f 60070000 		.4byte	0x760
 6794 1b93 0E       		.uleb128 0xe
 6795 1b94 03080000 		.4byte	0x803
 6796 1b98 00       		.byte	0
 6797 1b99 4D       		.uleb128 0x4d
 6798 1b9a 01       		.byte	0x1
 6799 1b9b 9C090000 		.4byte	.LASF198
 6800 1b9f 0C       		.byte	0xc
 6801 1ba0 8501     		.2byte	0x185
 6802 1ba2 01       		.byte	0x1
 6803 1ba3 01       		.byte	0x1
 6804 1ba4 C71B0000 		.4byte	0x1bc7
 6805 1ba8 0E       		.uleb128 0xe
 6806 1ba9 16080000 		.4byte	0x816
 6807 1bad 0E       		.uleb128 0xe
 6808 1bae 60070000 		.4byte	0x760
ARM GAS  C:\Users\Elis\AppData\Local\Temp\ccIy8Y2d.s 			page 121


 6809 1bb2 0E       		.uleb128 0xe
 6810 1bb3 60070000 		.4byte	0x760
 6811 1bb7 0E       		.uleb128 0xe
 6812 1bb8 60070000 		.4byte	0x760
 6813 1bbc 0E       		.uleb128 0xe
 6814 1bbd 60070000 		.4byte	0x760
 6815 1bc1 0E       		.uleb128 0xe
 6816 1bc2 03080000 		.4byte	0x803
 6817 1bc6 00       		.byte	0
 6818 1bc7 4B       		.uleb128 0x4b
 6819 1bc8 01       		.byte	0x1
 6820 1bc9 F2010000 		.4byte	.LASF199
 6821 1bcd 0B       		.byte	0xb
 6822 1bce 71       		.byte	0x71
 6823 1bcf 01       		.byte	0x1
 6824 1bd0 01       		.byte	0x1
 6825 1bd1 DB1B0000 		.4byte	0x1bdb
 6826 1bd5 0E       		.uleb128 0xe
 6827 1bd6 13050000 		.4byte	0x513
 6828 1bda 00       		.byte	0
 6829 1bdb 4D       		.uleb128 0x4d
 6830 1bdc 01       		.byte	0x1
 6831 1bdd C3050000 		.4byte	.LASF200
 6832 1be1 0C       		.byte	0xc
 6833 1be2 9403     		.2byte	0x394
 6834 1be4 01       		.byte	0x1
 6835 1be5 01       		.byte	0x1
 6836 1be6 1D1C0000 		.4byte	0x1c1d
 6837 1bea 0E       		.uleb128 0xe
 6838 1beb 16080000 		.4byte	0x816
 6839 1bef 0E       		.uleb128 0xe
 6840 1bf0 60070000 		.4byte	0x760
 6841 1bf4 0E       		.uleb128 0xe
 6842 1bf5 60070000 		.4byte	0x760
 6843 1bf9 0E       		.uleb128 0xe
 6844 1bfa 60070000 		.4byte	0x760
 6845 1bfe 0E       		.uleb128 0xe
 6846 1bff 60070000 		.4byte	0x760
 6847 1c03 0E       		.uleb128 0xe
 6848 1c04 F6040000 		.4byte	0x4f6
 6849 1c08 0E       		.uleb128 0xe
 6850 1c09 95070000 		.4byte	0x795
 6851 1c0d 0E       		.uleb128 0xe
 6852 1c0e 03080000 		.4byte	0x803
 6853 1c12 0E       		.uleb128 0xe
 6854 1c13 03080000 		.4byte	0x803
 6855 1c17 0E       		.uleb128 0xe
 6856 1c18 8A070000 		.4byte	0x78a
 6857 1c1c 00       		.byte	0
 6858 1c1d 4C       		.uleb128 0x4c
 6859 1c1e 01       		.byte	0x1
 6860 1c1f E9040000 		.4byte	.LASF201
 6861 1c23 0C       		.byte	0xc
 6862 1c24 C703     		.2byte	0x3c7
 6863 1c26 01       		.byte	0x1
 6864 1c27 95070000 		.4byte	0x795
 6865 1c2b 01       		.byte	0x1
ARM GAS  C:\Users\Elis\AppData\Local\Temp\ccIy8Y2d.s 			page 122


 6866 1c2c 361C0000 		.4byte	0x1c36
 6867 1c30 0E       		.uleb128 0xe
 6868 1c31 F6040000 		.4byte	0x4f6
 6869 1c35 00       		.byte	0
 6870 1c36 4D       		.uleb128 0x4d
 6871 1c37 01       		.byte	0x1
 6872 1c38 CF080000 		.4byte	.LASF202
 6873 1c3c 0C       		.byte	0xc
 6874 1c3d F601     		.2byte	0x1f6
 6875 1c3f 01       		.byte	0x1
 6876 1c40 01       		.byte	0x1
 6877 1c41 5F1C0000 		.4byte	0x1c5f
 6878 1c45 0E       		.uleb128 0xe
 6879 1c46 16080000 		.4byte	0x816
 6880 1c4a 0E       		.uleb128 0xe
 6881 1c4b 60070000 		.4byte	0x760
 6882 1c4f 0E       		.uleb128 0xe
 6883 1c50 60070000 		.4byte	0x760
 6884 1c54 0E       		.uleb128 0xe
 6885 1c55 60070000 		.4byte	0x760
 6886 1c59 0E       		.uleb128 0xe
 6887 1c5a 60070000 		.4byte	0x760
 6888 1c5e 00       		.byte	0
 6889 1c5f 4D       		.uleb128 0x4d
 6890 1c60 01       		.byte	0x1
 6891 1c61 4A050000 		.4byte	.LASF203
 6892 1c65 0C       		.byte	0xc
 6893 1c66 5F01     		.2byte	0x15f
 6894 1c68 01       		.byte	0x1
 6895 1c69 01       		.byte	0x1
 6896 1c6a 791C0000 		.4byte	0x1c79
 6897 1c6e 0E       		.uleb128 0xe
 6898 1c6f 16080000 		.4byte	0x816
 6899 1c73 0E       		.uleb128 0xe
 6900 1c74 03080000 		.4byte	0x803
 6901 1c78 00       		.byte	0
 6902 1c79 4D       		.uleb128 0x4d
 6903 1c7a 01       		.byte	0x1
 6904 1c7b 3B090000 		.4byte	.LASF204
 6905 1c7f 0C       		.byte	0xc
 6906 1c80 D103     		.2byte	0x3d1
 6907 1c82 01       		.byte	0x1
 6908 1c83 01       		.byte	0x1
 6909 1c84 8E1C0000 		.4byte	0x1c8e
 6910 1c88 0E       		.uleb128 0xe
 6911 1c89 95070000 		.4byte	0x795
 6912 1c8d 00       		.byte	0
 6913 1c8e 4E       		.uleb128 0x4e
 6914 1c8f 01       		.byte	0x1
 6915 1c90 06060000 		.4byte	.LASF216
 6916 1c94 14       		.byte	0x14
 6917 1c95 A4       		.byte	0xa4
 6918 1c96 01       		.byte	0x1
 6919 1c97 03080000 		.4byte	0x803
 6920 1c9b 01       		.byte	0x1
 6921 1c9c 4A       		.uleb128 0x4a
 6922 1c9d 01       		.byte	0x1
ARM GAS  C:\Users\Elis\AppData\Local\Temp\ccIy8Y2d.s 			page 123


 6923 1c9e 3F040000 		.4byte	.LASF205
 6924 1ca2 11       		.byte	0x11
 6925 1ca3 6B       		.byte	0x6b
 6926 1ca4 01       		.byte	0x1
 6927 1ca5 47090000 		.4byte	0x947
 6928 1ca9 01       		.byte	0x1
 6929 1caa B91C0000 		.4byte	0x1cb9
 6930 1cae 0E       		.uleb128 0xe
 6931 1caf B91C0000 		.4byte	0x1cb9
 6932 1cb3 0E       		.uleb128 0xe
 6933 1cb4 B9020000 		.4byte	0x2b9
 6934 1cb8 00       		.byte	0
 6935 1cb9 09       		.uleb128 0x9
 6936 1cba 04       		.byte	0x4
 6937 1cbb BF1C0000 		.4byte	0x1cbf
 6938 1cbf 12       		.uleb128 0x12
 6939 1cc0 65090000 		.4byte	0x965
 6940 1cc4 4B       		.uleb128 0x4b
 6941 1cc5 01       		.byte	0x1
 6942 1cc6 6E070000 		.4byte	.LASF206
 6943 1cca 0E       		.byte	0xe
 6944 1ccb 56       		.byte	0x56
 6945 1ccc 01       		.byte	0x1
 6946 1ccd 01       		.byte	0x1
 6947 1cce D81C0000 		.4byte	0x1cd8
 6948 1cd2 0E       		.uleb128 0xe
 6949 1cd3 D81C0000 		.4byte	0x1cd8
 6950 1cd7 00       		.byte	0
 6951 1cd8 09       		.uleb128 0x9
 6952 1cd9 04       		.byte	0x4
 6953 1cda 55070000 		.4byte	0x755
 6954 1cde 4A       		.uleb128 0x4a
 6955 1cdf 01       		.byte	0x1
 6956 1ce0 4C030000 		.4byte	.LASF207
 6957 1ce4 0E       		.byte	0xe
 6958 1ce5 8B       		.byte	0x8b
 6959 1ce6 01       		.byte	0x1
 6960 1ce7 B1000000 		.4byte	0xb1
 6961 1ceb 01       		.byte	0x1
 6962 1cec F61C0000 		.4byte	0x1cf6
 6963 1cf0 0E       		.uleb128 0xe
 6964 1cf1 D81C0000 		.4byte	0x1cd8
 6965 1cf5 00       		.byte	0
 6966 1cf6 4B       		.uleb128 0x4b
 6967 1cf7 01       		.byte	0x1
 6968 1cf8 9F050000 		.4byte	.LASF208
 6969 1cfc 0E       		.byte	0xe
 6970 1cfd 75       		.byte	0x75
 6971 1cfe 01       		.byte	0x1
 6972 1cff 01       		.byte	0x1
 6973 1d00 1E1D0000 		.4byte	0x1d1e
 6974 1d04 0E       		.uleb128 0xe
 6975 1d05 D81C0000 		.4byte	0x1cd8
 6976 1d09 0E       		.uleb128 0xe
 6977 1d0a D6060000 		.4byte	0x6d6
 6978 1d0e 0E       		.uleb128 0xe
 6979 1d0f B9020000 		.4byte	0x2b9
ARM GAS  C:\Users\Elis\AppData\Local\Temp\ccIy8Y2d.s 			page 124


 6980 1d13 0E       		.uleb128 0xe
 6981 1d14 B1000000 		.4byte	0xb1
 6982 1d18 0E       		.uleb128 0xe
 6983 1d19 13050000 		.4byte	0x513
 6984 1d1d 00       		.byte	0
 6985 1d1e 4A       		.uleb128 0x4a
 6986 1d1f 01       		.byte	0x1
 6987 1d20 08070000 		.4byte	.LASF209
 6988 1d24 11       		.byte	0x11
 6989 1d25 7B       		.byte	0x7b
 6990 1d26 01       		.byte	0x1
 6991 1d27 47090000 		.4byte	0x947
 6992 1d2b 01       		.byte	0x1
 6993 1d2c 3B1D0000 		.4byte	0x1d3b
 6994 1d30 0E       		.uleb128 0xe
 6995 1d31 6D000000 		.4byte	0x6d
 6996 1d35 0E       		.uleb128 0xe
 6997 1d36 3B000000 		.4byte	0x3b
 6998 1d3a 00       		.byte	0
 6999 1d3b 4B       		.uleb128 0x4b
 7000 1d3c 01       		.byte	0x1
 7001 1d3d D7050000 		.4byte	.LASF210
 7002 1d41 0E       		.byte	0xe
 7003 1d42 9A       		.byte	0x9a
 7004 1d43 01       		.byte	0x1
 7005 1d44 01       		.byte	0x1
 7006 1d45 4F1D0000 		.4byte	0x1d4f
 7007 1d49 0E       		.uleb128 0xe
 7008 1d4a D81C0000 		.4byte	0x1cd8
 7009 1d4e 00       		.byte	0
 7010 1d4f 4F       		.uleb128 0x4f
 7011 1d50 01       		.byte	0x1
 7012 1d51 C8090000 		.4byte	.LASF217
 7013 1d55 0E       		.byte	0xe
 7014 1d56 AA       		.byte	0xaa
 7015 1d57 01       		.byte	0x1
 7016 1d58 01       		.byte	0x1
 7017 1d59 0E       		.uleb128 0xe
 7018 1d5a D81C0000 		.4byte	0x1cd8
 7019 1d5e 00       		.byte	0
 7020 1d5f 00       		.byte	0
 7021              		.section	.debug_abbrev,"",%progbits
 7022              	.Ldebug_abbrev0:
 7023 0000 01       		.uleb128 0x1
 7024 0001 11       		.uleb128 0x11
 7025 0002 01       		.byte	0x1
 7026 0003 25       		.uleb128 0x25
 7027 0004 0E       		.uleb128 0xe
 7028 0005 13       		.uleb128 0x13
 7029 0006 0B       		.uleb128 0xb
 7030 0007 03       		.uleb128 0x3
 7031 0008 0E       		.uleb128 0xe
 7032 0009 1B       		.uleb128 0x1b
 7033 000a 0E       		.uleb128 0xe
 7034 000b 55       		.uleb128 0x55
 7035 000c 06       		.uleb128 0x6
 7036 000d 11       		.uleb128 0x11
ARM GAS  C:\Users\Elis\AppData\Local\Temp\ccIy8Y2d.s 			page 125


 7037 000e 01       		.uleb128 0x1
 7038 000f 52       		.uleb128 0x52
 7039 0010 01       		.uleb128 0x1
 7040 0011 10       		.uleb128 0x10
 7041 0012 06       		.uleb128 0x6
 7042 0013 00       		.byte	0
 7043 0014 00       		.byte	0
 7044 0015 02       		.uleb128 0x2
 7045 0016 24       		.uleb128 0x24
 7046 0017 00       		.byte	0
 7047 0018 0B       		.uleb128 0xb
 7048 0019 0B       		.uleb128 0xb
 7049 001a 3E       		.uleb128 0x3e
 7050 001b 0B       		.uleb128 0xb
 7051 001c 03       		.uleb128 0x3
 7052 001d 08       		.uleb128 0x8
 7053 001e 00       		.byte	0
 7054 001f 00       		.byte	0
 7055 0020 03       		.uleb128 0x3
 7056 0021 16       		.uleb128 0x16
 7057 0022 00       		.byte	0
 7058 0023 03       		.uleb128 0x3
 7059 0024 0E       		.uleb128 0xe
 7060 0025 3A       		.uleb128 0x3a
 7061 0026 0B       		.uleb128 0xb
 7062 0027 3B       		.uleb128 0x3b
 7063 0028 0B       		.uleb128 0xb
 7064 0029 49       		.uleb128 0x49
 7065 002a 13       		.uleb128 0x13
 7066 002b 00       		.byte	0
 7067 002c 00       		.byte	0
 7068 002d 04       		.uleb128 0x4
 7069 002e 24       		.uleb128 0x24
 7070 002f 00       		.byte	0
 7071 0030 0B       		.uleb128 0xb
 7072 0031 0B       		.uleb128 0xb
 7073 0032 3E       		.uleb128 0x3e
 7074 0033 0B       		.uleb128 0xb
 7075 0034 03       		.uleb128 0x3
 7076 0035 0E       		.uleb128 0xe
 7077 0036 00       		.byte	0
 7078 0037 00       		.byte	0
 7079 0038 05       		.uleb128 0x5
 7080 0039 13       		.uleb128 0x13
 7081 003a 01       		.byte	0x1
 7082 003b 03       		.uleb128 0x3
 7083 003c 0E       		.uleb128 0xe
 7084 003d 0B       		.uleb128 0xb
 7085 003e 0B       		.uleb128 0xb
 7086 003f 3A       		.uleb128 0x3a
 7087 0040 0B       		.uleb128 0xb
 7088 0041 3B       		.uleb128 0x3b
 7089 0042 0B       		.uleb128 0xb
 7090 0043 01       		.uleb128 0x1
 7091 0044 13       		.uleb128 0x13
 7092 0045 00       		.byte	0
 7093 0046 00       		.byte	0
ARM GAS  C:\Users\Elis\AppData\Local\Temp\ccIy8Y2d.s 			page 126


 7094 0047 06       		.uleb128 0x6
 7095 0048 0D       		.uleb128 0xd
 7096 0049 00       		.byte	0
 7097 004a 03       		.uleb128 0x3
 7098 004b 0E       		.uleb128 0xe
 7099 004c 3A       		.uleb128 0x3a
 7100 004d 0B       		.uleb128 0xb
 7101 004e 3B       		.uleb128 0x3b
 7102 004f 0B       		.uleb128 0xb
 7103 0050 49       		.uleb128 0x49
 7104 0051 13       		.uleb128 0x13
 7105 0052 38       		.uleb128 0x38
 7106 0053 0A       		.uleb128 0xa
 7107 0054 00       		.byte	0
 7108 0055 00       		.byte	0
 7109 0056 07       		.uleb128 0x7
 7110 0057 0D       		.uleb128 0xd
 7111 0058 00       		.byte	0
 7112 0059 03       		.uleb128 0x3
 7113 005a 08       		.uleb128 0x8
 7114 005b 3A       		.uleb128 0x3a
 7115 005c 0B       		.uleb128 0xb
 7116 005d 3B       		.uleb128 0x3b
 7117 005e 0B       		.uleb128 0xb
 7118 005f 49       		.uleb128 0x49
 7119 0060 13       		.uleb128 0x13
 7120 0061 38       		.uleb128 0x38
 7121 0062 0A       		.uleb128 0xa
 7122 0063 00       		.byte	0
 7123 0064 00       		.byte	0
 7124 0065 08       		.uleb128 0x8
 7125 0066 13       		.uleb128 0x13
 7126 0067 01       		.byte	0x1
 7127 0068 0B       		.uleb128 0xb
 7128 0069 0B       		.uleb128 0xb
 7129 006a 3A       		.uleb128 0x3a
 7130 006b 0B       		.uleb128 0xb
 7131 006c 3B       		.uleb128 0x3b
 7132 006d 0B       		.uleb128 0xb
 7133 006e 01       		.uleb128 0x1
 7134 006f 13       		.uleb128 0x13
 7135 0070 00       		.byte	0
 7136 0071 00       		.byte	0
 7137 0072 09       		.uleb128 0x9
 7138 0073 0F       		.uleb128 0xf
 7139 0074 00       		.byte	0
 7140 0075 0B       		.uleb128 0xb
 7141 0076 0B       		.uleb128 0xb
 7142 0077 49       		.uleb128 0x49
 7143 0078 13       		.uleb128 0x13
 7144 0079 00       		.byte	0
 7145 007a 00       		.byte	0
 7146 007b 0A       		.uleb128 0xa
 7147 007c 0F       		.uleb128 0xf
 7148 007d 00       		.byte	0
 7149 007e 0B       		.uleb128 0xb
 7150 007f 0B       		.uleb128 0xb
ARM GAS  C:\Users\Elis\AppData\Local\Temp\ccIy8Y2d.s 			page 127


 7151 0080 00       		.byte	0
 7152 0081 00       		.byte	0
 7153 0082 0B       		.uleb128 0xb
 7154 0083 13       		.uleb128 0x13
 7155 0084 01       		.byte	0x1
 7156 0085 03       		.uleb128 0x3
 7157 0086 0E       		.uleb128 0xe
 7158 0087 0B       		.uleb128 0xb
 7159 0088 0B       		.uleb128 0xb
 7160 0089 3A       		.uleb128 0x3a
 7161 008a 0B       		.uleb128 0xb
 7162 008b 3B       		.uleb128 0x3b
 7163 008c 05       		.uleb128 0x5
 7164 008d 01       		.uleb128 0x1
 7165 008e 13       		.uleb128 0x13
 7166 008f 00       		.byte	0
 7167 0090 00       		.byte	0
 7168 0091 0C       		.uleb128 0xc
 7169 0092 0D       		.uleb128 0xd
 7170 0093 00       		.byte	0
 7171 0094 03       		.uleb128 0x3
 7172 0095 08       		.uleb128 0x8
 7173 0096 3A       		.uleb128 0x3a
 7174 0097 0B       		.uleb128 0xb
 7175 0098 3B       		.uleb128 0x3b
 7176 0099 05       		.uleb128 0x5
 7177 009a 49       		.uleb128 0x49
 7178 009b 13       		.uleb128 0x13
 7179 009c 38       		.uleb128 0x38
 7180 009d 0A       		.uleb128 0xa
 7181 009e 00       		.byte	0
 7182 009f 00       		.byte	0
 7183 00a0 0D       		.uleb128 0xd
 7184 00a1 15       		.uleb128 0x15
 7185 00a2 01       		.byte	0x1
 7186 00a3 27       		.uleb128 0x27
 7187 00a4 0C       		.uleb128 0xc
 7188 00a5 01       		.uleb128 0x1
 7189 00a6 13       		.uleb128 0x13
 7190 00a7 00       		.byte	0
 7191 00a8 00       		.byte	0
 7192 00a9 0E       		.uleb128 0xe
 7193 00aa 05       		.uleb128 0x5
 7194 00ab 00       		.byte	0
 7195 00ac 49       		.uleb128 0x49
 7196 00ad 13       		.uleb128 0x13
 7197 00ae 00       		.byte	0
 7198 00af 00       		.byte	0
 7199 00b0 0F       		.uleb128 0xf
 7200 00b1 35       		.uleb128 0x35
 7201 00b2 00       		.byte	0
 7202 00b3 49       		.uleb128 0x49
 7203 00b4 13       		.uleb128 0x13
 7204 00b5 00       		.byte	0
 7205 00b6 00       		.byte	0
 7206 00b7 10       		.uleb128 0x10
 7207 00b8 17       		.uleb128 0x17
ARM GAS  C:\Users\Elis\AppData\Local\Temp\ccIy8Y2d.s 			page 128


 7208 00b9 01       		.byte	0x1
 7209 00ba 0B       		.uleb128 0xb
 7210 00bb 0B       		.uleb128 0xb
 7211 00bc 3A       		.uleb128 0x3a
 7212 00bd 0B       		.uleb128 0xb
 7213 00be 3B       		.uleb128 0x3b
 7214 00bf 0B       		.uleb128 0xb
 7215 00c0 01       		.uleb128 0x1
 7216 00c1 13       		.uleb128 0x13
 7217 00c2 00       		.byte	0
 7218 00c3 00       		.byte	0
 7219 00c4 11       		.uleb128 0x11
 7220 00c5 0D       		.uleb128 0xd
 7221 00c6 00       		.byte	0
 7222 00c7 03       		.uleb128 0x3
 7223 00c8 0E       		.uleb128 0xe
 7224 00c9 3A       		.uleb128 0x3a
 7225 00ca 0B       		.uleb128 0xb
 7226 00cb 3B       		.uleb128 0x3b
 7227 00cc 0B       		.uleb128 0xb
 7228 00cd 49       		.uleb128 0x49
 7229 00ce 13       		.uleb128 0x13
 7230 00cf 00       		.byte	0
 7231 00d0 00       		.byte	0
 7232 00d1 12       		.uleb128 0x12
 7233 00d2 26       		.uleb128 0x26
 7234 00d3 00       		.byte	0
 7235 00d4 49       		.uleb128 0x49
 7236 00d5 13       		.uleb128 0x13
 7237 00d6 00       		.byte	0
 7238 00d7 00       		.byte	0
 7239 00d8 13       		.uleb128 0x13
 7240 00d9 17       		.uleb128 0x17
 7241 00da 01       		.byte	0x1
 7242 00db 03       		.uleb128 0x3
 7243 00dc 0E       		.uleb128 0xe
 7244 00dd 0B       		.uleb128 0xb
 7245 00de 0B       		.uleb128 0xb
 7246 00df 3A       		.uleb128 0x3a
 7247 00e0 0B       		.uleb128 0xb
 7248 00e1 3B       		.uleb128 0x3b
 7249 00e2 0B       		.uleb128 0xb
 7250 00e3 01       		.uleb128 0x1
 7251 00e4 13       		.uleb128 0x13
 7252 00e5 00       		.byte	0
 7253 00e6 00       		.byte	0
 7254 00e7 14       		.uleb128 0x14
 7255 00e8 0D       		.uleb128 0xd
 7256 00e9 00       		.byte	0
 7257 00ea 03       		.uleb128 0x3
 7258 00eb 08       		.uleb128 0x8
 7259 00ec 3A       		.uleb128 0x3a
 7260 00ed 0B       		.uleb128 0xb
 7261 00ee 3B       		.uleb128 0x3b
 7262 00ef 0B       		.uleb128 0xb
 7263 00f0 49       		.uleb128 0x49
 7264 00f1 13       		.uleb128 0x13
ARM GAS  C:\Users\Elis\AppData\Local\Temp\ccIy8Y2d.s 			page 129


 7265 00f2 00       		.byte	0
 7266 00f3 00       		.byte	0
 7267 00f4 15       		.uleb128 0x15
 7268 00f5 01       		.uleb128 0x1
 7269 00f6 01       		.byte	0x1
 7270 00f7 49       		.uleb128 0x49
 7271 00f8 13       		.uleb128 0x13
 7272 00f9 01       		.uleb128 0x1
 7273 00fa 13       		.uleb128 0x13
 7274 00fb 00       		.byte	0
 7275 00fc 00       		.byte	0
 7276 00fd 16       		.uleb128 0x16
 7277 00fe 21       		.uleb128 0x21
 7278 00ff 00       		.byte	0
 7279 0100 49       		.uleb128 0x49
 7280 0101 13       		.uleb128 0x13
 7281 0102 2F       		.uleb128 0x2f
 7282 0103 0B       		.uleb128 0xb
 7283 0104 00       		.byte	0
 7284 0105 00       		.byte	0
 7285 0106 17       		.uleb128 0x17
 7286 0107 13       		.uleb128 0x13
 7287 0108 00       		.byte	0
 7288 0109 03       		.uleb128 0x3
 7289 010a 0E       		.uleb128 0xe
 7290 010b 3C       		.uleb128 0x3c
 7291 010c 0C       		.uleb128 0xc
 7292 010d 00       		.byte	0
 7293 010e 00       		.byte	0
 7294 010f 18       		.uleb128 0x18
 7295 0110 04       		.uleb128 0x4
 7296 0111 01       		.byte	0x1
 7297 0112 03       		.uleb128 0x3
 7298 0113 0E       		.uleb128 0xe
 7299 0114 0B       		.uleb128 0xb
 7300 0115 0B       		.uleb128 0xb
 7301 0116 3A       		.uleb128 0x3a
 7302 0117 0B       		.uleb128 0xb
 7303 0118 3B       		.uleb128 0x3b
 7304 0119 0B       		.uleb128 0xb
 7305 011a 01       		.uleb128 0x1
 7306 011b 13       		.uleb128 0x13
 7307 011c 00       		.byte	0
 7308 011d 00       		.byte	0
 7309 011e 19       		.uleb128 0x19
 7310 011f 28       		.uleb128 0x28
 7311 0120 00       		.byte	0
 7312 0121 03       		.uleb128 0x3
 7313 0122 0E       		.uleb128 0xe
 7314 0123 1C       		.uleb128 0x1c
 7315 0124 0D       		.uleb128 0xd
 7316 0125 00       		.byte	0
 7317 0126 00       		.byte	0
 7318 0127 1A       		.uleb128 0x1a
 7319 0128 16       		.uleb128 0x16
 7320 0129 00       		.byte	0
 7321 012a 03       		.uleb128 0x3
ARM GAS  C:\Users\Elis\AppData\Local\Temp\ccIy8Y2d.s 			page 130


 7322 012b 0E       		.uleb128 0xe
 7323 012c 3A       		.uleb128 0x3a
 7324 012d 0B       		.uleb128 0xb
 7325 012e 3B       		.uleb128 0x3b
 7326 012f 05       		.uleb128 0x5
 7327 0130 49       		.uleb128 0x49
 7328 0131 13       		.uleb128 0x13
 7329 0132 00       		.byte	0
 7330 0133 00       		.byte	0
 7331 0134 1B       		.uleb128 0x1b
 7332 0135 26       		.uleb128 0x26
 7333 0136 00       		.byte	0
 7334 0137 00       		.byte	0
 7335 0138 00       		.byte	0
 7336 0139 1C       		.uleb128 0x1c
 7337 013a 15       		.uleb128 0x15
 7338 013b 01       		.byte	0x1
 7339 013c 27       		.uleb128 0x27
 7340 013d 0C       		.uleb128 0xc
 7341 013e 49       		.uleb128 0x49
 7342 013f 13       		.uleb128 0x13
 7343 0140 01       		.uleb128 0x1
 7344 0141 13       		.uleb128 0x13
 7345 0142 00       		.byte	0
 7346 0143 00       		.byte	0
 7347 0144 1D       		.uleb128 0x1d
 7348 0145 2E       		.uleb128 0x2e
 7349 0146 01       		.byte	0x1
 7350 0147 03       		.uleb128 0x3
 7351 0148 0E       		.uleb128 0xe
 7352 0149 3A       		.uleb128 0x3a
 7353 014a 0B       		.uleb128 0xb
 7354 014b 3B       		.uleb128 0x3b
 7355 014c 0B       		.uleb128 0xb
 7356 014d 27       		.uleb128 0x27
 7357 014e 0C       		.uleb128 0xc
 7358 014f 11       		.uleb128 0x11
 7359 0150 01       		.uleb128 0x1
 7360 0151 12       		.uleb128 0x12
 7361 0152 01       		.uleb128 0x1
 7362 0153 40       		.uleb128 0x40
 7363 0154 06       		.uleb128 0x6
 7364 0155 9742     		.uleb128 0x2117
 7365 0157 0C       		.uleb128 0xc
 7366 0158 01       		.uleb128 0x1
 7367 0159 13       		.uleb128 0x13
 7368 015a 00       		.byte	0
 7369 015b 00       		.byte	0
 7370 015c 1E       		.uleb128 0x1e
 7371 015d 05       		.uleb128 0x5
 7372 015e 00       		.byte	0
 7373 015f 03       		.uleb128 0x3
 7374 0160 08       		.uleb128 0x8
 7375 0161 3A       		.uleb128 0x3a
 7376 0162 0B       		.uleb128 0xb
 7377 0163 3B       		.uleb128 0x3b
 7378 0164 0B       		.uleb128 0xb
ARM GAS  C:\Users\Elis\AppData\Local\Temp\ccIy8Y2d.s 			page 131


 7379 0165 49       		.uleb128 0x49
 7380 0166 13       		.uleb128 0x13
 7381 0167 02       		.uleb128 0x2
 7382 0168 06       		.uleb128 0x6
 7383 0169 00       		.byte	0
 7384 016a 00       		.byte	0
 7385 016b 1F       		.uleb128 0x1f
 7386 016c 34       		.uleb128 0x34
 7387 016d 00       		.byte	0
 7388 016e 03       		.uleb128 0x3
 7389 016f 08       		.uleb128 0x8
 7390 0170 3A       		.uleb128 0x3a
 7391 0171 0B       		.uleb128 0xb
 7392 0172 3B       		.uleb128 0x3b
 7393 0173 0B       		.uleb128 0xb
 7394 0174 49       		.uleb128 0x49
 7395 0175 13       		.uleb128 0x13
 7396 0176 02       		.uleb128 0x2
 7397 0177 06       		.uleb128 0x6
 7398 0178 00       		.byte	0
 7399 0179 00       		.byte	0
 7400 017a 20       		.uleb128 0x20
 7401 017b 898201   		.uleb128 0x4109
 7402 017e 01       		.byte	0x1
 7403 017f 11       		.uleb128 0x11
 7404 0180 01       		.uleb128 0x1
 7405 0181 31       		.uleb128 0x31
 7406 0182 13       		.uleb128 0x13
 7407 0183 01       		.uleb128 0x1
 7408 0184 13       		.uleb128 0x13
 7409 0185 00       		.byte	0
 7410 0186 00       		.byte	0
 7411 0187 21       		.uleb128 0x21
 7412 0188 8A8201   		.uleb128 0x410a
 7413 018b 00       		.byte	0
 7414 018c 02       		.uleb128 0x2
 7415 018d 0A       		.uleb128 0xa
 7416 018e 9142     		.uleb128 0x2111
 7417 0190 0A       		.uleb128 0xa
 7418 0191 00       		.byte	0
 7419 0192 00       		.byte	0
 7420 0193 22       		.uleb128 0x22
 7421 0194 898201   		.uleb128 0x4109
 7422 0197 01       		.byte	0x1
 7423 0198 11       		.uleb128 0x11
 7424 0199 01       		.uleb128 0x1
 7425 019a 9542     		.uleb128 0x2115
 7426 019c 0C       		.uleb128 0xc
 7427 019d 31       		.uleb128 0x31
 7428 019e 13       		.uleb128 0x13
 7429 019f 00       		.byte	0
 7430 01a0 00       		.byte	0
 7431 01a1 23       		.uleb128 0x23
 7432 01a2 2E       		.uleb128 0x2e
 7433 01a3 01       		.byte	0x1
 7434 01a4 03       		.uleb128 0x3
 7435 01a5 0E       		.uleb128 0xe
ARM GAS  C:\Users\Elis\AppData\Local\Temp\ccIy8Y2d.s 			page 132


 7436 01a6 3A       		.uleb128 0x3a
 7437 01a7 0B       		.uleb128 0xb
 7438 01a8 3B       		.uleb128 0x3b
 7439 01a9 0B       		.uleb128 0xb
 7440 01aa 27       		.uleb128 0x27
 7441 01ab 0C       		.uleb128 0xc
 7442 01ac 20       		.uleb128 0x20
 7443 01ad 0B       		.uleb128 0xb
 7444 01ae 01       		.uleb128 0x1
 7445 01af 13       		.uleb128 0x13
 7446 01b0 00       		.byte	0
 7447 01b1 00       		.byte	0
 7448 01b2 24       		.uleb128 0x24
 7449 01b3 05       		.uleb128 0x5
 7450 01b4 00       		.byte	0
 7451 01b5 03       		.uleb128 0x3
 7452 01b6 08       		.uleb128 0x8
 7453 01b7 3A       		.uleb128 0x3a
 7454 01b8 0B       		.uleb128 0xb
 7455 01b9 3B       		.uleb128 0x3b
 7456 01ba 0B       		.uleb128 0xb
 7457 01bb 49       		.uleb128 0x49
 7458 01bc 13       		.uleb128 0x13
 7459 01bd 00       		.byte	0
 7460 01be 00       		.byte	0
 7461 01bf 25       		.uleb128 0x25
 7462 01c0 2E       		.uleb128 0x2e
 7463 01c1 01       		.byte	0x1
 7464 01c2 03       		.uleb128 0x3
 7465 01c3 0E       		.uleb128 0xe
 7466 01c4 3A       		.uleb128 0x3a
 7467 01c5 0B       		.uleb128 0xb
 7468 01c6 3B       		.uleb128 0x3b
 7469 01c7 0B       		.uleb128 0xb
 7470 01c8 27       		.uleb128 0x27
 7471 01c9 0C       		.uleb128 0xc
 7472 01ca 11       		.uleb128 0x11
 7473 01cb 01       		.uleb128 0x1
 7474 01cc 12       		.uleb128 0x12
 7475 01cd 01       		.uleb128 0x1
 7476 01ce 40       		.uleb128 0x40
 7477 01cf 06       		.uleb128 0x6
 7478 01d0 9642     		.uleb128 0x2116
 7479 01d2 0C       		.uleb128 0xc
 7480 01d3 01       		.uleb128 0x1
 7481 01d4 13       		.uleb128 0x13
 7482 01d5 00       		.byte	0
 7483 01d6 00       		.byte	0
 7484 01d7 26       		.uleb128 0x26
 7485 01d8 34       		.uleb128 0x34
 7486 01d9 00       		.byte	0
 7487 01da 03       		.uleb128 0x3
 7488 01db 08       		.uleb128 0x8
 7489 01dc 3A       		.uleb128 0x3a
 7490 01dd 0B       		.uleb128 0xb
 7491 01de 3B       		.uleb128 0x3b
 7492 01df 0B       		.uleb128 0xb
ARM GAS  C:\Users\Elis\AppData\Local\Temp\ccIy8Y2d.s 			page 133


 7493 01e0 49       		.uleb128 0x49
 7494 01e1 13       		.uleb128 0x13
 7495 01e2 02       		.uleb128 0x2
 7496 01e3 0A       		.uleb128 0xa
 7497 01e4 00       		.byte	0
 7498 01e5 00       		.byte	0
 7499 01e6 27       		.uleb128 0x27
 7500 01e7 0B       		.uleb128 0xb
 7501 01e8 01       		.byte	0x1
 7502 01e9 55       		.uleb128 0x55
 7503 01ea 06       		.uleb128 0x6
 7504 01eb 01       		.uleb128 0x1
 7505 01ec 13       		.uleb128 0x13
 7506 01ed 00       		.byte	0
 7507 01ee 00       		.byte	0
 7508 01ef 28       		.uleb128 0x28
 7509 01f0 898201   		.uleb128 0x4109
 7510 01f3 00       		.byte	0
 7511 01f4 11       		.uleb128 0x11
 7512 01f5 01       		.uleb128 0x1
 7513 01f6 31       		.uleb128 0x31
 7514 01f7 13       		.uleb128 0x13
 7515 01f8 00       		.byte	0
 7516 01f9 00       		.byte	0
 7517 01fa 29       		.uleb128 0x29
 7518 01fb 34       		.uleb128 0x34
 7519 01fc 00       		.byte	0
 7520 01fd 03       		.uleb128 0x3
 7521 01fe 0E       		.uleb128 0xe
 7522 01ff 3A       		.uleb128 0x3a
 7523 0200 0B       		.uleb128 0xb
 7524 0201 3B       		.uleb128 0x3b
 7525 0202 0B       		.uleb128 0xb
 7526 0203 49       		.uleb128 0x49
 7527 0204 13       		.uleb128 0x13
 7528 0205 02       		.uleb128 0x2
 7529 0206 06       		.uleb128 0x6
 7530 0207 00       		.byte	0
 7531 0208 00       		.byte	0
 7532 0209 2A       		.uleb128 0x2a
 7533 020a 0B       		.uleb128 0xb
 7534 020b 01       		.byte	0x1
 7535 020c 11       		.uleb128 0x11
 7536 020d 01       		.uleb128 0x1
 7537 020e 12       		.uleb128 0x12
 7538 020f 01       		.uleb128 0x1
 7539 0210 01       		.uleb128 0x1
 7540 0211 13       		.uleb128 0x13
 7541 0212 00       		.byte	0
 7542 0213 00       		.byte	0
 7543 0214 2B       		.uleb128 0x2b
 7544 0215 34       		.uleb128 0x34
 7545 0216 00       		.byte	0
 7546 0217 03       		.uleb128 0x3
 7547 0218 08       		.uleb128 0x8
 7548 0219 3A       		.uleb128 0x3a
 7549 021a 0B       		.uleb128 0xb
ARM GAS  C:\Users\Elis\AppData\Local\Temp\ccIy8Y2d.s 			page 134


 7550 021b 3B       		.uleb128 0x3b
 7551 021c 05       		.uleb128 0x5
 7552 021d 49       		.uleb128 0x49
 7553 021e 13       		.uleb128 0x13
 7554 021f 02       		.uleb128 0x2
 7555 0220 06       		.uleb128 0x6
 7556 0221 00       		.byte	0
 7557 0222 00       		.byte	0
 7558 0223 2C       		.uleb128 0x2c
 7559 0224 898201   		.uleb128 0x4109
 7560 0227 01       		.byte	0x1
 7561 0228 11       		.uleb128 0x11
 7562 0229 01       		.uleb128 0x1
 7563 022a 31       		.uleb128 0x31
 7564 022b 13       		.uleb128 0x13
 7565 022c 00       		.byte	0
 7566 022d 00       		.byte	0
 7567 022e 2D       		.uleb128 0x2d
 7568 022f 1D       		.uleb128 0x1d
 7569 0230 01       		.byte	0x1
 7570 0231 31       		.uleb128 0x31
 7571 0232 13       		.uleb128 0x13
 7572 0233 11       		.uleb128 0x11
 7573 0234 01       		.uleb128 0x1
 7574 0235 12       		.uleb128 0x12
 7575 0236 01       		.uleb128 0x1
 7576 0237 58       		.uleb128 0x58
 7577 0238 0B       		.uleb128 0xb
 7578 0239 59       		.uleb128 0x59
 7579 023a 0B       		.uleb128 0xb
 7580 023b 01       		.uleb128 0x1
 7581 023c 13       		.uleb128 0x13
 7582 023d 00       		.byte	0
 7583 023e 00       		.byte	0
 7584 023f 2E       		.uleb128 0x2e
 7585 0240 05       		.uleb128 0x5
 7586 0241 00       		.byte	0
 7587 0242 31       		.uleb128 0x31
 7588 0243 13       		.uleb128 0x13
 7589 0244 02       		.uleb128 0x2
 7590 0245 06       		.uleb128 0x6
 7591 0246 00       		.byte	0
 7592 0247 00       		.byte	0
 7593 0248 2F       		.uleb128 0x2f
 7594 0249 898201   		.uleb128 0x4109
 7595 024c 01       		.byte	0x1
 7596 024d 11       		.uleb128 0x11
 7597 024e 01       		.uleb128 0x1
 7598 024f 00       		.byte	0
 7599 0250 00       		.byte	0
 7600 0251 30       		.uleb128 0x30
 7601 0252 2E       		.uleb128 0x2e
 7602 0253 01       		.byte	0x1
 7603 0254 03       		.uleb128 0x3
 7604 0255 0E       		.uleb128 0xe
 7605 0256 3A       		.uleb128 0x3a
 7606 0257 0B       		.uleb128 0xb
ARM GAS  C:\Users\Elis\AppData\Local\Temp\ccIy8Y2d.s 			page 135


 7607 0258 3B       		.uleb128 0x3b
 7608 0259 05       		.uleb128 0x5
 7609 025a 27       		.uleb128 0x27
 7610 025b 0C       		.uleb128 0xc
 7611 025c 11       		.uleb128 0x11
 7612 025d 01       		.uleb128 0x1
 7613 025e 12       		.uleb128 0x12
 7614 025f 01       		.uleb128 0x1
 7615 0260 40       		.uleb128 0x40
 7616 0261 06       		.uleb128 0x6
 7617 0262 9742     		.uleb128 0x2117
 7618 0264 0C       		.uleb128 0xc
 7619 0265 01       		.uleb128 0x1
 7620 0266 13       		.uleb128 0x13
 7621 0267 00       		.byte	0
 7622 0268 00       		.byte	0
 7623 0269 31       		.uleb128 0x31
 7624 026a 05       		.uleb128 0x5
 7625 026b 00       		.byte	0
 7626 026c 03       		.uleb128 0x3
 7627 026d 0E       		.uleb128 0xe
 7628 026e 3A       		.uleb128 0x3a
 7629 026f 0B       		.uleb128 0xb
 7630 0270 3B       		.uleb128 0x3b
 7631 0271 05       		.uleb128 0x5
 7632 0272 49       		.uleb128 0x49
 7633 0273 13       		.uleb128 0x13
 7634 0274 02       		.uleb128 0x2
 7635 0275 06       		.uleb128 0x6
 7636 0276 00       		.byte	0
 7637 0277 00       		.byte	0
 7638 0278 32       		.uleb128 0x32
 7639 0279 2E       		.uleb128 0x2e
 7640 027a 01       		.byte	0x1
 7641 027b 03       		.uleb128 0x3
 7642 027c 0E       		.uleb128 0xe
 7643 027d 3A       		.uleb128 0x3a
 7644 027e 0B       		.uleb128 0xb
 7645 027f 3B       		.uleb128 0x3b
 7646 0280 05       		.uleb128 0x5
 7647 0281 27       		.uleb128 0x27
 7648 0282 0C       		.uleb128 0xc
 7649 0283 20       		.uleb128 0x20
 7650 0284 0B       		.uleb128 0xb
 7651 0285 01       		.uleb128 0x1
 7652 0286 13       		.uleb128 0x13
 7653 0287 00       		.byte	0
 7654 0288 00       		.byte	0
 7655 0289 33       		.uleb128 0x33
 7656 028a 05       		.uleb128 0x5
 7657 028b 00       		.byte	0
 7658 028c 03       		.uleb128 0x3
 7659 028d 08       		.uleb128 0x8
 7660 028e 3A       		.uleb128 0x3a
 7661 028f 0B       		.uleb128 0xb
 7662 0290 3B       		.uleb128 0x3b
 7663 0291 05       		.uleb128 0x5
ARM GAS  C:\Users\Elis\AppData\Local\Temp\ccIy8Y2d.s 			page 136


 7664 0292 49       		.uleb128 0x49
 7665 0293 13       		.uleb128 0x13
 7666 0294 00       		.byte	0
 7667 0295 00       		.byte	0
 7668 0296 34       		.uleb128 0x34
 7669 0297 05       		.uleb128 0x5
 7670 0298 00       		.byte	0
 7671 0299 03       		.uleb128 0x3
 7672 029a 0E       		.uleb128 0xe
 7673 029b 3A       		.uleb128 0x3a
 7674 029c 0B       		.uleb128 0xb
 7675 029d 3B       		.uleb128 0x3b
 7676 029e 05       		.uleb128 0x5
 7677 029f 49       		.uleb128 0x49
 7678 02a0 13       		.uleb128 0x13
 7679 02a1 00       		.byte	0
 7680 02a2 00       		.byte	0
 7681 02a3 35       		.uleb128 0x35
 7682 02a4 34       		.uleb128 0x34
 7683 02a5 00       		.byte	0
 7684 02a6 03       		.uleb128 0x3
 7685 02a7 08       		.uleb128 0x8
 7686 02a8 3A       		.uleb128 0x3a
 7687 02a9 0B       		.uleb128 0xb
 7688 02aa 3B       		.uleb128 0x3b
 7689 02ab 05       		.uleb128 0x5
 7690 02ac 49       		.uleb128 0x49
 7691 02ad 13       		.uleb128 0x13
 7692 02ae 00       		.byte	0
 7693 02af 00       		.byte	0
 7694 02b0 36       		.uleb128 0x36
 7695 02b1 2E       		.uleb128 0x2e
 7696 02b2 01       		.byte	0x1
 7697 02b3 03       		.uleb128 0x3
 7698 02b4 0E       		.uleb128 0xe
 7699 02b5 3A       		.uleb128 0x3a
 7700 02b6 0B       		.uleb128 0xb
 7701 02b7 3B       		.uleb128 0x3b
 7702 02b8 05       		.uleb128 0x5
 7703 02b9 27       		.uleb128 0x27
 7704 02ba 0C       		.uleb128 0xc
 7705 02bb 49       		.uleb128 0x49
 7706 02bc 13       		.uleb128 0x13
 7707 02bd 11       		.uleb128 0x11
 7708 02be 01       		.uleb128 0x1
 7709 02bf 12       		.uleb128 0x12
 7710 02c0 01       		.uleb128 0x1
 7711 02c1 40       		.uleb128 0x40
 7712 02c2 06       		.uleb128 0x6
 7713 02c3 9642     		.uleb128 0x2116
 7714 02c5 0C       		.uleb128 0xc
 7715 02c6 01       		.uleb128 0x1
 7716 02c7 13       		.uleb128 0x13
 7717 02c8 00       		.byte	0
 7718 02c9 00       		.byte	0
 7719 02ca 37       		.uleb128 0x37
 7720 02cb 05       		.uleb128 0x5
ARM GAS  C:\Users\Elis\AppData\Local\Temp\ccIy8Y2d.s 			page 137


 7721 02cc 00       		.byte	0
 7722 02cd 03       		.uleb128 0x3
 7723 02ce 08       		.uleb128 0x8
 7724 02cf 3A       		.uleb128 0x3a
 7725 02d0 0B       		.uleb128 0xb
 7726 02d1 3B       		.uleb128 0x3b
 7727 02d2 05       		.uleb128 0x5
 7728 02d3 49       		.uleb128 0x49
 7729 02d4 13       		.uleb128 0x13
 7730 02d5 02       		.uleb128 0x2
 7731 02d6 06       		.uleb128 0x6
 7732 02d7 00       		.byte	0
 7733 02d8 00       		.byte	0
 7734 02d9 38       		.uleb128 0x38
 7735 02da 34       		.uleb128 0x34
 7736 02db 00       		.byte	0
 7737 02dc 03       		.uleb128 0x3
 7738 02dd 0E       		.uleb128 0xe
 7739 02de 3A       		.uleb128 0x3a
 7740 02df 0B       		.uleb128 0xb
 7741 02e0 3B       		.uleb128 0x3b
 7742 02e1 05       		.uleb128 0x5
 7743 02e2 49       		.uleb128 0x49
 7744 02e3 13       		.uleb128 0x13
 7745 02e4 02       		.uleb128 0x2
 7746 02e5 0A       		.uleb128 0xa
 7747 02e6 00       		.byte	0
 7748 02e7 00       		.byte	0
 7749 02e8 39       		.uleb128 0x39
 7750 02e9 34       		.uleb128 0x34
 7751 02ea 00       		.byte	0
 7752 02eb 03       		.uleb128 0x3
 7753 02ec 0E       		.uleb128 0xe
 7754 02ed 3A       		.uleb128 0x3a
 7755 02ee 0B       		.uleb128 0xb
 7756 02ef 3B       		.uleb128 0x3b
 7757 02f0 05       		.uleb128 0x5
 7758 02f1 49       		.uleb128 0x49
 7759 02f2 13       		.uleb128 0x13
 7760 02f3 02       		.uleb128 0x2
 7761 02f4 06       		.uleb128 0x6
 7762 02f5 00       		.byte	0
 7763 02f6 00       		.byte	0
 7764 02f7 3A       		.uleb128 0x3a
 7765 02f8 0B       		.uleb128 0xb
 7766 02f9 01       		.byte	0x1
 7767 02fa 55       		.uleb128 0x55
 7768 02fb 06       		.uleb128 0x6
 7769 02fc 00       		.byte	0
 7770 02fd 00       		.byte	0
 7771 02fe 3B       		.uleb128 0x3b
 7772 02ff 1D       		.uleb128 0x1d
 7773 0300 01       		.byte	0x1
 7774 0301 31       		.uleb128 0x31
 7775 0302 13       		.uleb128 0x13
 7776 0303 52       		.uleb128 0x52
 7777 0304 01       		.uleb128 0x1
ARM GAS  C:\Users\Elis\AppData\Local\Temp\ccIy8Y2d.s 			page 138


 7778 0305 55       		.uleb128 0x55
 7779 0306 06       		.uleb128 0x6
 7780 0307 58       		.uleb128 0x58
 7781 0308 0B       		.uleb128 0xb
 7782 0309 59       		.uleb128 0x59
 7783 030a 05       		.uleb128 0x5
 7784 030b 01       		.uleb128 0x1
 7785 030c 13       		.uleb128 0x13
 7786 030d 00       		.byte	0
 7787 030e 00       		.byte	0
 7788 030f 3C       		.uleb128 0x3c
 7789 0310 05       		.uleb128 0x5
 7790 0311 00       		.byte	0
 7791 0312 31       		.uleb128 0x31
 7792 0313 13       		.uleb128 0x13
 7793 0314 00       		.byte	0
 7794 0315 00       		.byte	0
 7795 0316 3D       		.uleb128 0x3d
 7796 0317 34       		.uleb128 0x34
 7797 0318 00       		.byte	0
 7798 0319 31       		.uleb128 0x31
 7799 031a 13       		.uleb128 0x13
 7800 031b 02       		.uleb128 0x2
 7801 031c 06       		.uleb128 0x6
 7802 031d 00       		.byte	0
 7803 031e 00       		.byte	0
 7804 031f 3E       		.uleb128 0x3e
 7805 0320 898201   		.uleb128 0x4109
 7806 0323 01       		.byte	0x1
 7807 0324 11       		.uleb128 0x11
 7808 0325 01       		.uleb128 0x1
 7809 0326 9342     		.uleb128 0x2113
 7810 0328 0A       		.uleb128 0xa
 7811 0329 01       		.uleb128 0x1
 7812 032a 13       		.uleb128 0x13
 7813 032b 00       		.byte	0
 7814 032c 00       		.byte	0
 7815 032d 3F       		.uleb128 0x3f
 7816 032e 2E       		.uleb128 0x2e
 7817 032f 01       		.byte	0x1
 7818 0330 3F       		.uleb128 0x3f
 7819 0331 0C       		.uleb128 0xc
 7820 0332 03       		.uleb128 0x3
 7821 0333 0E       		.uleb128 0xe
 7822 0334 3A       		.uleb128 0x3a
 7823 0335 0B       		.uleb128 0xb
 7824 0336 3B       		.uleb128 0x3b
 7825 0337 05       		.uleb128 0x5
 7826 0338 27       		.uleb128 0x27
 7827 0339 0C       		.uleb128 0xc
 7828 033a 11       		.uleb128 0x11
 7829 033b 01       		.uleb128 0x1
 7830 033c 12       		.uleb128 0x12
 7831 033d 01       		.uleb128 0x1
 7832 033e 40       		.uleb128 0x40
 7833 033f 0A       		.uleb128 0xa
 7834 0340 9742     		.uleb128 0x2117
ARM GAS  C:\Users\Elis\AppData\Local\Temp\ccIy8Y2d.s 			page 139


 7835 0342 0C       		.uleb128 0xc
 7836 0343 01       		.uleb128 0x1
 7837 0344 13       		.uleb128 0x13
 7838 0345 00       		.byte	0
 7839 0346 00       		.byte	0
 7840 0347 40       		.uleb128 0x40
 7841 0348 34       		.uleb128 0x34
 7842 0349 00       		.byte	0
 7843 034a 03       		.uleb128 0x3
 7844 034b 0E       		.uleb128 0xe
 7845 034c 3A       		.uleb128 0x3a
 7846 034d 0B       		.uleb128 0xb
 7847 034e 3B       		.uleb128 0x3b
 7848 034f 05       		.uleb128 0x5
 7849 0350 49       		.uleb128 0x49
 7850 0351 13       		.uleb128 0x13
 7851 0352 3F       		.uleb128 0x3f
 7852 0353 0C       		.uleb128 0xc
 7853 0354 3C       		.uleb128 0x3c
 7854 0355 0C       		.uleb128 0xc
 7855 0356 00       		.byte	0
 7856 0357 00       		.byte	0
 7857 0358 41       		.uleb128 0x41
 7858 0359 898201   		.uleb128 0x4109
 7859 035c 00       		.byte	0
 7860 035d 11       		.uleb128 0x11
 7861 035e 01       		.uleb128 0x1
 7862 035f 9542     		.uleb128 0x2115
 7863 0361 0C       		.uleb128 0xc
 7864 0362 31       		.uleb128 0x31
 7865 0363 13       		.uleb128 0x13
 7866 0364 00       		.byte	0
 7867 0365 00       		.byte	0
 7868 0366 42       		.uleb128 0x42
 7869 0367 2E       		.uleb128 0x2e
 7870 0368 01       		.byte	0x1
 7871 0369 3F       		.uleb128 0x3f
 7872 036a 0C       		.uleb128 0xc
 7873 036b 03       		.uleb128 0x3
 7874 036c 0E       		.uleb128 0xe
 7875 036d 3A       		.uleb128 0x3a
 7876 036e 0B       		.uleb128 0xb
 7877 036f 3B       		.uleb128 0x3b
 7878 0370 05       		.uleb128 0x5
 7879 0371 27       		.uleb128 0x27
 7880 0372 0C       		.uleb128 0xc
 7881 0373 49       		.uleb128 0x49
 7882 0374 13       		.uleb128 0x13
 7883 0375 11       		.uleb128 0x11
 7884 0376 01       		.uleb128 0x1
 7885 0377 12       		.uleb128 0x12
 7886 0378 01       		.uleb128 0x1
 7887 0379 40       		.uleb128 0x40
 7888 037a 06       		.uleb128 0x6
 7889 037b 9742     		.uleb128 0x2117
 7890 037d 0C       		.uleb128 0xc
 7891 037e 01       		.uleb128 0x1
ARM GAS  C:\Users\Elis\AppData\Local\Temp\ccIy8Y2d.s 			page 140


 7892 037f 13       		.uleb128 0x13
 7893 0380 00       		.byte	0
 7894 0381 00       		.byte	0
 7895 0382 43       		.uleb128 0x43
 7896 0383 898201   		.uleb128 0x4109
 7897 0386 01       		.byte	0x1
 7898 0387 11       		.uleb128 0x11
 7899 0388 01       		.uleb128 0x1
 7900 0389 01       		.uleb128 0x1
 7901 038a 13       		.uleb128 0x13
 7902 038b 00       		.byte	0
 7903 038c 00       		.byte	0
 7904 038d 44       		.uleb128 0x44
 7905 038e 2E       		.uleb128 0x2e
 7906 038f 01       		.byte	0x1
 7907 0390 3F       		.uleb128 0x3f
 7908 0391 0C       		.uleb128 0xc
 7909 0392 03       		.uleb128 0x3
 7910 0393 0E       		.uleb128 0xe
 7911 0394 3A       		.uleb128 0x3a
 7912 0395 0B       		.uleb128 0xb
 7913 0396 3B       		.uleb128 0x3b
 7914 0397 05       		.uleb128 0x5
 7915 0398 27       		.uleb128 0x27
 7916 0399 0C       		.uleb128 0xc
 7917 039a 11       		.uleb128 0x11
 7918 039b 01       		.uleb128 0x1
 7919 039c 12       		.uleb128 0x12
 7920 039d 01       		.uleb128 0x1
 7921 039e 40       		.uleb128 0x40
 7922 039f 06       		.uleb128 0x6
 7923 03a0 9742     		.uleb128 0x2117
 7924 03a2 0C       		.uleb128 0xc
 7925 03a3 01       		.uleb128 0x1
 7926 03a4 13       		.uleb128 0x13
 7927 03a5 00       		.byte	0
 7928 03a6 00       		.byte	0
 7929 03a7 45       		.uleb128 0x45
 7930 03a8 05       		.uleb128 0x5
 7931 03a9 00       		.byte	0
 7932 03aa 03       		.uleb128 0x3
 7933 03ab 08       		.uleb128 0x8
 7934 03ac 3A       		.uleb128 0x3a
 7935 03ad 0B       		.uleb128 0xb
 7936 03ae 3B       		.uleb128 0x3b
 7937 03af 05       		.uleb128 0x5
 7938 03b0 49       		.uleb128 0x49
 7939 03b1 13       		.uleb128 0x13
 7940 03b2 02       		.uleb128 0x2
 7941 03b3 0A       		.uleb128 0xa
 7942 03b4 00       		.byte	0
 7943 03b5 00       		.byte	0
 7944 03b6 46       		.uleb128 0x46
 7945 03b7 2E       		.uleb128 0x2e
 7946 03b8 01       		.byte	0x1
 7947 03b9 3F       		.uleb128 0x3f
 7948 03ba 0C       		.uleb128 0xc
ARM GAS  C:\Users\Elis\AppData\Local\Temp\ccIy8Y2d.s 			page 141


 7949 03bb 03       		.uleb128 0x3
 7950 03bc 0E       		.uleb128 0xe
 7951 03bd 3A       		.uleb128 0x3a
 7952 03be 0B       		.uleb128 0xb
 7953 03bf 3B       		.uleb128 0x3b
 7954 03c0 05       		.uleb128 0x5
 7955 03c1 27       		.uleb128 0x27
 7956 03c2 0C       		.uleb128 0xc
 7957 03c3 49       		.uleb128 0x49
 7958 03c4 13       		.uleb128 0x13
 7959 03c5 11       		.uleb128 0x11
 7960 03c6 01       		.uleb128 0x1
 7961 03c7 12       		.uleb128 0x12
 7962 03c8 01       		.uleb128 0x1
 7963 03c9 40       		.uleb128 0x40
 7964 03ca 0A       		.uleb128 0xa
 7965 03cb 9742     		.uleb128 0x2117
 7966 03cd 0C       		.uleb128 0xc
 7967 03ce 01       		.uleb128 0x1
 7968 03cf 13       		.uleb128 0x13
 7969 03d0 00       		.byte	0
 7970 03d1 00       		.byte	0
 7971 03d2 47       		.uleb128 0x47
 7972 03d3 34       		.uleb128 0x34
 7973 03d4 00       		.byte	0
 7974 03d5 03       		.uleb128 0x3
 7975 03d6 08       		.uleb128 0x8
 7976 03d7 3A       		.uleb128 0x3a
 7977 03d8 0B       		.uleb128 0xb
 7978 03d9 3B       		.uleb128 0x3b
 7979 03da 05       		.uleb128 0x5
 7980 03db 49       		.uleb128 0x49
 7981 03dc 13       		.uleb128 0x13
 7982 03dd 02       		.uleb128 0x2
 7983 03de 0A       		.uleb128 0xa
 7984 03df 00       		.byte	0
 7985 03e0 00       		.byte	0
 7986 03e1 48       		.uleb128 0x48
 7987 03e2 34       		.uleb128 0x34
 7988 03e3 00       		.byte	0
 7989 03e4 03       		.uleb128 0x3
 7990 03e5 0E       		.uleb128 0xe
 7991 03e6 3A       		.uleb128 0x3a
 7992 03e7 0B       		.uleb128 0xb
 7993 03e8 3B       		.uleb128 0x3b
 7994 03e9 0B       		.uleb128 0xb
 7995 03ea 49       		.uleb128 0x49
 7996 03eb 13       		.uleb128 0x13
 7997 03ec 02       		.uleb128 0x2
 7998 03ed 0A       		.uleb128 0xa
 7999 03ee 00       		.byte	0
 8000 03ef 00       		.byte	0
 8001 03f0 49       		.uleb128 0x49
 8002 03f1 34       		.uleb128 0x34
 8003 03f2 00       		.byte	0
 8004 03f3 03       		.uleb128 0x3
 8005 03f4 0E       		.uleb128 0xe
ARM GAS  C:\Users\Elis\AppData\Local\Temp\ccIy8Y2d.s 			page 142


 8006 03f5 3A       		.uleb128 0x3a
 8007 03f6 0B       		.uleb128 0xb
 8008 03f7 3B       		.uleb128 0x3b
 8009 03f8 0B       		.uleb128 0xb
 8010 03f9 49       		.uleb128 0x49
 8011 03fa 13       		.uleb128 0x13
 8012 03fb 3F       		.uleb128 0x3f
 8013 03fc 0C       		.uleb128 0xc
 8014 03fd 3C       		.uleb128 0x3c
 8015 03fe 0C       		.uleb128 0xc
 8016 03ff 00       		.byte	0
 8017 0400 00       		.byte	0
 8018 0401 4A       		.uleb128 0x4a
 8019 0402 2E       		.uleb128 0x2e
 8020 0403 01       		.byte	0x1
 8021 0404 3F       		.uleb128 0x3f
 8022 0405 0C       		.uleb128 0xc
 8023 0406 03       		.uleb128 0x3
 8024 0407 0E       		.uleb128 0xe
 8025 0408 3A       		.uleb128 0x3a
 8026 0409 0B       		.uleb128 0xb
 8027 040a 3B       		.uleb128 0x3b
 8028 040b 0B       		.uleb128 0xb
 8029 040c 27       		.uleb128 0x27
 8030 040d 0C       		.uleb128 0xc
 8031 040e 49       		.uleb128 0x49
 8032 040f 13       		.uleb128 0x13
 8033 0410 3C       		.uleb128 0x3c
 8034 0411 0C       		.uleb128 0xc
 8035 0412 01       		.uleb128 0x1
 8036 0413 13       		.uleb128 0x13
 8037 0414 00       		.byte	0
 8038 0415 00       		.byte	0
 8039 0416 4B       		.uleb128 0x4b
 8040 0417 2E       		.uleb128 0x2e
 8041 0418 01       		.byte	0x1
 8042 0419 3F       		.uleb128 0x3f
 8043 041a 0C       		.uleb128 0xc
 8044 041b 03       		.uleb128 0x3
 8045 041c 0E       		.uleb128 0xe
 8046 041d 3A       		.uleb128 0x3a
 8047 041e 0B       		.uleb128 0xb
 8048 041f 3B       		.uleb128 0x3b
 8049 0420 0B       		.uleb128 0xb
 8050 0421 27       		.uleb128 0x27
 8051 0422 0C       		.uleb128 0xc
 8052 0423 3C       		.uleb128 0x3c
 8053 0424 0C       		.uleb128 0xc
 8054 0425 01       		.uleb128 0x1
 8055 0426 13       		.uleb128 0x13
 8056 0427 00       		.byte	0
 8057 0428 00       		.byte	0
 8058 0429 4C       		.uleb128 0x4c
 8059 042a 2E       		.uleb128 0x2e
 8060 042b 01       		.byte	0x1
 8061 042c 3F       		.uleb128 0x3f
 8062 042d 0C       		.uleb128 0xc
ARM GAS  C:\Users\Elis\AppData\Local\Temp\ccIy8Y2d.s 			page 143


 8063 042e 03       		.uleb128 0x3
 8064 042f 0E       		.uleb128 0xe
 8065 0430 3A       		.uleb128 0x3a
 8066 0431 0B       		.uleb128 0xb
 8067 0432 3B       		.uleb128 0x3b
 8068 0433 05       		.uleb128 0x5
 8069 0434 27       		.uleb128 0x27
 8070 0435 0C       		.uleb128 0xc
 8071 0436 49       		.uleb128 0x49
 8072 0437 13       		.uleb128 0x13
 8073 0438 3C       		.uleb128 0x3c
 8074 0439 0C       		.uleb128 0xc
 8075 043a 01       		.uleb128 0x1
 8076 043b 13       		.uleb128 0x13
 8077 043c 00       		.byte	0
 8078 043d 00       		.byte	0
 8079 043e 4D       		.uleb128 0x4d
 8080 043f 2E       		.uleb128 0x2e
 8081 0440 01       		.byte	0x1
 8082 0441 3F       		.uleb128 0x3f
 8083 0442 0C       		.uleb128 0xc
 8084 0443 03       		.uleb128 0x3
 8085 0444 0E       		.uleb128 0xe
 8086 0445 3A       		.uleb128 0x3a
 8087 0446 0B       		.uleb128 0xb
 8088 0447 3B       		.uleb128 0x3b
 8089 0448 05       		.uleb128 0x5
 8090 0449 27       		.uleb128 0x27
 8091 044a 0C       		.uleb128 0xc
 8092 044b 3C       		.uleb128 0x3c
 8093 044c 0C       		.uleb128 0xc
 8094 044d 01       		.uleb128 0x1
 8095 044e 13       		.uleb128 0x13
 8096 044f 00       		.byte	0
 8097 0450 00       		.byte	0
 8098 0451 4E       		.uleb128 0x4e
 8099 0452 2E       		.uleb128 0x2e
 8100 0453 00       		.byte	0
 8101 0454 3F       		.uleb128 0x3f
 8102 0455 0C       		.uleb128 0xc
 8103 0456 03       		.uleb128 0x3
 8104 0457 0E       		.uleb128 0xe
 8105 0458 3A       		.uleb128 0x3a
 8106 0459 0B       		.uleb128 0xb
 8107 045a 3B       		.uleb128 0x3b
 8108 045b 0B       		.uleb128 0xb
 8109 045c 27       		.uleb128 0x27
 8110 045d 0C       		.uleb128 0xc
 8111 045e 49       		.uleb128 0x49
 8112 045f 13       		.uleb128 0x13
 8113 0460 3C       		.uleb128 0x3c
 8114 0461 0C       		.uleb128 0xc
 8115 0462 00       		.byte	0
 8116 0463 00       		.byte	0
 8117 0464 4F       		.uleb128 0x4f
 8118 0465 2E       		.uleb128 0x2e
 8119 0466 01       		.byte	0x1
ARM GAS  C:\Users\Elis\AppData\Local\Temp\ccIy8Y2d.s 			page 144


 8120 0467 3F       		.uleb128 0x3f
 8121 0468 0C       		.uleb128 0xc
 8122 0469 03       		.uleb128 0x3
 8123 046a 0E       		.uleb128 0xe
 8124 046b 3A       		.uleb128 0x3a
 8125 046c 0B       		.uleb128 0xb
 8126 046d 3B       		.uleb128 0x3b
 8127 046e 0B       		.uleb128 0xb
 8128 046f 27       		.uleb128 0x27
 8129 0470 0C       		.uleb128 0xc
 8130 0471 3C       		.uleb128 0x3c
 8131 0472 0C       		.uleb128 0xc
 8132 0473 00       		.byte	0
 8133 0474 00       		.byte	0
 8134 0475 00       		.byte	0
 8135              		.section	.debug_loc,"",%progbits
 8136              	.Ldebug_loc0:
 8137              	.LLST0:
 8138 0000 00000000 		.4byte	.LFB119
 8139 0004 04000000 		.4byte	.LCFI0
 8140 0008 0200     		.2byte	0x2
 8141 000a 7D       		.byte	0x7d
 8142 000b 00       		.sleb128 0
 8143 000c 04000000 		.4byte	.LCFI0
 8144 0010 C0000000 		.4byte	.LFE119
 8145 0014 0200     		.2byte	0x2
 8146 0016 7D       		.byte	0x7d
 8147 0017 18       		.sleb128 24
 8148 0018 00000000 		.4byte	0
 8149 001c 00000000 		.4byte	0
 8150              	.LLST1:
 8151 0020 00000000 		.4byte	.LVL0
 8152 0024 0D000000 		.4byte	.LVL1-1
 8153 0028 0100     		.2byte	0x1
 8154 002a 50       		.byte	0x50
 8155 002b 0D000000 		.4byte	.LVL1-1
 8156 002f C0000000 		.4byte	.LFE119
 8157 0033 0100     		.2byte	0x1
 8158 0035 54       		.byte	0x54
 8159 0036 00000000 		.4byte	0
 8160 003a 00000000 		.4byte	0
 8161              	.LLST2:
 8162 003e 00000000 		.4byte	.LVL0
 8163 0042 0D000000 		.4byte	.LVL1-1
 8164 0046 0100     		.2byte	0x1
 8165 0048 51       		.byte	0x51
 8166 0049 0D000000 		.4byte	.LVL1-1
 8167 004d 86000000 		.4byte	.LVL4
 8168 0051 0100     		.2byte	0x1
 8169 0053 56       		.byte	0x56
 8170 0054 86000000 		.4byte	.LVL4
 8171 0058 A4000000 		.4byte	.LVL5
 8172 005c 0400     		.2byte	0x4
 8173 005e F3       		.byte	0xf3
 8174 005f 01       		.uleb128 0x1
 8175 0060 51       		.byte	0x51
 8176 0061 9F       		.byte	0x9f
ARM GAS  C:\Users\Elis\AppData\Local\Temp\ccIy8Y2d.s 			page 145


 8177 0062 A4000000 		.4byte	.LVL5
 8178 0066 C0000000 		.4byte	.LFE119
 8179 006a 0100     		.2byte	0x1
 8180 006c 56       		.byte	0x56
 8181 006d 00000000 		.4byte	0
 8182 0071 00000000 		.4byte	0
 8183              	.LLST3:
 8184 0075 00000000 		.4byte	.LVL0
 8185 0079 0D000000 		.4byte	.LVL1-1
 8186 007d 0100     		.2byte	0x1
 8187 007f 52       		.byte	0x52
 8188 0080 0D000000 		.4byte	.LVL1-1
 8189 0084 76000000 		.4byte	.LVL3
 8190 0088 0100     		.2byte	0x1
 8191 008a 55       		.byte	0x55
 8192 008b 76000000 		.4byte	.LVL3
 8193 008f A4000000 		.4byte	.LVL5
 8194 0093 0400     		.2byte	0x4
 8195 0095 F3       		.byte	0xf3
 8196 0096 01       		.uleb128 0x1
 8197 0097 52       		.byte	0x52
 8198 0098 9F       		.byte	0x9f
 8199 0099 A4000000 		.4byte	.LVL5
 8200 009d C0000000 		.4byte	.LFE119
 8201 00a1 0100     		.2byte	0x1
 8202 00a3 55       		.byte	0x55
 8203 00a4 00000000 		.4byte	0
 8204 00a8 00000000 		.4byte	0
 8205              	.LLST4:
 8206 00ac 0E000000 		.4byte	.LVL1
 8207 00b0 16000000 		.4byte	.LVL2
 8208 00b4 0100     		.2byte	0x1
 8209 00b6 50       		.byte	0x50
 8210 00b7 16000000 		.4byte	.LVL2
 8211 00bb A3000000 		.4byte	.LVL5-1
 8212 00bf 0100     		.2byte	0x1
 8213 00c1 53       		.byte	0x53
 8214 00c2 A4000000 		.4byte	.LVL5
 8215 00c6 AC000000 		.4byte	.LVL6
 8216 00ca 0100     		.2byte	0x1
 8217 00cc 53       		.byte	0x53
 8218 00cd AC000000 		.4byte	.LVL6
 8219 00d1 B0000000 		.4byte	.LVL7
 8220 00d5 0100     		.2byte	0x1
 8221 00d7 50       		.byte	0x50
 8222 00d8 00000000 		.4byte	0
 8223 00dc 00000000 		.4byte	0
 8224              	.LLST5:
 8225 00e0 00000000 		.4byte	.LFB120
 8226 00e4 04000000 		.4byte	.LCFI1
 8227 00e8 0200     		.2byte	0x2
 8228 00ea 7D       		.byte	0x7d
 8229 00eb 00       		.sleb128 0
 8230 00ec 04000000 		.4byte	.LCFI1
 8231 00f0 0E000000 		.4byte	.LCFI2
 8232 00f4 0200     		.2byte	0x2
 8233 00f6 7D       		.byte	0x7d
ARM GAS  C:\Users\Elis\AppData\Local\Temp\ccIy8Y2d.s 			page 146


 8234 00f7 18       		.sleb128 24
 8235 00f8 0E000000 		.4byte	.LCFI2
 8236 00fc D8030000 		.4byte	.LFE120
 8237 0100 0200     		.2byte	0x2
 8238 0102 7D       		.byte	0x7d
 8239 0103 20       		.sleb128 32
 8240 0104 00000000 		.4byte	0
 8241 0108 00000000 		.4byte	0
 8242              	.LLST6:
 8243 010c 00000000 		.4byte	.LVL8
 8244 0110 17000000 		.4byte	.LVL9-1
 8245 0114 0100     		.2byte	0x1
 8246 0116 50       		.byte	0x50
 8247 0117 17000000 		.4byte	.LVL9-1
 8248 011b 34020000 		.4byte	.LVL31
 8249 011f 0100     		.2byte	0x1
 8250 0121 54       		.byte	0x54
 8251 0122 34020000 		.4byte	.LVL31
 8252 0126 37020000 		.4byte	.LVL32-1
 8253 012a 0100     		.2byte	0x1
 8254 012c 51       		.byte	0x51
 8255 012d 37020000 		.4byte	.LVL32-1
 8256 0131 4A020000 		.4byte	.LVL34
 8257 0135 0100     		.2byte	0x1
 8258 0137 54       		.byte	0x54
 8259 0138 4A020000 		.4byte	.LVL34
 8260 013c 4C020000 		.4byte	.LVL35
 8261 0140 0100     		.2byte	0x1
 8262 0142 51       		.byte	0x51
 8263 0143 4C020000 		.4byte	.LVL35
 8264 0147 72020000 		.4byte	.LVL36
 8265 014b 0100     		.2byte	0x1
 8266 014d 54       		.byte	0x54
 8267 014e 72020000 		.4byte	.LVL36
 8268 0152 75020000 		.4byte	.LVL37-1
 8269 0156 0100     		.2byte	0x1
 8270 0158 51       		.byte	0x51
 8271 0159 75020000 		.4byte	.LVL37-1
 8272 015d 88020000 		.4byte	.LVL39
 8273 0161 0100     		.2byte	0x1
 8274 0163 54       		.byte	0x54
 8275 0164 88020000 		.4byte	.LVL39
 8276 0168 94020000 		.4byte	.LVL41
 8277 016c 0100     		.2byte	0x1
 8278 016e 51       		.byte	0x51
 8279 016f 94020000 		.4byte	.LVL41
 8280 0173 D8030000 		.4byte	.LFE120
 8281 0177 0100     		.2byte	0x1
 8282 0179 54       		.byte	0x54
 8283 017a 00000000 		.4byte	0
 8284 017e 00000000 		.4byte	0
 8285              	.LLST7:
 8286 0182 DE000000 		.4byte	.LVL11
 8287 0186 E0000000 		.4byte	.LVL12
 8288 018a 0100     		.2byte	0x1
 8289 018c 50       		.byte	0x50
 8290 018d E0000000 		.4byte	.LVL12
ARM GAS  C:\Users\Elis\AppData\Local\Temp\ccIy8Y2d.s 			page 147


 8291 0191 04010000 		.4byte	.LVL16
 8292 0195 0100     		.2byte	0x1
 8293 0197 57       		.byte	0x57
 8294 0198 B0020000 		.4byte	.LVL43
 8295 019c BE020000 		.4byte	.LVL44
 8296 01a0 0100     		.2byte	0x1
 8297 01a2 57       		.byte	0x57
 8298 01a3 BE020000 		.4byte	.LVL44
 8299 01a7 C2020000 		.4byte	.LVL45
 8300 01ab 0300     		.2byte	0x3
 8301 01ad 77       		.byte	0x77
 8302 01ae 01       		.sleb128 1
 8303 01af 9F       		.byte	0x9f
 8304 01b0 54030000 		.4byte	.LVL62
 8305 01b4 74030000 		.4byte	.LVL64
 8306 01b8 0100     		.2byte	0x1
 8307 01ba 57       		.byte	0x57
 8308 01bb 80030000 		.4byte	.LVL65
 8309 01bf D8030000 		.4byte	.LFE120
 8310 01c3 0100     		.2byte	0x1
 8311 01c5 57       		.byte	0x57
 8312 01c6 00000000 		.4byte	0
 8313 01ca 00000000 		.4byte	0
 8314              	.LLST8:
 8315 01ce EA000000 		.4byte	.LVL14
 8316 01d2 EE000000 		.4byte	.LVL15
 8317 01d6 0100     		.2byte	0x1
 8318 01d8 50       		.byte	0x50
 8319 01d9 EE000000 		.4byte	.LVL15
 8320 01dd 04010000 		.4byte	.LVL16
 8321 01e1 0100     		.2byte	0x1
 8322 01e3 58       		.byte	0x58
 8323 01e4 B0020000 		.4byte	.LVL43
 8324 01e8 D4020000 		.4byte	.LVL46
 8325 01ec 0100     		.2byte	0x1
 8326 01ee 58       		.byte	0x58
 8327 01ef D4020000 		.4byte	.LVL46
 8328 01f3 DE020000 		.4byte	.LVL47
 8329 01f7 0300     		.2byte	0x3
 8330 01f9 78       		.byte	0x78
 8331 01fa 01       		.sleb128 1
 8332 01fb 9F       		.byte	0x9f
 8333 01fc 54030000 		.4byte	.LVL62
 8334 0200 D8030000 		.4byte	.LFE120
 8335 0204 0100     		.2byte	0x1
 8336 0206 58       		.byte	0x58
 8337 0207 00000000 		.4byte	0
 8338 020b 00000000 		.4byte	0
 8339              	.LLST9:
 8340 020f 88030000 		.4byte	.LVL66
 8341 0213 98030000 		.4byte	.LVL67
 8342 0217 0200     		.2byte	0x2
 8343 0219 7D       		.byte	0x7d
 8344 021a 00       		.sleb128 0
 8345 021b A0030000 		.4byte	.LVL68
 8346 021f B2030000 		.4byte	.LVL69
 8347 0223 0200     		.2byte	0x2
ARM GAS  C:\Users\Elis\AppData\Local\Temp\ccIy8Y2d.s 			page 148


 8348 0225 91       		.byte	0x91
 8349 0226 62       		.sleb128 -30
 8350 0227 00000000 		.4byte	0
 8351 022b 00000000 		.4byte	0
 8352              	.LLST10:
 8353 022f 18010000 		.4byte	.LVL17
 8354 0233 5A010000 		.4byte	.LVL22
 8355 0237 0100     		.2byte	0x1
 8356 0239 51       		.byte	0x51
 8357 023a 00000000 		.4byte	0
 8358 023e 00000000 		.4byte	0
 8359              	.LLST11:
 8360 0242 3E010000 		.4byte	.LVL18
 8361 0246 42010000 		.4byte	.LVL19
 8362 024a 0C00     		.2byte	0xc
 8363 024c 70       		.byte	0x70
 8364 024d 00       		.sleb128 0
 8365 024e 70       		.byte	0x70
 8366 024f 00       		.sleb128 0
 8367 0250 1E       		.byte	0x1e
 8368 0251 77       		.byte	0x77
 8369 0252 00       		.sleb128 0
 8370 0253 77       		.byte	0x77
 8371 0254 00       		.sleb128 0
 8372 0255 1E       		.byte	0x1e
 8373 0256 22       		.byte	0x22
 8374 0257 9F       		.byte	0x9f
 8375 0258 42010000 		.4byte	.LVL19
 8376 025c 46010000 		.4byte	.LVL20
 8377 0260 2600     		.2byte	0x26
 8378 0262 70       		.byte	0x70
 8379 0263 00       		.sleb128 0
 8380 0264 70       		.byte	0x70
 8381 0265 00       		.sleb128 0
 8382 0266 1E       		.byte	0x1e
 8383 0267 7D       		.byte	0x7d
 8384 0268 00       		.sleb128 0
 8385 0269 94       		.byte	0x94
 8386 026a 02       		.byte	0x2
 8387 026b 40       		.byte	0x40
 8388 026c 24       		.byte	0x24
 8389 026d 40       		.byte	0x40
 8390 026e 26       		.byte	0x26
 8391 026f 7C       		.byte	0x7c
 8392 0270 00       		.sleb128 0
 8393 0271 40       		.byte	0x40
 8394 0272 24       		.byte	0x24
 8395 0273 40       		.byte	0x40
 8396 0274 26       		.byte	0x26
 8397 0275 1C       		.byte	0x1c
 8398 0276 7D       		.byte	0x7d
 8399 0277 00       		.sleb128 0
 8400 0278 94       		.byte	0x94
 8401 0279 02       		.byte	0x2
 8402 027a 40       		.byte	0x40
 8403 027b 24       		.byte	0x24
 8404 027c 40       		.byte	0x40
ARM GAS  C:\Users\Elis\AppData\Local\Temp\ccIy8Y2d.s 			page 149


 8405 027d 26       		.byte	0x26
 8406 027e 7C       		.byte	0x7c
 8407 027f 00       		.sleb128 0
 8408 0280 40       		.byte	0x40
 8409 0281 24       		.byte	0x24
 8410 0282 40       		.byte	0x40
 8411 0283 26       		.byte	0x26
 8412 0284 1C       		.byte	0x1c
 8413 0285 1E       		.byte	0x1e
 8414 0286 22       		.byte	0x22
 8415 0287 9F       		.byte	0x9f
 8416 0288 46010000 		.4byte	.LVL20
 8417 028c 56010000 		.4byte	.LVL21
 8418 0290 0100     		.2byte	0x1
 8419 0292 50       		.byte	0x50
 8420 0293 78010000 		.4byte	.LVL23
 8421 0297 7C010000 		.4byte	.LVL24
 8422 029b 0C00     		.2byte	0xc
 8423 029d 71       		.byte	0x71
 8424 029e 00       		.sleb128 0
 8425 029f 71       		.byte	0x71
 8426 02a0 00       		.sleb128 0
 8427 02a1 1E       		.byte	0x1e
 8428 02a2 70       		.byte	0x70
 8429 02a3 00       		.sleb128 0
 8430 02a4 70       		.byte	0x70
 8431 02a5 00       		.sleb128 0
 8432 02a6 1E       		.byte	0x1e
 8433 02a7 22       		.byte	0x22
 8434 02a8 9F       		.byte	0x9f
 8435 02a9 7C010000 		.4byte	.LVL24
 8436 02ad 80010000 		.4byte	.LVL25
 8437 02b1 1E00     		.2byte	0x1e
 8438 02b3 71       		.byte	0x71
 8439 02b4 00       		.sleb128 0
 8440 02b5 71       		.byte	0x71
 8441 02b6 00       		.sleb128 0
 8442 02b7 1E       		.byte	0x1e
 8443 02b8 7C       		.byte	0x7c
 8444 02b9 00       		.sleb128 0
 8445 02ba 74       		.byte	0x74
 8446 02bb 12       		.sleb128 18
 8447 02bc 94       		.byte	0x94
 8448 02bd 02       		.byte	0x2
 8449 02be 40       		.byte	0x40
 8450 02bf 24       		.byte	0x24
 8451 02c0 40       		.byte	0x40
 8452 02c1 26       		.byte	0x26
 8453 02c2 1C       		.byte	0x1c
 8454 02c3 7C       		.byte	0x7c
 8455 02c4 00       		.sleb128 0
 8456 02c5 74       		.byte	0x74
 8457 02c6 12       		.sleb128 18
 8458 02c7 94       		.byte	0x94
 8459 02c8 02       		.byte	0x2
 8460 02c9 40       		.byte	0x40
 8461 02ca 24       		.byte	0x24
ARM GAS  C:\Users\Elis\AppData\Local\Temp\ccIy8Y2d.s 			page 150


 8462 02cb 40       		.byte	0x40
 8463 02cc 26       		.byte	0x26
 8464 02cd 1C       		.byte	0x1c
 8465 02ce 1E       		.byte	0x1e
 8466 02cf 22       		.byte	0x22
 8467 02d0 9F       		.byte	0x9f
 8468 02d1 80010000 		.4byte	.LVL25
 8469 02d5 8E010000 		.4byte	.LVL26
 8470 02d9 0100     		.2byte	0x1
 8471 02db 50       		.byte	0x50
 8472 02dc 00000000 		.4byte	0
 8473 02e0 00000000 		.4byte	0
 8474              	.LLST12:
 8475 02e4 9A010000 		.4byte	.LVL28
 8476 02e8 FA010000 		.4byte	.LVL30
 8477 02ec 0100     		.2byte	0x1
 8478 02ee 53       		.byte	0x53
 8479 02ef 00000000 		.4byte	0
 8480 02f3 00000000 		.4byte	0
 8481              	.LLST13:
 8482 02f7 96010000 		.4byte	.LVL27
 8483 02fb BA010000 		.4byte	.LVL29
 8484 02ff 0100     		.2byte	0x1
 8485 0301 51       		.byte	0x51
 8486 0302 00000000 		.4byte	0
 8487 0306 00000000 		.4byte	0
 8488              	.LLST14:
 8489 030a 34020000 		.4byte	.LVL31
 8490 030e 37020000 		.4byte	.LVL32-1
 8491 0312 0100     		.2byte	0x1
 8492 0314 50       		.byte	0x50
 8493 0315 37020000 		.4byte	.LVL32-1
 8494 0319 40020000 		.4byte	.LVL33
 8495 031d 0100     		.2byte	0x1
 8496 031f 55       		.byte	0x55
 8497 0320 40020000 		.4byte	.LVL33
 8498 0324 4C020000 		.4byte	.LVL35
 8499 0328 0100     		.2byte	0x1
 8500 032a 50       		.byte	0x50
 8501 032b 72020000 		.4byte	.LVL36
 8502 032f 75020000 		.4byte	.LVL37-1
 8503 0333 0100     		.2byte	0x1
 8504 0335 50       		.byte	0x50
 8505 0336 75020000 		.4byte	.LVL37-1
 8506 033a 7E020000 		.4byte	.LVL38
 8507 033e 0100     		.2byte	0x1
 8508 0340 55       		.byte	0x55
 8509 0341 7E020000 		.4byte	.LVL38
 8510 0345 8C020000 		.4byte	.LVL40
 8511 0349 0100     		.2byte	0x1
 8512 034b 50       		.byte	0x50
 8513 034c 8C020000 		.4byte	.LVL40
 8514 0350 A0020000 		.4byte	.LVL42
 8515 0354 0100     		.2byte	0x1
 8516 0356 55       		.byte	0x55
 8517 0357 00000000 		.4byte	0
 8518 035b 00000000 		.4byte	0
ARM GAS  C:\Users\Elis\AppData\Local\Temp\ccIy8Y2d.s 			page 151


 8519              	.LLST15:
 8520 035f EC020000 		.4byte	.LVL48
 8521 0363 54030000 		.4byte	.LVL62
 8522 0367 0300     		.2byte	0x3
 8523 0369 74       		.byte	0x74
 8524 036a 20       		.sleb128 32
 8525 036b 9F       		.byte	0x9f
 8526 036c 00000000 		.4byte	0
 8527 0370 00000000 		.4byte	0
 8528              	.LLST16:
 8529 0374 EC020000 		.4byte	.LVL48
 8530 0378 54030000 		.4byte	.LVL62
 8531 037c 0100     		.2byte	0x1
 8532 037e 5D       		.byte	0x5d
 8533 037f 00000000 		.4byte	0
 8534 0383 00000000 		.4byte	0
 8535              	.LLST17:
 8536 0387 00000000 		.4byte	.LFB121
 8537 038b 02000000 		.4byte	.LCFI3
 8538 038f 0200     		.2byte	0x2
 8539 0391 7D       		.byte	0x7d
 8540 0392 00       		.sleb128 0
 8541 0393 02000000 		.4byte	.LCFI3
 8542 0397 3A000000 		.4byte	.LFE121
 8543 039b 0200     		.2byte	0x2
 8544 039d 7D       		.byte	0x7d
 8545 039e 08       		.sleb128 8
 8546 039f 00000000 		.4byte	0
 8547 03a3 00000000 		.4byte	0
 8548              	.LLST18:
 8549 03a7 00000000 		.4byte	.LVL70
 8550 03ab 04000000 		.4byte	.LVL71
 8551 03af 0100     		.2byte	0x1
 8552 03b1 50       		.byte	0x50
 8553 03b2 04000000 		.4byte	.LVL71
 8554 03b6 3A000000 		.4byte	.LFE121
 8555 03ba 0400     		.2byte	0x4
 8556 03bc F3       		.byte	0xf3
 8557 03bd 01       		.uleb128 0x1
 8558 03be 50       		.byte	0x50
 8559 03bf 9F       		.byte	0x9f
 8560 03c0 00000000 		.4byte	0
 8561 03c4 00000000 		.4byte	0
 8562              	.LLST19:
 8563 03c8 0A000000 		.4byte	.LVL72
 8564 03cc 1A000000 		.4byte	.LVL73
 8565 03d0 0100     		.2byte	0x1
 8566 03d2 50       		.byte	0x50
 8567 03d3 1A000000 		.4byte	.LVL73
 8568 03d7 1C000000 		.4byte	.LVL74
 8569 03db 0100     		.2byte	0x1
 8570 03dd 54       		.byte	0x54
 8571 03de 1C000000 		.4byte	.LVL74
 8572 03e2 29000000 		.4byte	.LVL75-1
 8573 03e6 0100     		.2byte	0x1
 8574 03e8 50       		.byte	0x50
 8575 03e9 29000000 		.4byte	.LVL75-1
ARM GAS  C:\Users\Elis\AppData\Local\Temp\ccIy8Y2d.s 			page 152


 8576 03ed 32000000 		.4byte	.LVL76
 8577 03f1 0100     		.2byte	0x1
 8578 03f3 54       		.byte	0x54
 8579 03f4 32000000 		.4byte	.LVL76
 8580 03f8 3A000000 		.4byte	.LFE121
 8581 03fc 0100     		.2byte	0x1
 8582 03fe 50       		.byte	0x50
 8583 03ff 00000000 		.4byte	0
 8584 0403 00000000 		.4byte	0
 8585              	.LLST20:
 8586 0407 00000000 		.4byte	.LFB125
 8587 040b 04000000 		.4byte	.LCFI4
 8588 040f 0200     		.2byte	0x2
 8589 0411 7D       		.byte	0x7d
 8590 0412 00       		.sleb128 0
 8591 0413 04000000 		.4byte	.LCFI4
 8592 0417 08000000 		.4byte	.LCFI5
 8593 041b 0200     		.2byte	0x2
 8594 041d 7D       		.byte	0x7d
 8595 041e 24       		.sleb128 36
 8596 041f 08000000 		.4byte	.LCFI5
 8597 0423 88080000 		.4byte	.LFE125
 8598 0427 0300     		.2byte	0x3
 8599 0429 7D       		.byte	0x7d
 8600 042a B801     		.sleb128 184
 8601 042c 00000000 		.4byte	0
 8602 0430 00000000 		.4byte	0
 8603              	.LLST21:
 8604 0434 00000000 		.4byte	.LVL77
 8605 0438 0A000000 		.4byte	.LVL78
 8606 043c 0100     		.2byte	0x1
 8607 043e 50       		.byte	0x50
 8608 043f 0A000000 		.4byte	.LVL78
 8609 0443 3E060000 		.4byte	.LVL208
 8610 0447 0100     		.2byte	0x1
 8611 0449 54       		.byte	0x54
 8612 044a 3E060000 		.4byte	.LVL208
 8613 044e 52060000 		.4byte	.LVL211
 8614 0452 0400     		.2byte	0x4
 8615 0454 F3       		.byte	0xf3
 8616 0455 01       		.uleb128 0x1
 8617 0456 50       		.byte	0x50
 8618 0457 9F       		.byte	0x9f
 8619 0458 52060000 		.4byte	.LVL211
 8620 045c 88080000 		.4byte	.LFE125
 8621 0460 0100     		.2byte	0x1
 8622 0462 54       		.byte	0x54
 8623 0463 00000000 		.4byte	0
 8624 0467 00000000 		.4byte	0
 8625              	.LLST22:
 8626 046b 2C000000 		.4byte	.LVL84
 8627 046f 1E080000 		.4byte	.LVL248
 8628 0473 0300     		.2byte	0x3
 8629 0475 91       		.byte	0x91
 8630 0476 F87E     		.sleb128 -136
 8631 0478 36080000 		.4byte	.LVL256
 8632 047c 88080000 		.4byte	.LFE125
ARM GAS  C:\Users\Elis\AppData\Local\Temp\ccIy8Y2d.s 			page 153


 8633 0480 0300     		.2byte	0x3
 8634 0482 91       		.byte	0x91
 8635 0483 F87E     		.sleb128 -136
 8636 0485 00000000 		.4byte	0
 8637 0489 00000000 		.4byte	0
 8638              	.LLST23:
 8639 048d 34000000 		.4byte	.LVL86
 8640 0491 1E080000 		.4byte	.LVL248
 8641 0495 0300     		.2byte	0x3
 8642 0497 91       		.byte	0x91
 8643 0498 FC7E     		.sleb128 -132
 8644 049a 36080000 		.4byte	.LVL256
 8645 049e 88080000 		.4byte	.LFE125
 8646 04a2 0300     		.2byte	0x3
 8647 04a4 91       		.byte	0x91
 8648 04a5 FC7E     		.sleb128 -132
 8649 04a7 00000000 		.4byte	0
 8650 04ab 00000000 		.4byte	0
 8651              	.LLST24:
 8652 04af 24000000 		.4byte	.LVL82
 8653 04b3 FE050000 		.4byte	.LVL201
 8654 04b7 0200     		.2byte	0x2
 8655 04b9 30       		.byte	0x30
 8656 04ba 9F       		.byte	0x9f
 8657 04bb FE050000 		.4byte	.LVL201
 8658 04bf 08060000 		.4byte	.LVL202
 8659 04c3 0100     		.2byte	0x1
 8660 04c5 55       		.byte	0x55
 8661 04c6 08060000 		.4byte	.LVL202
 8662 04ca 32060000 		.4byte	.LVL206
 8663 04ce 0200     		.2byte	0x2
 8664 04d0 30       		.byte	0x30
 8665 04d1 9F       		.byte	0x9f
 8666 04d2 52060000 		.4byte	.LVL211
 8667 04d6 2C070000 		.4byte	.LVL221
 8668 04da 0200     		.2byte	0x2
 8669 04dc 30       		.byte	0x30
 8670 04dd 9F       		.byte	0x9f
 8671 04de 2C070000 		.4byte	.LVL221
 8672 04e2 76070000 		.4byte	.LVL226
 8673 04e6 0100     		.2byte	0x1
 8674 04e8 55       		.byte	0x55
 8675 04e9 76070000 		.4byte	.LVL226
 8676 04ed 1E080000 		.4byte	.LVL248
 8677 04f1 0200     		.2byte	0x2
 8678 04f3 30       		.byte	0x30
 8679 04f4 9F       		.byte	0x9f
 8680 04f5 36080000 		.4byte	.LVL256
 8681 04f9 88080000 		.4byte	.LFE125
 8682 04fd 0200     		.2byte	0x2
 8683 04ff 30       		.byte	0x30
 8684 0500 9F       		.byte	0x9f
 8685 0501 00000000 		.4byte	0
 8686 0505 00000000 		.4byte	0
 8687              	.LLST25:
 8688 0509 0E000000 		.4byte	.LVL79
 8689 050d 16000000 		.4byte	.LVL80
ARM GAS  C:\Users\Elis\AppData\Local\Temp\ccIy8Y2d.s 			page 154


 8690 0511 0100     		.2byte	0x1
 8691 0513 50       		.byte	0x50
 8692 0514 16000000 		.4byte	.LVL80
 8693 0518 1E080000 		.4byte	.LVL248
 8694 051c 0300     		.2byte	0x3
 8695 051e 91       		.byte	0x91
 8696 051f 907F     		.sleb128 -112
 8697 0521 1E080000 		.4byte	.LVL248
 8698 0525 20080000 		.4byte	.LVL249
 8699 0529 0100     		.2byte	0x1
 8700 052b 50       		.byte	0x50
 8701 052c 20080000 		.4byte	.LVL249
 8702 0530 26080000 		.4byte	.LVL251
 8703 0534 0300     		.2byte	0x3
 8704 0536 91       		.byte	0x91
 8705 0537 907F     		.sleb128 -112
 8706 0539 26080000 		.4byte	.LVL251
 8707 053d 2A080000 		.4byte	.LVL252
 8708 0541 0100     		.2byte	0x1
 8709 0543 50       		.byte	0x50
 8710 0544 2A080000 		.4byte	.LVL252
 8711 0548 88080000 		.4byte	.LFE125
 8712 054c 0300     		.2byte	0x3
 8713 054e 91       		.byte	0x91
 8714 054f 907F     		.sleb128 -112
 8715 0551 00000000 		.4byte	0
 8716 0555 00000000 		.4byte	0
 8717              	.LLST26:
 8718 0559 1C000000 		.4byte	.LVL81
 8719 055d 24000000 		.4byte	.LVL82
 8720 0561 0100     		.2byte	0x1
 8721 0563 50       		.byte	0x50
 8722 0564 24000000 		.4byte	.LVL82
 8723 0568 1E080000 		.4byte	.LVL248
 8724 056c 0300     		.2byte	0x3
 8725 056e 91       		.byte	0x91
 8726 056f 947F     		.sleb128 -108
 8727 0571 2A080000 		.4byte	.LVL252
 8728 0575 2C080000 		.4byte	.LVL253
 8729 0579 0100     		.2byte	0x1
 8730 057b 50       		.byte	0x50
 8731 057c 2C080000 		.4byte	.LVL253
 8732 0580 32080000 		.4byte	.LVL255
 8733 0584 0300     		.2byte	0x3
 8734 0586 91       		.byte	0x91
 8735 0587 947F     		.sleb128 -108
 8736 0589 32080000 		.4byte	.LVL255
 8737 058d 36080000 		.4byte	.LVL256
 8738 0591 0100     		.2byte	0x1
 8739 0593 50       		.byte	0x50
 8740 0594 36080000 		.4byte	.LVL256
 8741 0598 88080000 		.4byte	.LFE125
 8742 059c 0300     		.2byte	0x3
 8743 059e 91       		.byte	0x91
 8744 059f 947F     		.sleb128 -108
 8745 05a1 00000000 		.4byte	0
 8746 05a5 00000000 		.4byte	0
ARM GAS  C:\Users\Elis\AppData\Local\Temp\ccIy8Y2d.s 			page 155


 8747              	.LLST27:
 8748 05a9 E4000000 		.4byte	.LVL90
 8749 05ad E6000000 		.4byte	.LVL91
 8750 05b1 0200     		.2byte	0x2
 8751 05b3 30       		.byte	0x30
 8752 05b4 9F       		.byte	0x9f
 8753 05b5 BE020000 		.4byte	.LVL113
 8754 05b9 52060000 		.4byte	.LVL211
 8755 05bd 0300     		.2byte	0x3
 8756 05bf 91       		.byte	0x91
 8757 05c0 EC7E     		.sleb128 -148
 8758 05c2 D2060000 		.4byte	.LVL214
 8759 05c6 FC060000 		.4byte	.LVL217
 8760 05ca 0300     		.2byte	0x3
 8761 05cc 91       		.byte	0x91
 8762 05cd EC7E     		.sleb128 -148
 8763 05cf FC060000 		.4byte	.LVL217
 8764 05d3 01070000 		.4byte	.LVL218-1
 8765 05d7 0100     		.2byte	0x1
 8766 05d9 51       		.byte	0x51
 8767 05da 01070000 		.4byte	.LVL218-1
 8768 05de 1E080000 		.4byte	.LVL248
 8769 05e2 0300     		.2byte	0x3
 8770 05e4 91       		.byte	0x91
 8771 05e5 EC7E     		.sleb128 -148
 8772 05e7 36080000 		.4byte	.LVL256
 8773 05eb 88080000 		.4byte	.LFE125
 8774 05ef 0300     		.2byte	0x3
 8775 05f1 91       		.byte	0x91
 8776 05f2 EC7E     		.sleb128 -148
 8777 05f4 00000000 		.4byte	0
 8778 05f8 00000000 		.4byte	0
 8779              	.LLST28:
 8780 05fc E4000000 		.4byte	.LVL90
 8781 0600 E6000000 		.4byte	.LVL91
 8782 0604 0100     		.2byte	0x1
 8783 0606 56       		.byte	0x56
 8784 0607 E6000000 		.4byte	.LVL91
 8785 060b 60060000 		.4byte	.LVL213
 8786 060f 0300     		.2byte	0x3
 8787 0611 91       		.byte	0x91
 8788 0612 807F     		.sleb128 -128
 8789 0614 D2060000 		.4byte	.LVL214
 8790 0618 1E080000 		.4byte	.LVL248
 8791 061c 0300     		.2byte	0x3
 8792 061e 91       		.byte	0x91
 8793 061f 807F     		.sleb128 -128
 8794 0621 36080000 		.4byte	.LVL256
 8795 0625 88080000 		.4byte	.LFE125
 8796 0629 0300     		.2byte	0x3
 8797 062b 91       		.byte	0x91
 8798 062c 807F     		.sleb128 -128
 8799 062e 00000000 		.4byte	0
 8800 0632 00000000 		.4byte	0
 8801              	.LLST29:
 8802 0636 60020000 		.4byte	.LVL107
 8803 063a 02030000 		.4byte	.LVL119
ARM GAS  C:\Users\Elis\AppData\Local\Temp\ccIy8Y2d.s 			page 156


 8804 063e 0100     		.2byte	0x1
 8805 0640 58       		.byte	0x58
 8806 0641 FC060000 		.4byte	.LVL217
 8807 0645 2C070000 		.4byte	.LVL221
 8808 0649 0100     		.2byte	0x1
 8809 064b 58       		.byte	0x58
 8810 064c 9C070000 		.4byte	.LVL231
 8811 0650 C4070000 		.4byte	.LVL238
 8812 0654 0100     		.2byte	0x1
 8813 0656 58       		.byte	0x58
 8814 0657 36080000 		.4byte	.LVL256
 8815 065b 5E080000 		.4byte	.LVL262
 8816 065f 0100     		.2byte	0x1
 8817 0661 58       		.byte	0x58
 8818 0662 00000000 		.4byte	0
 8819 0666 00000000 		.4byte	0
 8820              	.LLST30:
 8821 066a 62020000 		.4byte	.LVL108
 8822 066e AC020000 		.4byte	.LVL111
 8823 0672 0100     		.2byte	0x1
 8824 0674 57       		.byte	0x57
 8825 0675 00000000 		.4byte	0
 8826 0679 00000000 		.4byte	0
 8827              	.LLST31:
 8828 067d 74020000 		.4byte	.LVL109
 8829 0681 CC020000 		.4byte	.LVL115
 8830 0685 0100     		.2byte	0x1
 8831 0687 5B       		.byte	0x5b
 8832 0688 00000000 		.4byte	0
 8833 068c 00000000 		.4byte	0
 8834              	.LLST32:
 8835 0690 FA000000 		.4byte	.LVL92
 8836 0694 12010000 		.4byte	.LVL93
 8837 0698 0100     		.2byte	0x1
 8838 069a 52       		.byte	0x52
 8839 069b 12010000 		.4byte	.LVL93
 8840 069f 14010000 		.4byte	.LVL94
 8841 06a3 0B00     		.2byte	0xb
 8842 06a5 71       		.byte	0x71
 8843 06a6 00       		.sleb128 0
 8844 06a7 32       		.byte	0x32
 8845 06a8 24       		.byte	0x24
 8846 06a9 91       		.byte	0x91
 8847 06aa 00       		.sleb128 0
 8848 06ab 22       		.byte	0x22
 8849 06ac 08       		.byte	0x8
 8850 06ad 48       		.byte	0x48
 8851 06ae 1C       		.byte	0x1c
 8852 06af 9F       		.byte	0x9f
 8853 06b0 14010000 		.4byte	.LVL94
 8854 06b4 60060000 		.4byte	.LVL213
 8855 06b8 0D00     		.2byte	0xd
 8856 06ba 91       		.byte	0x91
 8857 06bb EC7E     		.sleb128 -148
 8858 06bd 06       		.byte	0x6
 8859 06be 32       		.byte	0x32
 8860 06bf 24       		.byte	0x24
ARM GAS  C:\Users\Elis\AppData\Local\Temp\ccIy8Y2d.s 			page 157


 8861 06c0 91       		.byte	0x91
 8862 06c1 00       		.sleb128 0
 8863 06c2 22       		.byte	0x22
 8864 06c3 08       		.byte	0x8
 8865 06c4 48       		.byte	0x48
 8866 06c5 1C       		.byte	0x1c
 8867 06c6 9F       		.byte	0x9f
 8868 06c7 D2060000 		.4byte	.LVL214
 8869 06cb 1E080000 		.4byte	.LVL248
 8870 06cf 0D00     		.2byte	0xd
 8871 06d1 91       		.byte	0x91
 8872 06d2 EC7E     		.sleb128 -148
 8873 06d4 06       		.byte	0x6
 8874 06d5 32       		.byte	0x32
 8875 06d6 24       		.byte	0x24
 8876 06d7 91       		.byte	0x91
 8877 06d8 00       		.sleb128 0
 8878 06d9 22       		.byte	0x22
 8879 06da 08       		.byte	0x8
 8880 06db 48       		.byte	0x48
 8881 06dc 1C       		.byte	0x1c
 8882 06dd 9F       		.byte	0x9f
 8883 06de 36080000 		.4byte	.LVL256
 8884 06e2 88080000 		.4byte	.LFE125
 8885 06e6 0D00     		.2byte	0xd
 8886 06e8 91       		.byte	0x91
 8887 06e9 EC7E     		.sleb128 -148
 8888 06eb 06       		.byte	0x6
 8889 06ec 32       		.byte	0x32
 8890 06ed 24       		.byte	0x24
 8891 06ee 91       		.byte	0x91
 8892 06ef 00       		.sleb128 0
 8893 06f0 22       		.byte	0x22
 8894 06f1 08       		.byte	0x8
 8895 06f2 48       		.byte	0x48
 8896 06f3 1C       		.byte	0x1c
 8897 06f4 9F       		.byte	0x9f
 8898 06f5 00000000 		.4byte	0
 8899 06f9 00000000 		.4byte	0
 8900              	.LLST33:
 8901 06fd FA000000 		.4byte	.LVL92
 8902 0701 3E060000 		.4byte	.LVL208
 8903 0705 0100     		.2byte	0x1
 8904 0707 54       		.byte	0x54
 8905 0708 3E060000 		.4byte	.LVL208
 8906 070c 52060000 		.4byte	.LVL211
 8907 0710 0400     		.2byte	0x4
 8908 0712 F3       		.byte	0xf3
 8909 0713 01       		.uleb128 0x1
 8910 0714 50       		.byte	0x50
 8911 0715 9F       		.byte	0x9f
 8912 0716 52060000 		.4byte	.LVL211
 8913 071a 60060000 		.4byte	.LVL213
 8914 071e 0100     		.2byte	0x1
 8915 0720 54       		.byte	0x54
 8916 0721 D2060000 		.4byte	.LVL214
 8917 0725 1E080000 		.4byte	.LVL248
ARM GAS  C:\Users\Elis\AppData\Local\Temp\ccIy8Y2d.s 			page 158


 8918 0729 0100     		.2byte	0x1
 8919 072b 54       		.byte	0x54
 8920 072c 36080000 		.4byte	.LVL256
 8921 0730 88080000 		.4byte	.LFE125
 8922 0734 0100     		.2byte	0x1
 8923 0736 54       		.byte	0x54
 8924 0737 00000000 		.4byte	0
 8925 073b 00000000 		.4byte	0
 8926              	.LLST34:
 8927 073f B6020000 		.4byte	.LVL112
 8928 0743 3E060000 		.4byte	.LVL208
 8929 0747 0100     		.2byte	0x1
 8930 0749 54       		.byte	0x54
 8931 074a 3E060000 		.4byte	.LVL208
 8932 074e 52060000 		.4byte	.LVL211
 8933 0752 0400     		.2byte	0x4
 8934 0754 F3       		.byte	0xf3
 8935 0755 01       		.uleb128 0x1
 8936 0756 50       		.byte	0x50
 8937 0757 9F       		.byte	0x9f
 8938 0758 D2060000 		.4byte	.LVL214
 8939 075c 1E080000 		.4byte	.LVL248
 8940 0760 0100     		.2byte	0x1
 8941 0762 54       		.byte	0x54
 8942 0763 36080000 		.4byte	.LVL256
 8943 0767 88080000 		.4byte	.LFE125
 8944 076b 0100     		.2byte	0x1
 8945 076d 54       		.byte	0x54
 8946 076e 00000000 		.4byte	0
 8947 0772 00000000 		.4byte	0
 8948              	.LLST35:
 8949 0776 C8020000 		.4byte	.LVL114
 8950 077a DC020000 		.4byte	.LVL116
 8951 077e 0100     		.2byte	0x1
 8952 0780 55       		.byte	0x55
 8953 0781 DC020000 		.4byte	.LVL116
 8954 0785 52060000 		.4byte	.LVL211
 8955 0789 0300     		.2byte	0x3
 8956 078b 91       		.byte	0x91
 8957 078c 48       		.sleb128 -56
 8958 078d 9F       		.byte	0x9f
 8959 078e D2060000 		.4byte	.LVL214
 8960 0792 FC060000 		.4byte	.LVL217
 8961 0796 0300     		.2byte	0x3
 8962 0798 91       		.byte	0x91
 8963 0799 48       		.sleb128 -56
 8964 079a 9F       		.byte	0x9f
 8965 079b FC060000 		.4byte	.LVL217
 8966 079f 1C070000 		.4byte	.LVL219
 8967 07a3 0100     		.2byte	0x1
 8968 07a5 55       		.byte	0x55
 8969 07a6 1C070000 		.4byte	.LVL219
 8970 07aa 9C070000 		.4byte	.LVL231
 8971 07ae 0300     		.2byte	0x3
 8972 07b0 91       		.byte	0x91
 8973 07b1 48       		.sleb128 -56
 8974 07b2 9F       		.byte	0x9f
ARM GAS  C:\Users\Elis\AppData\Local\Temp\ccIy8Y2d.s 			page 159


 8975 07b3 9C070000 		.4byte	.LVL231
 8976 07b7 B8070000 		.4byte	.LVL235
 8977 07bb 0100     		.2byte	0x1
 8978 07bd 55       		.byte	0x55
 8979 07be B8070000 		.4byte	.LVL235
 8980 07c2 1E080000 		.4byte	.LVL248
 8981 07c6 0300     		.2byte	0x3
 8982 07c8 91       		.byte	0x91
 8983 07c9 48       		.sleb128 -56
 8984 07ca 9F       		.byte	0x9f
 8985 07cb 36080000 		.4byte	.LVL256
 8986 07cf 48080000 		.4byte	.LVL258
 8987 07d3 0100     		.2byte	0x1
 8988 07d5 55       		.byte	0x55
 8989 07d6 48080000 		.4byte	.LVL258
 8990 07da 88080000 		.4byte	.LFE125
 8991 07de 0300     		.2byte	0x3
 8992 07e0 91       		.byte	0x91
 8993 07e1 48       		.sleb128 -56
 8994 07e2 9F       		.byte	0x9f
 8995 07e3 00000000 		.4byte	0
 8996 07e7 00000000 		.4byte	0
 8997              	.LLST36:
 8998 07eb C8020000 		.4byte	.LVL114
 8999 07ef 52060000 		.4byte	.LVL211
 9000 07f3 0400     		.2byte	0x4
 9001 07f5 91       		.byte	0x91
 9002 07f6 B87F     		.sleb128 -72
 9003 07f8 9F       		.byte	0x9f
 9004 07f9 D2060000 		.4byte	.LVL214
 9005 07fd 1E080000 		.4byte	.LVL248
 9006 0801 0400     		.2byte	0x4
 9007 0803 91       		.byte	0x91
 9008 0804 B87F     		.sleb128 -72
 9009 0806 9F       		.byte	0x9f
 9010 0807 36080000 		.4byte	.LVL256
 9011 080b 88080000 		.4byte	.LFE125
 9012 080f 0400     		.2byte	0x4
 9013 0811 91       		.byte	0x91
 9014 0812 B87F     		.sleb128 -72
 9015 0814 9F       		.byte	0x9f
 9016 0815 00000000 		.4byte	0
 9017 0819 00000000 		.4byte	0
 9018              	.LLST37:
 9019 081d C8020000 		.4byte	.LVL114
 9020 0821 3E060000 		.4byte	.LVL208
 9021 0825 0100     		.2byte	0x1
 9022 0827 54       		.byte	0x54
 9023 0828 3E060000 		.4byte	.LVL208
 9024 082c 52060000 		.4byte	.LVL211
 9025 0830 0400     		.2byte	0x4
 9026 0832 F3       		.byte	0xf3
 9027 0833 01       		.uleb128 0x1
 9028 0834 50       		.byte	0x50
 9029 0835 9F       		.byte	0x9f
 9030 0836 D2060000 		.4byte	.LVL214
 9031 083a 1E080000 		.4byte	.LVL248
ARM GAS  C:\Users\Elis\AppData\Local\Temp\ccIy8Y2d.s 			page 160


 9032 083e 0100     		.2byte	0x1
 9033 0840 54       		.byte	0x54
 9034 0841 36080000 		.4byte	.LVL256
 9035 0845 88080000 		.4byte	.LFE125
 9036 0849 0100     		.2byte	0x1
 9037 084b 54       		.byte	0x54
 9038 084c 00000000 		.4byte	0
 9039 0850 00000000 		.4byte	0
 9040              	.LLST38:
 9041 0854 5A030000 		.4byte	.LVL128
 9042 0858 5C030000 		.4byte	.LVL129
 9043 085c 0100     		.2byte	0x1
 9044 085e 50       		.byte	0x50
 9045 085f 5C030000 		.4byte	.LVL129
 9046 0863 B2050000 		.4byte	.LVL196
 9047 0867 0100     		.2byte	0x1
 9048 0869 5A       		.byte	0x5a
 9049 086a D2060000 		.4byte	.LVL214
 9050 086e FC060000 		.4byte	.LVL217
 9051 0872 0100     		.2byte	0x1
 9052 0874 5A       		.byte	0x5a
 9053 0875 76070000 		.4byte	.LVL226
 9054 0879 9C070000 		.4byte	.LVL231
 9055 087d 0100     		.2byte	0x1
 9056 087f 5A       		.byte	0x5a
 9057 0880 E6070000 		.4byte	.LVL240
 9058 0884 1E080000 		.4byte	.LVL248
 9059 0888 0100     		.2byte	0x1
 9060 088a 5A       		.byte	0x5a
 9061 088b 00000000 		.4byte	0
 9062 088f 00000000 		.4byte	0
 9063              	.LLST39:
 9064 0893 C8020000 		.4byte	.LVL114
 9065 0897 E2020000 		.4byte	.LVL117
 9066 089b 0300     		.2byte	0x3
 9067 089d 91       		.byte	0x91
 9068 089e 987F     		.sleb128 -104
 9069 08a0 E2020000 		.4byte	.LVL117
 9070 08a4 4A030000 		.4byte	.LVL126
 9071 08a8 0100     		.2byte	0x1
 9072 08aa 55       		.byte	0x55
 9073 08ab 80040000 		.4byte	.LVL165
 9074 08af 52060000 		.4byte	.LVL211
 9075 08b3 0300     		.2byte	0x3
 9076 08b5 91       		.byte	0x91
 9077 08b6 887F     		.sleb128 -120
 9078 08b8 D2060000 		.4byte	.LVL214
 9079 08bc FC060000 		.4byte	.LVL217
 9080 08c0 0300     		.2byte	0x3
 9081 08c2 91       		.byte	0x91
 9082 08c3 887F     		.sleb128 -120
 9083 08c5 FC060000 		.4byte	.LVL217
 9084 08c9 22070000 		.4byte	.LVL220
 9085 08cd 0300     		.2byte	0x3
 9086 08cf 91       		.byte	0x91
 9087 08d0 987F     		.sleb128 -104
 9088 08d2 22070000 		.4byte	.LVL220
ARM GAS  C:\Users\Elis\AppData\Local\Temp\ccIy8Y2d.s 			page 161


 9089 08d6 88070000 		.4byte	.LVL228
 9090 08da 0300     		.2byte	0x3
 9091 08dc 91       		.byte	0x91
 9092 08dd 887F     		.sleb128 -120
 9093 08df 88070000 		.4byte	.LVL228
 9094 08e3 90070000 		.4byte	.LVL229
 9095 08e7 0100     		.2byte	0x1
 9096 08e9 57       		.byte	0x57
 9097 08ea 90070000 		.4byte	.LVL229
 9098 08ee 98070000 		.4byte	.LVL230
 9099 08f2 0100     		.2byte	0x1
 9100 08f4 55       		.byte	0x55
 9101 08f5 98070000 		.4byte	.LVL230
 9102 08f9 9C070000 		.4byte	.LVL231
 9103 08fd 0300     		.2byte	0x3
 9104 08ff 91       		.byte	0x91
 9105 0900 887F     		.sleb128 -120
 9106 0902 9C070000 		.4byte	.LVL231
 9107 0906 AE070000 		.4byte	.LVL233
 9108 090a 0300     		.2byte	0x3
 9109 090c 91       		.byte	0x91
 9110 090d 987F     		.sleb128 -104
 9111 090f AE070000 		.4byte	.LVL233
 9112 0913 B2070000 		.4byte	.LVL234
 9113 0917 0100     		.2byte	0x1
 9114 0919 53       		.byte	0x53
 9115 091a B2070000 		.4byte	.LVL234
 9116 091e B8070000 		.4byte	.LVL235
 9117 0922 0100     		.2byte	0x1
 9118 0924 50       		.byte	0x50
 9119 0925 B8070000 		.4byte	.LVL235
 9120 0929 C4070000 		.4byte	.LVL238
 9121 092d 0100     		.2byte	0x1
 9122 092f 51       		.byte	0x51
 9123 0930 C4070000 		.4byte	.LVL238
 9124 0934 E6070000 		.4byte	.LVL240
 9125 0938 0300     		.2byte	0x3
 9126 093a 91       		.byte	0x91
 9127 093b 887F     		.sleb128 -120
 9128 093d E6070000 		.4byte	.LVL240
 9129 0941 F8070000 		.4byte	.LVL241
 9130 0945 0300     		.2byte	0x3
 9131 0947 91       		.byte	0x91
 9132 0948 987F     		.sleb128 -104
 9133 094a F8070000 		.4byte	.LVL241
 9134 094e 0A080000 		.4byte	.LVL243
 9135 0952 0300     		.2byte	0x3
 9136 0954 91       		.byte	0x91
 9137 0955 887F     		.sleb128 -120
 9138 0957 0A080000 		.4byte	.LVL243
 9139 095b 12080000 		.4byte	.LVL244
 9140 095f 0100     		.2byte	0x1
 9141 0961 50       		.byte	0x50
 9142 0962 12080000 		.4byte	.LVL244
 9143 0966 16080000 		.4byte	.LVL245
 9144 096a 0100     		.2byte	0x1
 9145 096c 53       		.byte	0x53
ARM GAS  C:\Users\Elis\AppData\Local\Temp\ccIy8Y2d.s 			page 162


 9146 096d 18080000 		.4byte	.LVL246
 9147 0971 1E080000 		.4byte	.LVL248
 9148 0975 0300     		.2byte	0x3
 9149 0977 91       		.byte	0x91
 9150 0978 887F     		.sleb128 -120
 9151 097a 36080000 		.4byte	.LVL256
 9152 097e 4A080000 		.4byte	.LVL259
 9153 0982 0300     		.2byte	0x3
 9154 0984 91       		.byte	0x91
 9155 0985 987F     		.sleb128 -104
 9156 0987 4A080000 		.4byte	.LVL259
 9157 098b 50080000 		.4byte	.LVL260
 9158 098f 0100     		.2byte	0x1
 9159 0991 55       		.byte	0x55
 9160 0992 50080000 		.4byte	.LVL260
 9161 0996 58080000 		.4byte	.LVL261
 9162 099a 0100     		.2byte	0x1
 9163 099c 51       		.byte	0x51
 9164 099d 58080000 		.4byte	.LVL261
 9165 09a1 5E080000 		.4byte	.LVL262
 9166 09a5 0100     		.2byte	0x1
 9167 09a7 55       		.byte	0x55
 9168 09a8 5E080000 		.4byte	.LVL262
 9169 09ac 88080000 		.4byte	.LFE125
 9170 09b0 0300     		.2byte	0x3
 9171 09b2 91       		.byte	0x91
 9172 09b3 887F     		.sleb128 -120
 9173 09b5 00000000 		.4byte	0
 9174 09b9 00000000 		.4byte	0
 9175              	.LLST40:
 9176 09bd C8020000 		.4byte	.LVL114
 9177 09c1 E2020000 		.4byte	.LVL117
 9178 09c5 0300     		.2byte	0x3
 9179 09c7 91       		.byte	0x91
 9180 09c8 F47E     		.sleb128 -140
 9181 09ca E2020000 		.4byte	.LVL117
 9182 09ce 68030000 		.4byte	.LVL131
 9183 09d2 0100     		.2byte	0x1
 9184 09d4 59       		.byte	0x59
 9185 09d5 80040000 		.4byte	.LVL165
 9186 09d9 8E040000 		.4byte	.LVL166
 9187 09dd 0300     		.2byte	0x3
 9188 09df 91       		.byte	0x91
 9189 09e0 887F     		.sleb128 -120
 9190 09e2 8E040000 		.4byte	.LVL166
 9191 09e6 52060000 		.4byte	.LVL211
 9192 09ea 0300     		.2byte	0x3
 9193 09ec 91       		.byte	0x91
 9194 09ed F47E     		.sleb128 -140
 9195 09ef D2060000 		.4byte	.LVL214
 9196 09f3 D8060000 		.4byte	.LVL215
 9197 09f7 0300     		.2byte	0x3
 9198 09f9 91       		.byte	0x91
 9199 09fa F47E     		.sleb128 -140
 9200 09fc D8060000 		.4byte	.LVL215
 9201 0a00 FC060000 		.4byte	.LVL217
 9202 0a04 0300     		.2byte	0x3
ARM GAS  C:\Users\Elis\AppData\Local\Temp\ccIy8Y2d.s 			page 163


 9203 0a06 91       		.byte	0x91
 9204 0a07 887F     		.sleb128 -120
 9205 0a09 FC060000 		.4byte	.LVL217
 9206 0a0d 22070000 		.4byte	.LVL220
 9207 0a11 0300     		.2byte	0x3
 9208 0a13 91       		.byte	0x91
 9209 0a14 F47E     		.sleb128 -140
 9210 0a16 22070000 		.4byte	.LVL220
 9211 0a1a 2C070000 		.4byte	.LVL221
 9212 0a1e 0300     		.2byte	0x3
 9213 0a20 91       		.byte	0x91
 9214 0a21 887F     		.sleb128 -120
 9215 0a23 2C070000 		.4byte	.LVL221
 9216 0a27 76070000 		.4byte	.LVL226
 9217 0a2b 0300     		.2byte	0x3
 9218 0a2d 91       		.byte	0x91
 9219 0a2e F47E     		.sleb128 -140
 9220 0a30 76070000 		.4byte	.LVL226
 9221 0a34 88070000 		.4byte	.LVL228
 9222 0a38 0300     		.2byte	0x3
 9223 0a3a 91       		.byte	0x91
 9224 0a3b 887F     		.sleb128 -120
 9225 0a3d 88070000 		.4byte	.LVL228
 9226 0a41 90070000 		.4byte	.LVL229
 9227 0a45 0100     		.2byte	0x1
 9228 0a47 57       		.byte	0x57
 9229 0a48 90070000 		.4byte	.LVL229
 9230 0a4c 98070000 		.4byte	.LVL230
 9231 0a50 0100     		.2byte	0x1
 9232 0a52 55       		.byte	0x55
 9233 0a53 98070000 		.4byte	.LVL230
 9234 0a57 9C070000 		.4byte	.LVL231
 9235 0a5b 0300     		.2byte	0x3
 9236 0a5d 91       		.byte	0x91
 9237 0a5e 8C7F     		.sleb128 -116
 9238 0a60 9C070000 		.4byte	.LVL231
 9239 0a64 AE070000 		.4byte	.LVL233
 9240 0a68 0300     		.2byte	0x3
 9241 0a6a 91       		.byte	0x91
 9242 0a6b F47E     		.sleb128 -140
 9243 0a6d AE070000 		.4byte	.LVL233
 9244 0a71 B2070000 		.4byte	.LVL234
 9245 0a75 0100     		.2byte	0x1
 9246 0a77 53       		.byte	0x53
 9247 0a78 B2070000 		.4byte	.LVL234
 9248 0a7c B8070000 		.4byte	.LVL235
 9249 0a80 0100     		.2byte	0x1
 9250 0a82 50       		.byte	0x50
 9251 0a83 B8070000 		.4byte	.LVL235
 9252 0a87 C4070000 		.4byte	.LVL238
 9253 0a8b 0100     		.2byte	0x1
 9254 0a8d 51       		.byte	0x51
 9255 0a8e C4070000 		.4byte	.LVL238
 9256 0a92 F8070000 		.4byte	.LVL241
 9257 0a96 0300     		.2byte	0x3
 9258 0a98 91       		.byte	0x91
 9259 0a99 F47E     		.sleb128 -140
ARM GAS  C:\Users\Elis\AppData\Local\Temp\ccIy8Y2d.s 			page 164


 9260 0a9b F8070000 		.4byte	.LVL241
 9261 0a9f 0A080000 		.4byte	.LVL243
 9262 0aa3 0300     		.2byte	0x3
 9263 0aa5 91       		.byte	0x91
 9264 0aa6 887F     		.sleb128 -120
 9265 0aa8 0A080000 		.4byte	.LVL243
 9266 0aac 12080000 		.4byte	.LVL244
 9267 0ab0 0100     		.2byte	0x1
 9268 0ab2 50       		.byte	0x50
 9269 0ab3 12080000 		.4byte	.LVL244
 9270 0ab7 16080000 		.4byte	.LVL245
 9271 0abb 0100     		.2byte	0x1
 9272 0abd 53       		.byte	0x53
 9273 0abe 18080000 		.4byte	.LVL246
 9274 0ac2 1E080000 		.4byte	.LVL248
 9275 0ac6 0300     		.2byte	0x3
 9276 0ac8 91       		.byte	0x91
 9277 0ac9 887F     		.sleb128 -120
 9278 0acb 36080000 		.4byte	.LVL256
 9279 0acf 4A080000 		.4byte	.LVL259
 9280 0ad3 0300     		.2byte	0x3
 9281 0ad5 91       		.byte	0x91
 9282 0ad6 F47E     		.sleb128 -140
 9283 0ad8 4A080000 		.4byte	.LVL259
 9284 0adc 50080000 		.4byte	.LVL260
 9285 0ae0 0100     		.2byte	0x1
 9286 0ae2 55       		.byte	0x55
 9287 0ae3 50080000 		.4byte	.LVL260
 9288 0ae7 58080000 		.4byte	.LVL261
 9289 0aeb 0100     		.2byte	0x1
 9290 0aed 51       		.byte	0x51
 9291 0aee 58080000 		.4byte	.LVL261
 9292 0af2 5E080000 		.4byte	.LVL262
 9293 0af6 0100     		.2byte	0x1
 9294 0af8 56       		.byte	0x56
 9295 0af9 5E080000 		.4byte	.LVL262
 9296 0afd 88080000 		.4byte	.LFE125
 9297 0b01 0300     		.2byte	0x3
 9298 0b03 91       		.byte	0x91
 9299 0b04 F47E     		.sleb128 -140
 9300 0b06 00000000 		.4byte	0
 9301 0b0a 00000000 		.4byte	0
 9302              	.LLST41:
 9303 0b0e C8020000 		.4byte	.LVL114
 9304 0b12 E2020000 		.4byte	.LVL117
 9305 0b16 0300     		.2byte	0x3
 9306 0b18 91       		.byte	0x91
 9307 0b19 F47E     		.sleb128 -140
 9308 0b1b E2020000 		.4byte	.LVL117
 9309 0b1f 46030000 		.4byte	.LVL125
 9310 0b23 0100     		.2byte	0x1
 9311 0b25 56       		.byte	0x56
 9312 0b26 80040000 		.4byte	.LVL165
 9313 0b2a 52060000 		.4byte	.LVL211
 9314 0b2e 0300     		.2byte	0x3
 9315 0b30 91       		.byte	0x91
 9316 0b31 8C7F     		.sleb128 -116
ARM GAS  C:\Users\Elis\AppData\Local\Temp\ccIy8Y2d.s 			page 165


 9317 0b33 D2060000 		.4byte	.LVL214
 9318 0b37 FC060000 		.4byte	.LVL217
 9319 0b3b 0300     		.2byte	0x3
 9320 0b3d 91       		.byte	0x91
 9321 0b3e 8C7F     		.sleb128 -116
 9322 0b40 FC060000 		.4byte	.LVL217
 9323 0b44 22070000 		.4byte	.LVL220
 9324 0b48 0300     		.2byte	0x3
 9325 0b4a 91       		.byte	0x91
 9326 0b4b F47E     		.sleb128 -140
 9327 0b4d 22070000 		.4byte	.LVL220
 9328 0b51 88070000 		.4byte	.LVL228
 9329 0b55 0300     		.2byte	0x3
 9330 0b57 91       		.byte	0x91
 9331 0b58 8C7F     		.sleb128 -116
 9332 0b5a 88070000 		.4byte	.LVL228
 9333 0b5e 90070000 		.4byte	.LVL229
 9334 0b62 0100     		.2byte	0x1
 9335 0b64 57       		.byte	0x57
 9336 0b65 90070000 		.4byte	.LVL229
 9337 0b69 98070000 		.4byte	.LVL230
 9338 0b6d 0100     		.2byte	0x1
 9339 0b6f 55       		.byte	0x55
 9340 0b70 98070000 		.4byte	.LVL230
 9341 0b74 9C070000 		.4byte	.LVL231
 9342 0b78 0300     		.2byte	0x3
 9343 0b7a 91       		.byte	0x91
 9344 0b7b 8C7F     		.sleb128 -116
 9345 0b7d 9C070000 		.4byte	.LVL231
 9346 0b81 AE070000 		.4byte	.LVL233
 9347 0b85 0300     		.2byte	0x3
 9348 0b87 91       		.byte	0x91
 9349 0b88 F47E     		.sleb128 -140
 9350 0b8a AE070000 		.4byte	.LVL233
 9351 0b8e B2070000 		.4byte	.LVL234
 9352 0b92 0100     		.2byte	0x1
 9353 0b94 53       		.byte	0x53
 9354 0b95 B2070000 		.4byte	.LVL234
 9355 0b99 BC070000 		.4byte	.LVL236
 9356 0b9d 0100     		.2byte	0x1
 9357 0b9f 50       		.byte	0x50
 9358 0ba0 BE070000 		.4byte	.LVL237
 9359 0ba4 C4070000 		.4byte	.LVL238
 9360 0ba8 0100     		.2byte	0x1
 9361 0baa 56       		.byte	0x56
 9362 0bab C4070000 		.4byte	.LVL238
 9363 0baf E6070000 		.4byte	.LVL240
 9364 0bb3 0300     		.2byte	0x3
 9365 0bb5 91       		.byte	0x91
 9366 0bb6 8C7F     		.sleb128 -116
 9367 0bb8 E6070000 		.4byte	.LVL240
 9368 0bbc F8070000 		.4byte	.LVL241
 9369 0bc0 0300     		.2byte	0x3
 9370 0bc2 91       		.byte	0x91
 9371 0bc3 F47E     		.sleb128 -140
 9372 0bc5 F8070000 		.4byte	.LVL241
 9373 0bc9 0A080000 		.4byte	.LVL243
ARM GAS  C:\Users\Elis\AppData\Local\Temp\ccIy8Y2d.s 			page 166


 9374 0bcd 0300     		.2byte	0x3
 9375 0bcf 91       		.byte	0x91
 9376 0bd0 8C7F     		.sleb128 -116
 9377 0bd2 0A080000 		.4byte	.LVL243
 9378 0bd6 12080000 		.4byte	.LVL244
 9379 0bda 0100     		.2byte	0x1
 9380 0bdc 50       		.byte	0x50
 9381 0bdd 12080000 		.4byte	.LVL244
 9382 0be1 16080000 		.4byte	.LVL245
 9383 0be5 0100     		.2byte	0x1
 9384 0be7 53       		.byte	0x53
 9385 0be8 1A080000 		.4byte	.LVL247
 9386 0bec 1E080000 		.4byte	.LVL248
 9387 0bf0 0300     		.2byte	0x3
 9388 0bf2 91       		.byte	0x91
 9389 0bf3 8C7F     		.sleb128 -116
 9390 0bf5 36080000 		.4byte	.LVL256
 9391 0bf9 4A080000 		.4byte	.LVL259
 9392 0bfd 0300     		.2byte	0x3
 9393 0bff 91       		.byte	0x91
 9394 0c00 F47E     		.sleb128 -140
 9395 0c02 4A080000 		.4byte	.LVL259
 9396 0c06 50080000 		.4byte	.LVL260
 9397 0c0a 0100     		.2byte	0x1
 9398 0c0c 55       		.byte	0x55
 9399 0c0d 50080000 		.4byte	.LVL260
 9400 0c11 58080000 		.4byte	.LVL261
 9401 0c15 0100     		.2byte	0x1
 9402 0c17 51       		.byte	0x51
 9403 0c18 58080000 		.4byte	.LVL261
 9404 0c1c 5E080000 		.4byte	.LVL262
 9405 0c20 0100     		.2byte	0x1
 9406 0c22 56       		.byte	0x56
 9407 0c23 5E080000 		.4byte	.LVL262
 9408 0c27 88080000 		.4byte	.LFE125
 9409 0c2b 0300     		.2byte	0x3
 9410 0c2d 91       		.byte	0x91
 9411 0c2e 8C7F     		.sleb128 -116
 9412 0c30 00000000 		.4byte	0
 9413 0c34 00000000 		.4byte	0
 9414              	.LLST42:
 9415 0c38 68050000 		.4byte	.LVL186
 9416 0c3c 08060000 		.4byte	.LVL202
 9417 0c40 0100     		.2byte	0x1
 9418 0c42 5B       		.byte	0x5b
 9419 0c43 2C070000 		.4byte	.LVL221
 9420 0c47 76070000 		.4byte	.LVL226
 9421 0c4b 0100     		.2byte	0x1
 9422 0c4d 5B       		.byte	0x5b
 9423 0c4e C4070000 		.4byte	.LVL238
 9424 0c52 E6070000 		.4byte	.LVL240
 9425 0c56 0100     		.2byte	0x1
 9426 0c58 5B       		.byte	0x5b
 9427 0c59 5E080000 		.4byte	.LVL262
 9428 0c5d 88080000 		.4byte	.LFE125
 9429 0c61 0100     		.2byte	0x1
 9430 0c63 5B       		.byte	0x5b
ARM GAS  C:\Users\Elis\AppData\Local\Temp\ccIy8Y2d.s 			page 167


 9431 0c64 00000000 		.4byte	0
 9432 0c68 00000000 		.4byte	0
 9433              	.LLST43:
 9434 0c6c 68050000 		.4byte	.LVL186
 9435 0c70 08060000 		.4byte	.LVL202
 9436 0c74 0300     		.2byte	0x3
 9437 0c76 74       		.byte	0x74
 9438 0c77 20       		.sleb128 32
 9439 0c78 9F       		.byte	0x9f
 9440 0c79 2C070000 		.4byte	.LVL221
 9441 0c7d 76070000 		.4byte	.LVL226
 9442 0c81 0300     		.2byte	0x3
 9443 0c83 74       		.byte	0x74
 9444 0c84 20       		.sleb128 32
 9445 0c85 9F       		.byte	0x9f
 9446 0c86 C4070000 		.4byte	.LVL238
 9447 0c8a E6070000 		.4byte	.LVL240
 9448 0c8e 0300     		.2byte	0x3
 9449 0c90 74       		.byte	0x74
 9450 0c91 20       		.sleb128 32
 9451 0c92 9F       		.byte	0x9f
 9452 0c93 5E080000 		.4byte	.LVL262
 9453 0c97 88080000 		.4byte	.LFE125
 9454 0c9b 0300     		.2byte	0x3
 9455 0c9d 74       		.byte	0x74
 9456 0c9e 20       		.sleb128 32
 9457 0c9f 9F       		.byte	0x9f
 9458 0ca0 00000000 		.4byte	0
 9459 0ca4 00000000 		.4byte	0
 9460              	.LLST44:
 9461 0ca8 68050000 		.4byte	.LVL186
 9462 0cac 08060000 		.4byte	.LVL202
 9463 0cb0 0300     		.2byte	0x3
 9464 0cb2 91       		.byte	0x91
 9465 0cb3 54       		.sleb128 -44
 9466 0cb4 9F       		.byte	0x9f
 9467 0cb5 2C070000 		.4byte	.LVL221
 9468 0cb9 76070000 		.4byte	.LVL226
 9469 0cbd 0300     		.2byte	0x3
 9470 0cbf 91       		.byte	0x91
 9471 0cc0 54       		.sleb128 -44
 9472 0cc1 9F       		.byte	0x9f
 9473 0cc2 C4070000 		.4byte	.LVL238
 9474 0cc6 E6070000 		.4byte	.LVL240
 9475 0cca 0300     		.2byte	0x3
 9476 0ccc 91       		.byte	0x91
 9477 0ccd 54       		.sleb128 -44
 9478 0cce 9F       		.byte	0x9f
 9479 0ccf 5E080000 		.4byte	.LVL262
 9480 0cd3 88080000 		.4byte	.LFE125
 9481 0cd7 0300     		.2byte	0x3
 9482 0cd9 91       		.byte	0x91
 9483 0cda 54       		.sleb128 -44
 9484 0cdb 9F       		.byte	0x9f
 9485 0cdc 00000000 		.4byte	0
 9486 0ce0 00000000 		.4byte	0
 9487              	.LLST45:
ARM GAS  C:\Users\Elis\AppData\Local\Temp\ccIy8Y2d.s 			page 168


 9488 0ce4 00000000 		.4byte	.LFB128
 9489 0ce8 04000000 		.4byte	.LCFI6
 9490 0cec 0200     		.2byte	0x2
 9491 0cee 7D       		.byte	0x7d
 9492 0cef 00       		.sleb128 0
 9493 0cf0 04000000 		.4byte	.LCFI6
 9494 0cf4 10000000 		.4byte	.LCFI7
 9495 0cf8 0200     		.2byte	0x2
 9496 0cfa 7D       		.byte	0x7d
 9497 0cfb 04       		.sleb128 4
 9498 0cfc 10000000 		.4byte	.LCFI7
 9499 0d00 50000000 		.4byte	.LFE128
 9500 0d04 0200     		.2byte	0x2
 9501 0d06 7D       		.byte	0x7d
 9502 0d07 10       		.sleb128 16
 9503 0d08 00000000 		.4byte	0
 9504 0d0c 00000000 		.4byte	0
 9505              	.LLST46:
 9506 0d10 00000000 		.4byte	.LVL265
 9507 0d14 1F000000 		.4byte	.LVL268-1
 9508 0d18 0100     		.2byte	0x1
 9509 0d1a 50       		.byte	0x50
 9510 0d1b 1F000000 		.4byte	.LVL268-1
 9511 0d1f 50000000 		.4byte	.LFE128
 9512 0d23 0400     		.2byte	0x4
 9513 0d25 F3       		.byte	0xf3
 9514 0d26 01       		.uleb128 0x1
 9515 0d27 50       		.byte	0x50
 9516 0d28 9F       		.byte	0x9f
 9517 0d29 00000000 		.4byte	0
 9518 0d2d 00000000 		.4byte	0
 9519              	.LLST47:
 9520 0d31 00000000 		.4byte	.LVL265
 9521 0d35 08000000 		.4byte	.LVL267
 9522 0d39 0100     		.2byte	0x1
 9523 0d3b 51       		.byte	0x51
 9524 0d3c 08000000 		.4byte	.LVL267
 9525 0d40 1F000000 		.4byte	.LVL268-1
 9526 0d44 0200     		.2byte	0x2
 9527 0d46 70       		.byte	0x70
 9528 0d47 1C       		.sleb128 28
 9529 0d48 1F000000 		.4byte	.LVL268-1
 9530 0d4c 50000000 		.4byte	.LFE128
 9531 0d50 0400     		.2byte	0x4
 9532 0d52 F3       		.byte	0xf3
 9533 0d53 01       		.uleb128 0x1
 9534 0d54 51       		.byte	0x51
 9535 0d55 9F       		.byte	0x9f
 9536 0d56 00000000 		.4byte	0
 9537 0d5a 00000000 		.4byte	0
 9538              	.LLST48:
 9539 0d5e 00000000 		.4byte	.LVL265
 9540 0d62 1F000000 		.4byte	.LVL268-1
 9541 0d66 0100     		.2byte	0x1
 9542 0d68 52       		.byte	0x52
 9543 0d69 1F000000 		.4byte	.LVL268-1
 9544 0d6d 50000000 		.4byte	.LFE128
ARM GAS  C:\Users\Elis\AppData\Local\Temp\ccIy8Y2d.s 			page 169


 9545 0d71 0400     		.2byte	0x4
 9546 0d73 F3       		.byte	0xf3
 9547 0d74 01       		.uleb128 0x1
 9548 0d75 52       		.byte	0x52
 9549 0d76 9F       		.byte	0x9f
 9550 0d77 00000000 		.4byte	0
 9551 0d7b 00000000 		.4byte	0
 9552              	.LLST49:
 9553 0d7f 00000000 		.4byte	.LVL265
 9554 0d83 02000000 		.4byte	.LVL266
 9555 0d87 0100     		.2byte	0x1
 9556 0d89 53       		.byte	0x53
 9557 0d8a 02000000 		.4byte	.LVL266
 9558 0d8e 50000000 		.4byte	.LFE128
 9559 0d92 0400     		.2byte	0x4
 9560 0d94 F3       		.byte	0xf3
 9561 0d95 01       		.uleb128 0x1
 9562 0d96 53       		.byte	0x53
 9563 0d97 9F       		.byte	0x9f
 9564 0d98 00000000 		.4byte	0
 9565 0d9c 00000000 		.4byte	0
 9566              	.LLST50:
 9567 0da0 00000000 		.4byte	.LFB129
 9568 0da4 12000000 		.4byte	.LCFI8
 9569 0da8 0200     		.2byte	0x2
 9570 0daa 7D       		.byte	0x7d
 9571 0dab 00       		.sleb128 0
 9572 0dac 12000000 		.4byte	.LCFI8
 9573 0db0 44000000 		.4byte	.LFE129
 9574 0db4 0200     		.2byte	0x2
 9575 0db6 7D       		.byte	0x7d
 9576 0db7 08       		.sleb128 8
 9577 0db8 00000000 		.4byte	0
 9578 0dbc 00000000 		.4byte	0
 9579              	.LLST51:
 9580 0dc0 00000000 		.4byte	.LVL271
 9581 0dc4 23000000 		.4byte	.LVL272-1
 9582 0dc8 0100     		.2byte	0x1
 9583 0dca 50       		.byte	0x50
 9584 0dcb 23000000 		.4byte	.LVL272-1
 9585 0dcf 44000000 		.4byte	.LFE129
 9586 0dd3 0100     		.2byte	0x1
 9587 0dd5 54       		.byte	0x54
 9588 0dd6 00000000 		.4byte	0
 9589 0dda 00000000 		.4byte	0
 9590              	.LLST52:
 9591 0dde 00000000 		.4byte	.LVL276
 9592 0de2 08000000 		.4byte	.LVL277
 9593 0de6 0100     		.2byte	0x1
 9594 0de8 50       		.byte	0x50
 9595 0de9 08000000 		.4byte	.LVL277
 9596 0ded 0B000000 		.4byte	.LVL278-1
 9597 0df1 0100     		.2byte	0x1
 9598 0df3 51       		.byte	0x51
 9599 0df4 0B000000 		.4byte	.LVL278-1
 9600 0df8 0C000000 		.4byte	.LVL278
 9601 0dfc 0400     		.2byte	0x4
ARM GAS  C:\Users\Elis\AppData\Local\Temp\ccIy8Y2d.s 			page 170


 9602 0dfe F3       		.byte	0xf3
 9603 0dff 01       		.uleb128 0x1
 9604 0e00 50       		.byte	0x50
 9605 0e01 9F       		.byte	0x9f
 9606 0e02 0C000000 		.4byte	.LVL278
 9607 0e06 0E000000 		.4byte	.LVL279
 9608 0e0a 0100     		.2byte	0x1
 9609 0e0c 50       		.byte	0x50
 9610 0e0d 0E000000 		.4byte	.LVL279
 9611 0e11 14000000 		.4byte	.LFE131
 9612 0e15 0100     		.2byte	0x1
 9613 0e17 51       		.byte	0x51
 9614 0e18 00000000 		.4byte	0
 9615 0e1c 00000000 		.4byte	0
 9616              	.LLST53:
 9617 0e20 00000000 		.4byte	.LFB132
 9618 0e24 04000000 		.4byte	.LCFI9
 9619 0e28 0200     		.2byte	0x2
 9620 0e2a 7D       		.byte	0x7d
 9621 0e2b 00       		.sleb128 0
 9622 0e2c 04000000 		.4byte	.LCFI9
 9623 0e30 20000000 		.4byte	.LFE132
 9624 0e34 0200     		.2byte	0x2
 9625 0e36 7D       		.byte	0x7d
 9626 0e37 08       		.sleb128 8
 9627 0e38 00000000 		.4byte	0
 9628 0e3c 00000000 		.4byte	0
 9629              	.LLST54:
 9630 0e40 00000000 		.4byte	.LVL280
 9631 0e44 06000000 		.4byte	.LVL281
 9632 0e48 0100     		.2byte	0x1
 9633 0e4a 50       		.byte	0x50
 9634 0e4b 06000000 		.4byte	.LVL281
 9635 0e4f 0D000000 		.4byte	.LVL283-1
 9636 0e53 0100     		.2byte	0x1
 9637 0e55 53       		.byte	0x53
 9638 0e56 0D000000 		.4byte	.LVL283-1
 9639 0e5a 20000000 		.4byte	.LFE132
 9640 0e5e 0400     		.2byte	0x4
 9641 0e60 F3       		.byte	0xf3
 9642 0e61 01       		.uleb128 0x1
 9643 0e62 50       		.byte	0x50
 9644 0e63 9F       		.byte	0x9f
 9645 0e64 00000000 		.4byte	0
 9646 0e68 00000000 		.4byte	0
 9647              	.LLST55:
 9648 0e6c 00000000 		.4byte	.LVL280
 9649 0e70 0A000000 		.4byte	.LVL282
 9650 0e74 0100     		.2byte	0x1
 9651 0e76 51       		.byte	0x51
 9652 0e77 0A000000 		.4byte	.LVL282
 9653 0e7b 12000000 		.4byte	.LVL284
 9654 0e7f 0100     		.2byte	0x1
 9655 0e81 54       		.byte	0x54
 9656 0e82 12000000 		.4byte	.LVL284
 9657 0e86 16000000 		.4byte	.LVL285
 9658 0e8a 0400     		.2byte	0x4
ARM GAS  C:\Users\Elis\AppData\Local\Temp\ccIy8Y2d.s 			page 171


 9659 0e8c F3       		.byte	0xf3
 9660 0e8d 01       		.uleb128 0x1
 9661 0e8e 51       		.byte	0x51
 9662 0e8f 9F       		.byte	0x9f
 9663 0e90 16000000 		.4byte	.LVL285
 9664 0e94 1A000000 		.4byte	.LVL286
 9665 0e98 0100     		.2byte	0x1
 9666 0e9a 54       		.byte	0x54
 9667 0e9b 1A000000 		.4byte	.LVL286
 9668 0e9f 20000000 		.4byte	.LFE132
 9669 0ea3 0400     		.2byte	0x4
 9670 0ea5 F3       		.byte	0xf3
 9671 0ea6 01       		.uleb128 0x1
 9672 0ea7 51       		.byte	0x51
 9673 0ea8 9F       		.byte	0x9f
 9674 0ea9 00000000 		.4byte	0
 9675 0ead 00000000 		.4byte	0
 9676              	.LLST56:
 9677 0eb1 00000000 		.4byte	.LFB133
 9678 0eb5 02000000 		.4byte	.LCFI10
 9679 0eb9 0200     		.2byte	0x2
 9680 0ebb 7D       		.byte	0x7d
 9681 0ebc 00       		.sleb128 0
 9682 0ebd 02000000 		.4byte	.LCFI10
 9683 0ec1 10000000 		.4byte	.LFE133
 9684 0ec5 0200     		.2byte	0x2
 9685 0ec7 7D       		.byte	0x7d
 9686 0ec8 08       		.sleb128 8
 9687 0ec9 00000000 		.4byte	0
 9688 0ecd 00000000 		.4byte	0
 9689              	.LLST57:
 9690 0ed1 00000000 		.4byte	.LVL287
 9691 0ed5 06000000 		.4byte	.LVL288
 9692 0ed9 0100     		.2byte	0x1
 9693 0edb 50       		.byte	0x50
 9694 0edc 06000000 		.4byte	.LVL288
 9695 0ee0 09000000 		.4byte	.LVL289-1
 9696 0ee4 0100     		.2byte	0x1
 9697 0ee6 51       		.byte	0x51
 9698 0ee7 09000000 		.4byte	.LVL289-1
 9699 0eeb 10000000 		.4byte	.LFE133
 9700 0eef 0400     		.2byte	0x4
 9701 0ef1 F3       		.byte	0xf3
 9702 0ef2 01       		.uleb128 0x1
 9703 0ef3 50       		.byte	0x50
 9704 0ef4 9F       		.byte	0x9f
 9705 0ef5 00000000 		.4byte	0
 9706 0ef9 00000000 		.4byte	0
 9707              	.LLST58:
 9708 0efd 0A000000 		.4byte	.LVL289
 9709 0f01 0E000000 		.4byte	.LVL290
 9710 0f05 0100     		.2byte	0x1
 9711 0f07 50       		.byte	0x50
 9712 0f08 00000000 		.4byte	0
 9713 0f0c 00000000 		.4byte	0
 9714              	.LLST59:
 9715 0f10 00000000 		.4byte	.LFB134
ARM GAS  C:\Users\Elis\AppData\Local\Temp\ccIy8Y2d.s 			page 172


 9716 0f14 02000000 		.4byte	.LCFI11
 9717 0f18 0200     		.2byte	0x2
 9718 0f1a 7D       		.byte	0x7d
 9719 0f1b 00       		.sleb128 0
 9720 0f1c 02000000 		.4byte	.LCFI11
 9721 0f20 50000000 		.4byte	.LFE134
 9722 0f24 0200     		.2byte	0x2
 9723 0f26 7D       		.byte	0x7d
 9724 0f27 18       		.sleb128 24
 9725 0f28 00000000 		.4byte	0
 9726 0f2c 00000000 		.4byte	0
 9727              	.LLST60:
 9728 0f30 00000000 		.4byte	.LVL291
 9729 0f34 06000000 		.4byte	.LVL292
 9730 0f38 0100     		.2byte	0x1
 9731 0f3a 50       		.byte	0x50
 9732 0f3b 06000000 		.4byte	.LVL292
 9733 0f3f 22000000 		.4byte	.LVL295
 9734 0f43 0100     		.2byte	0x1
 9735 0f45 55       		.byte	0x55
 9736 0f46 22000000 		.4byte	.LVL295
 9737 0f4a 4C000000 		.4byte	.LVL297
 9738 0f4e 0400     		.2byte	0x4
 9739 0f50 F3       		.byte	0xf3
 9740 0f51 01       		.uleb128 0x1
 9741 0f52 50       		.byte	0x50
 9742 0f53 9F       		.byte	0x9f
 9743 0f54 4C000000 		.4byte	.LVL297
 9744 0f58 50000000 		.4byte	.LFE134
 9745 0f5c 0100     		.2byte	0x1
 9746 0f5e 55       		.byte	0x55
 9747 0f5f 00000000 		.4byte	0
 9748 0f63 00000000 		.4byte	0
 9749              	.LLST61:
 9750 0f67 00000000 		.4byte	.LVL291
 9751 0f6b 0B000000 		.4byte	.LVL293-1
 9752 0f6f 0100     		.2byte	0x1
 9753 0f71 51       		.byte	0x51
 9754 0f72 0B000000 		.4byte	.LVL293-1
 9755 0f76 50000000 		.4byte	.LFE134
 9756 0f7a 0100     		.2byte	0x1
 9757 0f7c 54       		.byte	0x54
 9758 0f7d 00000000 		.4byte	0
 9759 0f81 00000000 		.4byte	0
 9760              	.LLST62:
 9761 0f85 14000000 		.4byte	.LVL294
 9762 0f89 38000000 		.4byte	.LVL296
 9763 0f8d 0100     		.2byte	0x1
 9764 0f8f 50       		.byte	0x50
 9765 0f90 4C000000 		.4byte	.LVL297
 9766 0f94 4E000000 		.4byte	.LVL298
 9767 0f98 0100     		.2byte	0x1
 9768 0f9a 50       		.byte	0x50
 9769 0f9b 00000000 		.4byte	0
 9770 0f9f 00000000 		.4byte	0
 9771              	.LLST63:
 9772 0fa3 00000000 		.4byte	.LFB135
ARM GAS  C:\Users\Elis\AppData\Local\Temp\ccIy8Y2d.s 			page 173


 9773 0fa7 04000000 		.4byte	.LCFI12
 9774 0fab 0200     		.2byte	0x2
 9775 0fad 7D       		.byte	0x7d
 9776 0fae 00       		.sleb128 0
 9777 0faf 04000000 		.4byte	.LCFI12
 9778 0fb3 24000000 		.4byte	.LFE135
 9779 0fb7 0200     		.2byte	0x2
 9780 0fb9 7D       		.byte	0x7d
 9781 0fba 08       		.sleb128 8
 9782 0fbb 00000000 		.4byte	0
 9783 0fbf 00000000 		.4byte	0
 9784              	.LLST64:
 9785 0fc3 00000000 		.4byte	.LVL299
 9786 0fc7 06000000 		.4byte	.LVL300
 9787 0fcb 0100     		.2byte	0x1
 9788 0fcd 50       		.byte	0x50
 9789 0fce 06000000 		.4byte	.LVL300
 9790 0fd2 0D000000 		.4byte	.LVL302-1
 9791 0fd6 0100     		.2byte	0x1
 9792 0fd8 53       		.byte	0x53
 9793 0fd9 0D000000 		.4byte	.LVL302-1
 9794 0fdd 24000000 		.4byte	.LFE135
 9795 0fe1 0400     		.2byte	0x4
 9796 0fe3 F3       		.byte	0xf3
 9797 0fe4 01       		.uleb128 0x1
 9798 0fe5 50       		.byte	0x50
 9799 0fe6 9F       		.byte	0x9f
 9800 0fe7 00000000 		.4byte	0
 9801 0feb 00000000 		.4byte	0
 9802              	.LLST65:
 9803 0fef 00000000 		.4byte	.LVL299
 9804 0ff3 0A000000 		.4byte	.LVL301
 9805 0ff7 0100     		.2byte	0x1
 9806 0ff9 51       		.byte	0x51
 9807 0ffa 0A000000 		.4byte	.LVL301
 9808 0ffe 24000000 		.4byte	.LFE135
 9809 1002 0400     		.2byte	0x4
 9810 1004 F3       		.byte	0xf3
 9811 1005 01       		.uleb128 0x1
 9812 1006 51       		.byte	0x51
 9813 1007 9F       		.byte	0x9f
 9814 1008 00000000 		.4byte	0
 9815 100c 00000000 		.4byte	0
 9816              	.LLST66:
 9817 1010 00000000 		.4byte	.LFB136
 9818 1014 02000000 		.4byte	.LCFI13
 9819 1018 0200     		.2byte	0x2
 9820 101a 7D       		.byte	0x7d
 9821 101b 00       		.sleb128 0
 9822 101c 02000000 		.4byte	.LCFI13
 9823 1020 24000000 		.4byte	.LFE136
 9824 1024 0200     		.2byte	0x2
 9825 1026 7D       		.byte	0x7d
 9826 1027 08       		.sleb128 8
 9827 1028 00000000 		.4byte	0
 9828 102c 00000000 		.4byte	0
 9829              	.LLST67:
ARM GAS  C:\Users\Elis\AppData\Local\Temp\ccIy8Y2d.s 			page 174


 9830 1030 00000000 		.4byte	.LVL303
 9831 1034 06000000 		.4byte	.LVL304
 9832 1038 0100     		.2byte	0x1
 9833 103a 50       		.byte	0x50
 9834 103b 06000000 		.4byte	.LVL304
 9835 103f 09000000 		.4byte	.LVL305-1
 9836 1043 0100     		.2byte	0x1
 9837 1045 51       		.byte	0x51
 9838 1046 09000000 		.4byte	.LVL305-1
 9839 104a 24000000 		.4byte	.LFE136
 9840 104e 0400     		.2byte	0x4
 9841 1050 F3       		.byte	0xf3
 9842 1051 01       		.uleb128 0x1
 9843 1052 50       		.byte	0x50
 9844 1053 9F       		.byte	0x9f
 9845 1054 00000000 		.4byte	0
 9846 1058 00000000 		.4byte	0
 9847              	.LLST68:
 9848 105c 0A000000 		.4byte	.LVL305
 9849 1060 1A000000 		.4byte	.LVL306
 9850 1064 0100     		.2byte	0x1
 9851 1066 50       		.byte	0x50
 9852 1067 1C000000 		.4byte	.LVL307
 9853 106b 23000000 		.4byte	.LVL308-1
 9854 106f 0100     		.2byte	0x1
 9855 1071 50       		.byte	0x50
 9856 1072 00000000 		.4byte	0
 9857 1076 00000000 		.4byte	0
 9858              	.LLST69:
 9859 107a 00000000 		.4byte	.LVL309
 9860 107e 0C000000 		.4byte	.LVL310
 9861 1082 0100     		.2byte	0x1
 9862 1084 50       		.byte	0x50
 9863 1085 0C000000 		.4byte	.LVL310
 9864 1089 14000000 		.4byte	.LFE137
 9865 108d 0400     		.2byte	0x4
 9866 108f F3       		.byte	0xf3
 9867 1090 01       		.uleb128 0x1
 9868 1091 50       		.byte	0x50
 9869 1092 9F       		.byte	0x9f
 9870 1093 00000000 		.4byte	0
 9871 1097 00000000 		.4byte	0
 9872              	.LLST70:
 9873 109b 00000000 		.4byte	.LVL312
 9874 109f 0C000000 		.4byte	.LVL313
 9875 10a3 0100     		.2byte	0x1
 9876 10a5 50       		.byte	0x50
 9877 10a6 0C000000 		.4byte	.LVL313
 9878 10aa 14000000 		.4byte	.LFE138
 9879 10ae 0400     		.2byte	0x4
 9880 10b0 F3       		.byte	0xf3
 9881 10b1 01       		.uleb128 0x1
 9882 10b2 50       		.byte	0x50
 9883 10b3 9F       		.byte	0x9f
 9884 10b4 00000000 		.4byte	0
 9885 10b8 00000000 		.4byte	0
 9886              		.section	.debug_aranges,"",%progbits
ARM GAS  C:\Users\Elis\AppData\Local\Temp\ccIy8Y2d.s 			page 175


 9887 0000 9C000000 		.4byte	0x9c
 9888 0004 0200     		.2byte	0x2
 9889 0006 00000000 		.4byte	.Ldebug_info0
 9890 000a 04       		.byte	0x4
 9891 000b 00       		.byte	0
 9892 000c 0000     		.2byte	0
 9893 000e 0000     		.2byte	0
 9894 0010 00000000 		.4byte	.LFB119
 9895 0014 C0000000 		.4byte	.LFE119-.LFB119
 9896 0018 00000000 		.4byte	.LFB120
 9897 001c D8030000 		.4byte	.LFE120-.LFB120
 9898 0020 00000000 		.4byte	.LFB121
 9899 0024 3A000000 		.4byte	.LFE121-.LFB121
 9900 0028 00000000 		.4byte	.LFB125
 9901 002c 88080000 		.4byte	.LFE125-.LFB125
 9902 0030 00000000 		.4byte	.LFB126
 9903 0034 1C000000 		.4byte	.LFE126-.LFB126
 9904 0038 00000000 		.4byte	.LFB127
 9905 003c 0C000000 		.4byte	.LFE127-.LFB127
 9906 0040 00000000 		.4byte	.LFB128
 9907 0044 50000000 		.4byte	.LFE128-.LFB128
 9908 0048 00000000 		.4byte	.LFB129
 9909 004c 44000000 		.4byte	.LFE129-.LFB129
 9910 0050 00000000 		.4byte	.LFB130
 9911 0054 02000000 		.4byte	.LFE130-.LFB130
 9912 0058 00000000 		.4byte	.LFB131
 9913 005c 14000000 		.4byte	.LFE131-.LFB131
 9914 0060 00000000 		.4byte	.LFB132
 9915 0064 20000000 		.4byte	.LFE132-.LFB132
 9916 0068 00000000 		.4byte	.LFB133
 9917 006c 10000000 		.4byte	.LFE133-.LFB133
 9918 0070 00000000 		.4byte	.LFB134
 9919 0074 50000000 		.4byte	.LFE134-.LFB134
 9920 0078 00000000 		.4byte	.LFB135
 9921 007c 24000000 		.4byte	.LFE135-.LFB135
 9922 0080 00000000 		.4byte	.LFB136
 9923 0084 24000000 		.4byte	.LFE136-.LFB136
 9924 0088 00000000 		.4byte	.LFB137
 9925 008c 14000000 		.4byte	.LFE137-.LFB137
 9926 0090 00000000 		.4byte	.LFB138
 9927 0094 14000000 		.4byte	.LFE138-.LFB138
 9928 0098 00000000 		.4byte	0
 9929 009c 00000000 		.4byte	0
 9930              		.section	.debug_ranges,"",%progbits
 9931              	.Ldebug_ranges0:
 9932 0000 D8000000 		.4byte	.LBB9
 9933 0004 08010000 		.4byte	.LBE9
 9934 0008 B0020000 		.4byte	.LBB17
 9935 000c DE020000 		.4byte	.LBE17
 9936 0010 54030000 		.4byte	.LBB20
 9937 0014 D8030000 		.4byte	.LBE20
 9938 0018 00000000 		.4byte	0
 9939 001c 00000000 		.4byte	0
 9940 0020 54030000 		.4byte	.LBB10
 9941 0024 6C030000 		.4byte	.LBE10
 9942 0028 80030000 		.4byte	.LBB11
 9943 002c D8030000 		.4byte	.LBE11
ARM GAS  C:\Users\Elis\AppData\Local\Temp\ccIy8Y2d.s 			page 176


 9944 0030 00000000 		.4byte	0
 9945 0034 00000000 		.4byte	0
 9946 0038 08010000 		.4byte	.LBB12
 9947 003c 8E010000 		.4byte	.LBE12
 9948 0040 AA020000 		.4byte	.LBB16
 9949 0044 B0020000 		.4byte	.LBE16
 9950 0048 00000000 		.4byte	0
 9951 004c 00000000 		.4byte	0
 9952 0050 34020000 		.4byte	.LBB14
 9953 0054 4C020000 		.4byte	.LBE14
 9954 0058 72020000 		.4byte	.LBB15
 9955 005c 88020000 		.4byte	.LBE15
 9956 0060 00000000 		.4byte	0
 9957 0064 00000000 		.4byte	0
 9958 0068 CC000000 		.4byte	.LBB33
 9959 006c C8020000 		.4byte	.LBE33
 9960 0070 52060000 		.4byte	.LBB70
 9961 0074 60060000 		.4byte	.LBE70
 9962 0078 00000000 		.4byte	0
 9963 007c 00000000 		.4byte	0
 9964 0080 E6000000 		.4byte	.LBB34
 9965 0084 92020000 		.4byte	.LBE34
 9966 0088 94020000 		.4byte	.LBB49
 9967 008c 9C020000 		.4byte	.LBE49
 9968 0090 A0020000 		.4byte	.LBB50
 9969 0094 BE020000 		.4byte	.LBE50
 9970 0098 52060000 		.4byte	.LBB51
 9971 009c 60060000 		.4byte	.LBE51
 9972 00a0 00000000 		.4byte	0
 9973 00a4 00000000 		.4byte	0
 9974 00a8 E6000000 		.4byte	.LBB35
 9975 00ac F6000000 		.4byte	.LBE35
 9976 00b0 FA000000 		.4byte	.LBB38
 9977 00b4 40020000 		.4byte	.LBE38
 9978 00b8 00000000 		.4byte	0
 9979 00bc 00000000 		.4byte	0
 9980 00c0 86020000 		.4byte	.LBB39
 9981 00c4 8A020000 		.4byte	.LBE39
 9982 00c8 8C020000 		.4byte	.LBB45
 9983 00cc 92020000 		.4byte	.LBE45
 9984 00d0 9A020000 		.4byte	.LBB46
 9985 00d4 9C020000 		.4byte	.LBE46
 9986 00d8 AC020000 		.4byte	.LBB47
 9987 00dc AE020000 		.4byte	.LBE47
 9988 00e0 BA020000 		.4byte	.LBB48
 9989 00e4 BE020000 		.4byte	.LBE48
 9990 00e8 00000000 		.4byte	0
 9991 00ec 00000000 		.4byte	0
 9992 00f0 C8020000 		.4byte	.LBB52
 9993 00f4 44050000 		.4byte	.LBE52
 9994 00f8 46050000 		.4byte	.LBB61
 9995 00fc 48050000 		.4byte	.LBE61
 9996 0100 4E050000 		.4byte	.LBB62
 9997 0104 52050000 		.4byte	.LBE62
 9998 0108 D8060000 		.4byte	.LBB72
 9999 010c 2C070000 		.4byte	.LBE72
 10000 0110 76070000 		.4byte	.LBB74
ARM GAS  C:\Users\Elis\AppData\Local\Temp\ccIy8Y2d.s 			page 177


 10001 0114 C4070000 		.4byte	.LBE74
 10002 0118 EA070000 		.4byte	.LBB76
 10003 011c 1E080000 		.4byte	.LBE76
 10004 0120 36080000 		.4byte	.LBB77
 10005 0124 5E080000 		.4byte	.LBE77
 10006 0128 00000000 		.4byte	0
 10007 012c 00000000 		.4byte	0
 10008 0130 C8020000 		.4byte	.LBB53
 10009 0134 D0020000 		.4byte	.LBE53
 10010 0138 D6020000 		.4byte	.LBB54
 10011 013c 44050000 		.4byte	.LBE54
 10012 0140 46050000 		.4byte	.LBB55
 10013 0144 48050000 		.4byte	.LBE55
 10014 0148 4E050000 		.4byte	.LBB56
 10015 014c 52050000 		.4byte	.LBE56
 10016 0150 D8060000 		.4byte	.LBB57
 10017 0154 2C070000 		.4byte	.LBE57
 10018 0158 76070000 		.4byte	.LBB58
 10019 015c C4070000 		.4byte	.LBE58
 10020 0160 EA070000 		.4byte	.LBB59
 10021 0164 1E080000 		.4byte	.LBE59
 10022 0168 36080000 		.4byte	.LBB60
 10023 016c 5E080000 		.4byte	.LBE60
 10024 0170 00000000 		.4byte	0
 10025 0174 00000000 		.4byte	0
 10026 0178 56050000 		.4byte	.LBB63
 10027 017c 08060000 		.4byte	.LBE63
 10028 0180 D2060000 		.4byte	.LBB71
 10029 0184 D8060000 		.4byte	.LBE71
 10030 0188 2C070000 		.4byte	.LBB73
 10031 018c 5C070000 		.4byte	.LBE73
 10032 0190 C4070000 		.4byte	.LBB75
 10033 0194 EA070000 		.4byte	.LBE75
 10034 0198 5E080000 		.4byte	.LBB78
 10035 019c 88080000 		.4byte	.LBE78
 10036 01a0 00000000 		.4byte	0
 10037 01a4 00000000 		.4byte	0
 10038 01a8 68050000 		.4byte	.LBB64
 10039 01ac CC050000 		.4byte	.LBE64
 10040 01b0 D4050000 		.4byte	.LBB67
 10041 01b4 DC050000 		.4byte	.LBE67
 10042 01b8 00000000 		.4byte	0
 10043 01bc 00000000 		.4byte	0
 10044 01c0 C4070000 		.4byte	.LBB68
 10045 01c4 EA070000 		.4byte	.LBE68
 10046 01c8 5E080000 		.4byte	.LBB69
 10047 01cc 88080000 		.4byte	.LBE69
 10048 01d0 00000000 		.4byte	0
 10049 01d4 00000000 		.4byte	0
 10050 01d8 00000000 		.4byte	.LBB79
 10051 01dc 0E000000 		.4byte	.LBE79
 10052 01e0 0E000000 		.4byte	.LBB80
 10053 01e4 1C000000 		.4byte	.LBE80
 10054 01e8 00000000 		.4byte	0
 10055 01ec 00000000 		.4byte	0
 10056 01f0 00000000 		.4byte	.LFB119
 10057 01f4 C0000000 		.4byte	.LFE119
ARM GAS  C:\Users\Elis\AppData\Local\Temp\ccIy8Y2d.s 			page 178


 10058 01f8 00000000 		.4byte	.LFB120
 10059 01fc D8030000 		.4byte	.LFE120
 10060 0200 00000000 		.4byte	.LFB121
 10061 0204 3A000000 		.4byte	.LFE121
 10062 0208 00000000 		.4byte	.LFB125
 10063 020c 88080000 		.4byte	.LFE125
 10064 0210 00000000 		.4byte	.LFB126
 10065 0214 1C000000 		.4byte	.LFE126
 10066 0218 00000000 		.4byte	.LFB127
 10067 021c 0C000000 		.4byte	.LFE127
 10068 0220 00000000 		.4byte	.LFB128
 10069 0224 50000000 		.4byte	.LFE128
 10070 0228 00000000 		.4byte	.LFB129
 10071 022c 44000000 		.4byte	.LFE129
 10072 0230 00000000 		.4byte	.LFB130
 10073 0234 02000000 		.4byte	.LFE130
 10074 0238 00000000 		.4byte	.LFB131
 10075 023c 14000000 		.4byte	.LFE131
 10076 0240 00000000 		.4byte	.LFB132
 10077 0244 20000000 		.4byte	.LFE132
 10078 0248 00000000 		.4byte	.LFB133
 10079 024c 10000000 		.4byte	.LFE133
 10080 0250 00000000 		.4byte	.LFB134
 10081 0254 50000000 		.4byte	.LFE134
 10082 0258 00000000 		.4byte	.LFB135
 10083 025c 24000000 		.4byte	.LFE135
 10084 0260 00000000 		.4byte	.LFB136
 10085 0264 24000000 		.4byte	.LFE136
 10086 0268 00000000 		.4byte	.LFB137
 10087 026c 14000000 		.4byte	.LFE137
 10088 0270 00000000 		.4byte	.LFB138
 10089 0274 14000000 		.4byte	.LFE138
 10090 0278 00000000 		.4byte	0
 10091 027c 00000000 		.4byte	0
 10092              		.section	.debug_line,"",%progbits
 10093              	.Ldebug_line0:
 10094 0000 3D080000 		.section	.debug_str,"MS",%progbits,1
 10094      02001403 
 10094      00000201 
 10094      FB0E0D00 
 10094      01010101 
 10095              	.LASF52:
 10096 0000 76746675 		.ascii	"vtfunc_t\000"
 10096      6E635F74 
 10096      00
 10097              	.LASF143:
 10098 0009 636C6963 		.ascii	"click\000"
 10098      6B00
 10099              	.LASF183:
 10100 000f 5F676D6F 		.ascii	"_gmouseWakeup\000"
 10100      75736557 
 10100      616B6575 
 10100      7000
 10101              	.LASF191:
 10102 001d 67646973 		.ascii	"gdispGGetOrientation\000"
 10102      70474765 
 10102      744F7269 
ARM GAS  C:\Users\Elis\AppData\Local\Temp\ccIy8Y2d.s 			page 179


 10102      656E7461 
 10102      74696F6E 
 10103              	.LASF38:
 10104 0032 705F7469 		.ascii	"p_time\000"
 10104      6D6500
 10105              	.LASF29:
 10106 0039 705F7072 		.ascii	"p_prio\000"
 10106      696F00
 10107              	.LASF215:
 10108 0040 43616C69 		.ascii	"CalibrateMouse\000"
 10108      62726174 
 10108      654D6F75 
 10108      736500
 10109              	.LASF117:
 10110 004f 47444953 		.ascii	"GDISP_ROTATE_270\000"
 10110      505F524F 
 10110      54415445 
 10110      5F323730 
 10110      00
 10111              	.LASF85:
 10112 0060 666C6167 		.ascii	"flags\000"
 10112      7300
 10113              	.LASF24:
 10114 0066 73797374 		.ascii	"systime_t\000"
 10114      696D655F 
 10114      7400
 10115              	.LASF66:
 10116 0070 6D5F6F77 		.ascii	"m_owner\000"
 10116      6E657200 
 10117              	.LASF62:
 10118 0078 735F7175 		.ascii	"s_queue\000"
 10118      65756500 
 10119              	.LASF59:
 10120 0080 76745F73 		.ascii	"vt_systime\000"
 10120      79737469 
 10120      6D6500
 10121              	.LASF40:
 10122 008b 705F6D73 		.ascii	"p_msgqueue\000"
 10122      67717565 
 10122      756500
 10123              	.LASF110:
 10124 0096 47536F75 		.ascii	"GSource_t\000"
 10124      7263655F 
 10124      7400
 10125              	.LASF196:
 10126 00a0 67657665 		.ascii	"geventSendEvent\000"
 10126      6E745365 
 10126      6E644576 
 10126      656E7400 
 10127              	.LASF101:
 10128 00b0 6E657874 		.ascii	"next\000"
 10128      00
 10129              	.LASF133:
 10130 00b5 6465696E 		.ascii	"deinit\000"
 10130      697400
 10131              	.LASF39:
 10132 00bc 705F7761 		.ascii	"p_waiting\000"
ARM GAS  C:\Users\Elis\AppData\Local\Temp\ccIy8Y2d.s 			page 180


 10132      6974696E 
 10132      6700
 10133              	.LASF197:
 10134 00c6 67646973 		.ascii	"gdispGDrawLine\000"
 10134      70474472 
 10134      61774C69 
 10134      6E6500
 10135              	.LASF99:
 10136 00d5 7768656E 		.ascii	"when\000"
 10136      00
 10137              	.LASF70:
 10138 00da 77746F62 		.ascii	"wtobjp\000"
 10138      6A7000
 10139              	.LASF187:
 10140 00e1 76746C69 		.ascii	"vtlist\000"
 10140      737400
 10141              	.LASF155:
 10142 00e8 4765744D 		.ascii	"GetMouseReading\000"
 10142      6F757365 
 10142      52656164 
 10142      696E6700 
 10143              	.LASF73:
 10144 00f8 64656C61 		.ascii	"delaytime_t\000"
 10144      7974696D 
 10144      655F7400 
 10145              	.LASF84:
 10146 0104 77616974 		.ascii	"waitqueue\000"
 10146      71756575 
 10146      6500
 10147              	.LASF157:
 10148 010e 75706274 		.ascii	"upbtns\000"
 10148      6E7300
 10149              	.LASF102:
 10150 0115 70726576 		.ascii	"prev\000"
 10150      00
 10151              	.LASF211:
 10152 011a 474E5520 		.ascii	"GNU C 4.7.4 20140401 (release) [ARM/embedded-4_7-br"
 10152      4320342E 
 10152      372E3420 
 10152      32303134 
 10152      30343031 
 10153 014d 616E6368 		.ascii	"anch revision 209195]\000"
 10153      20726576 
 10153      6973696F 
 10153      6E203230 
 10153      39313935 
 10154              	.LASF113:
 10155 0163 6F726965 		.ascii	"orientation\000"
 10155      6E746174 
 10155      696F6E00 
 10156              	.LASF111:
 10157 016f 6D665F66 		.ascii	"mf_font_s\000"
 10157      6F6E745F 
 10157      7300
 10158              	.LASF173:
 10159 0179 5F676D6F 		.ascii	"_gmousePostInitDriver\000"
 10159      75736550 
ARM GAS  C:\Users\Elis\AppData\Local\Temp\ccIy8Y2d.s 			page 181


 10159      6F737449 
 10159      6E697444 
 10159      72697665 
 10160              	.LASF103:
 10161 018f 4754696D 		.ascii	"GTimer\000"
 10161      657200
 10162              	.LASF94:
 10163 0196 6C697374 		.ascii	"listenflags\000"
 10163      656E666C 
 10163      61677300 
 10164              	.LASF63:
 10165 01a2 735F636E 		.ascii	"s_cnt\000"
 10165      7400
 10166              	.LASF92:
 10167 01a8 704C6973 		.ascii	"pListener\000"
 10167      74656E65 
 10167      7200
 10168              	.LASF181:
 10169 01b2 67696E70 		.ascii	"ginputSetFingerMode\000"
 10169      75745365 
 10169      7446696E 
 10169      6765724D 
 10169      6F646500 
 10170              	.LASF176:
 10171 01c6 67696E70 		.ascii	"ginputGetMouse\000"
 10171      75744765 
 10171      744D6F75 
 10171      736500
 10172              	.LASF56:
 10173 01d5 76745F74 		.ascii	"vt_time\000"
 10173      696D6500 
 10174              	.LASF11:
 10175 01dd 75696E74 		.ascii	"uint32_t\000"
 10175      33325F74 
 10175      00
 10176              	.LASF23:
 10177 01e6 6576656E 		.ascii	"eventmask_t\000"
 10177      746D6173 
 10177      6B5F7400 
 10178              	.LASF199:
 10179 01f2 67667853 		.ascii	"gfxSleepMilliseconds\000"
 10179      6C656570 
 10179      4D696C6C 
 10179      69736563 
 10179      6F6E6473 
 10180              	.LASF58:
 10181 0207 76745F70 		.ascii	"vt_par\000"
 10181      617200
 10182              	.LASF136:
 10183 020e 666C6F61 		.ascii	"float\000"
 10183      7400
 10184              	.LASF77:
 10185 0214 67667853 		.ascii	"gfxSem\000"
 10185      656D00
 10186              	.LASF88:
 10187 021b 6576656E 		.ascii	"event\000"
 10187      7400
ARM GAS  C:\Users\Elis\AppData\Local\Temp\ccIy8Y2d.s 			page 182


 10188              	.LASF163:
 10189 0221 43616C69 		.ascii	"CalibrationCalculate\000"
 10189      62726174 
 10189      696F6E43 
 10189      616C6375 
 10189      6C617465 
 10190              	.LASF21:
 10191 0236 74707269 		.ascii	"tprio_t\000"
 10191      6F5F7400 
 10192              	.LASF142:
 10193 023e 63616C69 		.ascii	"calibrate\000"
 10193      62726174 
 10193      6500
 10194              	.LASF74:
 10195 0248 73797374 		.ascii	"systemticks_t\000"
 10195      656D7469 
 10195      636B735F 
 10195      7400
 10196              	.LASF175:
 10197 0256 5F676D6F 		.ascii	"_gmouseInitDriver\000"
 10197      75736549 
 10197      6E697444 
 10197      72697665 
 10197      7200
 10198              	.LASF5:
 10199 0268 696E7431 		.ascii	"int16_t\000"
 10199      365F7400 
 10200              	.LASF138:
 10201 0270 636C6963 		.ascii	"clickpos\000"
 10201      6B706F73 
 10201      00
 10202              	.LASF14:
 10203 0279 6C6F6E67 		.ascii	"long long unsigned int\000"
 10203      206C6F6E 
 10203      6720756E 
 10203      7369676E 
 10203      65642069 
 10204              	.LASF90:
 10205 0290 47536F75 		.ascii	"GSourceHandle\000"
 10205      72636548 
 10205      616E646C 
 10205      6500
 10206              	.LASF130:
 10207 029e 6F626A73 		.ascii	"objsize\000"
 10207      697A6500 
 10208              	.LASF195:
 10209 02a6 67647269 		.ascii	"gdriverGetNext\000"
 10209      76657247 
 10209      65744E65 
 10209      787400
 10210              	.LASF25:
 10211 02b5 636E745F 		.ascii	"cnt_t\000"
 10211      7400
 10212              	.LASF76:
 10213 02bb 6C696D69 		.ascii	"limit\000"
 10213      7400
 10214              	.LASF193:
ARM GAS  C:\Users\Elis\AppData\Local\Temp\ccIy8Y2d.s 			page 183


 10215 02c1 67646973 		.ascii	"gdispGGetHeight\000"
 10215      70474765 
 10215      74486569 
 10215      67687400 
 10216              	.LASF31:
 10217 02d1 705F6E65 		.ascii	"p_newer\000"
 10217      77657200 
 10218              	.LASF154:
 10219 02d9 53656E64 		.ascii	"SendMouseEvent\000"
 10219      4D6F7573 
 10219      65457665 
 10219      6E7400
 10220              	.LASF2:
 10221 02e8 73697A65 		.ascii	"size_t\000"
 10221      5F7400
 10222              	.LASF68:
 10223 02ef 7264796D 		.ascii	"rdymsg\000"
 10223      736700
 10224              	.LASF10:
 10225 02f6 6C6F6E67 		.ascii	"long int\000"
 10225      20696E74 
 10225      00
 10226              	.LASF114:
 10227 02ff 47444953 		.ascii	"GDISP_ROTATE_0\000"
 10227      505F524F 
 10227      54415445 
 10227      5F3000
 10228              	.LASF15:
 10229 030e 626F6F6C 		.ascii	"bool_t\000"
 10229      5F7400
 10230              	.LASF178:
 10231 0315 67696E70 		.ascii	"ginputSetMouseDisplay\000"
 10231      75745365 
 10231      744D6F75 
 10231      73654469 
 10231      73706C61 
 10232              	.LASF16:
 10233 032b 5F426F6F 		.ascii	"_Bool\000"
 10233      6C00
 10234              	.LASF126:
 10235 0331 47457665 		.ascii	"GEventMouse\000"
 10235      6E744D6F 
 10235      75736500 
 10236              	.LASF147:
 10237 033d 7A5F6D69 		.ascii	"z_min\000"
 10237      6E00
 10238              	.LASF177:
 10239 0343 696E7374 		.ascii	"instance\000"
 10239      616E6365 
 10239      00
 10240              	.LASF207:
 10241 034c 6774696D 		.ascii	"gtimerIsActive\000"
 10241      65724973 
 10241      41637469 
 10241      766500
 10242              	.LASF64:
 10243 035b 4D757465 		.ascii	"Mutex\000"
ARM GAS  C:\Users\Elis\AppData\Local\Temp\ccIy8Y2d.s 			page 184


 10243      7800
 10244              	.LASF109:
 10245 0361 666F6E74 		.ascii	"font_t\000"
 10245      5F7400
 10246              	.LASF152:
 10247 0368 63616C73 		.ascii	"calsave\000"
 10247      61766500 
 10248              	.LASF148:
 10249 0370 7A5F746F 		.ascii	"z_touchon\000"
 10249      7563686F 
 10249      6E00
 10250              	.LASF33:
 10251 037a 705F6E61 		.ascii	"p_name\000"
 10251      6D6500
 10252              	.LASF172:
 10253 0381 73797374 		.ascii	"systeminstance\000"
 10253      656D696E 
 10253      7374616E 
 10253      636500
 10254              	.LASF132:
 10255 0390 706F7374 		.ascii	"postinit\000"
 10255      696E6974 
 10255      00
 10256              	.LASF134:
 10257 0399 474D6F75 		.ascii	"GMouseReading\000"
 10257      73655265 
 10257      6164696E 
 10257      6700
 10258              	.LASF46:
 10259 03a7 54687265 		.ascii	"ThreadsQueue\000"
 10259      61647351 
 10259      75657565 
 10259      00
 10260              	.LASF120:
 10261 03b4 6F726965 		.ascii	"orientation_t\000"
 10261      6E746174 
 10261      696F6E5F 
 10261      7400
 10262              	.LASF72:
 10263 03c2 63686172 		.ascii	"char\000"
 10263      00
 10264              	.LASF83:
 10265 03c7 474C6973 		.ascii	"GListener\000"
 10265      74656E65 
 10265      7200
 10266              	.LASF26:
 10267 03d1 54687265 		.ascii	"Thread\000"
 10267      616400
 10268              	.LASF160:
 10269 03d8 43616C69 		.ascii	"CalibrationTransform\000"
 10269      62726174 
 10269      696F6E54 
 10269      72616E73 
 10269      666F726D 
 10270              	.LASF60:
 10271 03ed 56544C69 		.ascii	"VTList\000"
 10271      737400
ARM GAS  C:\Users\Elis\AppData\Local\Temp\ccIy8Y2d.s 			page 185


 10272              	.LASF185:
 10273 03f4 4D6F7573 		.ascii	"MouseTimer\000"
 10273      6554696D 
 10273      657200
 10274              	.LASF91:
 10275 03ff 47536F75 		.ascii	"GSourceListener_t\000"
 10275      7263654C 
 10275      69737465 
 10275      6E65725F 
 10275      7400
 10276              	.LASF32:
 10277 0411 705F6F6C 		.ascii	"p_older\000"
 10277      64657200 
 10278              	.LASF34:
 10279 0419 705F7374 		.ascii	"p_state\000"
 10279      61746500 
 10280              	.LASF162:
 10281 0421 43616C69 		.ascii	"CalibrationCrossClear\000"
 10281      62726174 
 10281      696F6E43 
 10281      726F7373 
 10281      436C6561 
 10282              	.LASF3:
 10283 0437 75696E74 		.ascii	"uint8_t\000"
 10283      385F7400 
 10284              	.LASF205:
 10285 043f 67647269 		.ascii	"gdriverRegister\000"
 10285      76657252 
 10285      65676973 
 10285      74657200 
 10286              	.LASF168:
 10287 044f 6D617870 		.ascii	"maxpoints\000"
 10287      6F696E74 
 10287      7300
 10288              	.LASF45:
 10289 0459 705F6D70 		.ascii	"p_mpool\000"
 10289      6F6F6C00 
 10290              	.LASF43:
 10291 0461 705F6D74 		.ascii	"p_mtxlist\000"
 10291      786C6973 
 10291      7400
 10292              	.LASF118:
 10293 046b 47444953 		.ascii	"GDISP_ROTATE_PORTRAIT\000"
 10293      505F524F 
 10293      54415445 
 10293      5F504F52 
 10293      54524149 
 10294              	.LASF100:
 10295 0481 70657269 		.ascii	"period\000"
 10295      6F6400
 10296              	.LASF79:
 10297 0488 47457665 		.ascii	"GEventType\000"
 10297      6E745479 
 10297      706500
 10298              	.LASF159:
 10299 0493 4D6F7573 		.ascii	"MousePoll\000"
 10299      65506F6C 
ARM GAS  C:\Users\Elis\AppData\Local\Temp\ccIy8Y2d.s 			page 186


 10299      6C00
 10300              	.LASF48:
 10301 049d 72656761 		.ascii	"regarm_t\000"
 10301      726D5F74 
 10301      00
 10302              	.LASF170:
 10303 04a6 5F676D6F 		.ascii	"_gmouseDeinit\000"
 10303      75736544 
 10303      65696E69 
 10303      7400
 10304              	.LASF13:
 10305 04b4 6C6F6E67 		.ascii	"long long int\000"
 10305      206C6F6E 
 10305      6720696E 
 10305      7400
 10306              	.LASF22:
 10307 04c2 6D73675F 		.ascii	"msg_t\000"
 10307      7400
 10308              	.LASF50:
 10309 04c8 636F6E74 		.ascii	"context\000"
 10309      65787400 
 10310              	.LASF153:
 10311 04d0 63616C6C 		.ascii	"calload\000"
 10311      6F616400 
 10312              	.LASF98:
 10313 04d8 4754696D 		.ascii	"GTimer_t\000"
 10313      65725F74 
 10313      00
 10314              	.LASF35:
 10315 04e1 705F666C 		.ascii	"p_flags\000"
 10315      61677300 
 10316              	.LASF201:
 10317 04e9 67646973 		.ascii	"gdispOpenFont\000"
 10317      704F7065 
 10317      6E466F6E 
 10317      7400
 10318              	.LASF213:
 10319 04f7 433A5C43 		.ascii	"C:\\ChibiStudio\\workspace26\\Mobile_phone\000"
 10319      68696269 
 10319      53747564 
 10319      696F5C77 
 10319      6F726B73 
 10320              	.LASF75:
 10321 051f 73656D63 		.ascii	"semcount_t\000"
 10321      6F756E74 
 10321      5F7400
 10322              	.LASF151:
 10323 052a 66696E67 		.ascii	"finger_jitter\000"
 10323      65725F6A 
 10323      69747465 
 10323      7200
 10324              	.LASF166:
 10325 0538 666F6E74 		.ascii	"font1\000"
 10325      3100
 10326              	.LASF105:
 10327 053e 6A757374 		.ascii	"justifyLeft\000"
 10327      6966794C 
ARM GAS  C:\Users\Elis\AppData\Local\Temp\ccIy8Y2d.s 			page 187


 10327      65667400 
 10328              	.LASF203:
 10329 054a 67646973 		.ascii	"gdispGClear\000"
 10329      7047436C 
 10329      65617200 
 10330              	.LASF87:
 10331 0556 70617261 		.ascii	"param\000"
 10331      6D00
 10332              	.LASF145:
 10333 055c 474D6F75 		.ascii	"GMouseVMT\000"
 10333      7365564D 
 10333      5400
 10334              	.LASF61:
 10335 0566 53656D61 		.ascii	"Semaphore\000"
 10335      70686F72 
 10335      6500
 10336              	.LASF106:
 10337 0570 6A757374 		.ascii	"justifyCenter\000"
 10337      69667943 
 10337      656E7465 
 10337      7200
 10338              	.LASF149:
 10339 057e 7A5F746F 		.ascii	"z_touchoff\000"
 10339      7563686F 
 10339      666600
 10340              	.LASF140:
 10341 0589 63616C64 		.ascii	"caldata\000"
 10341      61746100 
 10342              	.LASF127:
 10343 0591 47447269 		.ascii	"GDriver\000"
 10343      76657200 
 10344              	.LASF41:
 10345 0599 705F6D73 		.ascii	"p_msg\000"
 10345      6700
 10346              	.LASF208:
 10347 059f 6774696D 		.ascii	"gtimerStart\000"
 10347      65725374 
 10347      61727400 
 10348              	.LASF17:
 10349 05ab 746D6F64 		.ascii	"tmode_t\000"
 10349      655F7400 
 10350              	.LASF121:
 10351 05b3 47446973 		.ascii	"GDisplay\000"
 10351      706C6179 
 10351      00
 10352              	.LASF158:
 10353 05bc 646E6274 		.ascii	"dnbtns\000"
 10353      6E7300
 10354              	.LASF200:
 10355 05c3 67646973 		.ascii	"gdispGFillStringBox\000"
 10355      70474669 
 10355      6C6C5374 
 10355      72696E67 
 10355      426F7800 
 10356              	.LASF210:
 10357 05d7 6774696D 		.ascii	"gtimerJab\000"
 10357      65724A61 
ARM GAS  C:\Users\Elis\AppData\Local\Temp\ccIy8Y2d.s 			page 188


 10357      6200
 10358              	.LASF7:
 10359 05e1 75696E74 		.ascii	"uint16_t\000"
 10359      31365F74 
 10359      00
 10360              	.LASF180:
 10361 05ea 67696E70 		.ascii	"ginputGetMouseStatus\000"
 10361      75744765 
 10361      744D6F75 
 10361      73655374 
 10361      61747573 
 10362              	.LASF49:
 10363 05ff 696E7463 		.ascii	"intctx\000"
 10363      747800
 10364              	.LASF216:
 10365 0606 6777696E 		.ascii	"gwinGetDefaultBgColor\000"
 10365      47657444 
 10365      65666175 
 10365      6C744267 
 10365      436F6C6F 
 10366              	.LASF141:
 10367 061c 474D6F75 		.ascii	"GMouseJitter\000"
 10367      73654A69 
 10367      74746572 
 10367      00
 10368              	.LASF124:
 10369 0629 62757474 		.ascii	"buttons\000"
 10369      6F6E7300 
 10370              	.LASF212:
 10371 0631 2E2E2F2E 		.ascii	"../../ugfx/src/ginput/ginput_mouse.c\000"
 10371      2E2F7567 
 10371      66782F73 
 10371      72632F67 
 10371      696E7075 
 10372              	.LASF139:
 10373 0656 636C6963 		.ascii	"clicktime\000"
 10373      6B74696D 
 10373      6500
 10374              	.LASF44:
 10375 0660 705F7265 		.ascii	"p_realprio\000"
 10375      616C7072 
 10375      696F00
 10376              	.LASF107:
 10377 066b 6A757374 		.ascii	"justifyRight\000"
 10377      69667952 
 10377      69676874 
 10377      00
 10378              	.LASF6:
 10379 0678 73686F72 		.ascii	"short int\000"
 10379      7420696E 
 10379      7400
 10380              	.LASF42:
 10381 0682 705F6570 		.ascii	"p_epending\000"
 10381      656E6469 
 10381      6E6700
 10382              	.LASF125:
 10383 068d 64697370 		.ascii	"display\000"
ARM GAS  C:\Users\Elis\AppData\Local\Temp\ccIy8Y2d.s 			page 189


 10383      6C617900 
 10384              	.LASF65:
 10385 0695 6D5F7175 		.ascii	"m_queue\000"
 10385      65756500 
 10386              	.LASF20:
 10387 069d 74736C69 		.ascii	"tslices_t\000"
 10387      6365735F 
 10387      7400
 10388              	.LASF188:
 10389 06a7 49544D5F 		.ascii	"ITM_RxBuffer\000"
 10389      52784275 
 10389      66666572 
 10389      00
 10390              	.LASF186:
 10391 06b4 474D4F55 		.ascii	"GMOUSEVMT_OnlyOne\000"
 10391      5345564D 
 10391      545F4F6E 
 10391      6C794F6E 
 10391      6500
 10392              	.LASF144:
 10393 06c6 6D6F7665 		.ascii	"move\000"
 10393      00
 10394              	.LASF156:
 10395 06cb 64696666 		.ascii	"diff\000"
 10395      00
 10396              	.LASF27:
 10397 06d0 705F6E65 		.ascii	"p_next\000"
 10397      787400
 10398              	.LASF30:
 10399 06d7 705F6374 		.ascii	"p_ctx\000"
 10399      7800
 10400              	.LASF116:
 10401 06dd 47444953 		.ascii	"GDISP_ROTATE_180\000"
 10401      505F524F 
 10401      54415445 
 10401      5F313830 
 10401      00
 10402              	.LASF174:
 10403 06ee 5F676D6F 		.ascii	"_gmouseDeInitDriver\000"
 10403      75736544 
 10403      65496E69 
 10403      74447269 
 10403      76657200 
 10404              	.LASF167:
 10405 0702 666F6E74 		.ascii	"font2\000"
 10405      3200
 10406              	.LASF209:
 10407 0708 67647269 		.ascii	"gdriverGetInstance\000"
 10407      76657247 
 10407      6574496E 
 10407      7374616E 
 10407      636500
 10408              	.LASF135:
 10409 071b 474D6F75 		.ascii	"GMouseCalibration\000"
 10409      73654361 
 10409      6C696272 
 10409      6174696F 
ARM GAS  C:\Users\Elis\AppData\Local\Temp\ccIy8Y2d.s 			page 190


 10409      6E00
 10410              	.LASF112:
 10411 072d 6A757374 		.ascii	"justify\000"
 10411      69667900 
 10412              	.LASF115:
 10413 0735 47444953 		.ascii	"GDISP_ROTATE_90\000"
 10413      505F524F 
 10413      54415445 
 10413      5F393000 
 10414              	.LASF0:
 10415 0745 756E7369 		.ascii	"unsigned int\000"
 10415      676E6564 
 10415      20696E74 
 10415      00
 10416              	.LASF190:
 10417 0752 67657665 		.ascii	"geventGetEventBuffer\000"
 10417      6E744765 
 10417      74457665 
 10417      6E744275 
 10417      66666572 
 10418              	.LASF137:
 10419 0767 474D6F75 		.ascii	"GMouse\000"
 10419      736500
 10420              	.LASF206:
 10421 076e 6774696D 		.ascii	"gtimerDeinit\000"
 10421      65724465 
 10421      696E6974 
 10421      00
 10422              	.LASF96:
 10423 077b 47536F75 		.ascii	"GSourceListener\000"
 10423      7263654C 
 10423      69737465 
 10423      6E657200 
 10424              	.LASF97:
 10425 078b 4754696D 		.ascii	"GTimerFunction\000"
 10425      65724675 
 10425      6E637469 
 10425      6F6E00
 10426              	.LASF179:
 10427 079a 67696E70 		.ascii	"ginputGetMouseDisplay\000"
 10427      75744765 
 10427      744D6F75 
 10427      73654469 
 10427      73706C61 
 10428              	.LASF131:
 10429 07b0 696E6974 		.ascii	"init\000"
 10429      00
 10430              	.LASF28:
 10431 07b5 705F7072 		.ascii	"p_prev\000"
 10431      657600
 10432              	.LASF51:
 10433 07bc 73697A65 		.ascii	"sizetype\000"
 10433      74797065 
 10433      00
 10434              	.LASF19:
 10435 07c5 74726566 		.ascii	"trefs_t\000"
 10435      735F7400 
ARM GAS  C:\Users\Elis\AppData\Local\Temp\ccIy8Y2d.s 			page 191


 10436              	.LASF53:
 10437 07cd 56697274 		.ascii	"VirtualTimer\000"
 10437      75616C54 
 10437      696D6572 
 10437      00
 10438              	.LASF12:
 10439 07da 6C6F6E67 		.ascii	"long unsigned int\000"
 10439      20756E73 
 10439      69676E65 
 10439      6420696E 
 10439      7400
 10440              	.LASF171:
 10441 07ec 64726976 		.ascii	"driverinstance\000"
 10441      6572696E 
 10441      7374616E 
 10441      636500
 10442              	.LASF119:
 10443 07fb 47444953 		.ascii	"GDISP_ROTATE_LANDSCAPE\000"
 10443      505F524F 
 10443      54415445 
 10443      5F4C414E 
 10443      44534341 
 10444              	.LASF192:
 10445 0812 67646973 		.ascii	"gdispGGetWidth\000"
 10445      70474765 
 10445      74576964 
 10445      746800
 10446              	.LASF9:
 10447 0821 696E7433 		.ascii	"int32_t\000"
 10447      325F7400 
 10448              	.LASF93:
 10449 0829 70536F75 		.ascii	"pSource\000"
 10449      72636500 
 10450              	.LASF182:
 10451 0831 67696E70 		.ascii	"ginputCalibrateMouse\000"
 10451      75744361 
 10451      6C696272 
 10451      6174654D 
 10451      6F757365 
 10452              	.LASF18:
 10453 0846 74737461 		.ascii	"tstate_t\000"
 10453      74655F74 
 10453      00
 10454              	.LASF214:
 10455 084f 47457665 		.ascii	"GEvent_u\000"
 10455      6E745F75 
 10455      00
 10456              	.LASF80:
 10457 0858 74797065 		.ascii	"type\000"
 10457      00
 10458              	.LASF169:
 10459 085d 5F676D6F 		.ascii	"_gmouseInit\000"
 10459      75736549 
 10459      6E697400 
 10460              	.LASF4:
 10461 0869 756E7369 		.ascii	"unsigned char\000"
 10461      676E6564 
ARM GAS  C:\Users\Elis\AppData\Local\Temp\ccIy8Y2d.s 			page 192


 10461      20636861 
 10461      7200
 10462              	.LASF129:
 10463 0877 47447269 		.ascii	"GDriverVMT\000"
 10463      76657256 
 10463      4D5400
 10464              	.LASF36:
 10465 0882 705F7265 		.ascii	"p_refs\000"
 10465      667300
 10466              	.LASF122:
 10467 0889 636F6C6F 		.ascii	"color_t\000"
 10467      725F7400 
 10468              	.LASF146:
 10469 0891 7A5F6D61 		.ascii	"z_max\000"
 10469      7800
 10470              	.LASF194:
 10471 0897 67657665 		.ascii	"geventGetSourceListener\000"
 10471      6E744765 
 10471      74536F75 
 10471      7263654C 
 10471      69737465 
 10472              	.LASF128:
 10473 08af 64726976 		.ascii	"driverchain\000"
 10473      65726368 
 10473      61696E00 
 10474              	.LASF37:
 10475 08bb 705F7072 		.ascii	"p_preempt\000"
 10475      65656D70 
 10475      7400
 10476              	.LASF108:
 10477 08c5 6A757374 		.ascii	"justify_t\000"
 10477      6966795F 
 10477      7400
 10478              	.LASF202:
 10479 08cf 67646973 		.ascii	"gdispGSetClip\000"
 10479      70475365 
 10479      74436C69 
 10479      7000
 10480              	.LASF71:
 10481 08dd 65776D61 		.ascii	"ewmask\000"
 10481      736B00
 10482              	.LASF184:
 10483 08e4 5F676D6F 		.ascii	"_gmouseWakeupI\000"
 10483      75736557 
 10483      616B6575 
 10483      704900
 10484              	.LASF86:
 10485 08f3 63616C6C 		.ascii	"callback\000"
 10485      6261636B 
 10485      00
 10486              	.LASF54:
 10487 08fc 76745F6E 		.ascii	"vt_next\000"
 10487      65787400 
 10488              	.LASF95:
 10489 0904 73726366 		.ascii	"srcflags\000"
 10489      6C616773 
 10489      00
ARM GAS  C:\Users\Elis\AppData\Local\Temp\ccIy8Y2d.s 			page 193


 10490              	.LASF164:
 10491 090d 63726F73 		.ascii	"cross\000"
 10491      7300
 10492              	.LASF67:
 10493 0913 6D5F6E65 		.ascii	"m_next\000"
 10493      787400
 10494              	.LASF161:
 10495 091a 43616C69 		.ascii	"CalibrationCrossDraw\000"
 10495      62726174 
 10495      696F6E43 
 10495      726F7373 
 10495      44726177 
 10496              	.LASF1:
 10497 092f 7369676E 		.ascii	"signed char\000"
 10497      65642063 
 10497      68617200 
 10498              	.LASF204:
 10499 093b 67646973 		.ascii	"gdispCloseFont\000"
 10499      70436C6F 
 10499      7365466F 
 10499      6E7400
 10500              	.LASF82:
 10501 094a 47457665 		.ascii	"GEventCallbackFn\000"
 10501      6E744361 
 10501      6C6C6261 
 10501      636B466E 
 10501      00
 10502              	.LASF8:
 10503 095b 73686F72 		.ascii	"short unsigned int\000"
 10503      7420756E 
 10503      7369676E 
 10503      65642069 
 10503      6E7400
 10504              	.LASF189:
 10505 096e 47444953 		.ascii	"GDISP\000"
 10505      5000
 10506              	.LASF150:
 10507 0974 70656E5F 		.ascii	"pen_jitter\000"
 10507      6A697474 
 10507      657200
 10508              	.LASF81:
 10509 097f 47457665 		.ascii	"GEvent\000"
 10509      6E7400
 10510              	.LASF78:
 10511 0986 706F696E 		.ascii	"point\000"
 10511      7400
 10512              	.LASF57:
 10513 098c 76745F66 		.ascii	"vt_func\000"
 10513      756E6300 
 10514              	.LASF55:
 10515 0994 76745F70 		.ascii	"vt_prev\000"
 10515      72657600 
 10516              	.LASF198:
 10517 099c 67646973 		.ascii	"gdispGFillArea\000"
 10517      70474669 
 10517      6C6C4172 
 10517      656100
ARM GAS  C:\Users\Elis\AppData\Local\Temp\ccIy8Y2d.s 			page 194


 10518              	.LASF123:
 10519 09ab 47457665 		.ascii	"GEventMouse_t\000"
 10519      6E744D6F 
 10519      7573655F 
 10519      7400
 10520              	.LASF104:
 10521 09b9 636F6F72 		.ascii	"coord_t\000"
 10521      645F7400 
 10522              	.LASF165:
 10523 09c1 706F696E 		.ascii	"points\000"
 10523      747300
 10524              	.LASF217:
 10525 09c8 6774696D 		.ascii	"gtimerJabI\000"
 10525      65724A61 
 10525      624900
 10526              	.LASF69:
 10527 09d3 65786974 		.ascii	"exitcode\000"
 10527      636F6465 
 10527      00
 10528              	.LASF89:
 10529 09dc 47536F75 		.ascii	"GSource\000"
 10529      72636500 
 10530              	.LASF47:
 10531 09e4 54687265 		.ascii	"ThreadsList\000"
 10531      6164734C 
 10531      69737400 
 10532              		.ident	"GCC: (GNU Tools for ARM Embedded Processors) 4.7.4 20140401 (release) [ARM/embedded-4_7-br
ARM GAS  C:\Users\Elis\AppData\Local\Temp\ccIy8Y2d.s 			page 195


DEFINED SYMBOLS
                            *ABS*:00000000 ginput_mouse.c
C:\Users\Elis\AppData\Local\Temp\ccIy8Y2d.s:19     .text.SendMouseEvent:00000000 $t
C:\Users\Elis\AppData\Local\Temp\ccIy8Y2d.s:24     .text.SendMouseEvent:00000000 SendMouseEvent
C:\Users\Elis\AppData\Local\Temp\ccIy8Y2d.s:167    .text.GetMouseReading:00000000 $t
C:\Users\Elis\AppData\Local\Temp\ccIy8Y2d.s:172    .text.GetMouseReading:00000000 GetMouseReading
C:\Users\Elis\AppData\Local\Temp\ccIy8Y2d.s:809    .text.GetMouseReading:000003d0 $d
C:\Users\Elis\AppData\Local\Temp\ccIy8Y2d.s:817    .text.MousePoll:00000000 $t
C:\Users\Elis\AppData\Local\Temp\ccIy8Y2d.s:822    .text.MousePoll:00000000 MousePoll
C:\Users\Elis\AppData\Local\Temp\ccIy8Y2d.s:880    .text.CalibrateMouse:00000000 $t
C:\Users\Elis\AppData\Local\Temp\ccIy8Y2d.s:885    .text.CalibrateMouse:00000000 CalibrateMouse
C:\Users\Elis\AppData\Local\Temp\ccIy8Y2d.s:1254   .text.CalibrateMouse:00000268 $d
C:\Users\Elis\AppData\Local\Temp\ccIy8Y2d.s:1261   .text.CalibrateMouse:00000274 $t
C:\Users\Elis\AppData\Local\Temp\ccIy8Y2d.s:2323   .text.CalibrateMouse:00000880 $d
C:\Users\Elis\AppData\Local\Temp\ccIy8Y2d.s:2331   .text._gmouseInit:00000000 $t
C:\Users\Elis\AppData\Local\Temp\ccIy8Y2d.s:2337   .text._gmouseInit:00000000 _gmouseInit
C:\Users\Elis\AppData\Local\Temp\ccIy8Y2d.s:2364   .text._gmouseInit:00000014 $d
C:\Users\Elis\AppData\Local\Temp\ccIy8Y2d.s:2371   .text._gmouseDeinit:00000000 $t
C:\Users\Elis\AppData\Local\Temp\ccIy8Y2d.s:2377   .text._gmouseDeinit:00000000 _gmouseDeinit
C:\Users\Elis\AppData\Local\Temp\ccIy8Y2d.s:2951   .bss.MouseTimer:00000000 .LANCHOR0
C:\Users\Elis\AppData\Local\Temp\ccIy8Y2d.s:2395   .text._gmouseInitDriver:00000000 $t
C:\Users\Elis\AppData\Local\Temp\ccIy8Y2d.s:2401   .text._gmouseInitDriver:00000000 _gmouseInitDriver
C:\Users\Elis\AppData\Local\Temp\ccIy8Y2d.s:2469   .text._gmouseInitDriver:00000048 $d
C:\Users\Elis\AppData\Local\Temp\ccIy8Y2d.s:2475   .text._gmousePostInitDriver:00000000 $t
C:\Users\Elis\AppData\Local\Temp\ccIy8Y2d.s:2481   .text._gmousePostInitDriver:00000000 _gmousePostInitDriver
C:\Users\Elis\AppData\Local\Temp\ccIy8Y2d.s:2545   .text._gmouseDeInitDriver:00000000 $t
C:\Users\Elis\AppData\Local\Temp\ccIy8Y2d.s:2551   .text._gmouseDeInitDriver:00000000 _gmouseDeInitDriver
C:\Users\Elis\AppData\Local\Temp\ccIy8Y2d.s:2564   .text.ginputGetMouse:00000000 $t
C:\Users\Elis\AppData\Local\Temp\ccIy8Y2d.s:2570   .text.ginputGetMouse:00000000 ginputGetMouse
C:\Users\Elis\AppData\Local\Temp\ccIy8Y2d.s:2599   .text.ginputGetMouse:00000010 $d
C:\Users\Elis\AppData\Local\Temp\ccIy8Y2d.s:2604   .text.ginputSetMouseDisplay:00000000 $t
C:\Users\Elis\AppData\Local\Temp\ccIy8Y2d.s:2610   .text.ginputSetMouseDisplay:00000000 ginputSetMouseDisplay
C:\Users\Elis\AppData\Local\Temp\ccIy8Y2d.s:2652   .text.ginputSetMouseDisplay:0000001c $d
C:\Users\Elis\AppData\Local\Temp\ccIy8Y2d.s:2657   .text.ginputGetMouseDisplay:00000000 $t
C:\Users\Elis\AppData\Local\Temp\ccIy8Y2d.s:2663   .text.ginputGetMouseDisplay:00000000 ginputGetMouseDisplay
C:\Users\Elis\AppData\Local\Temp\ccIy8Y2d.s:2693   .text.ginputGetMouseStatus:00000000 $t
C:\Users\Elis\AppData\Local\Temp\ccIy8Y2d.s:2699   .text.ginputGetMouseStatus:00000000 ginputGetMouseStatus
C:\Users\Elis\AppData\Local\Temp\ccIy8Y2d.s:2783   .text.ginputSetFingerMode:00000000 $t
C:\Users\Elis\AppData\Local\Temp\ccIy8Y2d.s:2789   .text.ginputSetFingerMode:00000000 ginputSetFingerMode
C:\Users\Elis\AppData\Local\Temp\ccIy8Y2d.s:2831   .text.ginputCalibrateMouse:00000000 $t
C:\Users\Elis\AppData\Local\Temp\ccIy8Y2d.s:2837   .text.ginputCalibrateMouse:00000000 ginputCalibrateMouse
C:\Users\Elis\AppData\Local\Temp\ccIy8Y2d.s:2878   .text._gmouseWakeup:00000000 $t
C:\Users\Elis\AppData\Local\Temp\ccIy8Y2d.s:2884   .text._gmouseWakeup:00000000 _gmouseWakeup
C:\Users\Elis\AppData\Local\Temp\ccIy8Y2d.s:2909   .text._gmouseWakeup:00000010 $d
C:\Users\Elis\AppData\Local\Temp\ccIy8Y2d.s:2914   .text._gmouseWakeupI:00000000 $t
C:\Users\Elis\AppData\Local\Temp\ccIy8Y2d.s:2920   .text._gmouseWakeupI:00000000 _gmouseWakeupI
C:\Users\Elis\AppData\Local\Temp\ccIy8Y2d.s:2945   .text._gmouseWakeupI:00000010 $d
C:\Users\Elis\AppData\Local\Temp\ccIy8Y2d.s:2950   .bss.MouseTimer:00000000 $d
C:\Users\Elis\AppData\Local\Temp\ccIy8Y2d.s:2954   .bss.MouseTimer:00000000 MouseTimer
C:\Users\Elis\AppData\Local\Temp\ccIy8Y2d.s:2957   .rodata.str1.4:00000000 $d
                     .debug_frame:00000010 $d
C:\Users\Elis\AppData\Local\Temp\ccIy8Y2d.s:816    .text.GetMouseReading:000003d8 $t
C:\Users\Elis\AppData\Local\Temp\ccIy8Y2d.s:2330   .text.CalibrateMouse:00000888 $t
C:\Users\Elis\AppData\Local\Temp\ccIy8Y2d.s:2370   .text._gmouseInit:0000001c $t
C:\Users\Elis\AppData\Local\Temp\ccIy8Y2d.s:2603   .text.ginputGetMouse:00000014 $t
C:\Users\Elis\AppData\Local\Temp\ccIy8Y2d.s:2913   .text._gmouseWakeup:00000014 $t
C:\Users\Elis\AppData\Local\Temp\ccIy8Y2d.s:2949   .text._gmouseWakeupI:00000014 $t
ARM GAS  C:\Users\Elis\AppData\Local\Temp\ccIy8Y2d.s 			page 196



UNDEFINED SYMBOLS
geventGetEventBuffer
geventSendEvent
__aeabi_i2f
__aeabi_fmul
__aeabi_fadd
__aeabi_f2iz
gdispGGetWidth
gdispGGetHeight
geventGetSourceListener
gdispGGetOrientation
vtlist
gdriverGetNext
__aeabi_fsub
__aeabi_fdiv
gdispOpenFont
gdispGSetClip
gdispGClear
gdispGFillStringBox
gdispGDrawLine
gfxSleepMilliseconds
gdispGFillArea
gdispCloseFont
gwinGetDefaultBgColor
gdriverRegister
GMOUSEVMT_OnlyOne
GDISP
gtimerDeinit
gtimerIsActive
gtimerStart
gdriverGetInstance
gtimerJab
gtimerJabI
