ARM GAS  C:\Users\Elis\AppData\Local\Temp\ccbEl73j.s 			page 1


   1              		.syntax unified
   2              		.cpu cortex-m4
   3              		.fpu softvfp
   4              		.eabi_attribute 20, 1
   5              		.eabi_attribute 21, 1
   6              		.eabi_attribute 23, 3
   7              		.eabi_attribute 24, 1
   8              		.eabi_attribute 25, 1
   9              		.eabi_attribute 26, 1
  10              		.eabi_attribute 30, 2
  11              		.eabi_attribute 34, 1
  12              		.eabi_attribute 18, 4
  13              		.thumb
  14              		.file	"gmouse_lld_ADS7843.c"
  15              		.text
  16              	.Ltext0:
  17              		.cfi_sections	.debug_frame
  18              		.section	.text.init_board,"ax",%progbits
  19              		.align	2
  20              		.p2align 4,,15
  21              		.thumb
  22              		.thumb_func
  23              		.type	init_board, %function
  24              	init_board:
  25              	.LFB118:
  26              		.file 1 "../../ugfx/boards/base/STM32F407/gmouse_lld_ADS7843_board.h"
  27              		.loc 1 48 0
  28              		.cfi_startproc
  29              		@ args = 0, pretend = 0, frame = 0
  30              		@ frame_needed = 0, uses_anonymous_args = 0
  31              	.LVL0:
  32 0000 08B5     		push	{r3, lr}
  33              	.LCFI0:
  34              		.cfi_def_cfa_offset 8
  35              		.cfi_offset 3, -8
  36              		.cfi_offset 14, -4
  37              		.loc 1 51 0
  38 0002 09B1     		cbz	r1, .L5
  39              		.loc 1 52 0
  40 0004 0020     		movs	r0, #0
  41              	.LVL1:
  42              		.loc 1 61 0
  43 0006 08BD     		pop	{r3, pc}
  44              	.LVL2:
  45              	.L5:
  46              	.LBB8:
  47              	.LBB9:
  48              		.loc 1 54 0
  49 0008 4FF48060 		mov	r0, #1024
  50              	.LVL3:
  51 000c C4F20200 		movt	r0, 16386
  52 0010 4FF40051 		mov	r1, #8192
  53              	.LVL4:
  54 0014 40F28222 		movw	r2, #642
  55 0018 FFF7FEFF 		bl	_pal_lld_setgroupmode
  56              	.LVL5:
  57              		.loc 1 55 0
ARM GAS  C:\Users\Elis\AppData\Local\Temp\ccbEl73j.s 			page 2


  58 001c 4FF48060 		mov	r0, #1024
  59 0020 C4F20200 		movt	r0, 16386
  60 0024 4FF48041 		mov	r1, #16384
  61 0028 40F28222 		movw	r2, #642
  62 002c FFF7FEFF 		bl	_pal_lld_setgroupmode
  63              	.LVL6:
  64              		.loc 1 56 0
  65 0030 4FF48060 		mov	r0, #1024
  66 0034 C4F20200 		movt	r0, 16386
  67 0038 4FF40041 		mov	r1, #32768
  68 003c 40F28222 		movw	r2, #642
  69 0040 FFF7FEFF 		bl	_pal_lld_setgroupmode
  70              	.LVL7:
  71              		.loc 1 57 0
  72 0044 4FF40060 		mov	r0, #2048
  73 0048 1021     		movs	r1, #16
  74 004a 0122     		movs	r2, #1
  75 004c C4F20200 		movt	r0, 16386
  76 0050 FFF7FEFF 		bl	_pal_lld_setgroupmode
  77              	.LVL8:
  78              		.loc 1 59 0
  79 0054 0248     		ldr	r0, .L6
  80 0056 0349     		ldr	r1, .L6+4
  81 0058 FFF7FEFF 		bl	spiStart
  82              	.LVL9:
  83 005c 0120     		movs	r0, #1
  84 005e 08BD     		pop	{r3, pc}
  85              	.L7:
  86              		.align	2
  87              	.L6:
  88 0060 00000000 		.word	SPID2
  89 0064 00000000 		.word	.LANCHOR0
  90              	.LBE9:
  91              	.LBE8:
  92              		.cfi_endproc
  93              	.LFE118:
  94              		.size	init_board, .-init_board
  95 0068 AFF30080 		.section	.text.MouseXYZ,"ax",%progbits
  95      AFF30080 
  96              		.align	2
  97              		.p2align 4,,15
  98              		.thumb
  99              		.thumb_func
 100              		.type	MouseXYZ, %function
 101              	MouseXYZ:
 102              	.LFB123:
 103              		.file 2 "../../ugfx/drivers/ginput/touch/ADS7843/gmouse_lld_ADS7843.c"
 104              		.loc 2 23 0
 105              		.cfi_startproc
 106              		@ args = 0, pretend = 0, frame = 0
 107              		@ frame_needed = 0, uses_anonymous_args = 0
 108              	.LVL10:
 109 0000 2DE9F843 		push	{r3, r4, r5, r6, r7, r8, r9, lr}
 110              	.LCFI1:
 111              		.cfi_def_cfa_offset 32
 112              		.cfi_offset 3, -32
 113              		.cfi_offset 4, -28
ARM GAS  C:\Users\Elis\AppData\Local\Temp\ccbEl73j.s 			page 3


 114              		.cfi_offset 5, -24
 115              		.cfi_offset 6, -20
 116              		.cfi_offset 7, -16
 117              		.cfi_offset 8, -12
 118              		.cfi_offset 9, -8
 119              		.cfi_offset 14, -4
 120              	.LBB30:
 121              	.LBB31:
 122              		.loc 1 66 0
 123 0004 4FF40067 		mov	r7, #2048
 124 0008 C4F20207 		movt	r7, 16386
 125              	.LBE31:
 126              	.LBE30:
 127              		.loc 2 27 0
 128 000c 0023     		movs	r3, #0
 129              	.LBB33:
 130              	.LBB32:
 131              		.loc 1 66 0
 132 000e 3A69     		ldr	r2, [r7, #16]
 133              	.LBE32:
 134              	.LBE33:
 135              		.loc 2 27 0
 136 0010 CB80     		strh	r3, [r1, #6]	@ movhi
 137              		.loc 2 28 0
 138 0012 8B80     		strh	r3, [r1, #4]	@ movhi
 139              		.loc 2 30 0
 140 0014 9306     		lsls	r3, r2, #26
 141              		.loc 2 23 0
 142 0016 0D46     		mov	r5, r1
 143              		.loc 2 30 0
 144 0018 47D4     		bmi	.L9
 145              	.LVL11:
 146              	.LBB34:
 147              	.LBB35:
 148              	.LBB36:
 149              	.LBB37:
 150              		.loc 1 88 0
 151 001a 254C     		ldr	r4, .L10
 152              		.loc 1 89 0
 153 001c 254E     		ldr	r6, .L10+4
 154              	.LBE37:
 155              	.LBE36:
 156              	.LBB40:
 157              	.LBB41:
 158              		.loc 1 72 0
 159 001e 2648     		ldr	r0, .L10+8
 160              	.LVL12:
 161              	.LBE41:
 162              	.LBE40:
 163              		.loc 2 31 0
 164 0020 0121     		movs	r1, #1
 165              	.LVL13:
 166 0022 A980     		strh	r1, [r5, #4]	@ movhi
 167              	.LBB44:
 168              	.LBB42:
 169              		.loc 1 73 0
 170 0024 4FF01008 		mov	r8, #16
ARM GAS  C:\Users\Elis\AppData\Local\Temp\ccbEl73j.s 			page 4


 171              		.loc 1 72 0
 172 0028 FFF7FEFF 		bl	spiAcquireBus
 173              	.LVL14:
 174              	.LBE42:
 175              	.LBE44:
 176              	.LBB45:
 177              	.LBB38:
 178              		.loc 1 88 0
 179 002c 4FF0D109 		mov	r9, #209
 180              	.LBE38:
 181              	.LBE45:
 182              	.LBB46:
 183              	.LBB43:
 184              		.loc 1 73 0
 185 0030 A7F81A80 		strh	r8, [r7, #26]	@ movhi
 186              	.LVL15:
 187              	.LBE43:
 188              	.LBE46:
 189              	.LBB47:
 190              	.LBB39:
 191              		.loc 1 89 0
 192 0034 2048     		ldr	r0, .L10+8
 193              		.loc 1 88 0
 194 0036 84F80090 		strb	r9, [r4, #0]
 195              		.loc 1 89 0
 196 003a 0321     		movs	r1, #3
 197 003c 2246     		mov	r2, r4
 198 003e 3346     		mov	r3, r6
 199 0040 FFF7FEFF 		bl	spiExchange
 200              	.LVL16:
 201              	.LBE39:
 202              	.LBE47:
 203              	.LBB48:
 204              	.LBB49:
 205 0044 1C48     		ldr	r0, .L10+8
 206              		.loc 1 88 0
 207 0046 84F80090 		strb	r9, [r4, #0]
 208              		.loc 1 89 0
 209 004a 0321     		movs	r1, #3
 210 004c 2246     		mov	r2, r4
 211 004e 3346     		mov	r3, r6
 212 0050 FFF7FEFF 		bl	spiExchange
 213              	.LVL17:
 214              		.loc 1 91 0
 215 0054 B378     		ldrb	r3, [r6, #2]	@ zero_extendqisi2
 216 0056 7278     		ldrb	r2, [r6, #1]	@ zero_extendqisi2
 217              	.LBE49:
 218              	.LBE48:
 219              	.LBB51:
 220              	.LBB52:
 221              		.loc 1 89 0
 222 0058 1748     		ldr	r0, .L10+8
 223              	.LBE52:
 224              	.LBE51:
 225              	.LBB54:
 226              	.LBB50:
 227              		.loc 1 91 0
ARM GAS  C:\Users\Elis\AppData\Local\Temp\ccbEl73j.s 			page 5


 228 005a D908     		lsrs	r1, r3, #3
 229 005c 41EA4213 		orr	r3, r1, r2, lsl #5
 230              	.LBE50:
 231              	.LBE54:
 232              		.loc 2 36 0
 233 0060 2B80     		strh	r3, [r5, #0]	@ movhi
 234              	.LVL18:
 235              	.LBB55:
 236              	.LBB53:
 237              		.loc 1 88 0
 238 0062 4FF09109 		mov	r9, #145
 239              		.loc 1 89 0
 240 0066 0321     		movs	r1, #3
 241 0068 2246     		mov	r2, r4
 242 006a 3346     		mov	r3, r6
 243              		.loc 1 88 0
 244 006c 84F80090 		strb	r9, [r4, #0]
 245              		.loc 1 89 0
 246 0070 FFF7FEFF 		bl	spiExchange
 247              	.LVL19:
 248              	.LBE53:
 249              	.LBE55:
 250              	.LBB56:
 251              	.LBB57:
 252 0074 1048     		ldr	r0, .L10+8
 253              		.loc 1 88 0
 254 0076 84F80090 		strb	r9, [r4, #0]
 255              		.loc 1 89 0
 256 007a 0321     		movs	r1, #3
 257 007c 2246     		mov	r2, r4
 258 007e 3346     		mov	r3, r6
 259 0080 FFF7FEFF 		bl	spiExchange
 260              	.LVL20:
 261              		.loc 1 91 0
 262 0084 B178     		ldrb	r1, [r6, #2]	@ zero_extendqisi2
 263 0086 7278     		ldrb	r2, [r6, #1]	@ zero_extendqisi2
 264              	.LBE57:
 265              	.LBE56:
 266              	.LBB59:
 267              	.LBB60:
 268              		.loc 1 89 0
 269 0088 0B48     		ldr	r0, .L10+8
 270              	.LBE60:
 271              	.LBE59:
 272              	.LBB62:
 273              	.LBB58:
 274              		.loc 1 91 0
 275 008a CB08     		lsrs	r3, r1, #3
 276 008c 43EA4211 		orr	r1, r3, r2, lsl #5
 277              	.LBE58:
 278              	.LBE62:
 279              		.loc 2 39 0
 280 0090 6980     		strh	r1, [r5, #2]	@ movhi
 281              	.LVL21:
 282              	.LBB63:
 283              	.LBB61:
 284              		.loc 1 89 0
ARM GAS  C:\Users\Elis\AppData\Local\Temp\ccbEl73j.s 			page 6


 285 0092 2246     		mov	r2, r4
 286 0094 0321     		movs	r1, #3
 287 0096 3346     		mov	r3, r6
 288              		.loc 1 88 0
 289 0098 8025     		movs	r5, #128
 290              	.LVL22:
 291 009a 2570     		strb	r5, [r4, #0]
 292              		.loc 1 89 0
 293 009c FFF7FEFF 		bl	spiExchange
 294              	.LVL23:
 295              	.LBE61:
 296              	.LBE63:
 297              	.LBB64:
 298              	.LBB65:
 299              		.loc 1 79 0
 300 00a0 A7F81880 		strh	r8, [r7, #24]	@ movhi
 301              		.loc 1 80 0
 302 00a4 0448     		ldr	r0, .L10+8
 303 00a6 FFF7FEFF 		bl	spiReleaseBus
 304              	.LVL24:
 305              	.L9:
 306              	.LBE65:
 307              	.LBE64:
 308              	.LBE35:
 309              	.LBE34:
 310              		.loc 2 46 0
 311 00aa 0120     		movs	r0, #1
 312 00ac BDE8F883 		pop	{r3, r4, r5, r6, r7, r8, r9, pc}
 313              	.L11:
 314              		.align	2
 315              	.L10:
 316 00b0 00000000 		.word	.LANCHOR1
 317 00b4 00000000 		.word	.LANCHOR2
 318 00b8 00000000 		.word	SPID2
 319              		.cfi_endproc
 320              	.LFE123:
 321              		.size	MouseXYZ, .-MouseXYZ
 322              		.global	GMOUSEVMT_OnlyOne
 323 00bc AFF30080 		.section	.bss.txbuf.8121,"aw",%nobits
 324              		.align	2
 325              		.set	.LANCHOR1,. + 0
 326              		.type	txbuf.8121, %object
 327              		.size	txbuf.8121, 3
 328              	txbuf.8121:
 329 0000 000000   		.space	3
 330 0003 00       		.section	.rodata.GMOUSEVMT_OnlyOne,"a",%progbits
 331              		.align	2
 332              		.type	GMOUSEVMT_OnlyOne, %object
 333              		.size	GMOUSEVMT_OnlyOne, 60
 334              	GMOUSEVMT_OnlyOne:
 335 0000 6D00     		.short	109
 336 0002 5103     		.short	849
 337 0004 38000000 		.word	56
 338 0008 00000000 		.word	_gmouseInitDriver
 339 000c 00000000 		.word	_gmousePostInitDriver
 340 0010 00000000 		.word	_gmouseDeInitDriver
 341 0014 0100     		.short	1
ARM GAS  C:\Users\Elis\AppData\Local\Temp\ccbEl73j.s 			page 7


 342 0016 0000     		.short	0
 343 0018 0100     		.short	1
 344 001a 0000     		.short	0
 345 001c 0800     		.short	8
 346 001e 0600     		.short	6
 347 0020 0400     		.short	4
 348 0022 0E00     		.short	14
 349 0024 1200     		.short	18
 350 0026 0E00     		.short	14
 351 0028 00000000 		.word	init_board
 352 002c 00000000 		.word	0
 353 0030 00000000 		.word	MouseXYZ
 354 0034 00000000 		.word	0
 355 0038 00000000 		.word	0
 356              		.section	.rodata.spicfg,"a",%progbits
 357              		.align	2
 358              		.set	.LANCHOR0,. + 0
 359              		.type	spicfg, %object
 360              		.size	spicfg, 12
 361              	spicfg:
 362 0000 00000000 		.word	0
 363 0004 00080240 		.word	1073874944
 364 0008 0400     		.short	4
 365 000a 1800     		.short	24
 366              		.section	.bss.rxbuf.8122,"aw",%nobits
 367              		.align	2
 368              		.set	.LANCHOR2,. + 0
 369              		.type	rxbuf.8122, %object
 370              		.size	rxbuf.8122, 3
 371              	rxbuf.8122:
 372 0000 000000   		.space	3
 373 0003 00       		.text
 374              	.Letext0:
 375              		.file 3 "c:\\chibistudio\\tools\\gnu tools arm embedded\\4.7 2014q2\\bin\\../lib/gcc/arm-none-eabi
 376              		.file 4 "c:\\chibistudio\\tools\\gnu tools arm embedded\\4.7 2014q2\\bin\\../lib/gcc/arm-none-eabi
 377              		.file 5 "../../chibios/os/ports/GCC/ARMCMx/chtypes.h"
 378              		.file 6 "../../chibios/os/kernel/include/chlists.h"
 379              		.file 7 "../../chibios/os/kernel/include/chthreads.h"
 380              		.file 8 "../../chibios/os/ports/GCC/ARMCMx/chcore_v7m.h"
 381              		.file 9 "../../chibios/os/kernel/include/chmtx.h"
 382              		.file 10 "../../chibios/os/hal/platforms/STM32F4xx/stm32f4xx.h"
 383              		.file 11 "../../chibios/os/hal/platforms/STM32F4xx/stm32_dma.h"
 384              		.file 12 "../../chibios/os/hal/platforms/STM32/GPIOv2/pal_lld.h"
 385              		.file 13 "../../chibios/os/hal/include/spi.h"
 386              		.file 14 "../../chibios/os/hal/platforms/STM32/SPIv1/spi_lld.h"
 387              		.file 15 "../../ugfx/src/gos/gos_chibios.h"
 388              		.file 16 "../../ugfx/src/gdisp/gdisp.h"
 389              		.file 17 "../../ugfx/src/gdriver/gdriver.h"
 390              		.file 18 "../../ugfx/src/ginput/ginput_driver_mouse.h"
 391              		.file 19 "../../chibios/os/ports/common/ARMCMx/CMSIS/include/core_cm4.h"