ARM GAS  C:\Users\Elis\AppData\Local\Temp\ccaFFvUy.s 			page 1


   1              		.syntax unified
   2              		.cpu cortex-m4
   3              		.fpu softvfp
   4              		.eabi_attribute 20, 1
   5              		.eabi_attribute 21, 1
   6              		.eabi_attribute 23, 3
   7              		.eabi_attribute 24, 1
   8              		.eabi_attribute 25, 1
   9              		.eabi_attribute 26, 1
  10              		.eabi_attribute 30, 2
  11              		.eabi_attribute 34, 1
  12              		.eabi_attribute 18, 4
  13              		.thumb
  14              		.file	"gos_chibios.c"
  15              		.text
  16              	.Ltext0:
  17              		.cfi_sections	.debug_frame
  18              		.section	.text._gosInit,"ax",%progbits
  19              		.align	2
  20              		.p2align 4,,15
  21              		.global	_gosInit
  22              		.thumb
  23              		.thumb_func
  24              		.type	_gosInit, %function
  25              	_gosInit:
  26              	.LFB118:
  27              		.file 1 "../../ugfx/src/gos/gos_chibios.c"
  28              		.loc 1 37 0
  29              		.cfi_startproc
  30              		@ args = 0, pretend = 0, frame = 0
  31              		@ frame_needed = 0, uses_anonymous_args = 0
  32 0000 08B5     		push	{r3, lr}
  33              	.LCFI0:
  34              		.cfi_def_cfa_offset 8
  35              		.cfi_offset 3, -8
  36              		.cfi_offset 14, -4
  37              		.loc 1 41 0
  38 0002 054B     		ldr	r3, .L5
  39 0004 9869     		ldr	r0, [r3, #24]
  40 0006 00B1     		cbz	r0, .L4
  41 0008 08BD     		pop	{r3, pc}
  42              	.L4:
  43              		.loc 1 42 0
  44 000a FFF7FEFF 		bl	halInit
  45              	.LVL0:
  46              		.loc 1 54 0
  47 000e BDE80840 		pop	{r3, lr}
  48              		.loc 1 43 0
  49 0012 FFF7FEBF 		b	chSysInit
  50              	.LVL1:
  51              	.L6:
  52 0016 00BF     		.align	2
  53              	.L5:
  54 0018 00000000 		.word	rlist
  55              		.cfi_endproc
  56              	.LFE118:
  57              		.size	_gosInit, .-_gosInit
ARM GAS  C:\Users\Elis\AppData\Local\Temp\ccaFFvUy.s 			page 2


  58 001c AFF30080 		.section	.text._gosDeinit,"ax",%progbits
  59              		.align	2
  60              		.p2align 4,,15
  61              		.global	_gosDeinit
  62              		.thumb
  63              		.thumb_func
  64              		.type	_gosDeinit, %function
  65              	_gosDeinit:
  66              	.LFB119:
  67              		.loc 1 57 0
  68              		.cfi_startproc
  69              		@ args = 0, pretend = 0, frame = 0
  70              		@ frame_needed = 0, uses_anonymous_args = 0
  71              		@ link register save eliminated.
  72 0000 7047     		bx	lr
  73              		.cfi_endproc
  74              	.LFE119:
  75              		.size	_gosDeinit, .-_gosDeinit
  76 0002 00BFAFF3 		.section	.text.gfxRealloc,"ax",%progbits
  76      0080AFF3 
  76      0080AFF3 
  76      0080
  77              		.align	2
  78              		.p2align 4,,15
  79              		.global	gfxRealloc
  80              		.thumb
  81              		.thumb_func
  82              		.type	gfxRealloc, %function
  83              	gfxRealloc:
  84              	.LFB120:
  85              		.loc 1 62 0
  86              		.cfi_startproc
  87              		@ args = 0, pretend = 0, frame = 0
  88              		@ frame_needed = 0, uses_anonymous_args = 0
  89              	.LVL2:
  90              		.loc 1 65 0
  91 0000 8A42     		cmp	r2, r1
  92              		.loc 1 62 0
  93 0002 70B5     		push	{r4, r5, r6, lr}
  94              	.LCFI1:
  95              		.cfi_def_cfa_offset 16
  96              		.cfi_offset 4, -16
  97              		.cfi_offset 5, -12
  98              		.cfi_offset 6, -8
  99              		.cfi_offset 14, -4
 100              		.loc 1 62 0
 101 0004 0D46     		mov	r5, r1
 102 0006 0446     		mov	r4, r0
 103              		.loc 1 65 0
 104 0008 01D8     		bhi	.L12
 105              		.loc 1 76 0
 106 000a 2046     		mov	r0, r4
 107 000c 70BD     		pop	{r4, r5, r6, pc}
 108              	.L12:
 109              		.loc 1 68 0
 110 000e 0020     		movs	r0, #0
 111 0010 1146     		mov	r1, r2
ARM GAS  C:\Users\Elis\AppData\Local\Temp\ccaFFvUy.s 			page 3


 112              	.LVL3:
 113 0012 FFF7FEFF 		bl	chHeapAlloc
 114              	.LVL4:
 115              		.loc 1 69 0
 116 0016 0646     		mov	r6, r0
 117 0018 00B1     		cbz	r0, .L11
 118              		.loc 1 72 0
 119 001a 15B9     		cbnz	r5, .L13
 120              	.L11:
 121 001c 3446     		mov	r4, r6
 122              	.LVL5:
 123              		.loc 1 76 0
 124 001e 2046     		mov	r0, r4
 125              	.LVL6:
 126 0020 70BD     		pop	{r4, r5, r6, pc}
 127              	.LVL7:
 128              	.L13:
 129              		.loc 1 73 0
 130 0022 2146     		mov	r1, r4
 131 0024 2A46     		mov	r2, r5
 132 0026 3446     		mov	r4, r6
 133              	.LVL8:
 134 0028 FFF7FEFF 		bl	memcpy
 135              	.LVL9:
 136              		.loc 1 76 0
 137 002c 2046     		mov	r0, r4
 138 002e 70BD     		pop	{r4, r5, r6, pc}
 139              		.cfi_endproc
 140              	.LFE120:
 141              		.size	gfxRealloc, .-gfxRealloc
 142              		.section	.text.gfxSleepMilliseconds,"ax",%progbits
 143              		.align	2
 144              		.p2align 4,,15
 145              		.global	gfxSleepMilliseconds
 146              		.thumb
 147              		.thumb_func
 148              		.type	gfxSleepMilliseconds, %function
 149              	gfxSleepMilliseconds:
 150              	.LFB121:
 151              		.loc 1 79 0
 152              		.cfi_startproc
 153              		@ args = 0, pretend = 0, frame = 0
 154              		@ frame_needed = 0, uses_anonymous_args = 0
 155              		@ link register save eliminated.
 156              	.LVL10:
 157              		.loc 1 80 0
 158 0000 0346     		mov	r3, r0
 159 0002 08B9     		cbnz	r0, .L20
 160              		.loc 1 85 0
 161              		.loc 1 81 0
 162 0004 FFF7FEBF 		b	chThdYield
 163              	.LVL11:
 164              	.L20:
 165              		.loc 1 80 0
 166 0008 421C     		adds	r2, r0, #1
 167 000a 0CD0     		beq	.L19
 168              		.loc 1 83 0
ARM GAS  C:\Users\Elis\AppData\Local\Temp\ccaFFvUy.s 			page 4


 169 000c 4FF47A72 		mov	r2, #1000
 170 0010 02FB03F3 		mul	r3, r2, r3
 171 0014 44F6D350 		movw	r0, #19923
 172              	.LVL12:
 173 0018 C1F26200 		movt	r0, 4194
 174 001c 591E     		subs	r1, r3, #1
 175 001e A0FB0113 		umull	r1, r3, r0, r1
 176 0022 9A09     		lsrs	r2, r3, #6
 177 0024 501C     		adds	r0, r2, #1
 178              	.L19:
 179              		.loc 1 85 0
 180              		.loc 1 83 0
 181 0026 FFF7FEBF 		b	chThdSleep
 182              	.LVL13:
 183              		.cfi_endproc
 184              	.LFE121:
 185              		.size	gfxSleepMilliseconds, .-gfxSleepMilliseconds
 186 002a 00BFAFF3 		.section	.text.gfxSleepMicroseconds,"ax",%progbits
 186      0080
 187              		.align	2
 188              		.p2align 4,,15
 189              		.global	gfxSleepMicroseconds
 190              		.thumb
 191              		.thumb_func
 192              		.type	gfxSleepMicroseconds, %function
 193              	gfxSleepMicroseconds:
 194              	.LFB122:
 195              		.loc 1 88 0
 196              		.cfi_startproc
 197              		@ args = 0, pretend = 0, frame = 0
 198              		@ frame_needed = 0, uses_anonymous_args = 0
 199              		@ link register save eliminated.
 200              	.LVL14:
 201              		.loc 1 89 0
 202 0000 0346     		mov	r3, r0
 203 0002 00B9     		cbnz	r0, .L27
 204 0004 7047     		bx	lr
 205              	.L27:
 206 0006 421C     		adds	r2, r0, #1
 207 0008 0CD0     		beq	.L26
 208              		.loc 1 92 0
 209 000a 4FF47A72 		mov	r2, #1000
 210 000e 02FB03F3 		mul	r3, r2, r3
 211 0012 4DF68360 		movw	r0, #56963
 212              	.LVL15:
 213 0016 C4F21B30 		movt	r0, 17179
 214 001a 591E     		subs	r1, r3, #1
 215 001c A0FB0113 		umull	r1, r3, r0, r1
 216 0020 9A0C     		lsrs	r2, r3, #18
 217 0022 501C     		adds	r0, r2, #1
 218              	.L26:
 219              		.loc 1 94 0
 220              		.loc 1 92 0
 221 0024 FFF7FEBF 		b	chThdSleep
 222              	.LVL16:
 223              		.cfi_endproc
 224              	.LFE122:
ARM GAS  C:\Users\Elis\AppData\Local\Temp\ccaFFvUy.s 			page 5


 225              		.size	gfxSleepMicroseconds, .-gfxSleepMicroseconds
 226 0028 AFF30080 		.section	.text.gfxSemInit,"ax",%progbits
 226      AFF30080 
 227              		.align	2
 228              		.p2align 4,,15
 229              		.global	gfxSemInit
 230              		.thumb
 231              		.thumb_func
 232              		.type	gfxSemInit, %function
 233              	gfxSemInit:
 234              	.LFB123:
 235              		.loc 1 97 0
 236              		.cfi_startproc
 237              		@ args = 0, pretend = 0, frame = 0
 238              		@ frame_needed = 0, uses_anonymous_args = 0
 239              		@ link register save eliminated.
 240              	.LVL17:
 241              		.loc 1 104 0
 242 0000 8A42     		cmp	r2, r1
 243 0002 B8BF     		it	lt
 244 0004 1146     		movlt	r1, r2
 245              	.LVL18:
 246              		.loc 1 101 0
 247 0006 C260     		str	r2, [r0, #12]
 248              		.loc 1 108 0
 249              		.loc 1 104 0
 250 0008 FFF7FEBF 		b	chSemInit
 251              	.LVL19:
 252              		.cfi_endproc
 253              	.LFE123:
 254              		.size	gfxSemInit, .-gfxSemInit
 255 000c AFF30080 		.section	.text.gfxSemDestroy,"ax",%progbits
 256              		.align	2
 257              		.p2align 4,,15
 258              		.global	gfxSemDestroy
 259              		.thumb
 260              		.thumb_func
 261              		.type	gfxSemDestroy, %function
 262              	gfxSemDestroy:
 263              	.LFB124:
 264              		.loc 1 111 0
 265              		.cfi_startproc
 266              		@ args = 0, pretend = 0, frame = 0
 267              		@ frame_needed = 0, uses_anonymous_args = 0
 268              		@ link register save eliminated.
 269              	.LVL20:
 270              		.loc 1 112 0
 271 0000 0121     		movs	r1, #1
 272              		.loc 1 113 0
 273              		.loc 1 112 0
 274 0002 FFF7FEBF 		b	chSemReset
 275              	.LVL21:
 276              		.cfi_endproc
 277              	.LFE124:
 278              		.size	gfxSemDestroy, .-gfxSemDestroy
 279 0006 00BFAFF3 		.section	.text.gfxSemWait,"ax",%progbits
 279      0080AFF3 
ARM GAS  C:\Users\Elis\AppData\Local\Temp\ccaFFvUy.s 			page 6


 279      0080
 280              		.align	2
 281              		.p2align 4,,15
 282              		.global	gfxSemWait
 283              		.thumb
 284              		.thumb_func
 285              		.type	gfxSemWait, %function
 286              	gfxSemWait:
 287              	.LFB125:
 288              		.loc 1 116 0
 289              		.cfi_startproc
 290              		@ args = 0, pretend = 0, frame = 0
 291              		@ frame_needed = 0, uses_anonymous_args = 0
 292              	.LVL22:
 293 0000 08B5     		push	{r3, lr}
 294              	.LCFI2:
 295              		.cfi_def_cfa_offset 8
 296              		.cfi_offset 3, -8
 297              		.cfi_offset 14, -4
 298              		.loc 1 118 0
 299 0002 0B46     		mov	r3, r1
 300 0004 71B1     		cbz	r1, .L36
 301 0006 4A1C     		adds	r2, r1, #1
 302 0008 12D0     		beq	.L37
 303              		.loc 1 121 0
 304 000a 4FF47A72 		mov	r2, #1000
 305 000e 02FB03F3 		mul	r3, r2, r3
 306 0012 44F6D351 		movw	r1, #19923
 307              	.LVL23:
 308 0016 C1F26201 		movt	r1, 4194
 309 001a 013B     		subs	r3, r3, #1
 310 001c A1FB0312 		umull	r1, r2, r1, r3
 311 0020 9109     		lsrs	r1, r2, #6
 312 0022 0131     		adds	r1, r1, #1
 313              	.L36:
 314 0024 FFF7FEFF 		bl	chSemWaitTimeout
 315              	.LVL24:
 316 0028 0130     		adds	r0, r0, #1
 317 002a 18BF     		it	ne
 318 002c 0120     		movne	r0, #1
 319              		.loc 1 130 0
 320 002e 08BD     		pop	{r3, pc}
 321              	.LVL25:
 322              	.L37:
 323              		.loc 1 120 0
 324 0030 FFF7FEFF 		bl	chSemWait
 325              	.LVL26:
 326 0034 0120     		movs	r0, #1
 327 0036 08BD     		pop	{r3, pc}
 328              		.cfi_endproc
 329              	.LFE125:
 330              		.size	gfxSemWait, .-gfxSemWait
 331 0038 AFF30080 		.section	.text.gfxSemWaitI,"ax",%progbits
 331      AFF30080 
 332              		.align	2
 333              		.p2align 4,,15
 334              		.global	gfxSemWaitI
ARM GAS  C:\Users\Elis\AppData\Local\Temp\ccaFFvUy.s 			page 7


 335              		.thumb
 336              		.thumb_func
 337              		.type	gfxSemWaitI, %function
 338              	gfxSemWaitI:
 339              	.LFB126:
 340              		.loc 1 133 0
 341              		.cfi_startproc
 342              		@ args = 0, pretend = 0, frame = 0
 343              		@ frame_needed = 0, uses_anonymous_args = 0
 344              		@ link register save eliminated.
 345              	.LVL27:
 346              		.loc 1 134 0
 347 0000 8368     		ldr	r3, [r0, #8]
 348 0002 002B     		cmp	r3, #0
 349 0004 03DD     		ble	.L40
 350              		.loc 1 136 0
 351 0006 591E     		subs	r1, r3, #1
 352 0008 8160     		str	r1, [r0, #8]
 353              		.loc 1 137 0
 354 000a 0120     		movs	r0, #1
 355              	.LVL28:
 356 000c 7047     		bx	lr
 357              	.LVL29:
 358              	.L40:
 359              		.loc 1 135 0
 360 000e 0020     		movs	r0, #0
 361              	.LVL30:
 362              		.loc 1 138 0
 363 0010 7047     		bx	lr
 364              		.cfi_endproc
 365              	.LFE126:
 366              		.size	gfxSemWaitI, .-gfxSemWaitI
 367 0012 00BFAFF3 		.section	.text.gfxSemSignal,"ax",%progbits
 367      0080AFF3 
 367      0080AFF3 
 367      0080
 368              		.align	2
 369              		.p2align 4,,15
 370              		.global	gfxSemSignal
 371              		.thumb
 372              		.thumb_func
 373              		.type	gfxSemSignal, %function
 374              	gfxSemSignal:
 375              	.LFB127:
 376              		.loc 1 141 0
 377              		.cfi_startproc
 378              		@ args = 0, pretend = 0, frame = 0
 379              		@ frame_needed = 0, uses_anonymous_args = 0
 380              	.LVL31:
 381 0000 10B5     		push	{r4, lr}
 382              	.LCFI3:
 383              		.cfi_def_cfa_offset 8
 384              		.cfi_offset 4, -8
 385              		.cfi_offset 14, -4
 386              	.LBB2:
 387              		.loc 1 142 0
 388 0002 2023     		movs	r3, #32
ARM GAS  C:\Users\Elis\AppData\Local\Temp\ccaFFvUy.s 			page 8


 389              	.LVL32:
 390              	.LBE2:
 391              		.loc 1 141 0
 392 0004 0446     		mov	r4, r0
 393              	.LBB3:
 394              		.loc 1 142 0
 395              	@ 142 "../../ugfx/src/gos/gos_chibios.c" 1
 396 0006 83F31188 		msr     BASEPRI, r3
 397              	@ 0 "" 2
 398              	.LVL33:
 399              		.thumb
 400              	.LBE3:
 401 000a FFF7FEFF 		bl	dbg_check_lock
 402              	.LVL34:
 403              		.loc 1 144 0
 404 000e A268     		ldr	r2, [r4, #8]
 405 0010 E368     		ldr	r3, [r4, #12]
 406 0012 9A42     		cmp	r2, r3
 407 0014 02DA     		bge	.L42
 408              		.loc 1 145 0
 409 0016 2046     		mov	r0, r4
 410 0018 FFF7FEFF 		bl	chSemSignalI
 411              	.LVL35:
 412              	.L42:
 413              		.loc 1 147 0
 414 001c FFF7FEFF 		bl	chSchRescheduleS
 415              	.LVL36:
 416              		.loc 1 148 0
 417 0020 FFF7FEFF 		bl	dbg_check_unlock
 418              	.LVL37:
 419              	.LBB4:
 420 0024 0023     		movs	r3, #0
 421              	.LVL38:
 422              	@ 148 "../../ugfx/src/gos/gos_chibios.c" 1
 423 0026 83F31188 		msr     BASEPRI, r3
 424              	@ 0 "" 2
 425              	.LVL39:
 426              		.thumb
 427 002a 10BD     		pop	{r4, pc}
 428              	.LBE4:
 429              		.cfi_endproc
 430              	.LFE127:
 431              		.size	gfxSemSignal, .-gfxSemSignal
 432 002c AFF30080 		.section	.text.gfxSemSignalI,"ax",%progbits
 433              		.align	2
 434              		.p2align 4,,15
 435              		.global	gfxSemSignalI
 436              		.thumb
 437              		.thumb_func
 438              		.type	gfxSemSignalI, %function
 439              	gfxSemSignalI:
 440              	.LFB128:
 441              		.loc 1 152 0
 442              		.cfi_startproc
 443              		@ args = 0, pretend = 0, frame = 0
 444              		@ frame_needed = 0, uses_anonymous_args = 0
 445              		@ link register save eliminated.
ARM GAS  C:\Users\Elis\AppData\Local\Temp\ccaFFvUy.s 			page 9


 446              	.LVL40:
 447              		.loc 1 153 0
 448 0000 8268     		ldr	r2, [r0, #8]
 449 0002 C168     		ldr	r1, [r0, #12]
 450 0004 8A42     		cmp	r2, r1
 451 0006 00DB     		blt	.L45
 452 0008 7047     		bx	lr
 453              	.L45:
 454              		.loc 1 155 0
 455              		.loc 1 154 0
 456 000a FFF7FEBF 		b	chSemSignalI
 457              	.LVL41:
 458              		.cfi_endproc
 459              	.LFE128:
 460              		.size	gfxSemSignalI, .-gfxSemSignalI
 461 000e 00BF     		.section	.text.gfxThreadCreate,"ax",%progbits
 462              		.align	2
 463              		.p2align 4,,15
 464              		.global	gfxThreadCreate
 465              		.thumb
 466              		.thumb_func
 467              		.type	gfxThreadCreate, %function
 468              	gfxThreadCreate:
 469              	.LFB129:
 470              		.loc 1 158 0
 471              		.cfi_startproc
 472              		@ args = 4, pretend = 0, frame = 0
 473              		@ frame_needed = 0, uses_anonymous_args = 0
 474              		@ link register save eliminated.
 475              	.LVL42:
 476 0000 30B4     		push	{r4, r5}
 477              	.LCFI4:
 478              		.cfi_def_cfa_offset 8
 479              		.cfi_offset 4, -8
 480              		.cfi_offset 5, -4
 481              		.loc 1 158 0
 482 0002 029D     		ldr	r5, [sp, #8]
 483 0004 0C46     		mov	r4, r1
 484              		.loc 1 159 0
 485 0006 38B1     		cbz	r0, .L51
 486              		.loc 1 164 0
 487 0008 19B1     		cbz	r1, .L49
 488              		.loc 1 167 0
 489 000a 0295     		str	r5, [sp, #8]
 490              		.loc 1 168 0
 491 000c 30BC     		pop	{r4, r5}
 492              		.loc 1 167 0
 493 000e FFF7FEBF 		b	chThdCreateStatic
 494              	.LVL43:
 495              	.L49:
 496              		.loc 1 168 0
 497 0012 0846     		mov	r0, r1
 498              	.LVL44:
 499 0014 30BC     		pop	{r4, r5}
 500 0016 7047     		bx	lr
 501              	.LVL45:
 502              	.L51:
ARM GAS  C:\Users\Elis\AppData\Local\Temp\ccaFFvUy.s 			page 10


 503              		.loc 1 161 0
 504 0018 0029     		cmp	r1, #0
 505 001a 08BF     		it	eq
 506 001c 4FF48071 		moveq	r1, #256
 507              	.LVL46:
 508              		.loc 1 168 0
 509 0020 30BC     		pop	{r4, r5}
 510              		.loc 1 161 0
 511 0022 FFF7FEBF 		b	chThdCreateFromHeap
 512              	.LVL47:
 513              		.cfi_endproc
 514              	.LFE129:
 515              		.size	gfxThreadCreate, .-gfxThreadCreate
 516 0026 00BFAFF3 		.text
 516      0080AFF3 
 516      0080
 517              	.Letext0:
 518              		.file 2 "c:\\chibistudio\\tools\\gnu tools arm embedded\\4.7 2014q2\\bin\\../lib/gcc/arm-none-eabi
 519              		.file 3 "c:\\chibistudio\\tools\\gnu tools arm embedded\\4.7 2014q2\\bin\\../lib/gcc/arm-none-eabi
 520              		.file 4 "../../chibios/os/ports/GCC/ARMCMx/chtypes.h"
 521              		.file 5 "../../chibios/os/kernel/include/chlists.h"
 522              		.file 6 "../../chibios/os/kernel/include/chthreads.h"
 523              		.file 7 "../../chibios/os/ports/GCC/ARMCMx/chcore_v7m.h"
 524              		.file 8 "../../chibios/os/kernel/include/chschd.h"
 525              		.file 9 "../../chibios/os/kernel/include/chsem.h"
 526              		.file 10 "../../chibios/os/kernel/include/chmtx.h"
 527              		.file 11 "../../chibios/os/kernel/include/chmemcore.h"
 528              		.file 12 "../../chibios/os/kernel/include/chheap.h"
 529              		.file 13 "../../ugfx/src/gos/gos_chibios.h"
 530              		.file 14 "../../chibios/os/ports/common/ARMCMx/CMSIS/include/core_cm4.h"
 531              		.file 15 "../../chibios/os/hal/include/hal.h"
 532              		.file 16 "../../chibios/os/kernel/include/chsys.h"
 533              		.file 17 "../../chibios/os/kernel/include/chdebug.h"
 534              		.file 18 "../../chibios/os/kernel/include/chdynamic.h"