ARM GAS  C:\Users\Elis\AppData\Local\Temp\ccKU0Mti.s 			page 1


   1              		.syntax unified
   2              		.cpu cortex-m4
   3              		.fpu softvfp
   4              		.eabi_attribute 20, 1
   5              		.eabi_attribute 21, 1
   6              		.eabi_attribute 23, 3
   7              		.eabi_attribute 24, 1
   8              		.eabi_attribute 25, 1
   9              		.eabi_attribute 26, 1
  10              		.eabi_attribute 30, 2
  11              		.eabi_attribute 34, 1
  12              		.eabi_attribute 18, 4
  13              		.thumb
  14              		.file	"gtimer.c"
  15              		.text
  16              	.Ltext0:
  17              		.cfi_sections	.debug_frame
  18              		.section	.text.GTimerThreadHandler,"ax",%progbits
  19              		.align	2
  20              		.p2align 4,,15
  21              		.thumb
  22              		.thumb_func
  23              		.type	GTimerThreadHandler, %function
  24              	GTimerThreadHandler:
  25              	.LFB118:
  26              		.file 1 "../../ugfx/src/gtimer/gtimer.c"
  27              		.loc 1 31 0
  28              		.cfi_startproc
  29              		@ args = 0, pretend = 0, frame = 0
  30              		@ frame_needed = 0, uses_anonymous_args = 0
  31              	.LVL0:
  32 0000 2DE9F047 		push	{r4, r5, r6, r7, r8, r9, sl, lr}
  33              	.LCFI0:
  34              		.cfi_def_cfa_offset 32
  35              		.cfi_offset 4, -32
  36              		.cfi_offset 5, -28
  37              		.cfi_offset 6, -24
  38              		.cfi_offset 7, -20
  39              		.cfi_offset 8, -16
  40              		.cfi_offset 9, -12
  41              		.cfi_offset 10, -8
  42              		.cfi_offset 14, -4
  43              		.loc 1 41 0
  44 0004 4FF00009 		mov	r9, #0
  45 0008 314E     		ldr	r6, .L27
  46 000a 324D     		ldr	r5, .L27+4
  47              		.loc 1 40 0
  48 000c 4FF0FF3A 		mov	sl, #-1
  49              		.loc 1 86 0
  50 0010 C846     		mov	r8, r9
  51              	.LVL1:
  52              	.L16:
  53              		.loc 1 44 0
  54 0012 FFF7FEFF 		bl	chThdYield
  55              	.LVL2:
  56              		.loc 1 45 0
  57 0016 3048     		ldr	r0, .L27+8
ARM GAS  C:\Users\Elis\AppData\Local\Temp\ccKU0Mti.s 			page 2


  58 0018 5146     		mov	r1, sl
  59 001a FFF7FEFF 		bl	gfxSemWait
  60              	.LVL3:
  61              	.L2:
  62              		.loc 1 54 0
  63 001e 2F48     		ldr	r0, .L27+12
  64              		.loc 1 50 0
  65 0020 F768     		ldr	r7, [r6, #12]
  66              	.LVL4:
  67              		.loc 1 54 0
  68 0022 FFF7FEFF 		bl	chMtxLock
  69              	.LVL5:
  70              		.loc 1 56 0
  71 0026 D5F800E0 		ldr	lr, [r5, #0]
  72 002a BEF1000F 		cmp	lr, #0
  73 002e 37D0     		beq	.L17
  74 0030 7346     		mov	r3, lr
  75 0032 4FF0FF3A 		mov	sl, #-1
  76 0036 0AE0     		b	.L15
  77              	.LVL6:
  78              	.L25:
  79              		.loc 1 60 0 discriminator 1
  80 0038 A145     		cmp	r9, r4
  81 003a 01D8     		bhi	.L9
  82              	.L23:
  83              		.loc 1 60 0 is_stmt 0 discriminator 3
  84 003c A742     		cmp	r7, r4
  85 003e 15D2     		bcs	.L10
  86              	.L9:
  87              		.loc 1 101 0 is_stmt 1 discriminator 1
  88 0040 E21B     		subs	r2, r4, r7
  89 0042 9245     		cmp	sl, r2
  90 0044 28BF     		it	cs
  91 0046 9246     		movcs	sl, r2
  92              	.LVL7:
  93              	.L7:
  94              		.loc 1 103 0
  95 0048 5B69     		ldr	r3, [r3, #20]
  96              	.LVL8:
  97              		.loc 1 104 0
  98 004a 9E45     		cmp	lr, r3
  99 004c 2AD0     		beq	.L3
 100              	.LVL9:
 101              	.L15:
 102              		.loc 1 60 0
 103 004e 1A8A     		ldrh	r2, [r3, #16]
 104 0050 02F00400 		and	r0, r2, #4
 105 0054 02F00204 		and	r4, r2, #2
 106 0058 81B2     		uxth	r1, r0
 107 005a A0B2     		uxth	r0, r4
 108 005c 31B9     		cbnz	r1, .L10
 109              		.loc 1 60 0 is_stmt 0 discriminator 1
 110 005e 0028     		cmp	r0, #0
 111 0060 F2D1     		bne	.L7
 112 0062 B945     		cmp	r9, r7
 113 0064 9C68     		ldr	r4, [r3, #8]
 114 0066 E7D9     		bls	.L25
ARM GAS  C:\Users\Elis\AppData\Local\Temp\ccKU0Mti.s 			page 3


 115              		.loc 1 60 0 discriminator 2
 116 0068 A145     		cmp	r9, r4
 117 006a E7D8     		bhi	.L23
 118              	.L10:
 119              		.loc 1 63 0 is_stmt 1
 120 006c D107     		lsls	r1, r2, #31
 121 006e 1DD5     		bpl	.L6
 122              		.loc 1 63 0 is_stmt 0 discriminator 1
 123 0070 D968     		ldr	r1, [r3, #12]
 124 0072 D9B1     		cbz	r1, .L6
 125              		.loc 1 65 0 is_stmt 1
 126 0074 02F00200 		and	r0, r2, #2
 127 0078 84B2     		uxth	r4, r0
 128 007a 3CB9     		cbnz	r4, .L11
 129              		.loc 1 70 0
 130 007c 9868     		ldr	r0, [r3, #8]
 131 007e CF19     		adds	r7, r1, r7
 132              	.LVL10:
 133 0080 3C1A     		subs	r4, r7, r0
 134 0082 B4FBF1F7 		udiv	r7, r4, r1
 135 0086 01FB0701 		mla	r1, r1, r7, r0
 136 008a 9960     		str	r1, [r3, #8]
 137              	.L11:
 138              		.loc 1 74 0
 139 008c 22F00402 		bic	r2, r2, #4
 140 0090 1A82     		strh	r2, [r3, #16]	@ movhi
 141              	.L12:
 142              		.loc 1 90 0
 143 0092 93E89000 		ldmia	r3, {r4, r7}
 144              	.LVL11:
 145              		.loc 1 92 0
 146 0096 FFF7FEFF 		bl	chMtxUnlock
 147              	.LVL12:
 148              		.loc 1 93 0
 149 009a 3846     		mov	r0, r7
 150 009c A047     		blx	r4
 151              	.LVL13:
 152              		.loc 1 97 0
 153 009e BEE7     		b	.L2
 154              	.LVL14:
 155              	.L17:
 156              		.loc 1 51 0
 157 00a0 4FF0FF3A 		mov	sl, #-1
 158              	.LVL15:
 159              	.L3:
 160              		.loc 1 109 0
 161 00a4 FFF7FEFF 		bl	chMtxUnlock
 162              	.LVL16:
 163 00a8 B946     		mov	r9, r7
 164              		.loc 1 110 0
 165 00aa B2E7     		b	.L16
 166              	.LVL17:
 167              	.L6:
 168              		.loc 1 78 0
 169 00ac 5F69     		ldr	r7, [r3, #20]
 170              	.LVL18:
 171 00ae 9869     		ldr	r0, [r3, #24]
ARM GAS  C:\Users\Elis\AppData\Local\Temp\ccKU0Mti.s 			page 4


 172 00b0 8742     		cmp	r7, r0
 173 00b2 09D0     		beq	.L26
 174              		.loc 1 81 0
 175 00b4 B861     		str	r0, [r7, #24]
 176              		.loc 1 82 0
 177 00b6 9C69     		ldr	r4, [r3, #24]
 178              		.loc 1 83 0
 179 00b8 7345     		cmp	r3, lr
 180              		.loc 1 82 0
 181 00ba 6761     		str	r7, [r4, #20]
 182              		.loc 1 84 0
 183 00bc 04BF     		itt	eq
 184 00be 5F69     		ldreq	r7, [r3, #20]
 185 00c0 2F60     		streq	r7, [r5, #0]
 186              	.L14:
 187              		.loc 1 86 0
 188 00c2 A3F81080 		strh	r8, [r3, #16]	@ movhi
 189 00c6 E4E7     		b	.L12
 190              	.L26:
 191              		.loc 1 79 0
 192 00c8 C5F80080 		str	r8, [r5, #0]
 193 00cc F9E7     		b	.L14
 194              	.L28:
 195 00ce 00BF     		.align	2
 196              	.L27:
 197 00d0 00000000 		.word	vtlist
 198 00d4 00000000 		.word	.LANCHOR2
 199 00d8 00000000 		.word	.LANCHOR0
 200 00dc 00000000 		.word	.LANCHOR1
 201              		.cfi_endproc
 202              	.LFE118:
 203              		.size	GTimerThreadHandler, .-GTimerThreadHandler
 204              		.section	.text._gtimerInit,"ax",%progbits
 205              		.align	2
 206              		.p2align 4,,15
 207              		.global	_gtimerInit
 208              		.thumb
 209              		.thumb_func
 210              		.type	_gtimerInit, %function
 211              	_gtimerInit:
 212              	.LFB119:
 213              		.loc 1 115 0
 214              		.cfi_startproc
 215              		@ args = 0, pretend = 0, frame = 0
 216              		@ frame_needed = 0, uses_anonymous_args = 0
 217 0000 08B5     		push	{r3, lr}
 218              	.LCFI1:
 219              		.cfi_def_cfa_offset 8
 220              		.cfi_offset 3, -8
 221              		.cfi_offset 14, -4
 222              		.loc 1 116 0
 223 0002 40F20000 		movw	r0, #:lower16:.LANCHOR0
 224 0006 C0F20000 		movt	r0, #:upper16:.LANCHOR0
 225 000a 0021     		movs	r1, #0
 226 000c 0122     		movs	r2, #1
 227 000e FFF7FEFF 		bl	gfxSemInit
 228              	.LVL19:
ARM GAS  C:\Users\Elis\AppData\Local\Temp\ccKU0Mti.s 			page 5


 229              		.loc 1 117 0
 230 0012 40F20000 		movw	r0, #:lower16:.LANCHOR1
 231 0016 C0F20000 		movt	r0, #:upper16:.LANCHOR1
 232              		.loc 1 118 0
 233 001a BDE80840 		pop	{r3, lr}
 234              		.loc 1 117 0
 235 001e FFF7FEBF 		b	chMtxInit
 236              	.LVL20:
 237              		.cfi_endproc
 238              	.LFE119:
 239              		.size	_gtimerInit, .-_gtimerInit
 240 0022 00BFAFF3 		.section	.text._gtimerDeinit,"ax",%progbits
 240      0080AFF3 
 240      0080AFF3 
 240      0080
 241              		.align	2
 242              		.p2align 4,,15
 243              		.global	_gtimerDeinit
 244              		.thumb
 245              		.thumb_func
 246              		.type	_gtimerDeinit, %function
 247              	_gtimerDeinit:
 248              	.LFB120:
 249              		.loc 1 121 0
 250              		.cfi_startproc
 251              		@ args = 0, pretend = 0, frame = 0
 252              		@ frame_needed = 0, uses_anonymous_args = 0
 253              		@ link register save eliminated.
 254              		.loc 1 122 0
 255 0000 40F20000 		movw	r0, #:lower16:.LANCHOR0
 256 0004 C0F20000 		movt	r0, #:upper16:.LANCHOR0
 257              		.loc 1 125 0
 258              		.loc 1 122 0
 259 0008 FFF7FEBF 		b	gfxSemDestroy
 260              	.LVL21:
 261              		.cfi_endproc
 262              	.LFE120:
 263              		.size	_gtimerDeinit, .-_gtimerDeinit
 264 000c AFF30080 		.section	.text.gtimerInit,"ax",%progbits
 265              		.align	2
 266              		.p2align 4,,15
 267              		.global	gtimerInit
 268              		.thumb
 269              		.thumb_func
 270              		.type	gtimerInit, %function
 271              	gtimerInit:
 272              	.LFB121:
 273              		.loc 1 128 0
 274              		.cfi_startproc
 275              		@ args = 0, pretend = 0, frame = 0
 276              		@ frame_needed = 0, uses_anonymous_args = 0
 277              		@ link register save eliminated.
 278              	.LVL22:
 279              		.loc 1 129 0
 280 0000 0023     		movs	r3, #0
 281 0002 0382     		strh	r3, [r0, #16]	@ movhi
 282 0004 7047     		bx	lr
ARM GAS  C:\Users\Elis\AppData\Local\Temp\ccKU0Mti.s 			page 6


 283              		.cfi_endproc
 284              	.LFE121:
 285              		.size	gtimerInit, .-gtimerInit
 286 0006 00BFAFF3 		.section	.text.gtimerStart,"ax",%progbits
 286      0080AFF3 
 286      0080
 287              		.align	2
 288              		.p2align 4,,15
 289              		.global	gtimerStart
 290              		.thumb
 291              		.thumb_func
 292              		.type	gtimerStart, %function
 293              	gtimerStart:
 294              	.LFB123:
 295              		.loc 1 137 0
 296              		.cfi_startproc
 297              		@ args = 4, pretend = 0, frame = 0
 298              		@ frame_needed = 0, uses_anonymous_args = 0
 299              	.LVL23:
 300 0000 2DE9F043 		push	{r4, r5, r6, r7, r8, r9, lr}
 301              	.LCFI2:
 302              		.cfi_def_cfa_offset 28
 303              		.cfi_offset 4, -28
 304              		.cfi_offset 5, -24
 305              		.cfi_offset 6, -20
 306              		.cfi_offset 7, -16
 307              		.cfi_offset 8, -12
 308              		.cfi_offset 9, -8
 309              		.cfi_offset 14, -4
 310              		.loc 1 141 0
 311 0004 3C4E     		ldr	r6, .L50
 312              		.loc 1 137 0
 313 0006 83B0     		sub	sp, sp, #12
 314              	.LCFI3:
 315              		.cfi_def_cfa_offset 40
 316              		.loc 1 137 0
 317 0008 0446     		mov	r4, r0
 318              		.loc 1 138 0
 319 000a 3C48     		ldr	r0, .L50+4
 320              	.LVL24:
 321              		.loc 1 137 0
 322 000c 0A9D     		ldr	r5, [sp, #40]
 323 000e 8946     		mov	r9, r1
 324 0010 9046     		mov	r8, r2
 325 0012 1F46     		mov	r7, r3
 326              		.loc 1 138 0
 327 0014 FFF7FEFF 		bl	chMtxLock
 328              	.LVL25:
 329              		.loc 1 141 0
 330 0018 3068     		ldr	r0, [r6, #0]
 331 001a 0028     		cmp	r0, #0
 332 001c 61D0     		beq	.L45
 333              	.L33:
 334              		.loc 1 147 0
 335 001e 238A     		ldrh	r3, [r4, #16]
 336 0020 03F00801 		and	r1, r3, #8
 337 0024 8AB2     		uxth	r2, r1
ARM GAS  C:\Users\Elis\AppData\Local\Temp\ccKU0Mti.s 			page 7


 338 0026 002A     		cmp	r2, #0
 339 0028 32D1     		bne	.L34
 340 002a 3548     		ldr	r0, .L50+8
 341              	.L35:
 342              		.loc 1 160 0
 343 002c C4F80090 		str	r9, [r4, #0]
 344              		.loc 1 161 0
 345 0030 C4F80480 		str	r8, [r4, #4]
 346              		.loc 1 163 0
 347 0034 002F     		cmp	r7, #0
 348 0036 3FD1     		bne	.L38
 349              	.L48:
 350              		.loc 1 162 0
 351 0038 0821     		movs	r1, #8
 352              		.loc 1 165 0
 353 003a 6B1C     		adds	r3, r5, #1
 354              		.loc 1 162 0
 355 003c 2182     		strh	r1, [r4, #16]	@ movhi
 356              		.loc 1 165 0
 357 003e 3FD0     		beq	.L46
 358              	.L40:
 359              		.loc 1 169 0
 360 0040 4FF47A76 		mov	r6, #1000
 361 0044 06FB05F5 		mul	r5, r6, r5
 362 0048 44F6D352 		movw	r2, #19923
 363 004c 6B1E     		subs	r3, r5, #1
 364 004e C1F26202 		movt	r2, 4194
 365              		.loc 1 170 0
 366 0052 2C4E     		ldr	r6, .L50+12
 367              		.loc 1 174 0
 368 0054 0068     		ldr	r0, [r0, #0]
 369              		.loc 1 170 0
 370 0056 F668     		ldr	r6, [r6, #12]
 371 0058 218A     		ldrh	r1, [r4, #16]
 372              		.loc 1 169 0
 373 005a A2FB0352 		umull	r5, r2, r2, r3
 374 005e 9309     		lsrs	r3, r2, #6
 375 0060 0133     		adds	r3, r3, #1
 376              		.loc 1 170 0
 377 0062 9A19     		adds	r2, r3, r6
 378              		.loc 1 169 0
 379 0064 E360     		str	r3, [r4, #12]
 380              		.loc 1 170 0
 381 0066 A260     		str	r2, [r4, #8]
 382              		.loc 1 174 0
 383 0068 0028     		cmp	r0, #0
 384 006a 32D0     		beq	.L42
 385              	.L49:
 386              		.loc 1 176 0
 387 006c 8269     		ldr	r2, [r0, #24]
 388              		.loc 1 175 0
 389 006e 6061     		str	r0, [r4, #20]
 390              		.loc 1 177 0
 391 0070 5461     		str	r4, [r2, #20]
 392              		.loc 1 178 0
 393 0072 6369     		ldr	r3, [r4, #20]
 394              		.loc 1 176 0
ARM GAS  C:\Users\Elis\AppData\Local\Temp\ccKU0Mti.s 			page 8


 395 0074 A261     		str	r2, [r4, #24]
 396              		.loc 1 178 0
 397 0076 9C61     		str	r4, [r3, #24]
 398              	.L43:
 399              		.loc 1 183 0
 400 0078 01F00201 		and	r1, r1, #2
 401 007c 88B2     		uxth	r0, r1
 402 007e 10B9     		cbnz	r0, .L44
 403              		.loc 1 184 0
 404 0080 2148     		ldr	r0, .L50+16
 405 0082 FFF7FEFF 		bl	gfxSemSignal
 406              	.LVL26:
 407              	.L44:
 408              		.loc 1 186 0
 409 0086 03B0     		add	sp, sp, #12
 410 0088 BDE8F043 		pop	{r4, r5, r6, r7, r8, r9, lr}
 411              		.loc 1 185 0
 412 008c FFF7FEBF 		b	chMtxUnlock
 413              	.LVL27:
 414              	.L34:
 415              		.loc 1 149 0
 416 0090 6369     		ldr	r3, [r4, #20]
 417 0092 A169     		ldr	r1, [r4, #24]
 418              		.loc 1 150 0
 419 0094 1A48     		ldr	r0, .L50+8
 420              		.loc 1 149 0
 421 0096 8B42     		cmp	r3, r1
 422 0098 20D0     		beq	.L47
 423              		.loc 1 152 0
 424 009a 9961     		str	r1, [r3, #24]
 425              		.loc 1 154 0
 426 009c 0268     		ldr	r2, [r0, #0]
 427              		.loc 1 153 0
 428 009e A169     		ldr	r1, [r4, #24]
 429              		.loc 1 160 0
 430 00a0 C4F80090 		str	r9, [r4, #0]
 431              		.loc 1 154 0
 432 00a4 A242     		cmp	r2, r4
 433              		.loc 1 153 0
 434 00a6 4B61     		str	r3, [r1, #20]
 435              		.loc 1 155 0
 436 00a8 08BF     		it	eq
 437 00aa 6369     		ldreq	r3, [r4, #20]
 438              		.loc 1 161 0
 439 00ac C4F80480 		str	r8, [r4, #4]
 440              		.loc 1 155 0
 441 00b0 08BF     		it	eq
 442 00b2 0360     		streq	r3, [r0, #0]
 443              		.loc 1 163 0
 444 00b4 002F     		cmp	r7, #0
 445 00b6 BFD0     		beq	.L48
 446              	.L38:
 447              		.loc 1 164 0
 448 00b8 0922     		movs	r2, #9
 449              		.loc 1 165 0
 450 00ba 6B1C     		adds	r3, r5, #1
 451              		.loc 1 164 0
ARM GAS  C:\Users\Elis\AppData\Local\Temp\ccKU0Mti.s 			page 9


 452 00bc 2282     		strh	r2, [r4, #16]	@ movhi
 453              		.loc 1 165 0
 454 00be BFD1     		bne	.L40
 455              	.L46:
 456              		.loc 1 166 0
 457 00c0 218A     		ldrh	r1, [r4, #16]
 458              		.loc 1 174 0
 459 00c2 0068     		ldr	r0, [r0, #0]
 460              		.loc 1 167 0
 461 00c4 E560     		str	r5, [r4, #12]
 462              		.loc 1 166 0
 463 00c6 41F00203 		orr	r3, r1, #2
 464 00ca 1946     		mov	r1, r3	@ movhi
 465 00cc 2382     		strh	r3, [r4, #16]	@ movhi
 466              		.loc 1 174 0
 467 00ce 0028     		cmp	r0, #0
 468 00d0 CCD1     		bne	.L49
 469              	.L42:
 470              		.loc 1 180 0
 471 00d2 0B4A     		ldr	r2, .L50+8
 472 00d4 A461     		str	r4, [r4, #24]
 473 00d6 1460     		str	r4, [r2, #0]
 474 00d8 6461     		str	r4, [r4, #20]
 475 00da CDE7     		b	.L43
 476              	.L47:
 477              		.loc 1 150 0
 478 00dc 0023     		movs	r3, #0
 479 00de 0360     		str	r3, [r0, #0]
 480 00e0 A4E7     		b	.L35
 481              	.L45:
 482              		.loc 1 142 0
 483 00e2 0090     		str	r0, [sp, #0]
 484 00e4 094B     		ldr	r3, .L50+20
 485 00e6 0A48     		ldr	r0, .L50+24
 486 00e8 4FF40D61 		mov	r1, #2256
 487 00ec 7F22     		movs	r2, #127
 488 00ee FFF7FEFF 		bl	gfxThreadCreate
 489              	.LVL28:
 490 00f2 3060     		str	r0, [r6, #0]
 491 00f4 93E7     		b	.L33
 492              	.L51:
 493 00f6 00BF     		.align	2
 494              	.L50:
 495 00f8 00000000 		.word	.LANCHOR3
 496 00fc 00000000 		.word	.LANCHOR1
 497 0100 00000000 		.word	.LANCHOR2
 498 0104 00000000 		.word	vtlist
 499 0108 00000000 		.word	.LANCHOR0
 500 010c 00000000 		.word	GTimerThreadHandler
 501 0110 00000000 		.word	.LANCHOR4
 502              		.cfi_endproc
 503              	.LFE123:
 504              		.size	gtimerStart, .-gtimerStart
 505 0114 AFF30080 		.section	.text.gtimerStop,"ax",%progbits
 505      AFF30080 
 505      AFF30080 
 506              		.align	2
ARM GAS  C:\Users\Elis\AppData\Local\Temp\ccKU0Mti.s 			page 10


 507              		.p2align 4,,15
 508              		.global	gtimerStop
 509              		.thumb
 510              		.thumb_func
 511              		.type	gtimerStop, %function
 512              	gtimerStop:
 513              	.LFB124:
 514              		.loc 1 188 0
 515              		.cfi_startproc
 516              		@ args = 0, pretend = 0, frame = 0
 517              		@ frame_needed = 0, uses_anonymous_args = 0
 518              	.LVL29:
 519 0000 10B5     		push	{r4, lr}
 520              	.LCFI4:
 521              		.cfi_def_cfa_offset 8
 522              		.cfi_offset 4, -8
 523              		.cfi_offset 14, -4
 524              		.loc 1 188 0
 525 0002 0446     		mov	r4, r0
 526              		.loc 1 189 0
 527 0004 0F48     		ldr	r0, .L60
 528              	.LVL30:
 529 0006 FFF7FEFF 		bl	chMtxLock
 530              	.LVL31:
 531              		.loc 1 190 0
 532 000a 238A     		ldrh	r3, [r4, #16]
 533 000c 03F00800 		and	r0, r3, #8
 534 0010 81B2     		uxth	r1, r0
 535 0012 71B1     		cbz	r1, .L53
 536              		.loc 1 192 0
 537 0014 6369     		ldr	r3, [r4, #20]
 538 0016 A342     		cmp	r3, r4
 539 0018 0FD0     		beq	.L59
 540              		.loc 1 195 0
 541 001a A069     		ldr	r0, [r4, #24]
 542              		.loc 1 197 0
 543 001c 0A4A     		ldr	r2, .L60+4
 544              		.loc 1 195 0
 545 001e 9861     		str	r0, [r3, #24]
 546              		.loc 1 197 0
 547 0020 1168     		ldr	r1, [r2, #0]
 548              		.loc 1 196 0
 549 0022 A069     		ldr	r0, [r4, #24]
 550              		.loc 1 197 0
 551 0024 A142     		cmp	r1, r4
 552              		.loc 1 196 0
 553 0026 4361     		str	r3, [r0, #20]
 554              		.loc 1 198 0
 555 0028 04BF     		itt	eq
 556 002a 6369     		ldreq	r3, [r4, #20]
 557 002c 1360     		streq	r3, [r2, #0]
 558              	.L55:
 559              		.loc 1 201 0
 560 002e 0020     		movs	r0, #0
 561 0030 2082     		strh	r0, [r4, #16]	@ movhi
 562              	.L53:
 563              		.loc 1 204 0
ARM GAS  C:\Users\Elis\AppData\Local\Temp\ccKU0Mti.s 			page 11


 564 0032 BDE81040 		pop	{r4, lr}
 565              		.loc 1 203 0
 566 0036 FFF7FEBF 		b	chMtxUnlock
 567              	.LVL32:
 568              	.L59:
 569              		.loc 1 193 0
 570 003a 034B     		ldr	r3, .L60+4
 571 003c 0022     		movs	r2, #0
 572 003e 1A60     		str	r2, [r3, #0]
 573 0040 F5E7     		b	.L55
 574              	.L61:
 575 0042 00BF     		.align	2
 576              	.L60:
 577 0044 00000000 		.word	.LANCHOR1
 578 0048 00000000 		.word	.LANCHOR2
 579              		.cfi_endproc
 580              	.LFE124:
 581              		.size	gtimerStop, .-gtimerStop
 582 004c AFF30080 		.section	.text.gtimerDeinit,"ax",%progbits
 583              		.align	2
 584              		.p2align 4,,15
 585              		.global	gtimerDeinit
 586              		.thumb
 587              		.thumb_func
 588              		.type	gtimerDeinit, %function
 589              	gtimerDeinit:
 590              	.LFB122:
 591              		.loc 1 133 0
 592              		.cfi_startproc
 593              		@ args = 0, pretend = 0, frame = 0
 594              		@ frame_needed = 0, uses_anonymous_args = 0
 595              		@ link register save eliminated.
 596              	.LVL33:
 597              		.loc 1 135 0
 598              		.loc 1 134 0
 599 0000 FFF7FEBF 		b	gtimerStop
 600              	.LVL34:
 601              		.cfi_endproc
 602              	.LFE122:
 603              		.size	gtimerDeinit, .-gtimerDeinit
 604 0004 AFF30080 		.section	.text.gtimerIsActive,"ax",%progbits
 604      AFF30080 
 604      AFF30080 
 605              		.align	2
 606              		.p2align 4,,15
 607              		.global	gtimerIsActive
 608              		.thumb
 609              		.thumb_func
 610              		.type	gtimerIsActive, %function
 611              	gtimerIsActive:
 612              	.LFB125:
 613              		.loc 1 206 0
 614              		.cfi_startproc
 615              		@ args = 0, pretend = 0, frame = 0
 616              		@ frame_needed = 0, uses_anonymous_args = 0
 617              		@ link register save eliminated.
 618              	.LVL35:
ARM GAS  C:\Users\Elis\AppData\Local\Temp\ccKU0Mti.s 			page 12


 619              		.loc 1 207 0
 620 0000 008A     		ldrh	r0, [r0, #16]
 621              	.LVL36:
 622              		.loc 1 208 0
 623 0002 C0F3C000 		ubfx	r0, r0, #3, #1
 624 0006 7047     		bx	lr
 625              		.cfi_endproc
 626              	.LFE125:
 627              		.size	gtimerIsActive, .-gtimerIsActive
 628 0008 AFF30080 		.section	.text.gtimerJab,"ax",%progbits
 628      AFF30080 
 629              		.align	2
 630              		.p2align 4,,15
 631              		.global	gtimerJab
 632              		.thumb
 633              		.thumb_func
 634              		.type	gtimerJab, %function
 635              	gtimerJab:
 636              	.LFB126:
 637              		.loc 1 210 0
 638              		.cfi_startproc
 639              		@ args = 0, pretend = 0, frame = 0
 640              		@ frame_needed = 0, uses_anonymous_args = 0
 641              	.LVL37:
 642 0000 10B5     		push	{r4, lr}
 643              	.LCFI5:
 644              		.cfi_def_cfa_offset 8
 645              		.cfi_offset 4, -8
 646              		.cfi_offset 14, -4
 647              		.loc 1 210 0
 648 0002 0446     		mov	r4, r0
 649              		.loc 1 211 0
 650 0004 40F20000 		movw	r0, #:lower16:.LANCHOR1
 651              	.LVL38:
 652 0008 C0F20000 		movt	r0, #:upper16:.LANCHOR1
 653 000c FFF7FEFF 		bl	chMtxLock
 654              	.LVL39:
 655              		.loc 1 214 0
 656 0010 238A     		ldrh	r3, [r4, #16]
 657 0012 43F00400 		orr	r0, r3, #4
 658 0016 2082     		strh	r0, [r4, #16]	@ movhi
 659              		.loc 1 217 0
 660 0018 40F20000 		movw	r0, #:lower16:.LANCHOR0
 661 001c C0F20000 		movt	r0, #:upper16:.LANCHOR0
 662 0020 FFF7FEFF 		bl	gfxSemSignal
 663              	.LVL40:
 664              		.loc 1 219 0
 665 0024 BDE81040 		pop	{r4, lr}
 666              		.loc 1 218 0
 667 0028 FFF7FEBF 		b	chMtxUnlock
 668              	.LVL41:
 669              		.cfi_endproc
 670              	.LFE126:
 671              		.size	gtimerJab, .-gtimerJab
 672 002c AFF30080 		.section	.text.gtimerJabI,"ax",%progbits
 673              		.align	2
 674              		.p2align 4,,15
ARM GAS  C:\Users\Elis\AppData\Local\Temp\ccKU0Mti.s 			page 13


 675              		.global	gtimerJabI
 676              		.thumb
 677              		.thumb_func
 678              		.type	gtimerJabI, %function
 679              	gtimerJabI:
 680              	.LFB127:
 681              		.loc 1 221 0
 682              		.cfi_startproc
 683              		@ args = 0, pretend = 0, frame = 0
 684              		@ frame_needed = 0, uses_anonymous_args = 0
 685              		@ link register save eliminated.
 686              	.LVL42:
 687              		.loc 1 223 0
 688 0000 038A     		ldrh	r3, [r0, #16]
 689 0002 43F00401 		orr	r1, r3, #4
 690 0006 0182     		strh	r1, [r0, #16]	@ movhi
 691              		.loc 1 226 0
 692 0008 40F20000 		movw	r0, #:lower16:.LANCHOR0
 693              	.LVL43:
 694 000c C0F20000 		movt	r0, #:upper16:.LANCHOR0
 695              		.loc 1 227 0
 696              		.loc 1 226 0
 697 0010 FFF7FEBF 		b	gfxSemSignalI
 698              	.LVL44:
 699              		.cfi_endproc
 700              	.LFE127:
 701              		.size	gtimerJabI, .-gtimerJabI
 702 0014 AFF30080 		.section	.bss.mutex,"aw",%nobits
 702      AFF30080 
 702      AFF30080 
 703              		.align	2
 704              		.set	.LANCHOR1,. + 0
 705              		.type	mutex, %object
 706              		.size	mutex, 16
 707              	mutex:
 708 0000 00000000 		.space	16
 708      00000000 
 708      00000000 
 708      00000000 
 709              		.section	.bss.hThread,"aw",%nobits
 710              		.align	2
 711              		.set	.LANCHOR3,. + 0
 712              		.type	hThread, %object
 713              		.size	hThread, 4
 714              	hThread:
 715 0000 00000000 		.space	4
 716              		.section	.bss.waTimerThread,"aw",%nobits
 717              		.align	3
 718              		.set	.LANCHOR4,. + 0
 719              		.type	waTimerThread, %object
 720              		.size	waTimerThread, 2256
 721              	waTimerThread:
 722 0000 00000000 		.space	2256
 722      00000000 
 722      00000000 
 722      00000000 
 722      00000000 
ARM GAS  C:\Users\Elis\AppData\Local\Temp\ccKU0Mti.s 			page 14


 723              		.section	.bss.pTimerHead,"aw",%nobits
 724              		.align	2
 725              		.set	.LANCHOR2,. + 0
 726              		.type	pTimerHead, %object
 727              		.size	pTimerHead, 4
 728              	pTimerHead:
 729 0000 00000000 		.space	4
 730              		.section	.bss.waitsem,"aw",%nobits
 731              		.align	2
 732              		.set	.LANCHOR0,. + 0
 733              		.type	waitsem, %object
 734              		.size	waitsem, 16
 735              	waitsem:
 736 0000 00000000 		.space	16
 736      00000000 
 736      00000000 
 736      00000000 
 737              		.text
 738              	.Letext0:
 739              		.file 2 "c:\\chibistudio\\tools\\gnu tools arm embedded\\4.7 2014q2\\bin\\../lib/gcc/arm-none-eabi
 740              		.file 3 "c:\\chibistudio\\tools\\gnu tools arm embedded\\4.7 2014q2\\bin\\../lib/gcc/arm-none-eabi
 741              		.file 4 "../../chibios/os/ports/GCC/ARMCMx/chtypes.h"
 742              		.file 5 "../../chibios/os/kernel/include/chlists.h"
 743              		.file 6 "../../chibios/os/kernel/include/chthreads.h"
 744              		.file 7 "../../chibios/os/ports/GCC/ARMCMx/chcore_v7m.h"
 745              		.file 8 "../../chibios/os/kernel/include/chvt.h"
 746              		.file 9 "../../chibios/os/kernel/include/chsem.h"
 747              		.file 10 "../../chibios/os/kernel/include/chmtx.h"
 748              		.file 11 "../../ugfx/src/gos/gos_chibios.h"
 749              		.file 12 "../../ugfx/src/gtimer/gtimer.h"
 750              		.file 13 "../../chibios/os/ports/common/ARMCMx/CMSIS/include/core_cm4.h"