ARM GAS  C:\Users\Elis\AppData\Local\Temp\cc4kQ7Jf.s 			page 1


   1              		.syntax unified
   2              		.cpu cortex-m4
   3              		.fpu softvfp
   4              		.eabi_attribute 20, 1
   5              		.eabi_attribute 21, 1
   6              		.eabi_attribute 23, 3
   7              		.eabi_attribute 24, 1
   8              		.eabi_attribute 25, 1
   9              		.eabi_attribute 26, 1
  10              		.eabi_attribute 30, 2
  11              		.eabi_attribute 34, 1
  12              		.eabi_attribute 18, 4
  13              		.thumb
  14              		.file	"gui_t.c"
  15              		.text
  16              	.Ltext0:
  17              		.cfi_sections	.debug_frame
  18              		.section	.text.getContact,"ax",%progbits
  19              		.align	2
  20              		.p2align 4,,15
  21              		.thumb
  22              		.thumb_func
  23              		.type	getContact, %function
  24              	getContact:
  25              	.LFB124:
  26              		.file 1 "../../workspace26/Mobile_phone/tasks/gui_t.c"
  27              		.loc 1 751 0
  28              		.cfi_startproc
  29              		@ args = 0, pretend = 0, frame = 0
  30              		@ frame_needed = 0, uses_anonymous_args = 0
  31              	.LVL0:
  32 0000 38B5     		push	{r3, r4, r5, lr}
  33              	.LCFI0:
  34              		.cfi_def_cfa_offset 16
  35              		.cfi_offset 3, -16
  36              		.cfi_offset 4, -12
  37              		.cfi_offset 5, -8
  38              		.cfi_offset 14, -4
  39              		.loc 1 757 0
  40 0002 90F84C20 		ldrb	r2, [r0, #76]	@ zero_extendqisi2
  41              		.loc 1 751 0
  42 0006 0446     		mov	r4, r0
  43              		.loc 1 757 0
  44 0008 02F0FE00 		and	r0, r2, #254
  45              	.LVL1:
  46 000c 40F00201 		orr	r1, r0, #2
  47 0010 01F0FB05 		and	r5, r1, #251
  48              		.loc 1 759 0
  49 0014 40F20003 		movw	r3, #:lower16:contacts_thrd_h
  50 0018 C0F20003 		movt	r3, #:upper16:contacts_thrd_h
  51              		.loc 1 757 0
  52 001c 6FF3C305 		bfc	r5, #3, #1
  53 0020 84F84C50 		strb	r5, [r4, #76]
  54              		.loc 1 759 0
  55 0024 1868     		ldr	r0, [r3, #0]
  56 0026 2146     		mov	r1, r4
  57 0028 FFF7FEFF 		bl	chMsgSend
ARM GAS  C:\Users\Elis\AppData\Local\Temp\cc4kQ7Jf.s 			page 2


  58              	.LVL2:
  59 002c 0546     		mov	r5, r0
  60              	.LVL3:
  61              		.loc 1 761 0
  62 002e 00F10801 		add	r1, r0, #8
  63 0032 3222     		movs	r2, #50
  64 0034 04F10800 		add	r0, r4, #8
  65              	.LVL4:
  66 0038 FFF7FEFF 		bl	strlcpy
  67              	.LVL5:
  68              		.loc 1 765 0
  69 003c 95F84C20 		ldrb	r2, [r5, #76]	@ zero_extendqisi2
  70 0040 94F84C30 		ldrb	r3, [r4, #76]	@ zero_extendqisi2
  71 0044 C2F30010 		ubfx	r0, r2, #4, #1
  72 0048 60F30413 		bfi	r3, r0, #4, #1
  73 004c 84F84C30 		strb	r3, [r4, #76]
  74 0050 38BD     		pop	{r3, r4, r5, pc}
  75              		.cfi_endproc
  76              	.LFE124:
  77              		.size	getContact, .-getContact
  78 0052 00BFAFF3 		.section	.text.destroyCurrentScreen,"ax",%progbits
  78      0080AFF3 
  78      0080AFF3 
  78      0080
  79              		.align	2
  80              		.p2align 4,,15
  81              		.thumb
  82              		.thumb_func
  83              		.type	destroyCurrentScreen, %function
  84              	destroyCurrentScreen:
  85              	.LFB129:
  86              		.loc 1 870 0
  87              		.cfi_startproc
  88              		@ args = 0, pretend = 0, frame = 0
  89              		@ frame_needed = 0, uses_anonymous_args = 0
  90              		@ link register save eliminated.
  91              	.LVL6:
  92              		.loc 1 872 0
  93 0000 0238     		subs	r0, r0, #2
  94              	.LVL7:
  95 0002 0628     		cmp	r0, #6
  96 0004 07D8     		bhi	.L2
  97 0006 DFE800F0 		tbb	[pc, r0]
  98              	.L11:
  99 000a 07       		.byte	(.L4-.L11)/2
 100 000b 09       		.byte	(.L5-.L11)/2
 101 000c 0B       		.byte	(.L6-.L11)/2
 102 000d 0D       		.byte	(.L7-.L11)/2
 103 000e 0F       		.byte	(.L8-.L11)/2
 104 000f 11       		.byte	(.L9-.L11)/2
 105 0010 04       		.byte	(.L10-.L11)/2
 106 0011 00       		.align	1
 107              	.L10:
 108              		.loc 1 922 0
 109              		.loc 1 912 0
 110 0012 FFF7FEBF 		b	destroySettingsScreen
 111              	.LVL8:
ARM GAS  C:\Users\Elis\AppData\Local\Temp\cc4kQ7Jf.s 			page 3


 112              	.L2:
 113 0016 7047     		bx	lr
 114              	.L4:
 115              		.loc 1 922 0
 116              		.loc 1 876 0
 117 0018 FFF7FEBF 		b	destroyCallsScreen
 118              	.LVL9:
 119              	.L5:
 120              		.loc 1 922 0
 121              		.loc 1 882 0
 122 001c FFF7FEBF 		b	destroyMakeCallScreen
 123              	.LVL10:
 124              	.L6:
 125              		.loc 1 922 0
 126              		.loc 1 888 0
 127 0020 FFF7FEBF 		b	destroyContactsScreen
 128              	.LVL11:
 129              	.L7:
 130              		.loc 1 922 0
 131              		.loc 1 894 0
 132 0024 FFF7FEBF 		b	destroyContactAddScreen
 133              	.LVL12:
 134              	.L8:
 135              		.loc 1 922 0
 136              		.loc 1 900 0
 137 0028 FFF7FEBF 		b	destroyGalleryScreen
 138              	.LVL13:
 139              	.L9:
 140              		.loc 1 922 0
 141              		.loc 1 906 0
 142 002c FFF7FEBF 		b	destroyMainScreen
 143              	.LVL14:
 144              		.cfi_endproc
 145              	.LFE129:
 146              		.size	destroyCurrentScreen, .-destroyCurrentScreen
 147              		.section	.text.createNextScreen,"ax",%progbits
 148              		.align	2
 149              		.p2align 4,,15
 150              		.thumb
 151              		.thumb_func
 152              		.type	createNextScreen, %function
 153              	createNextScreen:
 154              	.LFB128:
 155              		.loc 1 815 0
 156              		.cfi_startproc
 157              		@ args = 0, pretend = 0, frame = 0
 158              		@ frame_needed = 0, uses_anonymous_args = 0
 159              		@ link register save eliminated.
 160              	.LVL15:
 161              		.loc 1 817 0
 162 0000 0238     		subs	r0, r0, #2
 163              	.LVL16:
 164              		.loc 1 815 0
 165 0002 10B4     		push	{r4}
 166              	.LCFI1:
 167              		.cfi_def_cfa_offset 4
 168              		.cfi_offset 4, -4
ARM GAS  C:\Users\Elis\AppData\Local\Temp\cc4kQ7Jf.s 			page 4


 169              		.loc 1 817 0
 170 0004 0628     		cmp	r0, #6
 171 0006 0DD8     		bhi	.L13
 172 0008 DFE800F0 		tbb	[pc, r0]
 173              	.L22:
 174 000c 0E       		.byte	(.L15-.L22)/2
 175 000d 14       		.byte	(.L16-.L22)/2
 176 000e 18       		.byte	(.L17-.L22)/2
 177 000f 1E       		.byte	(.L18-.L22)/2
 178 0010 22       		.byte	(.L19-.L22)/2
 179 0011 26       		.byte	(.L20-.L22)/2
 180 0012 04       		.byte	(.L21-.L22)/2
 181 0013 00       		.align	1
 182              	.L21:
 183              		.loc 1 857 0
 184 0014 0846     		mov	r0, r1
 185              	.LVL17:
 186 0016 496B     		ldr	r1, [r1, #52]
 187              	.LVL18:
 188 0018 C26B     		ldr	r2, [r0, #60]
 189              	.LVL19:
 190 001a 90F83830 		ldrb	r3, [r0, #56]	@ zero_extendqisi2
 191              	.LVL20:
 192              		.loc 1 868 0
 193 001e 10BC     		pop	{r4}
 194              		.loc 1 857 0
 195 0020 FFF7FEBF 		b	createSettingsScreen
 196              	.LVL21:
 197              	.L13:
 198              		.loc 1 868 0
 199 0024 10BC     		pop	{r4}
 200 0026 7047     		bx	lr
 201              	.L15:
 202              		.loc 1 821 0
 203 0028 0846     		mov	r0, r1
 204 002a 1168     		ldr	r1, [r2, #0]
 205              	.LVL22:
 206 002c 926B     		ldr	r2, [r2, #56]
 207              	.LVL23:
 208              		.loc 1 868 0
 209 002e 10BC     		pop	{r4}
 210              		.loc 1 821 0
 211 0030 FFF7FEBF 		b	createCallsScreen
 212              	.LVL24:
 213              	.L16:
 214              		.loc 1 827 0
 215 0034 0846     		mov	r0, r1
 216              		.loc 1 868 0
 217 0036 10BC     		pop	{r4}
 218              		.loc 1 827 0
 219 0038 FFF7FEBF 		b	createMakeCallScreen
 220              	.LVL25:
 221              	.L17:
 222              		.loc 1 833 0
 223 003c 0846     		mov	r0, r1
 224 003e 93E80600 		ldmia	r3, {r1, r2}
 225              	.LVL26:
ARM GAS  C:\Users\Elis\AppData\Local\Temp\cc4kQ7Jf.s 			page 5


 226              		.loc 1 868 0
 227 0042 10BC     		pop	{r4}
 228              		.loc 1 833 0
 229 0044 FFF7FEBF 		b	createContactsScreen
 230              	.LVL27:
 231              	.L18:
 232              		.loc 1 839 0
 233 0048 0846     		mov	r0, r1
 234              		.loc 1 868 0
 235 004a 10BC     		pop	{r4}
 236              		.loc 1 839 0
 237 004c FFF7FEBF 		b	createContactAddScreen
 238              	.LVL28:
 239              	.L19:
 240              		.loc 1 845 0
 241 0050 0846     		mov	r0, r1
 242              		.loc 1 868 0
 243 0052 10BC     		pop	{r4}
 244              		.loc 1 845 0
 245 0054 FFF7FEBF 		b	createGalleryScreen
 246              	.LVL29:
 247              	.L20:
 248              		.loc 1 851 0
 249 0058 0846     		mov	r0, r1
 250              		.loc 1 868 0
 251 005a 10BC     		pop	{r4}
 252              		.loc 1 851 0
 253 005c FFF7FEBF 		b	createMainScreen
 254              	.LVL30:
 255              		.cfi_endproc
 256              	.LFE128:
 257              		.size	createNextScreen, .-createNextScreen
 258              		.section	.text.gui_t,"ax",%progbits
 259              		.align	2
 260              		.p2align 4,,15
 261              		.global	gui_t
 262              		.thumb
 263              		.thumb_func
 264              		.type	gui_t, %function
 265              	gui_t:
 266              	.LFB118:
 267              		.loc 1 69 0
 268              		.cfi_startproc
 269              		@ args = 0, pretend = 0, frame = 376
 270              		@ frame_needed = 0, uses_anonymous_args = 0
 271              	.LVL31:
 272 0000 2DE9F04F 		push	{r4, r5, r6, r7, r8, r9, sl, fp, lr}
 273              	.LCFI2:
 274              		.cfi_def_cfa_offset 36
 275              		.cfi_offset 4, -36
 276              		.cfi_offset 5, -32
 277              		.cfi_offset 6, -28
 278              		.cfi_offset 7, -24
 279              		.cfi_offset 8, -20
 280              		.cfi_offset 9, -16
 281              		.cfi_offset 10, -12
 282              		.cfi_offset 11, -8
ARM GAS  C:\Users\Elis\AppData\Local\Temp\cc4kQ7Jf.s 			page 6


 283              		.cfi_offset 14, -4
 284 0004 DFB0     		sub	sp, sp, #380
 285              	.LCFI3:
 286              		.cfi_def_cfa_offset 416
 287              		.loc 1 117 0
 288 0006 0AA8     		add	r0, sp, #40
 289              	.LVL32:
 290 0008 FFF7FEFF 		bl	geventListenerInit
 291              	.LVL33:
 292              		.loc 1 119 0
 293 000c 0AA8     		add	r0, sp, #40
 294 000e FFF7FEFF 		bl	gwinAttachListener
 295              	.LVL34:
 296              	.LBB45:
 297              	.LBB46:
 298              		.loc 1 678 0
 299 0012 9DF82431 		ldrb	r3, [sp, #292]	@ zero_extendqisi2
 300 0016 3F4F     		ldr	r7, .L114
 301 0018 3F4E     		ldr	r6, .L114+4
 302 001a DFF80C81 		ldr	r8, .L114+20
 303 001e DFF80C91 		ldr	r9, .L114+24
 304 0022 DFF80CA1 		ldr	sl, .L114+28
 305 0026 3D4D     		ldr	r5, .L114+8
 306              		.loc 1 680 0
 307 0028 40F20001 		movw	r1, #:lower16:configuration_thrd_h
 308 002c C0F20001 		movt	r1, #:upper16:configuration_thrd_h
 309              		.loc 1 678 0
 310 0030 43F00102 		orr	r2, r3, #1
 311 0034 6FF34102 		bfc	r2, #1, #1
 312              		.loc 1 680 0
 313 0038 0868     		ldr	r0, [r1, #0]
 314              		.loc 1 678 0
 315 003a 8DF82421 		strb	r2, [sp, #292]
 316              		.loc 1 680 0
 317 003e 39A9     		add	r1, sp, #228
 318              	.LVL35:
 319 0040 FFF7FEFF 		bl	chMsgSend
 320              	.LVL36:
 321              		.loc 1 684 0
 322 0044 90F83830 		ldrb	r3, [r0, #56]	@ zero_extendqisi2
 323              		.loc 1 680 0
 324 0048 0446     		mov	r4, r0
 325              	.LVL37:
 326              		.loc 1 686 0
 327 004a 0146     		mov	r1, r0
 328 004c 39A8     		add	r0, sp, #228
 329              	.LVL38:
 330              		.loc 1 684 0
 331 004e 8DF81C31 		strb	r3, [sp, #284]
 332              		.loc 1 686 0
 333 0052 FFF7FEFF 		bl	strcpy
 334              	.LVL39:
 335              	.LBE46:
 336              	.LBE45:
 337              	.LBB50:
 338              	.LBB51:
 339              		.loc 1 710 0
ARM GAS  C:\Users\Elis\AppData\Local\Temp\cc4kQ7Jf.s 			page 7


 340 0056 3248     		ldr	r0, .L114+12
 341              	.LBE51:
 342              	.LBE50:
 343              	.LBB58:
 344              	.LBB47:
 345              		.loc 1 688 0
 346 0058 626B     		ldr	r2, [r4, #52]
 347              		.loc 1 690 0
 348 005a E46B     		ldr	r4, [r4, #60]
 349              	.LVL40:
 350              	.LBE47:
 351              	.LBE58:
 352              	.LBB59:
 353              	.LBB52:
 354              		.loc 1 710 0
 355 005c 0068     		ldr	r0, [r0, #0]
 356              	.LBE52:
 357              	.LBE59:
 358              	.LBB60:
 359              	.LBB48:
 360              		.loc 1 688 0
 361 005e 4692     		str	r2, [sp, #280]
 362              	.LBE48:
 363              	.LBE60:
 364              	.LBB61:
 365              	.LBB53:
 366              		.loc 1 710 0
 367 0060 0021     		movs	r1, #0
 368              	.LBE53:
 369              	.LBE61:
 370              	.LBB62:
 371              	.LBB49:
 372              		.loc 1 690 0
 373 0062 4894     		str	r4, [sp, #288]
 374              	.LVL41:
 375              	.LBE49:
 376              	.LBE62:
 377              	.LBB63:
 378              	.LBB54:
 379              		.loc 1 710 0
 380 0064 FFF7FEFF 		bl	chMsgSend
 381              	.LVL42:
 382              	.LBE54:
 383              	.LBE63:
 384              	.LBB64:
 385              	.LBB65:
 386              		.loc 1 725 0
 387 0068 9DF87421 		ldrb	r2, [sp, #372]	@ zero_extendqisi2
 388              	.LBE65:
 389              	.LBE64:
 390              	.LBB70:
 391              	.LBB55:
 392              		.loc 1 710 0
 393 006c 0346     		mov	r3, r0
 394              	.LVL43:
 395              	.LBE55:
 396              	.LBE70:
ARM GAS  C:\Users\Elis\AppData\Local\Temp\cc4kQ7Jf.s 			page 8


 397              	.LBB71:
 398              	.LBB66:
 399              		.loc 1 727 0
 400 006e 40F2000E 		movw	lr, #:lower16:contacts_thrd_h
 401              	.LBE66:
 402              	.LBE71:
 403              	.LBB72:
 404              	.LBB56:
 405              		.loc 1 712 0
 406 0072 5968     		ldr	r1, [r3, #4]
 407              		.loc 1 714 0
 408 0074 1C68     		ldr	r4, [r3, #0]
 409              		.loc 1 712 0
 410 0076 0291     		str	r1, [sp, #8]
 411              	.LBE56:
 412              	.LBE72:
 413              	.LBB73:
 414              	.LBB67:
 415              		.loc 1 727 0
 416 0078 C0F2000E 		movt	lr, #:upper16:contacts_thrd_h
 417              		.loc 1 725 0
 418 007c 42F00103 		orr	r3, r2, #1
 419 0080 03F0F902 		and	r2, r3, #249
 420              		.loc 1 727 0
 421 0084 DEF80000 		ldr	r0, [lr, #0]
 422              	.LVL44:
 423              	.LBE67:
 424              	.LBE73:
 425              	.LBB74:
 426              	.LBB57:
 427              		.loc 1 714 0
 428 0088 0594     		str	r4, [sp, #20]
 429              	.LVL45:
 430              	.LBE57:
 431              	.LBE74:
 432              	.LBB75:
 433              	.LBB68:
 434              		.loc 1 725 0
 435 008a 6FF3C302 		bfc	r2, #3, #1
 436              		.loc 1 727 0
 437 008e 4AA9     		add	r1, sp, #296
 438              	.LVL46:
 439              		.loc 1 725 0
 440 0090 8DF87421 		strb	r2, [sp, #372]
 441              		.loc 1 727 0
 442 0094 FFF7FEFF 		bl	chMsgSend
 443              	.LVL47:
 444 0098 0146     		mov	r1, r0
 445              	.LVL48:
 446              		.loc 1 731 0
 447 009a 91E80C00 		ldmia	r1, {r2, r3}
 448              	.LBE68:
 449              	.LBE75:
 450              		.loc 1 135 0
 451 009e 39A8     		add	r0, sp, #228
 452              	.LVL49:
 453              	.LBB76:
ARM GAS  C:\Users\Elis\AppData\Local\Temp\cc4kQ7Jf.s 			page 9


 454              	.LBB69:
 455              		.loc 1 729 0
 456 00a0 4A92     		str	r2, [sp, #296]
 457              		.loc 1 731 0
 458 00a2 4B93     		str	r3, [sp, #300]
 459              	.LBE69:
 460              	.LBE76:
 461              		.loc 1 135 0
 462 00a4 FFF7FEFF 		bl	createMainScreen
 463              	.LVL50:
 464              		.loc 1 111 0
 465 00a8 0020     		movs	r0, #0
 466 00aa 0190     		str	r0, [sp, #4]
 467              		.loc 1 107 0
 468 00ac 0090     		str	r0, [sp, #0]
 469              		.loc 1 103 0
 470 00ae 4FF0070B 		mov	fp, #7
 471              	.LVL51:
 472              	.L83:
 473              		.loc 1 141 0
 474 00b2 1421     		movs	r1, #20
 475 00b4 0AA8     		add	r0, sp, #40
 476 00b6 FFF7FEFF 		bl	geventEventWait
 477              	.LVL52:
 478              		.loc 1 143 0
 479 00ba 0388     		ldrh	r3, [r0, #0]
 480 00bc 40F24122 		movw	r2, #577
 481 00c0 9342     		cmp	r3, r2
 482              		.loc 1 141 0
 483 00c2 0446     		mov	r4, r0
 484              	.LVL53:
 485              		.loc 1 143 0
 486 00c4 00F0ED82 		beq	.L26
 487 00c8 B3F5117F 		cmp	r3, #580
 488 00cc 00F0D182 		beq	.L27
 489 00d0 B3F5107F 		cmp	r3, #576
 490 00d4 2ED0     		beq	.L88
 491              	.LVL54:
 492              	.L24:
 493              	.LBB77:
 494              		.loc 1 627 0
 495 00d6 1348     		ldr	r0, .L114+16
 496 00d8 06A9     		add	r1, sp, #24
 497 00da 0022     		movs	r2, #0
 498 00dc FFF7FEFF 		bl	chMBFetch
 499              	.LVL55:
 500 00e0 0028     		cmp	r0, #0
 501 00e2 E6D1     		bne	.L83
 502              		.loc 1 631 0
 503 00e4 0699     		ldr	r1, [sp, #24]
 504 00e6 91F83200 		ldrb	r0, [r1, #50]	@ zero_extendqisi2
 505 00ea 00F00203 		and	r3, r0, #2
 506 00ee DCB2     		uxtb	r4, r3
 507 00f0 002C     		cmp	r4, #0
 508 00f2 40F0F482 		bne	.L89
 509              		.loc 1 656 0
 510 00f6 00F00401 		and	r1, r0, #4
ARM GAS  C:\Users\Elis\AppData\Local\Temp\cc4kQ7Jf.s 			page 10


 511 00fa CAB2     		uxtb	r2, r1
 512 00fc 002A     		cmp	r2, #0
 513 00fe D8D0     		beq	.L83
 514              		.loc 1 658 0
 515 0100 FFF7FEFF 		bl	destroyCallScreen
 516              	.LVL56:
 517              		.loc 1 660 0
 518 0104 5846     		mov	r0, fp
 519 0106 39A9     		add	r1, sp, #228
 520              	.LVL57:
 521 0108 29AA     		add	r2, sp, #164
 522 010a 4AAB     		add	r3, sp, #296
 523              	.LVL58:
 524 010c FFF7FEFF 		bl	createNextScreen
 525              	.LVL59:
 526              	.LBE77:
 527              		.loc 1 668 0
 528 0110 CFE7     		b	.L83
 529              	.L115:
 530 0112 00BF     		.align	2
 531              	.L114:
 532 0114 00000000 		.word	contacts_contacts_l
 533 0118 00000000 		.word	calls_mainScreen_b
 534 011c 00000000 		.word	themes_settings_l
 535 0120 00000000 		.word	gallery_thrd_h
 536 0124 00000000 		.word	gsmResponse
 537 0128 00000000 		.word	home_calls_b
 538 012c 00000000 		.word	open_calls_b
 539 0130 00000000 		.word	back_calls_b
 540              	.LVL60:
 541              	.L88:
 542              		.loc 1 149 0
 543 0134 4068     		ldr	r0, [r0, #4]
 544              	.LVL61:
 545 0136 3168     		ldr	r1, [r6, #0]
 546 0138 8842     		cmp	r0, r1
 547 013a 00F03A83 		beq	.L90
 548              		.loc 1 162 0
 549 013e D8F80030 		ldr	r3, [r8, #0]
 550 0142 9842     		cmp	r0, r3
 551 0144 00F02C83 		beq	.L86
 552              		.loc 1 171 0
 553 0148 D9F80020 		ldr	r2, [r9, #0]
 554 014c 9042     		cmp	r0, r2
 555 014e 00F06083 		beq	.L91
 556              		.loc 1 180 0
 557 0152 DAF80010 		ldr	r1, [sl, #0]
 558 0156 8842     		cmp	r0, r1
 559 0158 00F06483 		beq	.L92
 560              		.loc 1 189 0
 561 015c 40F2000C 		movw	ip, #:lower16:clear_calls_b
 562 0160 C0F2000C 		movt	ip, #:upper16:clear_calls_b
 563 0164 DCF80030 		ldr	r3, [ip, #0]
 564 0168 9842     		cmp	r0, r3
 565 016a 00F0F982 		beq	.L93
 566              		.loc 1 202 0
 567 016e 40F2000E 		movw	lr, #:lower16:call_calls_b
ARM GAS  C:\Users\Elis\AppData\Local\Temp\cc4kQ7Jf.s 			page 11


 568 0172 C0F2000E 		movt	lr, #:upper16:call_calls_b
 569 0176 DEF80020 		ldr	r2, [lr, #0]
 570 017a 9042     		cmp	r0, r2
 571 017c 00F05483 		beq	.L94
 572              		.loc 1 236 0
 573 0180 40F20001 		movw	r1, #:lower16:c_0_b
 574 0184 C0F20001 		movt	r1, #:upper16:c_0_b
 575 0188 0B68     		ldr	r3, [r1, #0]
 576 018a 9842     		cmp	r0, r3
 577 018c 00F0BE82 		beq	.L35
 578              		.loc 1 236 0 is_stmt 0 discriminator 1
 579 0190 40F20002 		movw	r2, #:lower16:c_1_b
 580 0194 C0F20002 		movt	r2, #:upper16:c_1_b
 581 0198 1168     		ldr	r1, [r2, #0]
 582 019a 8842     		cmp	r0, r1
 583 019c 00F0B682 		beq	.L35
 584              		.loc 1 237 0 is_stmt 1
 585 01a0 40F20003 		movw	r3, #:lower16:c_2_b
 586 01a4 C0F20003 		movt	r3, #:upper16:c_2_b
 587 01a8 1A68     		ldr	r2, [r3, #0]
 588 01aa 9042     		cmp	r0, r2
 589 01ac 00F0AE82 		beq	.L35
 590              		.loc 1 237 0 is_stmt 0 discriminator 1
 591 01b0 40F2000C 		movw	ip, #:lower16:c_3_b
 592 01b4 C0F2000C 		movt	ip, #:upper16:c_3_b
 593 01b8 DCF80010 		ldr	r1, [ip, #0]
 594 01bc 8842     		cmp	r0, r1
 595 01be 00F0A582 		beq	.L35
 596              		.loc 1 238 0 is_stmt 1
 597 01c2 40F20003 		movw	r3, #:lower16:c_4_b
 598 01c6 C0F20003 		movt	r3, #:upper16:c_4_b
 599 01ca 1A68     		ldr	r2, [r3, #0]
 600 01cc 9042     		cmp	r0, r2
 601 01ce 00F09D82 		beq	.L35
 602              		.loc 1 238 0 is_stmt 0 discriminator 1
 603 01d2 40F20001 		movw	r1, #:lower16:c_5_b
 604 01d6 C0F20001 		movt	r1, #:upper16:c_5_b
 605 01da 0B68     		ldr	r3, [r1, #0]
 606 01dc 9842     		cmp	r0, r3
 607 01de 00F09582 		beq	.L35
 608              		.loc 1 239 0 is_stmt 1
 609 01e2 40F2000E 		movw	lr, #:lower16:c_6_b
 610 01e6 C0F2000E 		movt	lr, #:upper16:c_6_b
 611 01ea DEF80020 		ldr	r2, [lr, #0]
 612 01ee 9042     		cmp	r0, r2
 613 01f0 00F08C82 		beq	.L35
 614              		.loc 1 239 0 is_stmt 0 discriminator 1
 615 01f4 40F20001 		movw	r1, #:lower16:c_7_b
 616 01f8 C0F20001 		movt	r1, #:upper16:c_7_b
 617 01fc 0B68     		ldr	r3, [r1, #0]
 618 01fe 9842     		cmp	r0, r3
 619 0200 00F08482 		beq	.L35
 620              		.loc 1 240 0 is_stmt 1
 621 0204 40F20002 		movw	r2, #:lower16:c_8_b
 622 0208 C0F20002 		movt	r2, #:upper16:c_8_b
 623 020c 1168     		ldr	r1, [r2, #0]
 624 020e 8842     		cmp	r0, r1
ARM GAS  C:\Users\Elis\AppData\Local\Temp\cc4kQ7Jf.s 			page 12


 625 0210 00F07C82 		beq	.L35
 626              		.loc 1 240 0 is_stmt 0 discriminator 1
 627 0214 40F2000C 		movw	ip, #:lower16:c_9_b
 628 0218 C0F2000C 		movt	ip, #:upper16:c_9_b
 629 021c DCF80030 		ldr	r3, [ip, #0]
 630 0220 9842     		cmp	r0, r3
 631 0222 00F07382 		beq	.L35
 632              		.loc 1 255 0 is_stmt 1
 633 0226 40F2000E 		movw	lr, #:lower16:telNum_calls_lb
 634 022a C0F2000E 		movt	lr, #:upper16:telNum_calls_lb
 635 022e DEF80020 		ldr	r2, [lr, #0]
 636 0232 9042     		cmp	r0, r2
 637 0234 00F0AC83 		beq	.L95
 638              		.loc 1 262 0
 639 0238 40F20001 		movw	r1, #:lower16:decline_call_b
 640 023c C0F20001 		movt	r1, #:upper16:decline_call_b
 641 0240 0B68     		ldr	r3, [r1, #0]
 642 0242 9842     		cmp	r0, r3
 643 0244 00F0AA83 		beq	.L96
 644              		.loc 1 273 0
 645 0248 40F20002 		movw	r2, #:lower16:messages_mainScreen_b
 646 024c C0F20002 		movt	r2, #:upper16:messages_mainScreen_b
 647 0250 1168     		ldr	r1, [r2, #0]
 648 0252 8842     		cmp	r0, r1
 649 0254 3FF43FAF 		beq	.L24
 650              		.loc 1 277 0
 651 0258 40F2000C 		movw	ip, #:lower16:audioPlayer_mainScreen_b
 652 025c C0F2000C 		movt	ip, #:upper16:audioPlayer_mainScreen_b
 653 0260 DCF80030 		ldr	r3, [ip, #0]
 654 0264 9842     		cmp	r0, r3
 655 0266 3FF436AF 		beq	.L24
 656              		.loc 1 281 0
 657 026a 40F20002 		movw	r2, #:lower16:gallery_mainScreen_b
 658 026e C0F20002 		movt	r2, #:upper16:gallery_mainScreen_b
 659 0272 1168     		ldr	r1, [r2, #0]
 660 0274 8842     		cmp	r0, r1
 661 0276 00F0D783 		beq	.L97
 662              		.loc 1 302 0
 663 027a 40F20003 		movw	r3, #:lower16:home_gallery_b
 664 027e C0F20003 		movt	r3, #:upper16:home_gallery_b
 665 0282 1A68     		ldr	r2, [r3, #0]
 666 0284 9042     		cmp	r0, r2
 667 0286 00F08B82 		beq	.L86
 668              		.loc 1 311 0
 669 028a 40F20001 		movw	r1, #:lower16:nextImage_gallery_b
 670 028e C0F20001 		movt	r1, #:upper16:nextImage_gallery_b
 671 0292 0B68     		ldr	r3, [r1, #0]
 672 0294 9842     		cmp	r0, r3
 673 0296 00F01283 		beq	.L98
 674              		.loc 1 324 0
 675 029a 40F2000E 		movw	lr, #:lower16:previousImage_gallery_b
 676 029e C0F2000E 		movt	lr, #:upper16:previousImage_gallery_b
 677 02a2 DEF80020 		ldr	r2, [lr, #0]
 678 02a6 9042     		cmp	r0, r2
 679 02a8 00F05883 		beq	.L99
 680              		.loc 1 337 0
 681 02ac 40F20001 		movw	r1, #:lower16:settings_mainScreen_b
ARM GAS  C:\Users\Elis\AppData\Local\Temp\cc4kQ7Jf.s 			page 13


 682 02b0 C0F20001 		movt	r1, #:upper16:settings_mainScreen_b
 683 02b4 0B68     		ldr	r3, [r1, #0]
 684 02b6 9842     		cmp	r0, r3
 685 02b8 00F0C583 		beq	.L100
 686              		.loc 1 346 0
 687 02bc 40F20002 		movw	r2, #:lower16:home_settings_b
 688 02c0 C0F20002 		movt	r2, #:upper16:home_settings_b
 689 02c4 1168     		ldr	r1, [r2, #0]
 690 02c6 8842     		cmp	r0, r1
 691 02c8 00F06A82 		beq	.L86
 692              		.loc 1 355 0
 693 02cc 40F20003 		movw	r3, #:lower16:contacts_mainScreen_b
 694 02d0 C0F20003 		movt	r3, #:upper16:contacts_mainScreen_b
 695 02d4 1A68     		ldr	r2, [r3, #0]
 696 02d6 9042     		cmp	r0, r2
 697 02d8 00F0CD83 		beq	.L101
 698              		.loc 1 376 0
 699 02dc 40F20001 		movw	r1, #:lower16:add_contacts_b
 700 02e0 C0F20001 		movt	r1, #:upper16:add_contacts_b
 701 02e4 0B68     		ldr	r3, [r1, #0]
 702 02e6 9842     		cmp	r0, r3
 703 02e8 00F0E583 		beq	.L102
 704              		.loc 1 385 0
 705 02ec 40F2000C 		movw	ip, #:lower16:delete_contacts_b
 706 02f0 C0F2000C 		movt	ip, #:upper16:delete_contacts_b
 707 02f4 DCF80020 		ldr	r2, [ip, #0]
 708 02f8 9042     		cmp	r0, r2
 709 02fa 00F06183 		beq	.L103
 710              		.loc 1 404 0
 711 02fe 40F2000E 		movw	lr, #:lower16:save_contacts_b
 712 0302 C0F2000E 		movt	lr, #:upper16:save_contacts_b
 713 0306 DEF80010 		ldr	r1, [lr, #0]
 714 030a 8842     		cmp	r0, r1
 715 030c 00F0E983 		beq	.L104
 716              		.loc 1 427 0
 717 0310 40F20003 		movw	r3, #:lower16:back_contacts_b
 718 0314 C0F20003 		movt	r3, #:upper16:back_contacts_b
 719 0318 1A68     		ldr	r2, [r3, #0]
 720 031a 9042     		cmp	r0, r2
 721 031c 00F0D583 		beq	.L105
 722              		.loc 1 436 0
 723 0320 40F2000C 		movw	ip, #:lower16:home_contacts_b
 724 0324 C0F2000C 		movt	ip, #:upper16:home_contacts_b
 725 0328 DCF80010 		ldr	r1, [ip, #0]
 726 032c 8842     		cmp	r0, r1
 727 032e 00F03782 		beq	.L86
 728              		.loc 1 445 0
 729 0332 40F20003 		movw	r3, #:lower16:name_contacts_lb
 730 0336 C0F20003 		movt	r3, #:upper16:name_contacts_lb
 731 033a 1968     		ldr	r1, [r3, #0]
 732 033c 8842     		cmp	r0, r1
 733 033e 00F03084 		beq	.L106
 734              		.loc 1 460 0
 735 0342 40F20002 		movw	r2, #:lower16:telNum_contacts_lb
 736 0346 C0F20002 		movt	r2, #:upper16:telNum_contacts_lb
 737 034a 1368     		ldr	r3, [r2, #0]
 738 034c 9842     		cmp	r0, r3
ARM GAS  C:\Users\Elis\AppData\Local\Temp\cc4kQ7Jf.s 			page 14


 739 034e 00F01984 		beq	.L107
 740              		.loc 1 475 0
 741 0352 40F2000E 		movw	lr, #:lower16:notifications_mainScreen_b
 742 0356 C0F2000E 		movt	lr, #:upper16:notifications_mainScreen_b
 743 035a DEF80020 		ldr	r2, [lr, #0]
 744 035e 9042     		cmp	r0, r2
 745 0360 3FF4B9AE 		beq	.L24
 746              		.loc 1 481 0
 747 0364 40F2000C 		movw	ip, #:lower16:.LANCHOR0
 748 0368 C0F2000C 		movt	ip, #:upper16:.LANCHOR0
 749 036c DCF80020 		ldr	r2, [ip, #0]
 750 0370 9042     		cmp	r0, r2
 751 0372 00F05081 		beq	.L55
 752              		.loc 1 481 0 is_stmt 0 discriminator 1
 753 0376 40F2000E 		movw	lr, #:lower16:.LANCHOR1
 754 037a C0F2000E 		movt	lr, #:upper16:.LANCHOR1
 755 037e DEF80020 		ldr	r2, [lr, #0]
 756 0382 9042     		cmp	r0, r2
 757 0384 00F04781 		beq	.L55
 758              		.loc 1 482 0 is_stmt 1
 759 0388 40F2000C 		movw	ip, #:lower16:.LANCHOR2
 760 038c C0F2000C 		movt	ip, #:upper16:.LANCHOR2
 761 0390 DCF80020 		ldr	r2, [ip, #0]
 762 0394 9042     		cmp	r0, r2
 763 0396 00F03E81 		beq	.L55
 764              		.loc 1 482 0 is_stmt 0 discriminator 1
 765 039a 40F2000E 		movw	lr, #:lower16:.LANCHOR3
 766 039e C0F2000E 		movt	lr, #:upper16:.LANCHOR3
 767 03a2 DEF80020 		ldr	r2, [lr, #0]
 768 03a6 9042     		cmp	r0, r2
 769 03a8 00F03581 		beq	.L55
 770              		.loc 1 483 0 is_stmt 1
 771 03ac 40F2000C 		movw	ip, #:lower16:.LANCHOR4
 772 03b0 C0F2000C 		movt	ip, #:upper16:.LANCHOR4
 773 03b4 DCF80020 		ldr	r2, [ip, #0]
 774 03b8 9042     		cmp	r0, r2
 775 03ba 00F02C81 		beq	.L55
 776              		.loc 1 483 0 is_stmt 0 discriminator 1
 777 03be 40F2000E 		movw	lr, #:lower16:.LANCHOR5
 778 03c2 C0F2000E 		movt	lr, #:upper16:.LANCHOR5
 779 03c6 DEF80020 		ldr	r2, [lr, #0]
 780 03ca 9042     		cmp	r0, r2
 781 03cc 00F02381 		beq	.L55
 782              		.loc 1 484 0 is_stmt 1
 783 03d0 40F2000C 		movw	ip, #:lower16:.LANCHOR6
 784 03d4 C0F2000C 		movt	ip, #:upper16:.LANCHOR6
 785 03d8 DCF80020 		ldr	r2, [ip, #0]
 786 03dc 9042     		cmp	r0, r2
 787 03de 00F01A81 		beq	.L55
 788              		.loc 1 484 0 is_stmt 0 discriminator 1
 789 03e2 40F2000E 		movw	lr, #:lower16:.LANCHOR7
 790 03e6 C0F2000E 		movt	lr, #:upper16:.LANCHOR7
 791 03ea DEF80020 		ldr	r2, [lr, #0]
 792 03ee 9042     		cmp	r0, r2
 793 03f0 00F01181 		beq	.L55
 794              		.loc 1 485 0 is_stmt 1
 795 03f4 40F2000C 		movw	ip, #:lower16:.LANCHOR8
ARM GAS  C:\Users\Elis\AppData\Local\Temp\cc4kQ7Jf.s 			page 15


 796 03f8 C0F2000C 		movt	ip, #:upper16:.LANCHOR8
 797 03fc DCF80020 		ldr	r2, [ip, #0]
 798 0400 9042     		cmp	r0, r2
 799 0402 00F00881 		beq	.L55
 800              		.loc 1 485 0 is_stmt 0 discriminator 1
 801 0406 40F2000E 		movw	lr, #:lower16:.LANCHOR9
 802 040a C0F2000E 		movt	lr, #:upper16:.LANCHOR9
 803 040e DEF80020 		ldr	r2, [lr, #0]
 804 0412 9042     		cmp	r0, r2
 805 0414 00F0FF80 		beq	.L55
 806              		.loc 1 486 0 is_stmt 1
 807 0418 40F2000C 		movw	ip, #:lower16:.LANCHOR10
 808 041c C0F2000C 		movt	ip, #:upper16:.LANCHOR10
 809 0420 DCF80020 		ldr	r2, [ip, #0]
 810 0424 9042     		cmp	r0, r2
 811 0426 00F0F680 		beq	.L55
 812              		.loc 1 486 0 is_stmt 0 discriminator 1
 813 042a 40F2000E 		movw	lr, #:lower16:.LANCHOR11
 814 042e C0F2000E 		movt	lr, #:upper16:.LANCHOR11
 815 0432 DEF80020 		ldr	r2, [lr, #0]
 816 0436 9042     		cmp	r0, r2
 817 0438 00F0ED80 		beq	.L55
 818              		.loc 1 487 0 is_stmt 1
 819 043c 40F2000C 		movw	ip, #:lower16:.LANCHOR12
 820 0440 C0F2000C 		movt	ip, #:upper16:.LANCHOR12
 821 0444 DCF80020 		ldr	r2, [ip, #0]
 822 0448 9042     		cmp	r0, r2
 823 044a 00F0E480 		beq	.L55
 824              		.loc 1 487 0 is_stmt 0 discriminator 1
 825 044e 40F2000E 		movw	lr, #:lower16:.LANCHOR13
 826 0452 C0F2000E 		movt	lr, #:upper16:.LANCHOR13
 827 0456 DEF80020 		ldr	r2, [lr, #0]
 828 045a 9042     		cmp	r0, r2
 829 045c 00F0DB80 		beq	.L55
 830              		.loc 1 488 0 is_stmt 1
 831 0460 40F2000C 		movw	ip, #:lower16:.LANCHOR14
 832 0464 C0F2000C 		movt	ip, #:upper16:.LANCHOR14
 833 0468 DCF80020 		ldr	r2, [ip, #0]
 834 046c 9042     		cmp	r0, r2
 835 046e 00F0D280 		beq	.L55
 836              		.loc 1 488 0 is_stmt 0 discriminator 1
 837 0472 40F2000E 		movw	lr, #:lower16:.LANCHOR15
 838 0476 C0F2000E 		movt	lr, #:upper16:.LANCHOR15
 839 047a DEF80020 		ldr	r2, [lr, #0]
 840 047e 9042     		cmp	r0, r2
 841 0480 00F0C980 		beq	.L55
 842              		.loc 1 489 0 is_stmt 1
 843 0484 40F2000C 		movw	ip, #:lower16:.LANCHOR16
 844 0488 C0F2000C 		movt	ip, #:upper16:.LANCHOR16
 845 048c DCF80020 		ldr	r2, [ip, #0]
 846 0490 9042     		cmp	r0, r2
 847 0492 00F0C080 		beq	.L55
 848              		.loc 1 489 0 is_stmt 0 discriminator 1
 849 0496 40F2000E 		movw	lr, #:lower16:.LANCHOR17
 850 049a C0F2000E 		movt	lr, #:upper16:.LANCHOR17
 851 049e DEF80020 		ldr	r2, [lr, #0]
 852 04a2 9042     		cmp	r0, r2
ARM GAS  C:\Users\Elis\AppData\Local\Temp\cc4kQ7Jf.s 			page 16


 853 04a4 00F0B780 		beq	.L55
 854              		.loc 1 490 0 is_stmt 1
 855 04a8 40F2000C 		movw	ip, #:lower16:.LANCHOR18
 856 04ac C0F2000C 		movt	ip, #:upper16:.LANCHOR18
 857 04b0 DCF80020 		ldr	r2, [ip, #0]
 858 04b4 9042     		cmp	r0, r2
 859 04b6 00F0AE80 		beq	.L55
 860              		.loc 1 490 0 is_stmt 0 discriminator 1
 861 04ba 40F2000E 		movw	lr, #:lower16:.LANCHOR19
 862 04be C0F2000E 		movt	lr, #:upper16:.LANCHOR19
 863 04c2 DEF80020 		ldr	r2, [lr, #0]
 864 04c6 9042     		cmp	r0, r2
 865 04c8 00F0A580 		beq	.L55
 866              		.loc 1 491 0 is_stmt 1
 867 04cc 40F2000C 		movw	ip, #:lower16:.LANCHOR20
 868 04d0 C0F2000C 		movt	ip, #:upper16:.LANCHOR20
 869 04d4 DCF80020 		ldr	r2, [ip, #0]
 870 04d8 9042     		cmp	r0, r2
 871 04da 00F09C80 		beq	.L55
 872              		.loc 1 491 0 is_stmt 0 discriminator 1
 873 04de 40F2000E 		movw	lr, #:lower16:.LANCHOR21
 874 04e2 C0F2000E 		movt	lr, #:upper16:.LANCHOR21
 875 04e6 DEF80020 		ldr	r2, [lr, #0]
 876 04ea 9042     		cmp	r0, r2
 877 04ec 00F09380 		beq	.L55
 878              		.loc 1 492 0 is_stmt 1
 879 04f0 40F2000C 		movw	ip, #:lower16:.LANCHOR22
 880 04f4 C0F2000C 		movt	ip, #:upper16:.LANCHOR22
 881 04f8 DCF80020 		ldr	r2, [ip, #0]
 882 04fc 9042     		cmp	r0, r2
 883 04fe 00F08A80 		beq	.L55
 884              		.loc 1 492 0 is_stmt 0 discriminator 1
 885 0502 40F2000E 		movw	lr, #:lower16:.LANCHOR23
 886 0506 C0F2000E 		movt	lr, #:upper16:.LANCHOR23
 887 050a DEF80020 		ldr	r2, [lr, #0]
 888 050e 9042     		cmp	r0, r2
 889 0510 00F08180 		beq	.L55
 890              		.loc 1 493 0 is_stmt 1
 891 0514 40F2000C 		movw	ip, #:lower16:.LANCHOR24
 892 0518 C0F2000C 		movt	ip, #:upper16:.LANCHOR24
 893 051c DCF80020 		ldr	r2, [ip, #0]
 894 0520 9042     		cmp	r0, r2
 895 0522 78D0     		beq	.L55
 896              		.loc 1 493 0 is_stmt 0 discriminator 1
 897 0524 40F2000E 		movw	lr, #:lower16:.LANCHOR25
 898 0528 C0F2000E 		movt	lr, #:upper16:.LANCHOR25
 899 052c DEF80020 		ldr	r2, [lr, #0]
 900 0530 9042     		cmp	r0, r2
 901 0532 70D0     		beq	.L55
 902              		.loc 1 494 0 is_stmt 1
 903 0534 40F2000C 		movw	ip, #:lower16:.LANCHOR26
 904 0538 C0F2000C 		movt	ip, #:upper16:.LANCHOR26
 905 053c DCF80020 		ldr	r2, [ip, #0]
 906 0540 9042     		cmp	r0, r2
 907 0542 68D0     		beq	.L55
 908              		.loc 1 494 0 is_stmt 0 discriminator 1
 909 0544 40F2000E 		movw	lr, #:lower16:.LANCHOR27
ARM GAS  C:\Users\Elis\AppData\Local\Temp\cc4kQ7Jf.s 			page 17


 910 0548 C0F2000E 		movt	lr, #:upper16:.LANCHOR27
 911 054c DEF80020 		ldr	r2, [lr, #0]
 912 0550 9042     		cmp	r0, r2
 913 0552 60D0     		beq	.L55
 914              		.loc 1 495 0 is_stmt 1
 915 0554 40F2000C 		movw	ip, #:lower16:.LANCHOR28
 916 0558 C0F2000C 		movt	ip, #:upper16:.LANCHOR28
 917 055c DCF80020 		ldr	r2, [ip, #0]
 918 0560 9042     		cmp	r0, r2
 919 0562 58D0     		beq	.L55
 920              		.loc 1 495 0 is_stmt 0 discriminator 1
 921 0564 40F2000E 		movw	lr, #:lower16:.LANCHOR29
 922 0568 C0F2000E 		movt	lr, #:upper16:.LANCHOR29
 923 056c DEF80020 		ldr	r2, [lr, #0]
 924 0570 9042     		cmp	r0, r2
 925 0572 50D0     		beq	.L55
 926              		.loc 1 496 0 is_stmt 1
 927 0574 40F2000C 		movw	ip, #:lower16:.LANCHOR30
 928 0578 C0F2000C 		movt	ip, #:upper16:.LANCHOR30
 929 057c DCF80020 		ldr	r2, [ip, #0]
 930 0580 9042     		cmp	r0, r2
 931 0582 48D0     		beq	.L55
 932              		.loc 1 496 0 is_stmt 0 discriminator 1
 933 0584 40F2000E 		movw	lr, #:lower16:.LANCHOR31
 934 0588 C0F2000E 		movt	lr, #:upper16:.LANCHOR31
 935 058c DEF80020 		ldr	r2, [lr, #0]
 936 0590 9042     		cmp	r0, r2
 937 0592 40D0     		beq	.L55
 938              		.loc 1 497 0 is_stmt 1
 939 0594 40F2000C 		movw	ip, #:lower16:.LANCHOR32
 940 0598 C0F2000C 		movt	ip, #:upper16:.LANCHOR32
 941 059c DCF80020 		ldr	r2, [ip, #0]
 942 05a0 9042     		cmp	r0, r2
 943 05a2 38D0     		beq	.L55
 944              		.loc 1 497 0 is_stmt 0 discriminator 1
 945 05a4 40F2000E 		movw	lr, #:lower16:.LANCHOR33
 946 05a8 C0F2000E 		movt	lr, #:upper16:.LANCHOR33
 947 05ac DEF80020 		ldr	r2, [lr, #0]
 948 05b0 9042     		cmp	r0, r2
 949 05b2 30D0     		beq	.L55
 950              		.loc 1 498 0 is_stmt 1
 951 05b4 40F2000C 		movw	ip, #:lower16:.LANCHOR34
 952 05b8 C0F2000C 		movt	ip, #:upper16:.LANCHOR34
 953 05bc DCF80020 		ldr	r2, [ip, #0]
 954 05c0 9042     		cmp	r0, r2
 955 05c2 28D0     		beq	.L55
 956              		.loc 1 498 0 is_stmt 0 discriminator 1
 957 05c4 40F2000E 		movw	lr, #:lower16:.LANCHOR35
 958 05c8 C0F2000E 		movt	lr, #:upper16:.LANCHOR35
 959 05cc DEF80020 		ldr	r2, [lr, #0]
 960 05d0 9042     		cmp	r0, r2
 961 05d2 20D0     		beq	.L55
 962              		.loc 1 499 0 is_stmt 1
 963 05d4 40F2000C 		movw	ip, #:lower16:.LANCHOR36
 964 05d8 C0F2000C 		movt	ip, #:upper16:.LANCHOR36
 965 05dc DCF80020 		ldr	r2, [ip, #0]
 966 05e0 9042     		cmp	r0, r2
ARM GAS  C:\Users\Elis\AppData\Local\Temp\cc4kQ7Jf.s 			page 18


 967 05e2 18D0     		beq	.L55
 968              		.loc 1 499 0 is_stmt 0 discriminator 1
 969 05e4 40F2000E 		movw	lr, #:lower16:.LANCHOR37
 970 05e8 C0F2000E 		movt	lr, #:upper16:.LANCHOR37
 971 05ec DEF80020 		ldr	r2, [lr, #0]
 972 05f0 9042     		cmp	r0, r2
 973 05f2 10D0     		beq	.L55
 974              		.loc 1 500 0 is_stmt 1
 975 05f4 40F2000C 		movw	ip, #:lower16:.LANCHOR38
 976 05f8 C0F2000C 		movt	ip, #:upper16:.LANCHOR38
 977 05fc DCF80020 		ldr	r2, [ip, #0]
 978 0600 9042     		cmp	r0, r2
 979 0602 08D0     		beq	.L55
 980              		.loc 1 500 0 is_stmt 0 discriminator 1
 981 0604 40F2000E 		movw	lr, #:lower16:.LANCHOR39
 982 0608 C0F2000E 		movt	lr, #:upper16:.LANCHOR39
 983 060c DEF80020 		ldr	r2, [lr, #0]
 984 0610 9042     		cmp	r0, r2
 985 0612 7FF460AD 		bne	.L24
 986              	.L55:
 987              		.loc 1 504 0 is_stmt 1
 988 0616 0398     		ldr	r0, [sp, #12]
 989 0618 0028     		cmp	r0, #0
 990 061a 00F06381 		beq	.L56
 991              		.loc 1 508 0
 992 061e 9DF86430 		ldrb	r3, [sp, #100]	@ zero_extendqisi2
 993 0622 002B     		cmp	r3, #0
 994 0624 00F01C82 		beq	.L108
 995              	.L57:
 996              		.loc 1 511 0
 997 0628 0846     		mov	r0, r1
 998 062a FFF7FEFF 		bl	gwinGetText
 999              	.LVL62:
 1000 062e FFF7FEFF 		bl	strlen
 1001              	.LVL63:
 1002 0632 3128     		cmp	r0, #49
 1003 0634 3FF64FAD 		bhi	.L24
 1004              		.loc 1 513 0
 1005 0638 40F2000C 		movw	ip, #:lower16:name_contacts_lb
 1006 063c C0F2000C 		movt	ip, #:upper16:name_contacts_lb
 1007 0640 DCF80000 		ldr	r0, [ip, #0]
 1008 0644 FFF7FEFF 		bl	gwinGetText
 1009              	.LVL64:
 1010 0648 0146     		mov	r1, r0
 1011 064a 19A8     		add	r0, sp, #100
 1012 064c FFF7FEFF 		bl	strcpy
 1013              	.LVL65:
 1014              		.loc 1 515 0
 1015 0650 6068     		ldr	r0, [r4, #4]
 1016 0652 FFF7FEFF 		bl	gwinGetText
 1017              	.LVL66:
 1018 0656 0146     		mov	r1, r0
 1019 0658 19A8     		add	r0, sp, #100
 1020 065a FFF7FEFF 		bl	strcat
 1021              	.LVL67:
 1022              		.loc 1 517 0
 1023 065e 40F20002 		movw	r2, #:lower16:name_contacts_lb
ARM GAS  C:\Users\Elis\AppData\Local\Temp\cc4kQ7Jf.s 			page 19


 1024 0662 C0F20002 		movt	r2, #:upper16:name_contacts_lb
 1025 0666 19A9     		add	r1, sp, #100
 1026 0668 1068     		ldr	r0, [r2, #0]
 1027 066a 0122     		movs	r2, #1
 1028 066c FFF7FEFF 		bl	gwinSetText
 1029              	.LVL68:
 1030 0670 31E5     		b	.L24
 1031              	.LVL69:
 1032              	.L27:
 1033              		.loc 1 571 0
 1034 0672 4068     		ldr	r0, [r0, #4]
 1035              	.LVL70:
 1036 0674 2B68     		ldr	r3, [r5, #0]
 1037 0676 9842     		cmp	r0, r3
 1038 0678 00F0BD80 		beq	.L109
 1039              		.loc 1 582 0
 1040 067c 3968     		ldr	r1, [r7, #0]
 1041 067e 8842     		cmp	r0, r1
 1042 0680 7FF429AD 		bne	.L24
 1043              		.loc 1 586 0
 1044 0684 FFF7FEFF 		bl	gwinListGetSelected
 1045              	.LVL71:
 1046 0688 009C     		ldr	r4, [sp, #0]
 1047              	.LVL72:
 1048 068a A042     		cmp	r0, r4
 1049 068c 00F00181 		beq	.L110
 1050              		.loc 1 607 0
 1051 0690 40F20000 		movw	r0, #:lower16:contacts_contacts_l
 1052 0694 C0F20000 		movt	r0, #:upper16:contacts_contacts_l
 1053 0698 0068     		ldr	r0, [r0, #0]
 1054 069a FFF7FEFF 		bl	gwinListGetSelected
 1055              	.LVL73:
 1056 069e 0090     		str	r0, [sp, #0]
 1057              	.LVL74:
 1058 06a0 19E5     		b	.L24
 1059              	.LVL75:
 1060              	.L26:
 1061              		.loc 1 559 0
 1062 06a2 40F20003 		movw	r3, #:lower16:GDISP
 1063              		.loc 1 555 0
 1064 06a6 8268     		ldr	r2, [r0, #8]
 1065              		.loc 1 559 0
 1066 06a8 C0F20003 		movt	r3, #:upper16:GDISP
 1067              		.loc 1 555 0
 1068 06ac 8DF81C21 		strb	r2, [sp, #284]
 1069              		.loc 1 559 0
 1070 06b0 1868     		ldr	r0, [r3, #0]
 1071              	.LVL76:
 1072 06b2 0221     		movs	r1, #2
 1073 06b4 D2B2     		uxtb	r2, r2
 1074 06b6 FFF7FEFF 		bl	gdispGControl
 1075              	.LVL77:
 1076              	.LBB78:
 1077              	.LBB79:
 1078              		.loc 1 700 0
 1079 06ba 40F2000E 		movw	lr, #:lower16:configuration_thrd_h
 1080 06be C0F2000E 		movt	lr, #:upper16:configuration_thrd_h
ARM GAS  C:\Users\Elis\AppData\Local\Temp\cc4kQ7Jf.s 			page 20


 1081 06c2 DEF80000 		ldr	r0, [lr, #0]
 1082              	.LVL78:
 1083              	.L87:
 1084              	.LBE79:
 1085              	.LBE78:
 1086              	.LBB80:
 1087              	.LBB81:
 1088              		.loc 1 698 0
 1089 06c6 9DF82411 		ldrb	r1, [sp, #292]	@ zero_extendqisi2
 1090 06ca 01F0FE04 		and	r4, r1, #254
 1091 06ce 44F00202 		orr	r2, r4, #2
 1092              		.loc 1 700 0
 1093 06d2 39A9     		add	r1, sp, #228
 1094              	.LVL79:
 1095              		.loc 1 698 0
 1096 06d4 8DF82421 		strb	r2, [sp, #292]
 1097              		.loc 1 700 0
 1098 06d8 FFF7FEFF 		bl	chMsgSend
 1099              	.LVL80:
 1100 06dc FBE4     		b	.L24
 1101              	.L89:
 1102              	.LBE81:
 1103              	.LBE80:
 1104              	.LBB83:
 1105              		.loc 1 633 0
 1106 06de 0B22     		movs	r2, #11
 1107 06e0 0DF5B170 		add	r0, sp, #354
 1108 06e4 FFF7FEFF 		bl	strlcpy
 1109              	.LVL81:
 1110              		.loc 1 637 0
 1111 06e8 4AA8     		add	r0, sp, #296
 1112              	.LVL82:
 1113 06ea FFF7FEFF 		bl	getContact
 1114              	.LVL83:
 1115              		.loc 1 639 0
 1116 06ee 5846     		mov	r0, fp
 1117 06f0 FFF7FEFF 		bl	destroyCurrentScreen
 1118              	.LVL84:
 1119              		.loc 1 641 0
 1120 06f4 9DF87401 		ldrb	r0, [sp, #372]	@ zero_extendqisi2
 1121 06f8 00F01003 		and	r3, r0, #16
 1122 06fc DCB2     		uxtb	r4, r3
 1123              		.loc 1 643 0
 1124 06fe 39A8     		add	r0, sp, #228
 1125              	.LVL85:
 1126              		.loc 1 641 0
 1127 0700 44B3     		cbz	r4, .L63
 1128              		.loc 1 643 0
 1129 0702 4CA9     		add	r1, sp, #304
 1130 0704 0122     		movs	r2, #1
 1131 0706 FFF7FEFF 		bl	createCallScreen
 1132              	.LVL86:
 1133 070a D2E4     		b	.L83
 1134              	.LVL87:
 1135              	.L35:
 1136              	.LBE83:
 1137              		.loc 1 244 0
ARM GAS  C:\Users\Elis\AppData\Local\Temp\cc4kQ7Jf.s 			page 21


 1138 070c 07A8     		add	r0, sp, #28
 1139 070e FFF7FEFF 		bl	strlen
 1140              	.LVL88:
 1141 0712 0A28     		cmp	r0, #10
 1142 0714 3FF6DFAC 		bhi	.L24
 1143              		.loc 1 246 0
 1144 0718 40F20003 		movw	r3, #:lower16:telNum_calls_lb
 1145 071c C0F20003 		movt	r3, #:upper16:telNum_calls_lb
 1146 0720 1868     		ldr	r0, [r3, #0]
 1147 0722 FFF7FEFF 		bl	gwinGetText
 1148              	.LVL89:
 1149 0726 0B22     		movs	r2, #11
 1150 0728 0146     		mov	r1, r0
 1151 072a 07A8     		add	r0, sp, #28
 1152 072c FFF7FEFF 		bl	strlcpy
 1153              	.LVL90:
 1154              		.loc 1 248 0
 1155 0730 6068     		ldr	r0, [r4, #4]
 1156 0732 FFF7FEFF 		bl	gwinGetText
 1157              	.LVL91:
 1158              		.loc 1 250 0
 1159 0736 40F20004 		movw	r4, #:lower16:telNum_calls_lb
 1160              	.LVL92:
 1161 073a C0F20004 		movt	r4, #:upper16:telNum_calls_lb
 1162              		.loc 1 248 0
 1163 073e 0146     		mov	r1, r0
 1164 0740 0B22     		movs	r2, #11
 1165 0742 07A8     		add	r0, sp, #28
 1166 0744 FFF7FEFF 		bl	strlcat
 1167              	.LVL93:
 1168              		.loc 1 250 0
 1169 0748 2068     		ldr	r0, [r4, #0]
 1170 074a 07A9     		add	r1, sp, #28
 1171 074c 0122     		movs	r2, #1
 1172 074e FFF7FEFF 		bl	gwinSetText
 1173              	.LVL94:
 1174 0752 C0E4     		b	.L24
 1175              	.LVL95:
 1176              	.L63:
 1177              	.LBB84:
 1178              		.loc 1 648 0
 1179 0754 0DF5B171 		add	r1, sp, #354
 1180 0758 0122     		movs	r2, #1
 1181 075a FFF7FEFF 		bl	createCallScreen
 1182              	.LVL96:
 1183 075e A8E4     		b	.L83
 1184              	.LVL97:
 1185              	.L93:
 1186              	.LBE84:
 1187              		.loc 1 193 0
 1188 0760 3799     		ldr	r1, [sp, #220]
 1189 0762 0029     		cmp	r1, #0
 1190 0764 7FF7B7AC 		ble	.L24
 1191              	.LVL98:
 1192              	.LBB85:
 1193              	.LBB86:
 1194              		.loc 1 807 0
ARM GAS  C:\Users\Elis\AppData\Local\Temp\cc4kQ7Jf.s 			page 22


 1195 0768 9DF8E020 		ldrb	r2, [sp, #224]	@ zero_extendqisi2
 1196              		.loc 1 809 0
 1197 076c 40F20003 		movw	r3, #:lower16:calls_thrd_h
 1198 0770 C0F20003 		movt	r3, #:upper16:calls_thrd_h
 1199              		.loc 1 807 0
 1200 0774 42F00404 		orr	r4, r2, #4
 1201              	.LVL99:
 1202 0778 04F0FD02 		and	r2, r4, #253
 1203              		.loc 1 809 0
 1204 077c 1868     		ldr	r0, [r3, #0]
 1205              		.loc 1 807 0
 1206 077e 6FF30002 		bfc	r2, #0, #1
 1207              		.loc 1 809 0
 1208 0782 29A9     		add	r1, sp, #164
 1209              	.LVL100:
 1210              		.loc 1 807 0
 1211 0784 8DF8E020 		strb	r2, [sp, #224]
 1212              		.loc 1 809 0
 1213 0788 FFF7FEFF 		bl	chMsgSend
 1214              	.LVL101:
 1215              		.loc 1 811 0
 1216 078c 816B     		ldr	r1, [r0, #56]
 1217              	.LBE86:
 1218              	.LBE85:
 1219              		.loc 1 197 0
 1220 078e 40F20000 		movw	r0, #:lower16:calls_calls_l
 1221              	.LVL102:
 1222 0792 C0F20000 		movt	r0, #:upper16:calls_calls_l
 1223              	.LBB88:
 1224              	.LBB87:
 1225              		.loc 1 811 0
 1226 0796 3791     		str	r1, [sp, #220]
 1227              	.LBE87:
 1228              	.LBE88:
 1229              		.loc 1 197 0
 1230 0798 0068     		ldr	r0, [r0, #0]
 1231 079a FFF7FEFF 		bl	gwinListDeleteAll
 1232              	.LVL103:
 1233 079e 9AE4     		b	.L24
 1234              	.LVL104:
 1235              	.L86:
 1236              		.loc 1 438 0
 1237 07a0 5846     		mov	r0, fp
 1238 07a2 FFF7FEFF 		bl	destroyCurrentScreen
 1239              	.LVL105:
 1240              	.LBB89:
 1241              	.LBB90:
 1242              		.loc 1 851 0
 1243 07a6 39A8     		add	r0, sp, #228
 1244              	.LVL106:
 1245 07a8 FFF7FEFF 		bl	createMainScreen
 1246              	.LVL107:
 1247              		.loc 1 440 0
 1248 07ac 4FF0070B 		mov	fp, #7
 1249 07b0 91E4     		b	.L24
 1250              	.LVL108:
 1251              	.L90:
ARM GAS  C:\Users\Elis\AppData\Local\Temp\cc4kQ7Jf.s 			page 23


 1252              	.LBE90:
 1253              	.LBE89:
 1254              	.LBB91:
 1255              	.LBB92:
 1256              		.loc 1 791 0
 1257 07b2 9DF8E040 		ldrb	r4, [sp, #224]	@ zero_extendqisi2
 1258              	.LVL109:
 1259              		.loc 1 793 0
 1260 07b6 40F20003 		movw	r3, #:lower16:calls_thrd_h
 1261 07ba C0F20003 		movt	r3, #:upper16:calls_thrd_h
 1262              		.loc 1 791 0
 1263 07be 04F0FB02 		and	r2, r4, #251
 1264              		.loc 1 793 0
 1265 07c2 1868     		ldr	r0, [r3, #0]
 1266              		.loc 1 791 0
 1267 07c4 42F00203 		orr	r3, r2, #2
 1268              		.loc 1 793 0
 1269 07c8 29A9     		add	r1, sp, #164
 1270              	.LVL110:
 1271              		.loc 1 791 0
 1272 07ca 6FF30003 		bfc	r3, #0, #1
 1273 07ce 8DF8E030 		strb	r3, [sp, #224]
 1274              		.loc 1 793 0
 1275 07d2 FFF7FEFF 		bl	chMsgSend
 1276              	.LVL111:
 1277 07d6 0146     		mov	r1, r0
 1278              	.LVL112:
 1279              	.LBE92:
 1280              	.LBE91:
 1281              		.loc 1 155 0
 1282 07d8 5846     		mov	r0, fp
 1283              	.LVL113:
 1284              	.LBB94:
 1285              	.LBB93:
 1286              		.loc 1 795 0
 1287 07da 0C68     		ldr	r4, [r1, #0]
 1288              		.loc 1 797 0
 1289 07dc 8A6B     		ldr	r2, [r1, #56]
 1290              		.loc 1 795 0
 1291 07de 2994     		str	r4, [sp, #164]
 1292              		.loc 1 797 0
 1293 07e0 3792     		str	r2, [sp, #220]
 1294              	.LVL114:
 1295              	.L84:
 1296              	.LBE93:
 1297              	.LBE94:
 1298              		.loc 1 182 0
 1299 07e2 FFF7FEFF 		bl	destroyCurrentScreen
 1300              	.LVL115:
 1301              	.LBB95:
 1302              	.LBB96:
 1303              		.loc 1 821 0
 1304 07e6 39A8     		add	r0, sp, #228
 1305              	.LVL116:
 1306 07e8 2999     		ldr	r1, [sp, #164]
 1307 07ea 379A     		ldr	r2, [sp, #220]
 1308 07ec FFF7FEFF 		bl	createCallsScreen
ARM GAS  C:\Users\Elis\AppData\Local\Temp\cc4kQ7Jf.s 			page 24


 1309              	.LVL117:
 1310              		.loc 1 184 0
 1311 07f0 4FF0020B 		mov	fp, #2
 1312 07f4 6FE4     		b	.L24
 1313              	.LVL118:
 1314              	.L109:
 1315              	.LBE96:
 1316              	.LBE95:
 1317              		.loc 1 575 0
 1318 07f6 469C     		ldr	r4, [sp, #280]
 1319              	.LVL119:
 1320 07f8 FFF7FEFF 		bl	gwinListGetSelected
 1321              	.LVL120:
 1322 07fc 54F82010 		ldr	r1, [r4, r0, lsl #2]
 1323 0800 39A8     		add	r0, sp, #228
 1324              	.LVL121:
 1325 0802 FFF7FEFF 		bl	strcpy
 1326              	.LVL122:
 1327              	.LBB97:
 1328              	.LBB82:
 1329              		.loc 1 700 0
 1330 0806 40F20000 		movw	r0, #:lower16:configuration_thrd_h
 1331 080a C0F20000 		movt	r0, #:upper16:configuration_thrd_h
 1332 080e 0068     		ldr	r0, [r0, #0]
 1333 0810 59E7     		b	.L87
 1334              	.LVL123:
 1335              	.L91:
 1336              	.LBE82:
 1337              	.LBE97:
 1338              		.loc 1 173 0
 1339 0812 5846     		mov	r0, fp
 1340 0814 FFF7FEFF 		bl	destroyCurrentScreen
 1341              	.LVL124:
 1342              	.LBB98:
 1343              	.LBB99:
 1344              		.loc 1 827 0
 1345 0818 39A8     		add	r0, sp, #228
 1346              	.LVL125:
 1347 081a FFF7FEFF 		bl	createMakeCallScreen
 1348              	.LVL126:
 1349              		.loc 1 175 0
 1350 081e 4FF0030B 		mov	fp, #3
 1351 0822 58E4     		b	.L24
 1352              	.LVL127:
 1353              	.L92:
 1354              	.LBE99:
 1355              	.LBE98:
 1356              		.loc 1 182 0
 1357 0824 5846     		mov	r0, fp
 1358 0826 DCE7     		b	.L84
 1359              	.L94:
 1360              		.loc 1 206 0
 1361 0828 40F20000 		movw	r0, #:lower16:telNum_calls_lb
 1362 082c C0F20000 		movt	r0, #:upper16:telNum_calls_lb
 1363 0830 0068     		ldr	r0, [r0, #0]
 1364 0832 FFF7FEFF 		bl	gwinGetText
 1365              	.LVL128:
ARM GAS  C:\Users\Elis\AppData\Local\Temp\cc4kQ7Jf.s 			page 25


 1366 0836 0178     		ldrb	r1, [r0, #0]	@ zero_extendqisi2
 1367 0838 0029     		cmp	r1, #0
 1368 083a 3FF44CAC 		beq	.L24
 1369              		.loc 1 208 0
 1370 083e 40F20002 		movw	r2, #:lower16:telNum_calls_lb
 1371 0842 C0F20002 		movt	r2, #:upper16:telNum_calls_lb
 1372 0846 1068     		ldr	r0, [r2, #0]
 1373 0848 FFF7FEFF 		bl	gwinGetText
 1374              	.LVL129:
 1375 084c 0B22     		movs	r2, #11
 1376 084e 0146     		mov	r1, r0
 1377 0850 0DF5B170 		add	r0, sp, #354
 1378 0854 FFF7FEFF 		bl	strlcpy
 1379              	.LVL130:
 1380              		.loc 1 212 0
 1381 0858 4AA8     		add	r0, sp, #296
 1382              	.LVL131:
 1383 085a FFF7FEFF 		bl	getContact
 1384              	.LVL132:
 1385              		.loc 1 216 0
 1386 085e 40F20003 		movw	r3, #:lower16:telNum_calls_lb
 1387 0862 C0F20003 		movt	r3, #:upper16:telNum_calls_lb
 1388 0866 1868     		ldr	r0, [r3, #0]
 1389 0868 FFF7FEFF 		bl	gwinGetText
 1390              	.LVL133:
 1391 086c FFF7FEFF 		bl	callNumber
 1392              	.LVL134:
 1393              		.loc 1 218 0
 1394 0870 5846     		mov	r0, fp
 1395 0872 FFF7FEFF 		bl	destroyCurrentScreen
 1396              	.LVL135:
 1397              		.loc 1 222 0
 1398 0876 9DF87441 		ldrb	r4, [sp, #372]	@ zero_extendqisi2
 1399              	.LVL136:
 1400 087a 04F01000 		and	r0, r4, #16
 1401 087e C2B2     		uxtb	r2, r0
 1402              		.loc 1 224 0
 1403 0880 39A8     		add	r0, sp, #228
 1404              	.LVL137:
 1405              		.loc 1 222 0
 1406 0882 002A     		cmp	r2, #0
 1407 0884 00F09680 		beq	.L34
 1408              		.loc 1 224 0
 1409 0888 4CA9     		add	r1, sp, #304
 1410 088a 0022     		movs	r2, #0
 1411 088c FFF7FEFF 		bl	createCallScreen
 1412              	.LVL138:
 1413 0890 21E4     		b	.L24
 1414              	.L110:
 1415              		.loc 1 590 0
 1416 0892 4A9A     		ldr	r2, [sp, #296]
 1417 0894 52F82400 		ldr	r0, [r2, r4, lsl #2]
 1418 0898 3230     		adds	r0, r0, #50
 1419 089a FFF7FEFF 		bl	callNumber
 1420              	.LVL139:
 1421              		.loc 1 592 0
 1422 089e 5846     		mov	r0, fp
ARM GAS  C:\Users\Elis\AppData\Local\Temp\cc4kQ7Jf.s 			page 26


 1423 08a0 FFF7FEFF 		bl	destroyCurrentScreen
 1424              	.LVL140:
 1425              		.loc 1 596 0
 1426 08a4 4A9B     		ldr	r3, [sp, #296]
 1427 08a6 DDF800C0 		ldr	ip, [sp, #0]
 1428 08aa 39A8     		add	r0, sp, #228
 1429              	.LVL141:
 1430 08ac 53F82C10 		ldr	r1, [r3, ip, lsl #2]
 1431 08b0 0022     		movs	r2, #0
 1432 08b2 FFF7FEFF 		bl	createCallScreen
 1433              	.LVL142:
 1434              		.loc 1 600 0
 1435 08b6 4FF0FF31 		mov	r1, #-1
 1436 08ba 0091     		str	r1, [sp, #0]
 1437 08bc 0BE4     		b	.L24
 1438              	.LVL143:
 1439              	.L98:
 1440              		.loc 1 315 0
 1441 08be 029C     		ldr	r4, [sp, #8]
 1442              	.LVL144:
 1443 08c0 002C     		cmp	r4, #0
 1444 08c2 7FF708AC 		ble	.L24
 1445              		.loc 1 317 0
 1446 08c6 019B     		ldr	r3, [sp, #4]
 1447 08c8 0299     		ldr	r1, [sp, #8]
 1448 08ca 581C     		adds	r0, r3, #1
 1449 08cc 90FBF1F2 		sdiv	r2, r0, r1
 1450 08d0 01FB1204 		mls	r4, r1, r2, r0
 1451              		.loc 1 319 0
 1452 08d4 059B     		ldr	r3, [sp, #20]
 1453              		.loc 1 317 0
 1454 08d6 0194     		str	r4, [sp, #4]
 1455              	.LVL145:
 1456              		.loc 1 319 0
 1457 08d8 53F82400 		ldr	r0, [r3, r4, lsl #2]
 1458 08dc FFF7FEFF 		bl	setPicture
 1459              	.LVL146:
 1460 08e0 FFF7F9BB 		b	.L24
 1461              	.LVL147:
 1462              	.L56:
 1463              		.loc 1 525 0
 1464 08e4 0499     		ldr	r1, [sp, #16]
 1465 08e6 0029     		cmp	r1, #0
 1466 08e8 3FF4F5AB 		beq	.L24
 1467              		.loc 1 529 0
 1468 08ec 9DF86420 		ldrb	r2, [sp, #100]	@ zero_extendqisi2
 1469 08f0 002A     		cmp	r2, #0
 1470 08f2 00F06581 		beq	.L111
 1471              	.L58:
 1472              		.loc 1 532 0
 1473 08f6 1846     		mov	r0, r3
 1474 08f8 FFF7FEFF 		bl	gwinGetText
 1475              	.LVL148:
 1476 08fc FFF7FEFF 		bl	strlen
 1477              	.LVL149:
 1478 0900 0A28     		cmp	r0, #10
 1479 0902 3FF6E8AB 		bhi	.L24
ARM GAS  C:\Users\Elis\AppData\Local\Temp\cc4kQ7Jf.s 			page 27


 1480              		.loc 1 532 0 is_stmt 0 discriminator 1
 1481 0906 6068     		ldr	r0, [r4, #4]
 1482 0908 FFF7FEFF 		bl	gwinGetText
 1483              	.LVL150:
 1484 090c 0078     		ldrb	r0, [r0, #0]	@ zero_extendqisi2
 1485 090e 2F28     		cmp	r0, #47
 1486 0910 7FF6E1AB 		bls	.L24
 1487              		.loc 1 533 0 is_stmt 1
 1488 0914 6068     		ldr	r0, [r4, #4]
 1489 0916 FFF7FEFF 		bl	gwinGetText
 1490              	.LVL151:
 1491 091a 0178     		ldrb	r1, [r0, #0]	@ zero_extendqisi2
 1492 091c 3929     		cmp	r1, #57
 1493 091e 3FF6DAAB 		bhi	.L24
 1494              		.loc 1 535 0
 1495 0922 40F20002 		movw	r2, #:lower16:telNum_contacts_lb
 1496 0926 C0F20002 		movt	r2, #:upper16:telNum_contacts_lb
 1497 092a 1068     		ldr	r0, [r2, #0]
 1498 092c FFF7FEFF 		bl	gwinGetText
 1499              	.LVL152:
 1500 0930 0146     		mov	r1, r0
 1501 0932 19A8     		add	r0, sp, #100
 1502 0934 FFF7FEFF 		bl	strcpy
 1503              	.LVL153:
 1504              		.loc 1 537 0
 1505 0938 6068     		ldr	r0, [r4, #4]
 1506 093a FFF7FEFF 		bl	gwinGetText
 1507              	.LVL154:
 1508              		.loc 1 539 0
 1509 093e 40F20004 		movw	r4, #:lower16:telNum_contacts_lb
 1510              	.LVL155:
 1511 0942 C0F20004 		movt	r4, #:upper16:telNum_contacts_lb
 1512              		.loc 1 537 0
 1513 0946 0146     		mov	r1, r0
 1514 0948 19A8     		add	r0, sp, #100
 1515 094a FFF7FEFF 		bl	strcat
 1516              	.LVL156:
 1517              		.loc 1 539 0
 1518 094e 2068     		ldr	r0, [r4, #0]
 1519 0950 19A9     		add	r1, sp, #100
 1520 0952 0122     		movs	r2, #1
 1521 0954 FFF7FEFF 		bl	gwinSetText
 1522              	.LVL157:
 1523 0958 FFF7BDBB 		b	.L24
 1524              	.LVL158:
 1525              	.L99:
 1526              		.loc 1 328 0
 1527 095c 0298     		ldr	r0, [sp, #8]
 1528 095e 0028     		cmp	r0, #0
 1529 0960 7FF7B9AB 		ble	.L24
 1530              		.loc 1 330 0
 1531 0964 0199     		ldr	r1, [sp, #4]
 1532 0966 0029     		cmp	r1, #0
 1533 0968 40F30481 		ble	.L112
 1534              		.loc 1 330 0 is_stmt 0 discriminator 2
 1535 096c DDF804C0 		ldr	ip, [sp, #4]
 1536 0970 029B     		ldr	r3, [sp, #8]
ARM GAS  C:\Users\Elis\AppData\Local\Temp\cc4kQ7Jf.s 			page 28


 1537 0972 0CF1FF34 		add	r4, ip, #-1
 1538              	.LVL159:
 1539 0976 94FBF3F2 		sdiv	r2, r4, r3
 1540 097a 03FB1240 		mls	r0, r3, r2, r4
 1541 097e 0190     		str	r0, [sp, #4]
 1542              	.L44:
 1543              		.loc 1 332 0 is_stmt 1 discriminator 3
 1544 0980 0198     		ldr	r0, [sp, #4]
 1545 0982 0599     		ldr	r1, [sp, #20]
 1546 0984 51F82000 		ldr	r0, [r1, r0, lsl #2]
 1547 0988 FFF7FEFF 		bl	setPicture
 1548              	.LVL160:
 1549 098c FFF7A3BB 		b	.L24
 1550              	.LVL161:
 1551              	.L95:
 1552              		.loc 1 259 0
 1553 0990 9149     		ldr	r1, .L116
 1554 0992 0122     		movs	r2, #1
 1555 0994 FFF7FEFF 		bl	gwinSetText
 1556              	.LVL162:
 1557 0998 FFF79DBB 		b	.L24
 1558              	.L96:
 1559              		.loc 1 266 0
 1560 099c FFF7FEFF 		bl	hangUp
 1561              	.LVL163:
 1562              		.loc 1 268 0
 1563 09a0 FFF7FEFF 		bl	destroyCallScreen
 1564              	.LVL164:
 1565              		.loc 1 270 0
 1566 09a4 5846     		mov	r0, fp
 1567 09a6 39A9     		add	r1, sp, #228
 1568              	.LVL165:
 1569 09a8 29AA     		add	r2, sp, #164
 1570 09aa 4AAB     		add	r3, sp, #296
 1571              	.LVL166:
 1572 09ac FFF7FEFF 		bl	createNextScreen
 1573              	.LVL167:
 1574 09b0 FFF791BB 		b	.L24
 1575              	.LVL168:
 1576              	.L34:
 1577              		.loc 1 229 0
 1578 09b4 0DF5B171 		add	r1, sp, #354
 1579 09b8 FFF7FEFF 		bl	createCallScreen
 1580              	.LVL169:
 1581 09bc FFF78BBB 		b	.L24
 1582              	.LVL170:
 1583              	.L103:
 1584              		.loc 1 389 0
 1585 09c0 4B98     		ldr	r0, [sp, #300]
 1586 09c2 0028     		cmp	r0, #0
 1587 09c4 7FF787AB 		ble	.L24
 1588              		.loc 1 389 0 is_stmt 0 discriminator 1
 1589 09c8 3868     		ldr	r0, [r7, #0]
 1590 09ca FFF7FEFF 		bl	gwinListGetSelected
 1591              	.LVL171:
 1592 09ce 0028     		cmp	r0, #0
 1593 09d0 FFF681AB 		blt	.L24
ARM GAS  C:\Users\Elis\AppData\Local\Temp\cc4kQ7Jf.s 			page 29


 1594              		.loc 1 391 0 is_stmt 1
 1595 09d4 40F20004 		movw	r4, #:lower16:contacts_contacts_l
 1596              	.LVL172:
 1597 09d8 C0F20004 		movt	r4, #:upper16:contacts_contacts_l
 1598 09dc 2068     		ldr	r0, [r4, #0]
 1599 09de FFF7FEFF 		bl	gwinListGetSelected
 1600              	.LVL173:
 1601              	.LBB100:
 1602              	.LBB101:
 1603              		.loc 1 775 0
 1604 09e2 9DF87431 		ldrb	r3, [sp, #372]	@ zero_extendqisi2
 1605              	.LBE101:
 1606              	.LBE100:
 1607              		.loc 1 391 0
 1608 09e6 5C90     		str	r0, [sp, #368]
 1609              	.LVL174:
 1610              	.LBB106:
 1611              	.LBB102:
 1612              		.loc 1 777 0
 1613 09e8 40F20000 		movw	r0, #:lower16:contacts_thrd_h
 1614 09ec C0F20000 		movt	r0, #:upper16:contacts_thrd_h
 1615              		.loc 1 775 0
 1616 09f0 03F0F802 		and	r2, r3, #248
 1617 09f4 42F00804 		orr	r4, r2, #8
 1618              		.loc 1 777 0
 1619 09f8 4AA9     		add	r1, sp, #296
 1620              	.LVL175:
 1621 09fa 0068     		ldr	r0, [r0, #0]
 1622              		.loc 1 775 0
 1623 09fc 8DF87441 		strb	r4, [sp, #372]
 1624              		.loc 1 777 0
 1625 0a00 FFF7FEFF 		bl	chMsgSend
 1626              	.LVL176:
 1627              	.LBE102:
 1628              	.LBE106:
 1629              		.loc 1 399 0
 1630 0a04 40F20001 		movw	r1, #:lower16:contacts_contacts_l
 1631 0a08 C0F20001 		movt	r1, #:upper16:contacts_contacts_l
 1632              	.LBB107:
 1633              	.LBB103:
 1634              		.loc 1 781 0
 1635 0a0c 90E80C00 		ldmia	r0, {r2, r3}
 1636              	.LBE103:
 1637              	.LBE107:
 1638              		.loc 1 399 0
 1639 0a10 0C68     		ldr	r4, [r1, #0]
 1640              	.LBB108:
 1641              	.LBB104:
 1642              		.loc 1 779 0
 1643 0a12 4A92     		str	r2, [sp, #296]
 1644              	.LBE104:
 1645              	.LBE108:
 1646              		.loc 1 399 0
 1647 0a14 2046     		mov	r0, r4
 1648              	.LVL177:
 1649              	.LBB109:
 1650              	.LBB105:
ARM GAS  C:\Users\Elis\AppData\Local\Temp\cc4kQ7Jf.s 			page 30


 1651              		.loc 1 781 0
 1652 0a16 4B93     		str	r3, [sp, #300]
 1653              	.LBE105:
 1654              	.LBE109:
 1655              		.loc 1 399 0
 1656 0a18 FFF7FEFF 		bl	gwinListGetSelected
 1657              	.LVL178:
 1658 0a1c 0146     		mov	r1, r0
 1659 0a1e 2046     		mov	r0, r4
 1660 0a20 FFF7FEFF 		bl	gwinListItemDelete
 1661              	.LVL179:
 1662 0a24 FFF757BB 		b	.L24
 1663              	.LVL180:
 1664              	.L97:
 1665              		.loc 1 287 0
 1666 0a28 5846     		mov	r0, fp
 1667 0a2a FFF7FEFF 		bl	destroyCurrentScreen
 1668              	.LVL181:
 1669              	.LBB110:
 1670              	.LBB111:
 1671              		.loc 1 845 0
 1672 0a2e 39A8     		add	r0, sp, #228
 1673              	.LVL182:
 1674 0a30 FFF7FEFF 		bl	createGalleryScreen
 1675              	.LVL183:
 1676              	.LBE111:
 1677              	.LBE110:
 1678              		.loc 1 295 0
 1679 0a34 0298     		ldr	r0, [sp, #8]
 1680 0a36 0028     		cmp	r0, #0
 1681 0a38 31DC     		bgt	.L113
 1682              		.loc 1 285 0
 1683 0a3a 0021     		movs	r1, #0
 1684 0a3c 0191     		str	r1, [sp, #4]
 1685              		.loc 1 289 0
 1686 0a3e 4FF0060B 		mov	fp, #6
 1687 0a42 FFF748BB 		b	.L24
 1688              	.LVL184:
 1689              	.L100:
 1690              		.loc 1 339 0
 1691 0a46 5846     		mov	r0, fp
 1692 0a48 FFF7FEFF 		bl	destroyCurrentScreen
 1693              	.LVL185:
 1694              		.loc 1 343 0
 1695 0a4c 0022     		movs	r2, #0
 1696 0a4e 0820     		movs	r0, #8
 1697 0a50 39A9     		add	r1, sp, #228
 1698              	.LVL186:
 1699 0a52 1346     		mov	r3, r2
 1700 0a54 FFF7FEFF 		bl	createNextScreen
 1701              	.LVL187:
 1702              		.loc 1 341 0
 1703 0a58 4FF0080B 		mov	fp, #8
 1704 0a5c FFF73BBB 		b	.L24
 1705              	.LVL188:
 1706              	.L108:
 1707              		.loc 1 509 0
ARM GAS  C:\Users\Elis\AppData\Local\Temp\cc4kQ7Jf.s 			page 31


 1708 0a60 0846     		mov	r0, r1
 1709 0a62 0122     		movs	r2, #1
 1710 0a64 5C49     		ldr	r1, .L116
 1711 0a66 FFF7FEFF 		bl	gwinSetText
 1712              	.LVL189:
 1713 0a6a 40F20000 		movw	r0, #:lower16:name_contacts_lb
 1714 0a6e C0F20000 		movt	r0, #:upper16:name_contacts_lb
 1715 0a72 0168     		ldr	r1, [r0, #0]
 1716 0a74 D8E5     		b	.L57
 1717              	.L101:
 1718              	.LVL190:
 1719              		.loc 1 369 0
 1720 0a76 5846     		mov	r0, fp
 1721 0a78 FFF7FEFF 		bl	destroyCurrentScreen
 1722              	.LVL191:
 1723              	.LBB112:
 1724              	.LBB113:
 1725              		.loc 1 833 0
 1726 0a7c 4B9A     		ldr	r2, [sp, #300]
 1727 0a7e 4A99     		ldr	r1, [sp, #296]
 1728              		.loc 1 363 0
 1729 0a80 0023     		movs	r3, #0
 1730              		.loc 1 833 0
 1731 0a82 39A8     		add	r0, sp, #228
 1732              	.LVL192:
 1733              		.loc 1 363 0
 1734 0a84 0393     		str	r3, [sp, #12]
 1735              		.loc 1 833 0
 1736 0a86 FFF7FEFF 		bl	createContactsScreen
 1737              	.LVL193:
 1738              		.loc 1 359 0
 1739 0a8a 039A     		ldr	r2, [sp, #12]
 1740              		.loc 1 367 0
 1741 0a8c 4FF0FF3B 		mov	fp, #-1
 1742 0a90 CDF800B0 		str	fp, [sp, #0]
 1743              		.loc 1 359 0
 1744 0a94 0492     		str	r2, [sp, #16]
 1745              		.loc 1 371 0
 1746 0a96 4FF0040B 		mov	fp, #4
 1747 0a9a FFF71CBB 		b	.L24
 1748              	.LVL194:
 1749              	.L113:
 1750              	.LBE113:
 1751              	.LBE112:
 1752              		.loc 1 297 0
 1753 0a9e 059A     		ldr	r2, [sp, #20]
 1754 0aa0 1068     		ldr	r0, [r2, #0]
 1755 0aa2 FFF7FEFF 		bl	setPicture
 1756              	.LVL195:
 1757              		.loc 1 285 0
 1758 0aa6 4FF0000E 		mov	lr, #0
 1759 0aaa CDF804E0 		str	lr, [sp, #4]
 1760              		.loc 1 289 0
 1761 0aae 4FF0060B 		mov	fp, #6
 1762 0ab2 FFF710BB 		b	.L24
 1763              	.LVL196:
 1764              	.L102:
ARM GAS  C:\Users\Elis\AppData\Local\Temp\cc4kQ7Jf.s 			page 32


 1765              		.loc 1 378 0
 1766 0ab6 5846     		mov	r0, fp
 1767 0ab8 FFF7FEFF 		bl	destroyCurrentScreen
 1768              	.LVL197:
 1769              	.LBB114:
 1770              	.LBB115:
 1771              		.loc 1 839 0
 1772 0abc 39A8     		add	r0, sp, #228
 1773              	.LVL198:
 1774 0abe FFF7FEFF 		bl	createContactAddScreen
 1775              	.LVL199:
 1776              		.loc 1 380 0
 1777 0ac2 4FF0050B 		mov	fp, #5
 1778 0ac6 FFF706BB 		b	.L24
 1779              	.LVL200:
 1780              	.L105:
 1781              	.LBE115:
 1782              	.LBE114:
 1783              		.loc 1 429 0
 1784 0aca 5846     		mov	r0, fp
 1785              	.LVL201:
 1786              	.L85:
 1787 0acc FFF7FEFF 		bl	destroyCurrentScreen
 1788              	.LVL202:
 1789              	.LBB116:
 1790              	.LBB117:
 1791              		.loc 1 833 0
 1792 0ad0 39A8     		add	r0, sp, #228
 1793              	.LVL203:
 1794 0ad2 4A99     		ldr	r1, [sp, #296]
 1795 0ad4 4B9A     		ldr	r2, [sp, #300]
 1796 0ad6 FFF7FEFF 		bl	createContactsScreen
 1797              	.LVL204:
 1798              		.loc 1 431 0
 1799 0ada 4FF0040B 		mov	fp, #4
 1800 0ade FFF7FABA 		b	.L24
 1801              	.LVL205:
 1802              	.L104:
 1803              	.LBE117:
 1804              	.LBE116:
 1805              		.loc 1 408 0
 1806 0ae2 40F20002 		movw	r2, #:lower16:name_contacts_lb
 1807 0ae6 C0F20002 		movt	r2, #:upper16:name_contacts_lb
 1808 0aea 1068     		ldr	r0, [r2, #0]
 1809 0aec FFF7FEFF 		bl	gwinGetText
 1810              	.LVL206:
 1811 0af0 0478     		ldrb	r4, [r0, #0]	@ zero_extendqisi2
 1812              	.LVL207:
 1813 0af2 002C     		cmp	r4, #0
 1814 0af4 3FF4EFAA 		beq	.L24
 1815              		.loc 1 408 0 is_stmt 0 discriminator 1
 1816 0af8 40F20003 		movw	r3, #:lower16:telNum_contacts_lb
 1817 0afc C0F20003 		movt	r3, #:upper16:telNum_contacts_lb
 1818 0b00 1868     		ldr	r0, [r3, #0]
 1819 0b02 FFF7FEFF 		bl	gwinGetText
 1820              	.LVL208:
 1821 0b06 0078     		ldrb	r0, [r0, #0]	@ zero_extendqisi2
ARM GAS  C:\Users\Elis\AppData\Local\Temp\cc4kQ7Jf.s 			page 33


 1822 0b08 0028     		cmp	r0, #0
 1823 0b0a 3FF4E4AA 		beq	.L24
 1824              		.loc 1 412 0 is_stmt 1
 1825 0b0e 40F20001 		movw	r1, #:lower16:name_contacts_lb
 1826 0b12 C0F20001 		movt	r1, #:upper16:name_contacts_lb
 1827 0b16 0868     		ldr	r0, [r1, #0]
 1828 0b18 FFF7FEFF 		bl	gwinGetText
 1829              	.LVL209:
 1830 0b1c 3222     		movs	r2, #50
 1831 0b1e 0146     		mov	r1, r0
 1832 0b20 4CA8     		add	r0, sp, #304
 1833 0b22 FFF7FEFF 		bl	strlcpy
 1834              	.LVL210:
 1835              		.loc 1 414 0
 1836 0b26 40F2000E 		movw	lr, #:lower16:telNum_contacts_lb
 1837 0b2a C0F2000E 		movt	lr, #:upper16:telNum_contacts_lb
 1838 0b2e DEF80000 		ldr	r0, [lr, #0]
 1839 0b32 FFF7FEFF 		bl	gwinGetText
 1840              	.LVL211:
 1841 0b36 0B22     		movs	r2, #11
 1842 0b38 0146     		mov	r1, r0
 1843 0b3a 0DF5B170 		add	r0, sp, #354
 1844 0b3e FFF7FEFF 		bl	strlcpy
 1845              	.LVL212:
 1846              	.LBB118:
 1847              	.LBB119:
 1848              		.loc 1 741 0
 1849 0b42 9DF87441 		ldrb	r4, [sp, #372]	@ zero_extendqisi2
 1850              		.loc 1 743 0
 1851 0b46 40F20002 		movw	r2, #:lower16:contacts_thrd_h
 1852 0b4a C0F20002 		movt	r2, #:upper16:contacts_thrd_h
 1853              		.loc 1 741 0
 1854 0b4e 04F0FC03 		and	r3, r4, #252
 1855              		.loc 1 743 0
 1856 0b52 1068     		ldr	r0, [r2, #0]
 1857              		.loc 1 741 0
 1858 0b54 43F00402 		orr	r2, r3, #4
 1859 0b58 6FF3C302 		bfc	r2, #3, #1
 1860              		.loc 1 743 0
 1861 0b5c 4AA9     		add	r1, sp, #296
 1862              	.LVL213:
 1863              		.loc 1 741 0
 1864 0b5e 8DF87421 		strb	r2, [sp, #372]
 1865              		.loc 1 743 0
 1866 0b62 FFF7FEFF 		bl	chMsgSend
 1867              	.LVL214:
 1868 0b66 0146     		mov	r1, r0
 1869              	.LVL215:
 1870              		.loc 1 747 0
 1871 0b68 91E80C00 		ldmia	r1, {r2, r3}
 1872              	.LBE119:
 1873              	.LBE118:
 1874              		.loc 1 418 0
 1875 0b6c 5846     		mov	r0, fp
 1876              	.LVL216:
 1877              	.LBB121:
 1878              	.LBB120:
ARM GAS  C:\Users\Elis\AppData\Local\Temp\cc4kQ7Jf.s 			page 34


 1879              		.loc 1 745 0
 1880 0b6e 4A92     		str	r2, [sp, #296]
 1881              		.loc 1 747 0
 1882 0b70 4B93     		str	r3, [sp, #300]
 1883 0b72 ABE7     		b	.L85
 1884              	.LVL217:
 1885              	.L112:
 1886              	.LBE120:
 1887              	.LBE121:
 1888              		.loc 1 330 0 discriminator 1
 1889 0b74 0139     		subs	r1, r1, #1
 1890 0b76 91FBF0F4 		sdiv	r4, r1, r0
 1891              	.LVL218:
 1892 0b7a 00FB1413 		mls	r3, r0, r4, r1
 1893 0b7e 1A18     		adds	r2, r3, r0
 1894 0b80 0192     		str	r2, [sp, #4]
 1895 0b82 FDE6     		b	.L44
 1896              	.LVL219:
 1897              	.L107:
 1898              		.loc 1 464 0
 1899 0b84 1549     		ldr	r1, .L116+4
 1900 0b86 0122     		movs	r2, #1
 1901 0b88 FFF7FEFF 		bl	gwinSetText
 1902              	.LVL220:
 1903              		.loc 1 472 0
 1904 0b8c 19A8     		add	r0, sp, #100
 1905 0b8e 0021     		movs	r1, #0
 1906 0b90 3E22     		movs	r2, #62
 1907 0b92 FFF7FEFF 		bl	memset
 1908              	.LVL221:
 1909              		.loc 1 468 0
 1910 0b96 0024     		movs	r4, #0
 1911              	.LVL222:
 1912              		.loc 1 466 0
 1913 0b98 0123     		movs	r3, #1
 1914              		.loc 1 468 0
 1915 0b9a 0394     		str	r4, [sp, #12]
 1916              		.loc 1 466 0
 1917 0b9c 0493     		str	r3, [sp, #16]
 1918 0b9e FFF79ABA 		b	.L24
 1919              	.LVL223:
 1920              	.L106:
 1921              		.loc 1 449 0
 1922 0ba2 0F49     		ldr	r1, .L116+8
 1923 0ba4 0122     		movs	r2, #1
 1924 0ba6 FFF7FEFF 		bl	gwinSetText
 1925              	.LVL224:
 1926              		.loc 1 457 0
 1927 0baa 0021     		movs	r1, #0
 1928 0bac 19A8     		add	r0, sp, #100
 1929 0bae 3E22     		movs	r2, #62
 1930 0bb0 FFF7FEFF 		bl	memset
 1931              	.LVL225:
 1932              		.loc 1 453 0
 1933 0bb4 0120     		movs	r0, #1
 1934              		.loc 1 451 0
 1935 0bb6 0021     		movs	r1, #0
ARM GAS  C:\Users\Elis\AppData\Local\Temp\cc4kQ7Jf.s 			page 35


 1936              		.loc 1 453 0
 1937 0bb8 0390     		str	r0, [sp, #12]
 1938              		.loc 1 451 0
 1939 0bba 0491     		str	r1, [sp, #16]
 1940 0bbc FFF78BBA 		b	.L24
 1941              	.LVL226:
 1942              	.L111:
 1943              		.loc 1 530 0
 1944 0bc0 1846     		mov	r0, r3
 1945 0bc2 0549     		ldr	r1, .L116
 1946 0bc4 0122     		movs	r2, #1
 1947 0bc6 FFF7FEFF 		bl	gwinSetText
 1948              	.LVL227:
 1949 0bca 40F20003 		movw	r3, #:lower16:telNum_contacts_lb
 1950 0bce C0F20003 		movt	r3, #:upper16:telNum_contacts_lb
 1951 0bd2 1B68     		ldr	r3, [r3, #0]
 1952 0bd4 8FE6     		b	.L58
 1953              	.L117:
 1954 0bd6 00BF     		.align	2
 1955              	.L116:
 1956 0bd8 00000000 		.word	.LC0
 1957 0bdc 14000000 		.word	.LC2
 1958 0be0 04000000 		.word	.LC1
 1959              		.cfi_endproc
 1960              	.LFE118:
 1961              		.size	gui_t, .-gui_t
 1962              		.global	_space_b
 1963              		.global	_exclamation_b
 1964              		.global	_slash_b
 1965              		.global	_comma_b
 1966              		.global	_dot_b
 1967              		.global	_q_b
 1968              		.global	_y_b
 1969              		.global	_x_b
 1970              		.global	_z_b
 1971              		.global	_v_b
 1972              		.global	_u_b
 1973              		.global	_t_b
 1974              		.global	_s_b
 1975              		.global	_r_b
 1976              		.global	_p_b
 1977              		.global	_o_b
 1978              		.global	_n_b
 1979              		.global	_m_b
 1980              		.global	_l_b
 1981              		.global	_k_b
 1982              		.global	_j_b
 1983              		.global	_i_b
 1984              		.global	_h_b
 1985              		.global	_g_b
 1986              		.global	_f_b
 1987              		.global	_e_b
 1988              		.global	_d_b
 1989              		.global	_c_b
 1990              		.global	_b_b
 1991              		.global	_a_b
 1992              		.global	_9_b
ARM GAS  C:\Users\Elis\AppData\Local\Temp\cc4kQ7Jf.s 			page 36


 1993              		.global	_8_b
 1994              		.global	_7_b
 1995              		.global	_6_b
 1996              		.global	_5_b
 1997              		.global	_4_b
 1998              		.global	_3_b
 1999              		.global	_2_b
 2000              		.global	_1_b
 2001              		.global	_0_b
 2002              		.section	.bss._y_b,"aw",%nobits
 2003              		.align	2
 2004              		.set	.LANCHOR33,. + 0
 2005              		.type	_y_b, %object
 2006              		.size	_y_b, 4
 2007              	_y_b:
 2008 0000 00000000 		.space	4
 2009              		.section	.bss._c_b,"aw",%nobits
 2010              		.align	2
 2011              		.set	.LANCHOR12,. + 0
 2012              		.type	_c_b, %object
 2013              		.size	_c_b, 4
 2014              	_c_b:
 2015 0000 00000000 		.space	4
 2016              		.section	.bss._u_b,"aw",%nobits
 2017              		.align	2
 2018              		.set	.LANCHOR29,. + 0
 2019              		.type	_u_b, %object
 2020              		.size	_u_b, 4
 2021              	_u_b:
 2022 0000 00000000 		.space	4
 2023              		.section	.bss._7_b,"aw",%nobits
 2024              		.align	2
 2025              		.set	.LANCHOR7,. + 0
 2026              		.type	_7_b, %object
 2027              		.size	_7_b, 4
 2028              	_7_b:
 2029 0000 00000000 		.space	4
 2030              		.section	.bss._s_b,"aw",%nobits
 2031              		.align	2
 2032              		.set	.LANCHOR27,. + 0
 2033              		.type	_s_b, %object
 2034              		.size	_s_b, 4
 2035              	_s_b:
 2036 0000 00000000 		.space	4
 2037              		.section	.bss._exclamation_b,"aw",%nobits
 2038              		.align	2
 2039              		.set	.LANCHOR38,. + 0
 2040              		.type	_exclamation_b, %object
 2041              		.size	_exclamation_b, 4
 2042              	_exclamation_b:
 2043 0000 00000000 		.space	4
 2044              		.section	.bss._2_b,"aw",%nobits
 2045              		.align	2
 2046              		.set	.LANCHOR2,. + 0
 2047              		.type	_2_b, %object
 2048              		.size	_2_b, 4
 2049              	_2_b:
ARM GAS  C:\Users\Elis\AppData\Local\Temp\cc4kQ7Jf.s 			page 37


 2050 0000 00000000 		.space	4
 2051              		.section	.bss._j_b,"aw",%nobits
 2052              		.align	2
 2053              		.set	.LANCHOR19,. + 0
 2054              		.type	_j_b, %object
 2055              		.size	_j_b, 4
 2056              	_j_b:
 2057 0000 00000000 		.space	4
 2058              		.section	.bss._r_b,"aw",%nobits
 2059              		.align	2
 2060              		.set	.LANCHOR26,. + 0
 2061              		.type	_r_b, %object
 2062              		.size	_r_b, 4
 2063              	_r_b:
 2064 0000 00000000 		.space	4
 2065              		.section	.bss._v_b,"aw",%nobits
 2066              		.align	2
 2067              		.set	.LANCHOR30,. + 0
 2068              		.type	_v_b, %object
 2069              		.size	_v_b, 4
 2070              	_v_b:
 2071 0000 00000000 		.space	4
 2072              		.section	.bss._e_b,"aw",%nobits
 2073              		.align	2
 2074              		.set	.LANCHOR14,. + 0
 2075              		.type	_e_b, %object
 2076              		.size	_e_b, 4
 2077              	_e_b:
 2078 0000 00000000 		.space	4
 2079              		.section	.bss._9_b,"aw",%nobits
 2080              		.align	2
 2081              		.set	.LANCHOR9,. + 0
 2082              		.type	_9_b, %object
 2083              		.size	_9_b, 4
 2084              	_9_b:
 2085 0000 00000000 		.space	4
 2086              		.section	.bss._comma_b,"aw",%nobits
 2087              		.align	2
 2088              		.set	.LANCHOR36,. + 0
 2089              		.type	_comma_b, %object
 2090              		.size	_comma_b, 4
 2091              	_comma_b:
 2092 0000 00000000 		.space	4
 2093              		.section	.bss._4_b,"aw",%nobits
 2094              		.align	2
 2095              		.set	.LANCHOR4,. + 0
 2096              		.type	_4_b, %object
 2097              		.size	_4_b, 4
 2098              	_4_b:
 2099 0000 00000000 		.space	4
 2100              		.section	.bss._n_b,"aw",%nobits
 2101              		.align	2
 2102              		.set	.LANCHOR23,. + 0
 2103              		.type	_n_b, %object
 2104              		.size	_n_b, 4
 2105              	_n_b:
 2106 0000 00000000 		.space	4
ARM GAS  C:\Users\Elis\AppData\Local\Temp\cc4kQ7Jf.s 			page 38


 2107              		.section	.bss._dot_b,"aw",%nobits
 2108              		.align	2
 2109              		.set	.LANCHOR35,. + 0
 2110              		.type	_dot_b, %object
 2111              		.size	_dot_b, 4
 2112              	_dot_b:
 2113 0000 00000000 		.space	4
 2114              		.section	.bss._l_b,"aw",%nobits
 2115              		.align	2
 2116              		.set	.LANCHOR21,. + 0
 2117              		.type	_l_b, %object
 2118              		.size	_l_b, 4
 2119              	_l_b:
 2120 0000 00000000 		.space	4
 2121              		.section	.bss._q_b,"aw",%nobits
 2122              		.align	2
 2123              		.set	.LANCHOR34,. + 0
 2124              		.type	_q_b, %object
 2125              		.size	_q_b, 4
 2126              	_q_b:
 2127 0000 00000000 		.space	4
 2128              		.section	.bss._t_b,"aw",%nobits
 2129              		.align	2
 2130              		.set	.LANCHOR28,. + 0
 2131              		.type	_t_b, %object
 2132              		.size	_t_b, 4
 2133              	_t_b:
 2134 0000 00000000 		.space	4
 2135              		.section	.bss._g_b,"aw",%nobits
 2136              		.align	2
 2137              		.set	.LANCHOR16,. + 0
 2138              		.type	_g_b, %object
 2139              		.size	_g_b, 4
 2140              	_g_b:
 2141 0000 00000000 		.space	4
 2142              		.section	.bss._z_b,"aw",%nobits
 2143              		.align	2
 2144              		.set	.LANCHOR31,. + 0
 2145              		.type	_z_b, %object
 2146              		.size	_z_b, 4
 2147              	_z_b:
 2148 0000 00000000 		.space	4
 2149              		.section	.bss._x_b,"aw",%nobits
 2150              		.align	2
 2151              		.set	.LANCHOR32,. + 0
 2152              		.type	_x_b, %object
 2153              		.size	_x_b, 4
 2154              	_x_b:
 2155 0000 00000000 		.space	4
 2156              		.section	.bss._b_b,"aw",%nobits
 2157              		.align	2
 2158              		.set	.LANCHOR11,. + 0
 2159              		.type	_b_b, %object
 2160              		.size	_b_b, 4
 2161              	_b_b:
 2162 0000 00000000 		.space	4
 2163              		.section	.bss._6_b,"aw",%nobits
ARM GAS  C:\Users\Elis\AppData\Local\Temp\cc4kQ7Jf.s 			page 39


 2164              		.align	2
 2165              		.set	.LANCHOR6,. + 0
 2166              		.type	_6_b, %object
 2167              		.size	_6_b, 4
 2168              	_6_b:
 2169 0000 00000000 		.space	4
 2170              		.section	.rodata.str1.4,"aMS",%progbits,1
 2171              		.align	2
 2172              	.LC0:
 2173 0000 00       		.ascii	"\000"
 2174 0001 000000   		.space	3
 2175              	.LC1:
 2176 0004 456E7465 		.ascii	"Enter a name\000"
 2176      72206120 
 2176      6E616D65 
 2176      00
 2177 0011 000000   		.space	3
 2178              	.LC2:
 2179 0014 30303030 		.ascii	"000000000\000"
 2179      30303030 
 2179      3000
 2180 001e 0000     		.section	.bss._1_b,"aw",%nobits
 2181              		.align	2
 2182              		.set	.LANCHOR1,. + 0
 2183              		.type	_1_b, %object
 2184              		.size	_1_b, 4
 2185              	_1_b:
 2186 0000 00000000 		.space	4
 2187              		.section	.bss._i_b,"aw",%nobits
 2188              		.align	2
 2189              		.set	.LANCHOR18,. + 0
 2190              		.type	_i_b, %object
 2191              		.size	_i_b, 4
 2192              	_i_b:
 2193 0000 00000000 		.space	4
 2194              		.section	.bss._p_b,"aw",%nobits
 2195              		.align	2
 2196              		.set	.LANCHOR25,. + 0
 2197              		.type	_p_b, %object
 2198              		.size	_p_b, 4
 2199              	_p_b:
 2200 0000 00000000 		.space	4
 2201              		.section	.bss._d_b,"aw",%nobits
 2202              		.align	2
 2203              		.set	.LANCHOR13,. + 0
 2204              		.type	_d_b, %object
 2205              		.size	_d_b, 4
 2206              	_d_b:
 2207 0000 00000000 		.space	4
 2208              		.section	.bss._m_b,"aw",%nobits
 2209              		.align	2
 2210              		.set	.LANCHOR22,. + 0
 2211              		.type	_m_b, %object
 2212              		.size	_m_b, 4
 2213              	_m_b:
 2214 0000 00000000 		.space	4
 2215              		.section	.bss._8_b,"aw",%nobits
ARM GAS  C:\Users\Elis\AppData\Local\Temp\cc4kQ7Jf.s 			page 40


 2216              		.align	2
 2217              		.set	.LANCHOR8,. + 0
 2218              		.type	_8_b, %object
 2219              		.size	_8_b, 4
 2220              	_8_b:
 2221 0000 00000000 		.space	4
 2222              		.section	.bss._3_b,"aw",%nobits
 2223              		.align	2
 2224              		.set	.LANCHOR3,. + 0
 2225              		.type	_3_b, %object
 2226              		.size	_3_b, 4
 2227              	_3_b:
 2228 0000 00000000 		.space	4
 2229              		.section	.bss._o_b,"aw",%nobits
 2230              		.align	2
 2231              		.set	.LANCHOR24,. + 0
 2232              		.type	_o_b, %object
 2233              		.size	_o_b, 4
 2234              	_o_b:
 2235 0000 00000000 		.space	4
 2236              		.section	.bss._k_b,"aw",%nobits
 2237              		.align	2
 2238              		.set	.LANCHOR20,. + 0
 2239              		.type	_k_b, %object
 2240              		.size	_k_b, 4
 2241              	_k_b:
 2242 0000 00000000 		.space	4
 2243              		.section	.bss._slash_b,"aw",%nobits
 2244              		.align	2
 2245              		.set	.LANCHOR37,. + 0
 2246              		.type	_slash_b, %object
 2247              		.size	_slash_b, 4
 2248              	_slash_b:
 2249 0000 00000000 		.space	4
 2250              		.section	.bss._f_b,"aw",%nobits
 2251              		.align	2
 2252              		.set	.LANCHOR15,. + 0
 2253              		.type	_f_b, %object
 2254              		.size	_f_b, 4
 2255              	_f_b:
 2256 0000 00000000 		.space	4
 2257              		.section	.bss._a_b,"aw",%nobits
 2258              		.align	2
 2259              		.set	.LANCHOR10,. + 0
 2260              		.type	_a_b, %object
 2261              		.size	_a_b, 4
 2262              	_a_b:
 2263 0000 00000000 		.space	4
 2264              		.section	.bss._5_b,"aw",%nobits
 2265              		.align	2
 2266              		.set	.LANCHOR5,. + 0
 2267              		.type	_5_b, %object
 2268              		.size	_5_b, 4
 2269              	_5_b:
 2270 0000 00000000 		.space	4
 2271              		.section	.bss._space_b,"aw",%nobits
 2272              		.align	2
ARM GAS  C:\Users\Elis\AppData\Local\Temp\cc4kQ7Jf.s 			page 41


 2273              		.set	.LANCHOR39,. + 0
 2274              		.type	_space_b, %object
 2275              		.size	_space_b, 4
 2276              	_space_b:
 2277 0000 00000000 		.space	4
 2278              		.section	.bss._0_b,"aw",%nobits
 2279              		.align	2
 2280              		.set	.LANCHOR0,. + 0
 2281              		.type	_0_b, %object
 2282              		.size	_0_b, 4
 2283              	_0_b:
 2284 0000 00000000 		.space	4
 2285              		.section	.bss._h_b,"aw",%nobits
 2286              		.align	2
 2287              		.set	.LANCHOR17,. + 0
 2288              		.type	_h_b, %object
 2289              		.size	_h_b, 4
 2290              	_h_b:
 2291 0000 00000000 		.space	4
 2292              		.text
 2293              	.Letext0:
 2294              		.file 2 "../../workspace26/Mobile_phone/structures/structures.h"
 2295              		.file 3 "c:\\chibistudio\\tools\\gnu tools arm embedded\\4.7 2014q2\\bin\\../lib/gcc/arm-none-eabi
 2296              		.file 4 "c:\\chibistudio\\tools\\gnu tools arm embedded\\4.7 2014q2\\bin\\../lib/gcc/arm-none-eabi
 2297              		.file 5 "../../chibios/os/ports/GCC/ARMCMx/chtypes.h"
 2298              		.file 6 "../../chibios/os/kernel/include/chlists.h"
 2299              		.file 7 "../../chibios/os/kernel/include/chthreads.h"
 2300              		.file 8 "../../chibios/os/ports/GCC/ARMCMx/chcore_v7m.h"
 2301              		.file 9 "../../chibios/os/kernel/include/chsem.h"
 2302              		.file 10 "../../chibios/os/kernel/include/chmtx.h"
 2303              		.file 11 "../../chibios/os/kernel/include/chmboxes.h"
 2304              		.file 12 "../../ugfx/src/gos/gos_chibios.h"
 2305              		.file 13 "../../ugfx/src/gqueue/gqueue.h"
 2306              		.file 14 "../../ugfx/src/gevent/gevent.h"
 2307              		.file 15 "../../ugfx/src/gdisp/gdisp.h"
 2308              		.file 16 "../../ugfx/src/gdisp/gdisp_colors.h"
 2309              		.file 17 "../../ugfx/src/gwin/gwin.h"
 2310              		.file 18 "../../ugfx/src/gwin/gwin_widget.h"
 2311              		.file 19 "../../ugfx/src/gwin/gwin_button.h"
 2312              		.file 20 "../../ugfx/src/gwin/gwin_slider.h"
 2313              		.file 21 "../../chibios/os/ports/common/ARMCMx/CMSIS/include/core_cm4.h"
 2314              		.file 22 "../../workspace26/Mobile_phone/tasks/gui_t.h"
 2315              		.file 23 "../../chibios/os/kernel/include/chmsg.h"
 2316              		.file 24 "c:\\chibistudio\\tools\\gnu tools arm embedded\\4.7 2014q2\\bin\\../lib/gcc/arm-none-eab
 2317              		.file 25 "../../workspace26/Mobile_phone/gui/settingsScreen.h"
 2318              		.file 26 "../../workspace26/Mobile_phone/gui/callsScreen.h"
 2319              		.file 27 "../../workspace26/Mobile_phone/gui/contactsScreen.h"
 2320              		.file 28 "../../workspace26/Mobile_phone/gui/gallery.h"
 2321              		.file 29 "../../workspace26/Mobile_phone/gui/mainScreen.h"
 2322              		.file 30 "../../workspace26/Mobile_phone/gui/callScreen.h"
 2323              		.file 31 "../../ugfx/src/gwin/gwin_list.h"
 2324              		.file 32 "../../workspace26/Mobile_phone/gsm/gsm.h"