ARM GAS  C:\Users\Elis\AppData\Local\Temp\cc3TOErQ.s 			page 1


   1              		.syntax unified
   2              		.cpu cortex-m4
   3              		.fpu softvfp
   4              		.eabi_attribute 20, 1
   5              		.eabi_attribute 21, 1
   6              		.eabi_attribute 23, 3
   7              		.eabi_attribute 24, 1
   8              		.eabi_attribute 25, 1
   9              		.eabi_attribute 26, 1
  10              		.eabi_attribute 30, 2
  11              		.eabi_attribute 34, 1
  12              		.eabi_attribute 18, 4
  13              		.thumb
  14              		.file	"gwin_button.c"
  15              		.text
  16              	.Ltext0:
  17              		.cfi_sections	.debug_frame
  18              		.section	.text.MouseDown,"ax",%progbits
  19              		.align	2
  20              		.p2align 4,,15
  21              		.thumb
  22              		.thumb_func
  23              		.type	MouseDown, %function
  24              	MouseDown:
  25              	.LFB118:
  26              		.file 1 "../../ugfx/src/gwin/gwin_button.c"
  27              		.loc 1 31 0
  28              		.cfi_startproc
  29              		@ args = 0, pretend = 0, frame = 0
  30              		@ frame_needed = 0, uses_anonymous_args = 0
  31              		@ link register save eliminated.
  32              	.LVL0:
  33              		.loc 1 33 0
  34 0000 8269     		ldr	r2, [r0, #24]
  35              	.LVL1:
  36 0002 42F00101 		orr	r1, r2, #1
  37              	.LVL2:
  38 0006 8161     		str	r1, [r0, #24]
  39              		.loc 1 35 0
  40              		.loc 1 34 0
  41 0008 FFF7FEBF 		b	_gwinUpdate
  42              	.LVL3:
  43              		.cfi_endproc
  44              	.LFE118:
  45              		.size	MouseDown, .-MouseDown
  46 000c AFF30080 		.section	.text.MouseUp,"ax",%progbits
  47              		.align	2
  48              		.p2align 4,,15
  49              		.thumb
  50              		.thumb_func
  51              		.type	MouseUp, %function
  52              	MouseUp:
  53              	.LFB119:
  54              		.loc 1 38 0
  55              		.cfi_startproc
  56              		@ args = 0, pretend = 0, frame = 0
  57              		@ frame_needed = 0, uses_anonymous_args = 0
ARM GAS  C:\Users\Elis\AppData\Local\Temp\cc3TOErQ.s 			page 2


  58              	.LVL4:
  59              		.loc 1 40 0
  60 0000 8369     		ldr	r3, [r0, #24]
  61              		.loc 1 38 0
  62 0002 70B5     		push	{r4, r5, r6, lr}
  63              	.LCFI0:
  64              		.cfi_def_cfa_offset 16
  65              		.cfi_offset 4, -16
  66              		.cfi_offset 5, -12
  67              		.cfi_offset 6, -8
  68              		.cfi_offset 14, -4
  69              		.loc 1 38 0
  70 0004 0D46     		mov	r5, r1
  71              		.loc 1 40 0
  72 0006 23F00101 		bic	r1, r3, #1
  73              	.LVL5:
  74 000a 8161     		str	r1, [r0, #24]
  75              		.loc 1 38 0
  76 000c 0446     		mov	r4, r0
  77 000e 1646     		mov	r6, r2
  78              		.loc 1 41 0
  79 0010 FFF7FEFF 		bl	_gwinUpdate
  80              	.LVL6:
  81              		.loc 1 45 0
  82 0014 002D     		cmp	r5, #0
  83 0016 09DB     		blt	.L2
  84              		.loc 1 45 0 is_stmt 0 discriminator 1
  85 0018 002E     		cmp	r6, #0
  86 001a 07DB     		blt	.L2
  87 001c B4F91000 		ldrsh	r0, [r4, #16]
  88 0020 A842     		cmp	r0, r5
  89 0022 03DD     		ble	.L2
  90 0024 B4F91220 		ldrsh	r2, [r4, #18]
  91 0028 B242     		cmp	r2, r6
  92 002a 00DC     		bgt	.L5
  93              	.L2:
  94 002c 70BD     		pop	{r4, r5, r6, pc}
  95              	.L5:
  96              	.LVL7:
  97              	.LBB10:
  98              	.LBB11:
  99              		.loc 1 49 0 is_stmt 1
 100 002e 2046     		mov	r0, r4
 101 0030 4FF41071 		mov	r1, #576
 102              	.LBE11:
 103              	.LBE10:
 104              		.loc 1 50 0
 105 0034 BDE87040 		pop	{r4, r5, r6, lr}
 106              	.LBB13:
 107              	.LBB12:
 108              		.loc 1 49 0
 109 0038 FFF7FEBF 		b	_gwinSendEvent
 110              	.LVL8:
 111              	.LBE12:
 112              	.LBE13:
 113              		.cfi_endproc
 114              	.LFE119:
ARM GAS  C:\Users\Elis\AppData\Local\Temp\cc3TOErQ.s 			page 3


 115              		.size	MouseUp, .-MouseUp
 116              		.section	.text.gwinButtonDraw_Normal,"ax",%progbits
 117              		.align	2
 118              		.p2align 4,,15
 119              		.global	gwinButtonDraw_Normal
 120              		.thumb
 121              		.thumb_func
 122              		.type	gwinButtonDraw_Normal, %function
 123              	gwinButtonDraw_Normal:
 124              	.LFB123:
 125              		.loc 1 158 0
 126              		.cfi_startproc
 127              		@ args = 0, pretend = 0, frame = 16
 128              		@ frame_needed = 0, uses_anonymous_args = 0
 129              	.LVL9:
 130 0000 2DE9F04F 		push	{r4, r5, r6, r7, r8, r9, sl, fp, lr}
 131              	.LCFI1:
 132              		.cfi_def_cfa_offset 36
 133              		.cfi_offset 4, -36
 134              		.cfi_offset 5, -32
 135              		.cfi_offset 6, -28
 136              		.cfi_offset 7, -24
 137              		.cfi_offset 8, -20
 138              		.cfi_offset 9, -16
 139              		.cfi_offset 10, -12
 140              		.cfi_offset 11, -8
 141              		.cfi_offset 14, -4
 142              		.loc 1 166 0
 143 0004 4368     		ldr	r3, [r0, #4]
 144 0006 494A     		ldr	r2, .L16
 145 0008 9342     		cmp	r3, r2
 146              		.loc 1 158 0
 147 000a 8BB0     		sub	sp, sp, #44
 148              	.LCFI2:
 149              		.cfi_def_cfa_offset 80
 150              		.loc 1 158 0
 151 000c 0446     		mov	r4, r0
 152              		.loc 1 166 0
 153 000e 02D0     		beq	.L14
 154              	.LVL10:
 155              	.L6:
 156              		.loc 1 179 0
 157 0010 0BB0     		add	sp, sp, #44
 158 0012 BDE8F08F 		pop	{r4, r5, r6, r7, r8, r9, sl, fp, pc}
 159              	.LVL11:
 160              	.L14:
 161              	.LBB18:
 162              	.LBB19:
 163              	.LBB20:
 164              	.LBB21:
 165              		.loc 1 140 0
 166 0016 8069     		ldr	r0, [r0, #24]
 167              	.LVL12:
 168 0018 0205     		lsls	r2, r0, #20
 169 001a 7FD5     		bpl	.L15
 170              		.loc 1 141 0
 171 001c 10F0010F 		tst	r0, #1
ARM GAS  C:\Users\Elis\AppData\Local\Temp\cc3TOErQ.s 			page 4


 172 0020 216B     		ldr	r1, [r4, #48]
 173              	.LVL13:
 174 0022 7FD0     		beq	.L10
 175 0024 1231     		adds	r1, r1, #18
 176 0026 0991     		str	r1, [sp, #36]
 177              	.L9:
 178              	.LBE21:
 179              	.LBE20:
 180              		.loc 1 170 0
 181 0028 099D     		ldr	r5, [sp, #36]
 182 002a 3222     		movs	r2, #50
 183 002c A988     		ldrh	r1, [r5, #4]
 184 002e 4FF6FF70 		movw	r0, #65535
 185 0032 FFF7FEFF 		bl	gdispBlendColor
 186              	.LVL14:
 187              		.loc 1 171 0
 188 0036 1922     		movs	r2, #25
 189              		.loc 1 170 0
 190 0038 0790     		str	r0, [sp, #28]
 191              	.LVL15:
 192              		.loc 1 171 0
 193 003a A988     		ldrh	r1, [r5, #4]
 194 003c 0020     		movs	r0, #0
 195 003e FFF7FEFF 		bl	gdispBlendColor
 196              	.LVL16:
 197 0042 0890     		str	r0, [sp, #32]
 198              	.LVL17:
 199              		.loc 1 172 0
 200 0044 608A     		ldrh	r0, [r4, #18]
 201 0046 02B2     		sxth	r2, r0
 202 0048 4FF47F0B 		mov	fp, #16711680
 203              		.loc 1 173 0
 204 004c 002A     		cmp	r2, #0
 205              		.loc 1 172 0
 206 004e 9BFBF2FB 		sdiv	fp, fp, r2
 207              	.LVL18:
 208              		.loc 1 173 0
 209 0052 27DD     		ble	.L11
 210 0054 0026     		movs	r6, #0
 211 0056 3546     		mov	r5, r6
 212              	.LVL19:
 213              	.L12:
 214              		.loc 1 174 0
 215 0058 A789     		ldrh	r7, [r4, #12]
 216 005a 208A     		ldrh	r0, [r4, #16]
 217 005c B4F80EC0 		ldrh	ip, [r4, #14]
 218 0060 D4F808A0 		ldr	sl, [r4, #8]
 219 0064 3918     		adds	r1, r7, r0
 220 0066 8B1E     		subs	r3, r1, #2
 221 0068 C6F30742 		ubfx	r2, r6, #16, #8
 222 006c 0799     		ldr	r1, [sp, #28]
 223 006e 0898     		ldr	r0, [sp, #32]
 224 0070 05EB0C09 		add	r9, r5, ip
 225 0074 1FFA83F8 		uxth	r8, r3
 226 0078 FFF7FEFF 		bl	gdispBlendColor
 227              	.LVL20:
 228 007c 1FFA89F9 		uxth	r9, r9
ARM GAS  C:\Users\Elis\AppData\Local\Temp\cc3TOErQ.s 			page 5


 229 0080 0FFA89F2 		sxth	r2, r9
 230 0084 0190     		str	r0, [sp, #4]
 231 0086 0092     		str	r2, [sp, #0]
 232 0088 5046     		mov	r0, sl
 233 008a 39B2     		sxth	r1, r7
 234 008c 0FFA88F3 		sxth	r3, r8
 235 0090 FFF7FEFF 		bl	gdispGDrawLine
 236              	.LVL21:
 237              		.loc 1 173 0
 238 0094 0135     		adds	r5, r5, #1
 239 0096 608A     		ldrh	r0, [r4, #18]
 240 0098 ADB2     		uxth	r5, r5
 241              	.LVL22:
 242 009a 29B2     		sxth	r1, r5
 243 009c 02B2     		sxth	r2, r0
 244 009e 9142     		cmp	r1, r2
 245 00a0 5E44     		add	r6, r6, fp
 246              	.LVL23:
 247 00a2 D9DB     		blt	.L12
 248              	.LVL24:
 249              	.L11:
 250              		.loc 1 176 0
 251 00a4 E169     		ldr	r1, [r4, #28]
 252 00a6 258A     		ldrh	r5, [r4, #16]
 253 00a8 431E     		subs	r3, r0, #1
 254 00aa 606A     		ldr	r0, [r4, #36]
 255 00ac 0291     		str	r1, [sp, #8]
 256 00ae 1AB2     		sxth	r2, r3
 257 00b0 099B     		ldr	r3, [sp, #36]
 258 00b2 0190     		str	r0, [sp, #4]
 259 00b4 0092     		str	r2, [sp, #0]
 260 00b6 1B88     		ldrh	r3, [r3, #0]
 261 00b8 A068     		ldr	r0, [r4, #8]
 262 00ba B4F90C10 		ldrsh	r1, [r4, #12]
 263 00be B4F90E20 		ldrsh	r2, [r4, #14]
 264 00c2 0393     		str	r3, [sp, #12]
 265 00c4 013D     		subs	r5, r5, #1
 266 00c6 2BB2     		sxth	r3, r5
 267 00c8 0125     		movs	r5, #1
 268 00ca 0495     		str	r5, [sp, #16]
 269 00cc FFF7FEFF 		bl	gdispGDrawStringBox
 270              	.LVL25:
 271              		.loc 1 177 0
 272 00d0 E289     		ldrh	r2, [r4, #14]
 273 00d2 638A     		ldrh	r3, [r4, #18]
 274 00d4 218A     		ldrh	r1, [r4, #16]
 275 00d6 A589     		ldrh	r5, [r4, #12]
 276 00d8 A068     		ldr	r0, [r4, #8]
 277 00da D318     		adds	r3, r2, r3
 278 00dc 013B     		subs	r3, r3, #1
 279 00de 6D18     		adds	r5, r5, r1
 280 00e0 691E     		subs	r1, r5, #1
 281 00e2 1BB2     		sxth	r3, r3
 282 00e4 099D     		ldr	r5, [sp, #36]
 283 00e6 0093     		str	r3, [sp, #0]
 284 00e8 6D88     		ldrh	r5, [r5, #2]
 285 00ea 09B2     		sxth	r1, r1
ARM GAS  C:\Users\Elis\AppData\Local\Temp\cc3TOErQ.s 			page 6


 286 00ec 0B46     		mov	r3, r1
 287 00ee 0195     		str	r5, [sp, #4]
 288 00f0 12B2     		sxth	r2, r2
 289 00f2 FFF7FEFF 		bl	gdispGDrawLine
 290              	.LVL26:
 291              		.loc 1 178 0
 292 00f6 E589     		ldrh	r5, [r4, #14]
 293 00f8 628A     		ldrh	r2, [r4, #18]
 294 00fa A189     		ldrh	r1, [r4, #12]
 295 00fc 238A     		ldrh	r3, [r4, #16]
 296 00fe A068     		ldr	r0, [r4, #8]
 297 0100 AC18     		adds	r4, r5, r2
 298              	.LVL27:
 299 0102 651E     		subs	r5, r4, #1
 300 0104 2AB2     		sxth	r2, r5
 301 0106 099D     		ldr	r5, [sp, #36]
 302 0108 0092     		str	r2, [sp, #0]
 303 010a CB18     		adds	r3, r1, r3
 304 010c 6C88     		ldrh	r4, [r5, #2]
 305 010e 023B     		subs	r3, r3, #2
 306 0110 0194     		str	r4, [sp, #4]
 307 0112 09B2     		sxth	r1, r1
 308 0114 1BB2     		sxth	r3, r3
 309 0116 FFF7FEFF 		bl	gdispGDrawLine
 310              	.LVL28:
 311 011a 79E7     		b	.L6
 312              	.LVL29:
 313              	.L15:
 314              	.LBB23:
 315              	.LBB22:
 316              		.loc 1 140 0
 317 011c 236B     		ldr	r3, [r4, #48]
 318 011e 0A33     		adds	r3, r3, #10
 319 0120 0993     		str	r3, [sp, #36]
 320 0122 81E7     		b	.L9
 321              	.LVL30:
 322              	.L10:
 323              		.loc 1 142 0
 324 0124 8D1C     		adds	r5, r1, #2
 325 0126 0995     		str	r5, [sp, #36]
 326 0128 7EE7     		b	.L9
 327              	.L17:
 328 012a 00BF     		.align	2
 329              	.L16:
 330 012c 00000000 		.word	.LANCHOR0
 331              	.LBE22:
 332              	.LBE23:
 333              	.LBE19:
 334              	.LBE18:
 335              		.cfi_endproc
 336              	.LFE123:
 337              		.size	gwinButtonDraw_Normal, .-gwinButtonDraw_Normal
 338              		.section	.text.gwinGButtonCreate,"ax",%progbits
 339              		.align	2
 340              		.p2align 4,,15
 341              		.global	gwinGButtonCreate
 342              		.thumb
ARM GAS  C:\Users\Elis\AppData\Local\Temp\cc3TOErQ.s 			page 7


 343              		.thumb_func
 344              		.type	gwinGButtonCreate, %function
 345              	gwinGButtonCreate:
 346              	.LFB120:
 347              		.loc 1 117 0
 348              		.cfi_startproc
 349              		@ args = 0, pretend = 0, frame = 0
 350              		@ frame_needed = 0, uses_anonymous_args = 0
 351              	.LVL31:
 352 0000 38B5     		push	{r3, r4, r5, lr}
 353              	.LCFI3:
 354              		.cfi_def_cfa_offset 16
 355              		.cfi_offset 3, -16
 356              		.cfi_offset 4, -12
 357              		.cfi_offset 5, -8
 358              		.cfi_offset 14, -4
 359              		.loc 1 118 0
 360 0002 054B     		ldr	r3, .L23
 361              		.loc 1 117 0
 362 0004 1546     		mov	r5, r2
 363              		.loc 1 118 0
 364 0006 FFF7FEFF 		bl	_gwidgetCreate
 365              	.LVL32:
 366 000a 0446     		mov	r4, r0
 367 000c 10B1     		cbz	r0, .L19
 368              		.loc 1 124 0
 369 000e 297A     		ldrb	r1, [r5, #8]	@ zero_extendqisi2
 370 0010 FFF7FEFF 		bl	gwinSetVisible
 371              	.LVL33:
 372              	.L19:
 373              		.loc 1 126 0
 374 0014 2046     		mov	r0, r4
 375 0016 38BD     		pop	{r3, r4, r5, pc}
 376              	.L24:
 377              		.align	2
 378              	.L23:
 379 0018 00000000 		.word	.LANCHOR0
 380              		.cfi_endproc
 381              	.LFE120:
 382              		.size	gwinGButtonCreate, .-gwinGButtonCreate
 383 001c AFF30080 		.section	.text.gwinButtonIsPressed,"ax",%progbits
 384              		.align	2
 385              		.p2align 4,,15
 386              		.global	gwinButtonIsPressed
 387              		.thumb
 388              		.thumb_func
 389              		.type	gwinButtonIsPressed, %function
 390              	gwinButtonIsPressed:
 391              	.LFB121:
 392              		.loc 1 128 0
 393              		.cfi_startproc
 394              		@ args = 0, pretend = 0, frame = 0
 395              		@ frame_needed = 0, uses_anonymous_args = 0
 396              		@ link register save eliminated.
 397              	.LVL34:
 398              		.loc 1 129 0
 399 0000 4368     		ldr	r3, [r0, #4]
ARM GAS  C:\Users\Elis\AppData\Local\Temp\cc3TOErQ.s 			page 8


 400 0002 044A     		ldr	r2, .L29
 401 0004 9342     		cmp	r3, r2
 402 0006 01D0     		beq	.L28
 403              		.loc 1 130 0
 404 0008 0020     		movs	r0, #0
 405              	.LVL35:
 406              		.loc 1 133 0
 407 000a 7047     		bx	lr
 408              	.LVL36:
 409              	.L28:
 410              		.loc 1 132 0
 411 000c 8069     		ldr	r0, [r0, #24]
 412              	.LVL37:
 413 000e 00F00100 		and	r0, r0, #1
 414 0012 7047     		bx	lr
 415              	.L30:
 416              		.align	2
 417              	.L29:
 418 0014 00000000 		.word	.LANCHOR0
 419              		.cfi_endproc
 420              	.LFE121:
 421              		.size	gwinButtonIsPressed, .-gwinButtonIsPressed
 422 0018 AFF30080 		.section	.text.gwinButtonDraw_Image,"ax",%progbits
 422      AFF30080 
 423              		.align	2
 424              		.p2align 4,,15
 425              		.global	gwinButtonDraw_Image
 426              		.thumb
 427              		.thumb_func
 428              		.type	gwinButtonDraw_Image, %function
 429              	gwinButtonDraw_Image:
 430              	.LFB124:
 431              		.loc 1 420 0
 432              		.cfi_startproc
 433              		@ args = 0, pretend = 0, frame = 0
 434              		@ frame_needed = 0, uses_anonymous_args = 0
 435              	.LVL38:
 436 0000 F0B5     		push	{r4, r5, r6, r7, lr}
 437              	.LCFI4:
 438              		.cfi_def_cfa_offset 20
 439              		.cfi_offset 4, -20
 440              		.cfi_offset 5, -16
 441              		.cfi_offset 6, -12
 442              		.cfi_offset 7, -8
 443              		.cfi_offset 14, -4
 444              		.loc 1 424 0
 445 0002 4368     		ldr	r3, [r0, #4]
 446 0004 224A     		ldr	r2, .L38
 447 0006 9342     		cmp	r3, r2
 448              		.loc 1 420 0
 449 0008 87B0     		sub	sp, sp, #28
 450              	.LCFI5:
 451              		.cfi_def_cfa_offset 48
 452              		.loc 1 420 0
 453 000a 0446     		mov	r4, r0
 454              		.loc 1 424 0
 455 000c 01D0     		beq	.L36
ARM GAS  C:\Users\Elis\AppData\Local\Temp\cc3TOErQ.s 			page 9


 456              	.LVL39:
 457              	.L31:
 458              		.loc 1 437 0
 459 000e 07B0     		add	sp, sp, #28
 460 0010 F0BD     		pop	{r4, r5, r6, r7, pc}
 461              	.LVL40:
 462              	.L36:
 463              	.LBB24:
 464              	.LBB25:
 465              		.loc 1 140 0
 466 0012 8569     		ldr	r5, [r0, #24]
 467 0014 2B05     		lsls	r3, r5, #20
 468 0016 30D5     		bpl	.L37
 469              		.loc 1 141 0
 470 0018 15F00105 		ands	r5, r5, #1
 471 001c 076B     		ldr	r7, [r0, #48]
 472 001e 34D0     		beq	.L35
 473              	.LBE25:
 474              	.LBE24:
 475              		.loc 1 430 0
 476 0020 458A     		ldrh	r5, [r0, #18]
 477              	.LBB30:
 478              	.LBB26:
 479              		.loc 1 141 0
 480 0022 1237     		adds	r7, r7, #18
 481              	.LVL41:
 482              	.LBE26:
 483              	.LBE30:
 484              		.loc 1 430 0
 485 0024 2E46     		mov	r6, r5
 486              	.LVL42:
 487              	.L34:
 488              		.loc 1 435 0
 489 0026 B4F910E0 		ldrsh	lr, [r4, #16]
 490 002a B4F90C20 		ldrsh	r2, [r4, #12]
 491 002e B4F90E30 		ldrsh	r3, [r4, #14]
 492 0032 A068     		ldr	r0, [r4, #8]
 493 0034 CDF800E0 		str	lr, [sp, #0]
 494 0038 36B2     		sxth	r6, r6
 495 003a 0196     		str	r6, [sp, #4]
 496 003c 2DB2     		sxth	r5, r5
 497              	.LVL43:
 498 003e 0026     		movs	r6, #0
 499 0040 0296     		str	r6, [sp, #8]
 500 0042 0395     		str	r5, [sp, #12]
 501 0044 FFF7FEFF 		bl	gdispGImageDraw
 502              	.LVL44:
 503              		.loc 1 436 0
 504 0048 668A     		ldrh	r6, [r4, #18]
 505 004a 636A     		ldr	r3, [r4, #36]
 506 004c 258A     		ldrh	r5, [r4, #16]
 507 004e E069     		ldr	r0, [r4, #28]
 508 0050 A189     		ldrh	r1, [r4, #12]
 509 0052 E289     		ldrh	r2, [r4, #14]
 510 0054 0193     		str	r3, [sp, #4]
 511 0056 B31E     		subs	r3, r6, #2
 512 0058 1BB2     		sxth	r3, r3
ARM GAS  C:\Users\Elis\AppData\Local\Temp\cc3TOErQ.s 			page 10


 513 005a 0093     		str	r3, [sp, #0]
 514 005c 0290     		str	r0, [sp, #8]
 515 005e 3B88     		ldrh	r3, [r7, #0]
 516 0060 A068     		ldr	r0, [r4, #8]
 517 0062 0393     		str	r3, [sp, #12]
 518 0064 0131     		adds	r1, r1, #1
 519 0066 0132     		adds	r2, r2, #1
 520 0068 AB1E     		subs	r3, r5, #2
 521 006a 0124     		movs	r4, #1
 522              	.LVL45:
 523 006c 0494     		str	r4, [sp, #16]
 524 006e 09B2     		sxth	r1, r1
 525 0070 12B2     		sxth	r2, r2
 526 0072 1BB2     		sxth	r3, r3
 527 0074 FFF7FEFF 		bl	gdispGDrawStringBox
 528              	.LVL46:
 529 0078 C9E7     		b	.L31
 530              	.LVL47:
 531              	.L37:
 532              		.loc 1 428 0
 533 007a 468A     		ldrh	r6, [r0, #18]
 534              	.LBB31:
 535              	.LBB27:
 536              		.loc 1 140 0
 537 007c 076B     		ldr	r7, [r0, #48]
 538              	.LBE27:
 539              	.LBE31:
 540              		.loc 1 428 0
 541 007e 4FF6FE75 		movw	r5, #65534
 542 0082 7000     		lsls	r0, r6, #1
 543              	.LVL48:
 544              	.LBB32:
 545              	.LBB28:
 546              		.loc 1 140 0
 547 0084 0A37     		adds	r7, r7, #10
 548              	.LBE28:
 549              	.LBE32:
 550              		.loc 1 428 0
 551 0086 0540     		ands	r5, r5, r0
 552              	.LVL49:
 553 0088 CDE7     		b	.L34
 554              	.LVL50:
 555              	.L35:
 556 008a 468A     		ldrh	r6, [r0, #18]
 557              	.LBB33:
 558              	.LBB29:
 559              		.loc 1 142 0
 560 008c 0237     		adds	r7, r7, #2
 561 008e CAE7     		b	.L34
 562              	.L39:
 563              		.align	2
 564              	.L38:
 565 0090 00000000 		.word	.LANCHOR0
 566              	.LBE29:
 567              	.LBE33:
 568              		.cfi_endproc
 569              	.LFE124:
ARM GAS  C:\Users\Elis\AppData\Local\Temp\cc3TOErQ.s 			page 11


 570              		.size	gwinButtonDraw_Image, .-gwinButtonDraw_Image
 571 0094 AFF30080 		.section	.rodata.buttonVMT,"a",%progbits
 571      AFF30080 
 571      AFF30080 
 572              		.align	2
 573              		.set	.LANCHOR0,. + 0
 574              		.type	buttonVMT, %object
 575              		.size	buttonVMT, 36
 576              	buttonVMT:
 577 0000 00000000 		.word	.LC0
 578 0004 34000000 		.word	52
 579 0008 00000000 		.word	_gwidgetDestroy
 580 000c 00000000 		.word	_gwidgetRedraw
 581 0010 00000000 		.word	0
 582 0014 00000000 		.word	gwinButtonDraw_Normal
 583 0018 00000000 		.word	MouseDown
 584 001c 00000000 		.word	MouseUp
 585 0020 00000000 		.word	0
 586              		.section	.rodata.str1.4,"aMS",%progbits,1
 587              		.align	2
 588              	.LC0:
 589 0000 42757474 		.ascii	"Button\000"
 589      6F6E00
 590 0007 00       		.text
 591              	.Letext0:
 592              		.file 2 "c:\\chibistudio\\tools\\gnu tools arm embedded\\4.7 2014q2\\bin\\../lib/gcc/arm-none-eabi
 593              		.file 3 "c:\\chibistudio\\tools\\gnu tools arm embedded\\4.7 2014q2\\bin\\../lib/gcc/arm-none-eabi
 594              		.file 4 "../../chibios/os/ports/GCC/ARMCMx/chtypes.h"
 595              		.file 5 "../../ugfx/src/gfile/gfile.h"
 596              		.file 6 "../../ugfx/src/gmisc/gmisc.h"
 597              		.file 7 "../../ugfx/src/gqueue/gqueue.h"
 598              		.file 8 "../../ugfx/src/gevent/gevent.h"
 599              		.file 9 "../../ugfx/src/gdisp/gdisp.h"
 600              		.file 10 "../../ugfx/src/gdisp/gdisp_colors.h"
 601              		.file 11 "../../ugfx/src/gdisp/gdisp_image.h"
 602              		.file 12 "../../ugfx/src/gwin/gwin.h"
 603              		.file 13 "../../ugfx/src/gwin/gwin_class.h"
 604              		.file 14 "../../ugfx/src/gwin/gwin_widget.h"
 605              		.file 15 "../../ugfx/src/gwin/gwin_button.h"
 606              		.file 16 "../../chibios/os/ports/common/ARMCMx/CMSIS/include/core_cm4.h"