ARM GAS  C:\Users\Elis\AppData\Local\Temp\cc0P2Oog.s 			page 1


   1              		.syntax unified
   2              		.cpu cortex-m4
   3              		.fpu softvfp
   4              		.eabi_attribute 20, 1
   5              		.eabi_attribute 21, 1
   6              		.eabi_attribute 23, 3
   7              		.eabi_attribute 24, 1
   8              		.eabi_attribute 25, 1
   9              		.eabi_attribute 26, 1
  10              		.eabi_attribute 30, 2
  11              		.eabi_attribute 34, 1
  12              		.eabi_attribute 18, 4
  13              		.thumb
  14              		.file	"gwin_image.c"
  15              		.text
  16              	.Ltext0:
  17              		.cfi_sections	.debug_frame
  18              		.section	.text._redraw,"ax",%progbits
  19              		.align	2
  20              		.p2align 4,,15
  21              		.thumb
  22              		.thumb_func
  23              		.type	_redraw, %function
  24              	_redraw:
  25              	.LFB119:
  26              		.file 1 "../../ugfx/src/gwin/gwin_image.c"
  27              		.loc 1 32 0
  28              		.cfi_startproc
  29              		@ args = 0, pretend = 0, frame = 8
  30              		@ frame_needed = 0, uses_anonymous_args = 0
  31              	.LVL0:
  32 0000 2DE9F04F 		push	{r4, r5, r6, r7, r8, r9, sl, fp, lr}
  33              	.LCFI0:
  34              		.cfi_def_cfa_offset 36
  35              		.cfi_offset 4, -36
  36              		.cfi_offset 5, -32
  37              		.cfi_offset 6, -28
  38              		.cfi_offset 7, -24
  39              		.cfi_offset 8, -20
  40              		.cfi_offset 9, -16
  41              		.cfi_offset 10, -12
  42              		.cfi_offset 11, -8
  43              		.cfi_offset 14, -4
  44 0004 87B0     		sub	sp, sp, #28
  45              	.LCFI1:
  46              		.cfi_def_cfa_offset 64
  47              		.loc 1 49 0
  48 0006 00F12405 		add	r5, r0, #36
  49              		.loc 1 32 0
  50 000a 0446     		mov	r4, r0
  51              		.loc 1 42 0
  52 000c B0F80CA0 		ldrh	sl, [r0, #12]
  53              	.LVL1:
  54              		.loc 1 43 0
  55 0010 B0F80E80 		ldrh	r8, [r0, #14]
  56              	.LVL2:
  57              		.loc 1 44 0
ARM GAS  C:\Users\Elis\AppData\Local\Temp\cc0P2Oog.s 			page 2


  58 0014 078A     		ldrh	r7, [r0, #16]
  59              	.LVL3:
  60              		.loc 1 45 0
  61 0016 468A     		ldrh	r6, [r0, #18]
  62              	.LVL4:
  63              		.loc 1 46 0
  64 0018 FFF7FEFF 		bl	gwinGetDefaultBgColor
  65              	.LVL5:
  66 001c 8146     		mov	r9, r0
  67              	.LVL6:
  68              		.loc 1 49 0
  69 001e 2846     		mov	r0, r5
  70              	.LVL7:
  71 0020 FFF7FEFF 		bl	gdispImageIsOpen
  72              	.LVL8:
  73 0024 0028     		cmp	r0, #0
  74 0026 00F08880 		beq	.L19
  75              		.loc 1 55 0
  76 002a B4F82AB0 		ldrh	fp, [r4, #42]
  77 002e 3FB2     		sxth	r7, r7
  78              	.LVL9:
  79 0030 0FFA8BF3 		sxth	r3, fp
  80 0034 9F42     		cmp	r7, r3
  81 0036 49DC     		bgt	.L20
  82              		.loc 1 71 0
  83 0038 B4F82CB0 		ldrh	fp, [r4, #44]
  84              		.loc 1 67 0
  85 003c BCBF     		itt	lt
  86 003e C7EB0303 		rsblt	r3, r7, r3
  87 0042 03EBD373 		addlt	r3, r3, r3, lsr #31
  88 0046 36B2     		sxth	r6, r6
  89              	.LVL10:
  90              		.loc 1 71 0
  91 0048 0FFA8BF2 		sxth	r2, fp
  92              		.loc 1 67 0
  93 004c B4BF     		ite	lt
  94 004e C3F34F03 		ubfxlt	r3, r3, #1, #16
  95              		.loc 1 40 0
  96 0052 0023     		movge	r3, #0
  97              		.loc 1 71 0
  98 0054 9642     		cmp	r6, r2
  99              		.loc 1 40 0
 100 0056 0593     		str	r3, [sp, #20]
 101              		.loc 1 71 0
 102 0058 63DD     		ble	.L7
 103              	.LVL11:
 104              	.L21:
 105              		.loc 1 73 0
 106 005a 618A     		ldrh	r1, [r4, #18]
 107 005c 0EB2     		sxth	r6, r1
 108 005e B31A     		subs	r3, r6, r2
 109 0060 03EBD370 		add	r0, r3, r3, lsr #31
 110 0064 C0F34F06 		ubfx	r6, r0, #1, #16
 111              	.LVL12:
 112              		.loc 1 74 0
 113 0068 B044     		add	r8, r6, r8
 114              	.LVL13:
ARM GAS  C:\Users\Elis\AppData\Local\Temp\cc0P2Oog.s 			page 3


 115 006a 1FFA88FC 		uxth	ip, r8
 116 006e 1FFA8CF8 		uxth	r8, ip
 117              	.LVL14:
 118              		.loc 1 75 0
 119 0072 002E     		cmp	r6, #0
 120 0074 6ED1     		bne	.L17
 121 0076 0FFA8AFA 		sxth	sl, sl
 122              	.LVL15:
 123              	.L8:
 124              		.loc 1 77 0
 125 007a 8B1B     		subs	r3, r1, r6
 126 007c 1FFA8BF2 		uxth	r2, fp
 127 0080 9E1A     		subs	r6, r3, r2
 128 0082 31B2     		sxth	r1, r6
 129 0084 6244     		add	r2, ip, r2
 130 0086 A068     		ldr	r0, [r4, #8]
 131 0088 0091     		str	r1, [sp, #0]
 132 008a 12B2     		sxth	r2, r2
 133 008c CDF80490 		str	r9, [sp, #4]
 134 0090 5146     		mov	r1, sl
 135 0092 3B46     		mov	r3, r7
 136 0094 FFF7FEFF 		bl	gdispGFillArea
 137              	.LVL16:
 138 0098 0FFA8BF6 		sxth	r6, fp
 139              		.loc 1 78 0
 140 009c 0022     		movs	r2, #0
 141              	.LVL17:
 142              	.L9:
 143              		.loc 1 87 0
 144 009e 2846     		mov	r0, r5
 145 00a0 4946     		mov	r1, r9
 146 00a2 0492     		str	r2, [sp, #16]
 147 00a4 FFF7FEFF 		bl	gdispImageSetBgColor
 148              	.LVL18:
 149              		.loc 1 90 0
 150 00a8 059B     		ldr	r3, [sp, #20]
 151 00aa 0499     		ldr	r1, [sp, #16]
 152 00ac A068     		ldr	r0, [r4, #8]
 153 00ae 0097     		str	r7, [sp, #0]
 154 00b0 1AB2     		sxth	r2, r3
 155 00b2 0BB2     		sxth	r3, r1
 156 00b4 0292     		str	r2, [sp, #8]
 157 00b6 0393     		str	r3, [sp, #12]
 158 00b8 0196     		str	r6, [sp, #4]
 159 00ba 2946     		mov	r1, r5
 160 00bc 5246     		mov	r2, sl
 161 00be 0FFA88F3 		sxth	r3, r8
 162 00c2 FFF7FEFF 		bl	gdispGImageDraw
 163              	.LVL19:
 164              	.L1:
 165              		.loc 1 111 0
 166 00c6 07B0     		add	sp, sp, #28
 167 00c8 BDE8F08F 		pop	{r4, r5, r6, r7, r8, r9, sl, fp, pc}
 168              	.LVL20:
 169              	.L20:
 170              		.loc 1 57 0
 171 00cc 228A     		ldrh	r2, [r4, #16]
ARM GAS  C:\Users\Elis\AppData\Local\Temp\cc0P2Oog.s 			page 4


 172 00ce 17B2     		sxth	r7, r2
 173 00d0 F81A     		subs	r0, r7, r3
 174 00d2 00EBD071 		add	r1, r0, r0, lsr #31
 175 00d6 C1F34F07 		ubfx	r7, r1, #1, #16
 176              	.LVL21:
 177              		.loc 1 58 0
 178 00da BA44     		add	sl, r7, sl
 179              	.LVL22:
 180 00dc 1FFA8AFC 		uxth	ip, sl
 181 00e0 1FFA8CFA 		uxth	sl, ip
 182              	.LVL23:
 183              		.loc 1 59 0
 184 00e4 002F     		cmp	r7, #0
 185 00e6 48D1     		bne	.L16
 186 00e8 0FFA88F3 		sxth	r3, r8
 187 00ec 0593     		str	r3, [sp, #20]
 188 00ee 36B2     		sxth	r6, r6
 189              	.LVL24:
 190              	.L5:
 191              		.loc 1 61 0
 192 00f0 1FFA8BF3 		uxth	r3, fp
 193 00f4 D71B     		subs	r7, r2, r7
 194 00f6 0CEB0301 		add	r1, ip, r3
 195 00fa FB1A     		subs	r3, r7, r3
 196 00fc A068     		ldr	r0, [r4, #8]
 197 00fe 059A     		ldr	r2, [sp, #20]
 198 0100 0096     		str	r6, [sp, #0]
 199 0102 CDF80490 		str	r9, [sp, #4]
 200 0106 09B2     		sxth	r1, r1
 201 0108 1BB2     		sxth	r3, r3
 202 010a FFF7FEFF 		bl	gdispGFillArea
 203              	.LVL25:
 204 010e 0FFA8BF7 		sxth	r7, fp
 205              	.LVL26:
 206              		.loc 1 71 0
 207 0112 B4F82CB0 		ldrh	fp, [r4, #44]
 208 0116 0FFA8BF2 		sxth	r2, fp
 209              		.loc 1 62 0
 210 011a 0020     		movs	r0, #0
 211              		.loc 1 71 0
 212 011c 9642     		cmp	r6, r2
 213              		.loc 1 62 0
 214 011e 0590     		str	r0, [sp, #20]
 215              		.loc 1 71 0
 216 0120 9BDC     		bgt	.L21
 217              	.LVL27:
 218              	.L7:
 219              		.loc 1 83 0
 220 0122 BEBF     		ittt	lt
 221 0124 C6EB0202 		rsblt	r2, r6, r2
 222 0128 02EBD272 		addlt	r2, r2, r2, lsr #31
 223 012c C2F34F02 		ubfxlt	r2, r2, #1, #16
 224 0130 0FFA8AFA 		sxth	sl, sl
 225              		.loc 1 41 0
 226 0134 A8BF     		it	ge
 227 0136 0022     		movge	r2, #0
 228 0138 B1E7     		b	.L9
ARM GAS  C:\Users\Elis\AppData\Local\Temp\cc0P2Oog.s 			page 5


 229              	.LVL28:
 230              	.L19:
 231              		.loc 1 50 0
 232 013a 36B2     		sxth	r6, r6
 233              	.LVL29:
 234 013c A068     		ldr	r0, [r4, #8]
 235 013e CDF80490 		str	r9, [sp, #4]
 236 0142 0096     		str	r6, [sp, #0]
 237 0144 0FFA8AF1 		sxth	r1, sl
 238 0148 0FFA88F2 		sxth	r2, r8
 239 014c 3BB2     		sxth	r3, r7
 240 014e FFF7FEFF 		bl	gdispGFillArea
 241              	.LVL30:
 242              		.loc 1 51 0
 243 0152 B8E7     		b	.L1
 244              	.LVL31:
 245              	.L17:
 246              		.loc 1 76 0
 247 0154 31B2     		sxth	r1, r6
 248 0156 0FFA8AFA 		sxth	sl, sl
 249 015a A068     		ldr	r0, [r4, #8]
 250 015c B4F90E20 		ldrsh	r2, [r4, #14]
 251 0160 0091     		str	r1, [sp, #0]
 252 0162 CDF80490 		str	r9, [sp, #4]
 253 0166 5146     		mov	r1, sl
 254 0168 3B46     		mov	r3, r7
 255 016a CDF810C0 		str	ip, [sp, #16]
 256 016e FFF7FEFF 		bl	gdispGFillArea
 257              	.LVL32:
 258 0172 618A     		ldrh	r1, [r4, #18]
 259 0174 DDF810C0 		ldr	ip, [sp, #16]
 260 0178 7FE7     		b	.L8
 261              	.LVL33:
 262              	.L16:
 263              		.loc 1 60 0
 264 017a 36B2     		sxth	r6, r6
 265              	.LVL34:
 266 017c A068     		ldr	r0, [r4, #8]
 267 017e B4F90C10 		ldrsh	r1, [r4, #12]
 268 0182 CDF80490 		str	r9, [sp, #4]
 269 0186 0FFA88F2 		sxth	r2, r8
 270 018a 0096     		str	r6, [sp, #0]
 271 018c 3BB2     		sxth	r3, r7
 272 018e 0592     		str	r2, [sp, #20]
 273 0190 CDF810C0 		str	ip, [sp, #16]
 274 0194 FFF7FEFF 		bl	gdispGFillArea
 275              	.LVL35:
 276 0198 228A     		ldrh	r2, [r4, #16]
 277 019a DDF810C0 		ldr	ip, [sp, #16]
 278 019e A7E7     		b	.L5
 279              		.cfi_endproc
 280              	.LFE119:
 281              		.size	_redraw, .-_redraw
 282              		.section	.text._destroy,"ax",%progbits
 283              		.align	2
 284              		.p2align 4,,15
 285              		.thumb
ARM GAS  C:\Users\Elis\AppData\Local\Temp\cc0P2Oog.s 			page 6


 286              		.thumb_func
 287              		.type	_destroy, %function
 288              	_destroy:
 289              	.LFB118:
 290              		.loc 1 21 0
 291              		.cfi_startproc
 292              		@ args = 0, pretend = 0, frame = 0
 293              		@ frame_needed = 0, uses_anonymous_args = 0
 294              	.LVL36:
 295 0000 10B5     		push	{r4, lr}
 296              	.LCFI2:
 297              		.cfi_def_cfa_offset 8
 298              		.cfi_offset 4, -8
 299              		.cfi_offset 14, -4
 300              		.loc 1 22 0
 301 0002 00F12404 		add	r4, r0, #36
 302 0006 2046     		mov	r0, r4
 303              	.LVL37:
 304 0008 FFF7FEFF 		bl	gdispImageIsOpen
 305              	.LVL38:
 306 000c 00B9     		cbnz	r0, .L24
 307 000e 10BD     		pop	{r4, pc}
 308              	.L24:
 309              		.loc 1 23 0
 310 0010 2046     		mov	r0, r4
 311              		.loc 1 24 0
 312 0012 BDE81040 		pop	{r4, lr}
 313              		.loc 1 23 0
 314 0016 FFF7FEBF 		b	gdispImageClose
 315              	.LVL39:
 316              		.cfi_endproc
 317              	.LFE118:
 318              		.size	_destroy, .-_destroy
 319 001a 00BFAFF3 		.section	.text.gwinGImageCreate,"ax",%progbits
 319      0080
 320              		.align	2
 321              		.p2align 4,,15
 322              		.global	gwinGImageCreate
 323              		.thumb
 324              		.thumb_func
 325              		.type	gwinGImageCreate, %function
 326              	gwinGImageCreate:
 327              	.LFB120:
 328              		.loc 1 121 0
 329              		.cfi_startproc
 330              		@ args = 0, pretend = 0, frame = 0
 331              		@ frame_needed = 0, uses_anonymous_args = 0
 332              	.LVL40:
 333 0000 30B5     		push	{r4, r5, lr}
 334              	.LCFI3:
 335              		.cfi_def_cfa_offset 12
 336              		.cfi_offset 4, -12
 337              		.cfi_offset 5, -8
 338              		.cfi_offset 14, -4
 339 0002 83B0     		sub	sp, sp, #12
 340              	.LCFI4:
 341              		.cfi_def_cfa_offset 24
ARM GAS  C:\Users\Elis\AppData\Local\Temp\cc0P2Oog.s 			page 7


 342              		.loc 1 122 0
 343 0004 0023     		movs	r3, #0
 344 0006 0093     		str	r3, [sp, #0]
 345 0008 084B     		ldr	r3, .L30
 346              		.loc 1 121 0
 347 000a 1546     		mov	r5, r2
 348              		.loc 1 122 0
 349 000c FFF7FEFF 		bl	_gwindowCreate
 350              	.LVL41:
 351 0010 0446     		mov	r4, r0
 352 0012 38B1     		cbz	r0, .L26
 353              		.loc 1 126 0
 354 0014 00F12400 		add	r0, r0, #36
 355              	.LVL42:
 356 0018 FFF7FEFF 		bl	gdispImageInit
 357              	.LVL43:
 358              		.loc 1 133 0
 359 001c 2046     		mov	r0, r4
 360 001e 297A     		ldrb	r1, [r5, #8]	@ zero_extendqisi2
 361 0020 FFF7FEFF 		bl	gwinSetVisible
 362              	.LVL44:
 363              	.L26:
 364              		.loc 1 136 0
 365 0024 2046     		mov	r0, r4
 366 0026 03B0     		add	sp, sp, #12
 367 0028 30BD     		pop	{r4, r5, pc}
 368              	.L31:
 369 002a 00BF     		.align	2
 370              	.L30:
 371 002c 00000000 		.word	.LANCHOR0
 372              		.cfi_endproc
 373              	.LFE120:
 374              		.size	gwinGImageCreate, .-gwinGImageCreate
 375              		.section	.text.gwinImageOpenGFile,"ax",%progbits
 376              		.align	2
 377              		.p2align 4,,15
 378              		.global	gwinImageOpenGFile
 379              		.thumb
 380              		.thumb_func
 381              		.type	gwinImageOpenGFile, %function
 382              	gwinImageOpenGFile:
 383              	.LFB121:
 384              		.loc 1 138 0
 385              		.cfi_startproc
 386              		@ args = 0, pretend = 0, frame = 8
 387              		@ frame_needed = 0, uses_anonymous_args = 0
 388              	.LVL45:
 389 0000 30B5     		push	{r4, r5, lr}
 390              	.LCFI5:
 391              		.cfi_def_cfa_offset 12
 392              		.cfi_offset 4, -12
 393              		.cfi_offset 5, -8
 394              		.cfi_offset 14, -4
 395              		.loc 1 140 0
 396 0002 4368     		ldr	r3, [r0, #4]
 397 0004 0F4A     		ldr	r2, .L41
 398 0006 9342     		cmp	r3, r2
ARM GAS  C:\Users\Elis\AppData\Local\Temp\cc0P2Oog.s 			page 8


 399              		.loc 1 138 0
 400 0008 83B0     		sub	sp, sp, #12
 401              	.LCFI6:
 402              		.cfi_def_cfa_offset 24
 403              		.loc 1 138 0
 404 000a 0446     		mov	r4, r0
 405              		.loc 1 140 0
 406 000c 02D0     		beq	.L33
 407              	.LVL46:
 408              	.L36:
 409              		.loc 1 141 0
 410 000e 0020     		movs	r0, #0
 411              	.L34:
 412              		.loc 1 152 0
 413 0010 03B0     		add	sp, sp, #12
 414 0012 30BD     		pop	{r4, r5, pc}
 415              	.LVL47:
 416              	.L33:
 417              		.loc 1 143 0
 418 0014 00F12405 		add	r5, r0, #36
 419 0018 2846     		mov	r0, r5
 420              	.LVL48:
 421 001a 0191     		str	r1, [sp, #4]
 422 001c FFF7FEFF 		bl	gdispImageIsOpen
 423              	.LVL49:
 424 0020 0199     		ldr	r1, [sp, #4]
 425 0022 48B9     		cbnz	r0, .L40
 426              	.L35:
 427              		.loc 1 146 0
 428 0024 2846     		mov	r0, r5
 429 0026 FFF7FEFF 		bl	gdispImageOpenGFile
 430              	.LVL50:
 431 002a 0304     		lsls	r3, r0, #16
 432 002c EFD4     		bmi	.L36
 433              		.loc 1 149 0
 434 002e 2046     		mov	r0, r4
 435 0030 FFF7FEFF 		bl	_gwinUpdate
 436              	.LVL51:
 437              		.loc 1 151 0
 438 0034 0120     		movs	r0, #1
 439 0036 EBE7     		b	.L34
 440              	.L40:
 441              		.loc 1 144 0
 442 0038 2846     		mov	r0, r5
 443 003a FFF7FEFF 		bl	gdispImageClose
 444              	.LVL52:
 445 003e 0199     		ldr	r1, [sp, #4]
 446 0040 F0E7     		b	.L35
 447              	.L42:
 448 0042 00BF     		.align	2
 449              	.L41:
 450 0044 00000000 		.word	.LANCHOR0
 451              		.cfi_endproc
 452              	.LFE121:
 453              		.size	gwinImageOpenGFile, .-gwinImageOpenGFile
 454 0048 AFF30080 		.section	.text.gwinImageCache,"ax",%progbits
 454      AFF30080 
ARM GAS  C:\Users\Elis\AppData\Local\Temp\cc0P2Oog.s 			page 9


 455              		.align	2
 456              		.p2align 4,,15
 457              		.global	gwinImageCache
 458              		.thumb
 459              		.thumb_func
 460              		.type	gwinImageCache, %function
 461              	gwinImageCache:
 462              	.LFB122:
 463              		.loc 1 154 0
 464              		.cfi_startproc
 465              		@ args = 0, pretend = 0, frame = 0
 466              		@ frame_needed = 0, uses_anonymous_args = 0
 467              		@ link register save eliminated.
 468              	.LVL53:
 469              		.loc 1 156 0
 470 0000 4368     		ldr	r3, [r0, #4]
 471 0002 044A     		ldr	r2, .L46
 472 0004 9342     		cmp	r3, r2
 473 0006 02D0     		beq	.L45
 474              		.loc 1 160 0
 475 0008 48F20100 		movw	r0, #32769
 476              	.LVL54:
 477 000c 7047     		bx	lr
 478              	.LVL55:
 479              	.L45:
 480              		.loc 1 159 0
 481 000e 2430     		adds	r0, r0, #36
 482              	.LVL56:
 483              		.loc 1 160 0
 484              		.loc 1 159 0
 485 0010 FFF7FEBF 		b	gdispImageCache
 486              	.LVL57:
 487              	.L47:
 488              		.align	2
 489              	.L46:
 490 0014 00000000 		.word	.LANCHOR0
 491              		.cfi_endproc
 492              	.LFE122:
 493              		.size	gwinImageCache, .-gwinImageCache
 494 0018 AFF30080 		.section	.rodata.imageVMT,"a",%progbits
 494      AFF30080 
 495              		.align	2
 496              		.set	.LANCHOR0,. + 0
 497              		.type	imageVMT, %object
 498              		.size	imageVMT, 20
 499              	imageVMT:
 500 0000 00000000 		.word	.LC0
 501 0004 3C000000 		.word	60
 502 0008 00000000 		.word	_destroy
 503 000c 00000000 		.word	_redraw
 504 0010 00000000 		.word	0
 505              		.section	.rodata.str1.4,"aMS",%progbits,1
 506              		.align	2
 507              	.LC0:
 508 0000 496D6167 		.ascii	"Image\000"
 508      6500
 509 0006 0000     		.text
ARM GAS  C:\Users\Elis\AppData\Local\Temp\cc0P2Oog.s 			page 10


 510              	.Letext0:
 511              		.file 2 "c:\\chibistudio\\tools\\gnu tools arm embedded\\4.7 2014q2\\bin\\../lib/gcc/arm-none-eabi
 512              		.file 3 "c:\\chibistudio\\tools\\gnu tools arm embedded\\4.7 2014q2\\bin\\../lib/gcc/arm-none-eabi
 513              		.file 4 "../../chibios/os/ports/GCC/ARMCMx/chtypes.h"
 514              		.file 5 "../../ugfx/src/gfile/gfile.h"
 515              		.file 6 "../../ugfx/src/gqueue/gqueue.h"
 516              		.file 7 "../../ugfx/src/gdisp/gdisp.h"
 517              		.file 8 "../../ugfx/src/gdisp/gdisp_colors.h"
 518              		.file 9 "../../ugfx/src/gdisp/gdisp_image.h"
 519              		.file 10 "../../ugfx/src/gwin/gwin.h"
 520              		.file 11 "../../ugfx/src/gwin/gwin_class.h"
 521              		.file 12 "../../ugfx/src/gwin/gwin_image.h"
 522              		.file 13 "../../chibios/os/ports/common/ARMCMx/CMSIS/include/core_cm4.h"