ARM GAS  C:\Users\Elis\AppData\Local\Temp\ccZf9x3w.s 			page 1


   1              		.syntax unified
   2              		.cpu cortex-m4
   3              		.fpu softvfp
   4              		.eabi_attribute 20, 1
   5              		.eabi_attribute 21, 1
   6              		.eabi_attribute 23, 3
   7              		.eabi_attribute 24, 1
   8              		.eabi_attribute 25, 1
   9              		.eabi_attribute 26, 1
  10              		.eabi_attribute 30, 2
  11              		.eabi_attribute 34, 1
  12              		.eabi_attribute 18, 4
  13              		.thumb
  14              		.file	"gwin_console.c"
  15              		.text
  16              	.Ltext0:
  17              		.cfi_sections	.debug_frame
  18              		.section	.text.AfterClear,"ax",%progbits
  19              		.align	2
  20              		.p2align 4,,15
  21              		.thumb
  22              		.thumb_func
  23              		.type	AfterClear, %function
  24              	AfterClear:
  25              	.LFB118:
  26              		.file 1 "../../ugfx/src/gwin/gwin_console.c"
  27              		.loc 1 297 0
  28              		.cfi_startproc
  29              		@ args = 0, pretend = 0, frame = 0
  30              		@ frame_needed = 0, uses_anonymous_args = 0
  31              		@ link register save eliminated.
  32              	.LVL0:
  33              		.loc 1 299 0
  34 0000 0023     		movs	r3, #0
  35 0002 8384     		strh	r3, [r0, #36]	@ movhi
  36              		.loc 1 300 0
  37 0004 C384     		strh	r3, [r0, #38]	@ movhi
  38 0006 7047     		bx	lr
  39              		.cfi_endproc
  40              	.LFE118:
  41              		.size	AfterClear, .-AfterClear
  42 0008 AFF30080 		.section	.text.ltoa_wd.constprop.1,"ax",%progbits
  42      AFF30080 
  43              		.align	2
  44              		.p2align 4,,15
  45              		.thumb
  46              		.thumb_func
  47              		.type	ltoa_wd.constprop.1, %function
  48              	ltoa_wd.constprop.1:
  49              	.LFB126:
  50              		.loc 1 614 0
  51              		.cfi_startproc
  52              		@ args = 0, pretend = 0, frame = 0
  53              		@ frame_needed = 0, uses_anonymous_args = 0
  54              		@ link register save eliminated.
  55              	.LVL1:
  56 0000 F0B4     		push	{r4, r5, r6, r7}
ARM GAS  C:\Users\Elis\AppData\Local\Temp\ccZf9x3w.s 			page 2


  57              	.LCFI0:
  58              		.cfi_def_cfa_offset 16
  59              		.cfi_offset 4, -16
  60              		.cfi_offset 5, -12
  61              		.cfi_offset 6, -8
  62              		.cfi_offset 7, -4
  63              		.loc 1 620 0
  64 0002 00F10B0C 		add	ip, r0, #11
  65              		.loc 1 614 0
  66 0006 0746     		mov	r7, r0
  67              	.LVL2:
  68 0008 00F10A05 		add	r5, r0, #10
  69 000c 0C46     		mov	r4, r1
  70              	.LVL3:
  71              	.L4:
  72              		.loc 1 622 0
  73 000e B1FBF2F6 		udiv	r6, r1, r2
  74 0012 02FB1611 		mls	r1, r2, r6, r1
  75              	.LVL4:
  76              		.loc 1 623 0
  77 0016 01F13003 		add	r3, r1, #48
  78              	.LVL5:
  79              		.loc 1 624 0
  80 001a 392B     		cmp	r3, #57
  81              		.loc 1 625 0
  82 001c C8BF     		it	gt
  83 001e 01F13703 		addgt	r3, r1, #55
  84              	.LVL6:
  85              		.loc 1 626 0
  86 0022 DBB2     		uxtb	r3, r3
  87              	.LVL7:
  88              		.loc 1 628 0
  89 0024 B4FBF2F4 		udiv	r4, r4, r2
  90              	.LVL8:
  91              		.loc 1 626 0
  92 0028 2846     		mov	r0, r5
  93              	.LVL9:
  94              		.loc 1 627 0
  95 002a 3146     		mov	r1, r6
  96              	.LVL10:
  97              		.loc 1 626 0
  98 002c 05F80139 		strb	r3, [r5], #-1
  99              	.LVL11:
 100              		.loc 1 628 0
 101 0030 002C     		cmp	r4, #0
 102 0032 ECD1     		bne	.L4
 103              	.LVL12:
 104              		.loc 1 630 0
 105 0034 C0EB0C02 		rsb	r2, r0, ip
 106              	.LVL13:
 107 0038 0146     		mov	r1, r0
 108              	.LVL14:
 109              		.loc 1 614 0
 110 003a B818     		adds	r0, r7, r2
 111              	.LVL15:
 112 003c FA43     		mvns	r2, r7
 113              	.LVL16:
ARM GAS  C:\Users\Elis\AppData\Local\Temp\ccZf9x3w.s 			page 3


 114 003e 8218     		adds	r2, r0, r2
 115 0040 D207     		lsls	r2, r2, #31
 116 0042 0AD5     		bpl	.L6
 117              	.LVL17:
 118              		.loc 1 632 0
 119 0044 07F8013B 		strb	r3, [r7], #1
 120              	.LVL18:
 121 0048 11F8013F 		ldrb	r3, [r1, #1]!	@ zero_extendqisi2
 122 004c 05E0     		b	.L6
 123              	.L16:
 124 004e 11F8013F 		ldrb	r3, [r1, #1]!	@ zero_extendqisi2
 125              	.LVL19:
 126 0052 7B70     		strb	r3, [r7, #1]
 127 0054 11F8013F 		ldrb	r3, [r1, #1]!	@ zero_extendqisi2
 128 0058 571C     		adds	r7, r2, #1
 129              	.LVL20:
 130              	.L6:
 131 005a 3A46     		mov	r2, r7
 132 005c 02F8013B 		strb	r3, [r2], #1
 133              		.loc 1 633 0
 134 0060 8242     		cmp	r2, r0
 135 0062 F4D1     		bne	.L16
 136              		.loc 1 636 0
 137 0064 F0BC     		pop	{r4, r5, r6, r7}
 138 0066 7047     		bx	lr
 139              		.cfi_endproc
 140              	.LFE126:
 141              		.size	ltoa_wd.constprop.1, .-ltoa_wd.constprop.1
 142 0068 AFF30080 		.section	.text.gwinGConsoleCreate,"ax",%progbits
 142      AFF30080 
 143              		.align	2
 144              		.p2align 4,,15
 145              		.global	gwinGConsoleCreate
 146              		.thumb
 147              		.thumb_func
 148              		.type	gwinGConsoleCreate, %function
 149              	gwinGConsoleCreate:
 150              	.LFB119:
 151              		.loc 1 321 0
 152              		.cfi_startproc
 153              		@ args = 0, pretend = 0, frame = 0
 154              		@ frame_needed = 0, uses_anonymous_args = 0
 155              	.LVL21:
 156 0000 70B5     		push	{r4, r5, r6, lr}
 157              	.LCFI1:
 158              		.cfi_def_cfa_offset 16
 159              		.cfi_offset 4, -16
 160              		.cfi_offset 5, -12
 161              		.cfi_offset 6, -8
 162              		.cfi_offset 14, -4
 163 0002 82B0     		sub	sp, sp, #8
 164              	.LCFI2:
 165              		.cfi_def_cfa_offset 24
 166              		.loc 1 322 0
 167 0004 0024     		movs	r4, #0
 168 0006 0094     		str	r4, [sp, #0]
 169 0008 064B     		ldr	r3, .L22
ARM GAS  C:\Users\Elis\AppData\Local\Temp\ccZf9x3w.s 			page 4


 170              		.loc 1 321 0
 171 000a 1646     		mov	r6, r2
 172              		.loc 1 322 0
 173 000c FFF7FEFF 		bl	_gwindowCreate
 174              	.LVL22:
 175 0010 0546     		mov	r5, r0
 176 0012 20B1     		cbz	r0, .L18
 177              		.loc 1 336 0
 178 0014 8484     		strh	r4, [r0, #36]	@ movhi
 179              		.loc 1 337 0
 180 0016 C484     		strh	r4, [r0, #38]	@ movhi
 181              		.loc 1 344 0
 182 0018 317A     		ldrb	r1, [r6, #8]	@ zero_extendqisi2
 183 001a FFF7FEFF 		bl	gwinSetVisible
 184              	.LVL23:
 185              	.L18:
 186              		.loc 1 347 0
 187 001e 2846     		mov	r0, r5
 188 0020 02B0     		add	sp, sp, #8
 189 0022 70BD     		pop	{r4, r5, r6, pc}
 190              	.L23:
 191              		.align	2
 192              	.L22:
 193 0024 00000000 		.word	.LANCHOR0
 194              		.cfi_endproc
 195              	.LFE119:
 196              		.size	gwinGConsoleCreate, .-gwinGConsoleCreate
 197 0028 AFF30080 		.section	.text.gwinPutChar,"ax",%progbits
 197      AFF30080 
 198              		.align	2
 199              		.p2align 4,,15
 200              		.global	gwinPutChar
 201              		.thumb
 202              		.thumb_func
 203              		.type	gwinPutChar, %function
 204              	gwinPutChar:
 205              	.LFB120:
 206              		.loc 1 414 0
 207              		.cfi_startproc
 208              		@ args = 0, pretend = 0, frame = 0
 209              		@ frame_needed = 0, uses_anonymous_args = 0
 210              	.LVL24:
 211 0000 F0B5     		push	{r4, r5, r6, r7, lr}
 212              	.LCFI3:
 213              		.cfi_def_cfa_offset 20
 214              		.cfi_offset 4, -20
 215              		.cfi_offset 5, -16
 216              		.cfi_offset 6, -12
 217              		.cfi_offset 7, -8
 218              		.cfi_offset 14, -4
 219              		.loc 1 418 0
 220 0002 4268     		ldr	r2, [r0, #4]
 221 0004 624D     		ldr	r5, .L66
 222 0006 AA42     		cmp	r2, r5
 223              		.loc 1 414 0
 224 0008 83B0     		sub	sp, sp, #12
 225              	.LCFI4:
ARM GAS  C:\Users\Elis\AppData\Local\Temp\ccZf9x3w.s 			page 5


 226              		.cfi_def_cfa_offset 32
 227              		.loc 1 414 0
 228 000a 0446     		mov	r4, r0
 229 000c 0E46     		mov	r6, r1
 230              		.loc 1 418 0
 231 000e 01D0     		beq	.L62
 232              	.LVL25:
 233              	.L24:
 234              		.loc 1 597 0
 235 0010 03B0     		add	sp, sp, #12
 236 0012 F0BD     		pop	{r4, r5, r6, r7, pc}
 237              	.LVL26:
 238              	.L62:
 239              	.LBB4:
 240              	.LBB5:
 241              		.loc 1 418 0
 242 0014 C069     		ldr	r0, [r0, #28]
 243              	.LVL27:
 244 0016 0028     		cmp	r0, #0
 245 0018 FAD0     		beq	.L24
 246              		.loc 1 421 0
 247 001a 0021     		movs	r1, #0
 248              	.LVL28:
 249 001c FFF7FEFF 		bl	gdispGetFontMetric
 250              	.LVL29:
 251              		.loc 1 475 0
 252 0020 0A2E     		cmp	r6, #10
 253              		.loc 1 421 0
 254 0022 C5B2     		uxtb	r5, r0
 255              	.LVL30:
 256              		.loc 1 475 0
 257 0024 40D0     		beq	.L29
 258 0026 0D2E     		cmp	r6, #13
 259 0028 F2D0     		beq	.L24
 260              		.loc 1 503 0
 261 002a 3046     		mov	r0, r6
 262              	.LVL31:
 263 002c E169     		ldr	r1, [r4, #28]
 264 002e FFF7FEFF 		bl	gdispGetCharWidth
 265              	.LVL32:
 266 0032 C7B2     		uxtb	r7, r0
 267              	.LVL33:
 268 0034 002F     		cmp	r7, #0
 269 0036 EBD0     		beq	.L24
 270              		.loc 1 513 0
 271 0038 B4F92400 		ldrsh	r0, [r4, #36]
 272              	.LVL34:
 273 003c B4F91030 		ldrsh	r3, [r4, #16]
 274 0040 C119     		adds	r1, r0, r7
 275 0042 9942     		cmp	r1, r3
 276              		.loc 1 515 0
 277 0044 E08C     		ldrh	r0, [r4, #38]
 278              		.loc 1 513 0
 279 0046 04DB     		blt	.L36
 280              		.loc 1 515 0
 281 0048 2A18     		adds	r2, r5, r0
 282 004a 90B2     		uxth	r0, r2
ARM GAS  C:\Users\Elis\AppData\Local\Temp\ccZf9x3w.s 			page 6


 283              		.loc 1 514 0
 284 004c 0021     		movs	r1, #0
 285 004e A184     		strh	r1, [r4, #36]	@ movhi
 286              		.loc 1 515 0
 287 0050 E084     		strh	r0, [r4, #38]	@ movhi
 288              	.L36:
 289              		.loc 1 520 0
 290 0052 B4F912E0 		ldrsh	lr, [r4, #18]
 291 0056 05FA80F2 		sxtah	r2, r5, r0
 292 005a 7245     		cmp	r2, lr
 293 005c 52DC     		bgt	.L37
 294 005e A369     		ldr	r3, [r4, #24]
 295 0060 03F00103 		and	r3, r3, #1
 296              	.L38:
 297              		.loc 1 565 0
 298 0064 002B     		cmp	r3, #0
 299 0066 6ED0     		beq	.L42
 300              	.L45:
 301              		.loc 1 569 0
 302 0068 A38C     		ldrh	r3, [r4, #36]
 303 006a 002B     		cmp	r3, #0
 304 006c 75D0     		beq	.L63
 305              	.LVL35:
 306              	.L44:
 307              		.loc 1 576 0
 308 006e B4F80CC0 		ldrh	ip, [r4, #12]
 309 0072 B4F826E0 		ldrh	lr, [r4, #38]
 310 0076 E589     		ldrh	r5, [r4, #14]
 311 0078 E269     		ldr	r2, [r4, #28]
 312 007a A18A     		ldrh	r1, [r4, #20]
 313 007c A068     		ldr	r0, [r4, #8]
 314 007e 0092     		str	r2, [sp, #0]
 315 0080 6344     		add	r3, r3, ip
 316 0082 7544     		add	r5, lr, r5
 317 0084 0191     		str	r1, [sp, #4]
 318 0086 2AB2     		sxth	r2, r5
 319 0088 19B2     		sxth	r1, r3
 320 008a 3346     		mov	r3, r6
 321 008c FFF7FEFF 		bl	gdispGDrawChar
 322              	.LVL36:
 323              		.loc 1 590 0
 324 0090 A069     		ldr	r0, [r4, #24]
 325 0092 C307     		lsls	r3, r0, #31
 326 0094 5DD5     		bpl	.L64
 327              	.L46:
 328              		.loc 1 594 0
 329 0096 E069     		ldr	r0, [r4, #28]
 330 0098 A58C     		ldrh	r5, [r4, #36]
 331 009a 0321     		movs	r1, #3
 332 009c FFF7FEFF 		bl	gdispGetFontMetric
 333              	.LVL37:
 334 00a0 ED19     		adds	r5, r5, r7
 335 00a2 2A18     		adds	r2, r5, r0
 336 00a4 A284     		strh	r2, [r4, #36]	@ movhi
 337 00a6 B3E7     		b	.L24
 338              	.LVL38:
 339              	.L29:
ARM GAS  C:\Users\Elis\AppData\Local\Temp\ccZf9x3w.s 			page 7


 340              		.loc 1 479 0
 341 00a8 B4F92410 		ldrsh	r1, [r4, #36]
 342 00ac 41BB     		cbnz	r1, .L60
 343 00ae E28C     		ldrh	r2, [r4, #38]
 344 00b0 B4F91230 		ldrsh	r3, [r4, #18]
 345 00b4 05FA82F0 		sxtah	r0, r5, r2
 346              	.LVL39:
 347 00b8 9842     		cmp	r0, r3
 348 00ba 21DA     		bge	.L60
 349 00bc A169     		ldr	r1, [r4, #24]
 350 00be CB07     		lsls	r3, r1, #31
 351 00c0 04D4     		bmi	.L33
 352 00c2 2046     		mov	r0, r4
 353 00c4 FFF7FEFF 		bl	_gwinDrawStart
 354              	.LVL40:
 355 00c8 D0B1     		cbz	r0, .L60
 356 00ca E28C     		ldrh	r2, [r4, #38]
 357              	.L33:
 358              		.loc 1 480 0
 359 00cc E789     		ldrh	r7, [r4, #14]
 360 00ce E68A     		ldrh	r6, [r4, #22]
 361              	.LVL41:
 362 00d0 A068     		ldr	r0, [r4, #8]
 363 00d2 B4F91030 		ldrsh	r3, [r4, #16]
 364 00d6 B4F90C10 		ldrsh	r1, [r4, #12]
 365 00da D219     		adds	r2, r2, r7
 366 00dc ADB2     		uxth	r5, r5
 367              	.LVL42:
 368 00de 8DE86000 		stmia	sp, {r5, r6}
 369 00e2 12B2     		sxth	r2, r2
 370 00e4 FFF7FEFF 		bl	gdispGFillArea
 371              	.LVL43:
 372              		.loc 1 481 0
 373 00e8 A369     		ldr	r3, [r4, #24]
 374 00ea D807     		lsls	r0, r3, #31
 375 00ec 02D4     		bmi	.L31
 376 00ee 2046     		mov	r0, r4
 377 00f0 FFF7FEFF 		bl	_gwinDrawEnd
 378              	.LVL44:
 379              	.L31:
 380              		.loc 1 486 0
 381 00f4 E08C     		ldrh	r0, [r4, #38]
 382              		.loc 1 485 0
 383 00f6 0021     		movs	r1, #0
 384              		.loc 1 486 0
 385 00f8 2D18     		adds	r5, r5, r0
 386              		.loc 1 485 0
 387 00fa A184     		strh	r1, [r4, #36]	@ movhi
 388              		.loc 1 486 0
 389 00fc E584     		strh	r5, [r4, #38]	@ movhi
 390 00fe 87E7     		b	.L24
 391              	.LVL45:
 392              	.L60:
 393 0100 ADB2     		uxth	r5, r5
 394              	.LVL46:
 395 0102 F7E7     		b	.L31
 396              	.LVL47:
ARM GAS  C:\Users\Elis\AppData\Local\Temp\ccZf9x3w.s 			page 8


 397              	.L37:
 398              		.loc 1 548 0
 399 0104 A069     		ldr	r0, [r4, #24]
 400 0106 C107     		lsls	r1, r0, #31
 401 0108 08D4     		bmi	.L39
 402 010a 2046     		mov	r0, r4
 403 010c FFF7FEFF 		bl	_gwinDrawStart
 404              	.LVL48:
 405 0110 0028     		cmp	r0, #0
 406 0112 39D0     		beq	.L61
 407 0114 B4F91030 		ldrsh	r3, [r4, #16]
 408 0118 B4F912E0 		ldrsh	lr, [r4, #18]
 409              	.L39:
 410              		.loc 1 549 0
 411 011c B4F816C0 		ldrh	ip, [r4, #22]
 412 0120 B4F90C10 		ldrsh	r1, [r4, #12]
 413 0124 B4F90E20 		ldrsh	r2, [r4, #14]
 414 0128 A068     		ldr	r0, [r4, #8]
 415 012a CDF800E0 		str	lr, [sp, #0]
 416 012e CDF804C0 		str	ip, [sp, #4]
 417 0132 FFF7FEFF 		bl	gdispGFillArea
 418              	.LVL49:
 419              		.loc 1 550 0
 420 0136 A169     		ldr	r1, [r4, #24]
 421 0138 CA07     		lsls	r2, r1, #31
 422 013a 22D5     		bpl	.L65
 423 013c 0123     		movs	r3, #1
 424              	.L41:
 425              		.loc 1 552 0
 426 013e 0020     		movs	r0, #0
 427 0140 A084     		strh	r0, [r4, #36]	@ movhi
 428              		.loc 1 553 0
 429 0142 E084     		strh	r0, [r4, #38]	@ movhi
 430 0144 8EE7     		b	.L38
 431              	.L42:
 432              		.loc 1 565 0
 433 0146 2046     		mov	r0, r4
 434 0148 FFF7FEFF 		bl	_gwinDrawStart
 435              	.LVL50:
 436 014c 0028     		cmp	r0, #0
 437 014e 8BD1     		bne	.L45
 438 0150 A1E7     		b	.L46
 439              	.LVL51:
 440              	.L64:
 441              		.loc 1 590 0
 442 0152 2046     		mov	r0, r4
 443 0154 FFF7FEFF 		bl	_gwinDrawEnd
 444              	.LVL52:
 445 0158 9DE7     		b	.L46
 446              	.LVL53:
 447              	.L63:
 448              		.loc 1 570 0
 449 015a E289     		ldrh	r2, [r4, #14]
 450 015c B4F826C0 		ldrh	ip, [r4, #38]
 451 0160 B4F816E0 		ldrh	lr, [r4, #22]
 452 0164 B4F91030 		ldrsh	r3, [r4, #16]
 453 0168 A068     		ldr	r0, [r4, #8]
ARM GAS  C:\Users\Elis\AppData\Local\Temp\ccZf9x3w.s 			page 9


 454 016a B4F90C10 		ldrsh	r1, [r4, #12]
 455 016e 0095     		str	r5, [sp, #0]
 456 0170 0CEB0205 		add	r5, ip, r2
 457              	.LVL54:
 458 0174 CDF804E0 		str	lr, [sp, #4]
 459 0178 2AB2     		sxth	r2, r5
 460 017a FFF7FEFF 		bl	gdispGFillArea
 461              	.LVL55:
 462 017e A38C     		ldrh	r3, [r4, #36]
 463 0180 75E7     		b	.L44
 464              	.LVL56:
 465              	.L65:
 466              		.loc 1 550 0
 467 0182 2046     		mov	r0, r4
 468 0184 FFF7FEFF 		bl	_gwinDrawEnd
 469              	.LVL57:
 470              	.L61:
 471 0188 A269     		ldr	r2, [r4, #24]
 472 018a 02F00103 		and	r3, r2, #1
 473 018e D6E7     		b	.L41
 474              	.L67:
 475              		.align	2
 476              	.L66:
 477 0190 00000000 		.word	.LANCHOR0
 478              	.LBE5:
 479              	.LBE4:
 480              		.cfi_endproc
 481              	.LFE120:
 482              		.size	gwinPutChar, .-gwinPutChar
 483 0194 AFF30080 		.section	.text.gwinPutString,"ax",%progbits
 483      AFF30080 
 483      AFF30080 
 484              		.align	2
 485              		.p2align 4,,15
 486              		.global	gwinPutString
 487              		.thumb
 488              		.thumb_func
 489              		.type	gwinPutString, %function
 490              	gwinPutString:
 491              	.LFB121:
 492              		.loc 1 599 0
 493              		.cfi_startproc
 494              		@ args = 0, pretend = 0, frame = 0
 495              		@ frame_needed = 0, uses_anonymous_args = 0
 496              	.LVL58:
 497 0000 38B5     		push	{r3, r4, r5, lr}
 498              	.LCFI5:
 499              		.cfi_def_cfa_offset 16
 500              		.cfi_offset 3, -16
 501              		.cfi_offset 4, -12
 502              		.cfi_offset 5, -8
 503              		.cfi_offset 14, -4
 504              		.loc 1 599 0
 505 0002 0C46     		mov	r4, r1
 506              		.loc 1 600 0
 507 0004 0978     		ldrb	r1, [r1, #0]	@ zero_extendqisi2
 508              	.LVL59:
ARM GAS  C:\Users\Elis\AppData\Local\Temp\ccZf9x3w.s 			page 10


 509              		.loc 1 599 0
 510 0006 0546     		mov	r5, r0
 511              		.loc 1 600 0
 512 0008 31B1     		cbz	r1, .L68
 513              	.LVL60:
 514              	.L70:
 515              		.loc 1 601 0
 516 000a 2846     		mov	r0, r5
 517 000c FFF7FEFF 		bl	gwinPutChar
 518              	.LVL61:
 519              		.loc 1 600 0
 520 0010 14F8011F 		ldrb	r1, [r4, #1]!	@ zero_extendqisi2
 521 0014 0029     		cmp	r1, #0
 522 0016 F8D1     		bne	.L70
 523              	.L68:
 524 0018 38BD     		pop	{r3, r4, r5, pc}
 525              		.cfi_endproc
 526              	.LFE121:
 527              		.size	gwinPutString, .-gwinPutString
 528 001a 00BFAFF3 		.section	.text.gwinPutCharArray,"ax",%progbits
 528      0080
 529              		.align	2
 530              		.p2align 4,,15
 531              		.global	gwinPutCharArray
 532              		.thumb
 533              		.thumb_func
 534              		.type	gwinPutCharArray, %function
 535              	gwinPutCharArray:
 536              	.LFB122:
 537              		.loc 1 604 0
 538              		.cfi_startproc
 539              		@ args = 0, pretend = 0, frame = 0
 540              		@ frame_needed = 0, uses_anonymous_args = 0
 541              	.LVL62:
 542 0000 F8B5     		push	{r3, r4, r5, r6, r7, lr}
 543              	.LCFI6:
 544              		.cfi_def_cfa_offset 24
 545              		.cfi_offset 3, -24
 546              		.cfi_offset 4, -20
 547              		.cfi_offset 5, -16
 548              		.cfi_offset 6, -12
 549              		.cfi_offset 7, -8
 550              		.cfi_offset 14, -4
 551              		.loc 1 604 0
 552 0002 0746     		mov	r7, r0
 553              	.LVL63:
 554              		.loc 1 605 0
 555 0004 FAB1     		cbz	r2, .L73
 556              		.loc 1 606 0
 557 0006 0C46     		mov	r4, r1
 558 0008 013A     		subs	r2, r2, #1
 559              	.LVL64:
 560              		.loc 1 605 0
 561 000a 1646     		mov	r6, r2
 562              		.loc 1 606 0
 563 000c 14F8011B 		ldrb	r1, [r4], #1	@ zero_extendqisi2
 564              	.LVL65:
ARM GAS  C:\Users\Elis\AppData\Local\Temp\ccZf9x3w.s 			page 11


 565 0010 02F00105 		and	r5, r2, #1
 566 0014 FFF7FEFF 		bl	gwinPutChar
 567              	.LVL66:
 568              		.loc 1 605 0
 569 0018 B6B1     		cbz	r6, .L86
 570 001a 35B1     		cbz	r5, .L77
 571              	.LVL67:
 572              		.loc 1 606 0
 573 001c 3846     		mov	r0, r7
 574 001e 14F8011B 		ldrb	r1, [r4], #1	@ zero_extendqisi2
 575 0022 FFF7FEFF 		bl	gwinPutChar
 576              	.LVL68:
 577              		.loc 1 605 0
 578 0026 013E     		subs	r6, r6, #1
 579 0028 0FD0     		beq	.L87
 580              	.L77:
 581              		.loc 1 606 0
 582 002a 2546     		mov	r5, r4
 583 002c 3846     		mov	r0, r7
 584 002e 15F8011B 		ldrb	r1, [r5], #1	@ zero_extendqisi2
 585 0032 FFF7FEFF 		bl	gwinPutChar
 586              	.LVL69:
 587 0036 013E     		subs	r6, r6, #1
 588 0038 6178     		ldrb	r1, [r4, #1]	@ zero_extendqisi2
 589 003a 3846     		mov	r0, r7
 590 003c 6C1C     		adds	r4, r5, #1
 591 003e FFF7FEFF 		bl	gwinPutChar
 592              	.LVL70:
 593              		.loc 1 605 0
 594 0042 013E     		subs	r6, r6, #1
 595 0044 F1D1     		bne	.L77
 596              	.L73:
 597 0046 F8BD     		pop	{r3, r4, r5, r6, r7, pc}
 598              	.LVL71:
 599              	.L86:
 600 0048 F8BD     		pop	{r3, r4, r5, r6, r7, pc}
 601              	.LVL72:
 602              	.L87:
 603 004a F8BD     		pop	{r3, r4, r5, r6, r7, pc}
 604              		.cfi_endproc
 605              	.LFE122:
 606              		.size	gwinPutCharArray, .-gwinPutCharArray
 607 004c AFF30080 		.section	.text.gwinPrintf,"ax",%progbits
 608              		.align	2
 609              		.p2align 4,,15
 610              		.global	gwinPrintf
 611              		.thumb
 612              		.thumb_func
 613              		.type	gwinPrintf, %function
 614              	gwinPrintf:
 615              	.LFB124:
 616              		.loc 1 651 0
 617              		.cfi_startproc
 618              		@ args = 4, pretend = 12, frame = 24
 619              		@ frame_needed = 0, uses_anonymous_args = 1
 620              	.LVL73:
 621 0000 0EB4     		push	{r1, r2, r3}
ARM GAS  C:\Users\Elis\AppData\Local\Temp\ccZf9x3w.s 			page 12


 622              	.LCFI7:
 623              		.cfi_def_cfa_offset 12
 624              		.cfi_offset 1, -12
 625              		.cfi_offset 2, -8
 626              		.cfi_offset 3, -4
 627 0002 2DE9F04F 		push	{r4, r5, r6, r7, r8, r9, sl, fp, lr}
 628              	.LCFI8:
 629              		.cfi_def_cfa_offset 48
 630              		.cfi_offset 4, -48
 631              		.cfi_offset 5, -44
 632              		.cfi_offset 6, -40
 633              		.cfi_offset 7, -36
 634              		.cfi_offset 8, -32
 635              		.cfi_offset 9, -28
 636              		.cfi_offset 10, -24
 637              		.cfi_offset 11, -20
 638              		.cfi_offset 14, -16
 639              		.loc 1 664 0
 640 0006 4268     		ldr	r2, [r0, #4]
 641 0008 7549     		ldr	r1, .L208
 642              		.loc 1 651 0
 643 000a 86B0     		sub	sp, sp, #24
 644              	.LCFI9:
 645              		.cfi_def_cfa_offset 72
 646              		.loc 1 664 0
 647 000c 8A42     		cmp	r2, r1
 648              		.loc 1 651 0
 649 000e 0446     		mov	r4, r0
 650 0010 DDF83CB0 		ldr	fp, [sp, #60]
 651              		.loc 1 664 0
 652 0014 04D0     		beq	.L199
 653              	.LVL74:
 654              	.L88:
 655              		.loc 1 805 0
 656 0016 06B0     		add	sp, sp, #24
 657 0018 BDE8F04F 		pop	{r4, r5, r6, r7, r8, r9, sl, fp, lr}
 658 001c 03B0     		add	sp, sp, #12
 659 001e 7047     		bx	lr
 660              	.LVL75:
 661              	.L199:
 662              		.loc 1 664 0 discriminator 1
 663 0020 C069     		ldr	r0, [r0, #28]
 664              	.LVL76:
 665 0022 0028     		cmp	r0, #0
 666 0024 F7D0     		beq	.L88
 667              		.loc 1 780 0
 668 0026 0DF10D03 		add	r3, sp, #13
 669              		.loc 1 679 0
 670 002a 0DF10C0A 		add	sl, sp, #12
 671              		.loc 1 667 0
 672 002e 10AD     		add	r5, sp, #64
 673 0030 CAEB030C 		rsb	ip, sl, r3
 674              		.loc 1 780 0
 675 0034 0093     		str	r3, [sp, #0]
 676              		.loc 1 667 0
 677 0036 0295     		str	r5, [sp, #8]
 678 0038 CDF804C0 		str	ip, [sp, #4]
ARM GAS  C:\Users\Elis\AppData\Local\Temp\ccZf9x3w.s 			page 13


 679              	.LVL77:
 680              	.L185:
 681              		.loc 1 669 0
 682 003c 5D46     		mov	r5, fp
 683 003e 15F8011B 		ldrb	r1, [r5], #1	@ zero_extendqisi2
 684              	.LVL78:
 685              		.loc 1 670 0
 686 0042 0029     		cmp	r1, #0
 687 0044 E7D0     		beq	.L88
 688              		.loc 1 674 0
 689 0046 2529     		cmp	r1, #37
 690 0048 0AD0     		beq	.L92
 691              	.LVL79:
 692              	.L200:
 693              		.loc 1 669 0
 694 004a AB46     		mov	fp, r5
 695 004c 5D46     		mov	r5, fp
 696              		.loc 1 675 0
 697 004e 2046     		mov	r0, r4
 698 0050 FFF7FEFF 		bl	gwinPutChar
 699              	.LVL80:
 700              		.loc 1 669 0
 701 0054 15F8011B 		ldrb	r1, [r5], #1	@ zero_extendqisi2
 702              	.LVL81:
 703              		.loc 1 670 0
 704 0058 0029     		cmp	r1, #0
 705 005a DCD0     		beq	.L88
 706              		.loc 1 674 0
 707 005c 2529     		cmp	r1, #37
 708 005e F4D1     		bne	.L200
 709              	.LVL82:
 710              	.L92:
 711              		.loc 1 682 0
 712 0060 9BF80130 		ldrb	r3, [fp, #1]	@ zero_extendqisi2
 713 0064 2D2B     		cmp	r3, #45
 714 0066 00F06381 		beq	.L201
 715              		.loc 1 681 0
 716 006a 0027     		movs	r7, #0
 717              	.LVL83:
 718              	.L94:
 719              		.loc 1 687 0
 720 006c 302B     		cmp	r3, #48
 721 006e 00F05B81 		beq	.L202
 722              		.loc 1 686 0
 723 0072 2026     		movs	r6, #32
 724              	.LVL84:
 725              	.L95:
 726              		.loc 1 689 0
 727 0074 AB46     		mov	fp, r5
 728 0076 0299     		ldr	r1, [sp, #8]
 729              		.loc 1 691 0
 730 0078 0025     		movs	r5, #0
 731              	.LVL85:
 732 007a 07E0     		b	.L98
 733              	.LVL86:
 734              	.L203:
 735              		.loc 1 698 0
ARM GAS  C:\Users\Elis\AppData\Local\Temp\ccZf9x3w.s 			page 14


 736 007c 0A78     		ldrb	r2, [r1, #0]	@ zero_extendqisi2
 737              	.LVL87:
 738 007e 0431     		adds	r1, r1, #4
 739              	.LVL88:
 740              	.L96:
 741              		.loc 1 701 0
 742 0080 05EB8503 		add	r3, r5, r5, lsl #2
 743 0084 02EB4305 		add	r5, r2, r3, lsl #1
 744              	.LVL89:
 745 0088 9BF80030 		ldrb	r3, [fp, #0]	@ zero_extendqisi2
 746              	.LVL90:
 747              	.L98:
 748              		.loc 1 695 0
 749 008c A3F13002 		sub	r2, r3, #48
 750 0090 D2B2     		uxtb	r2, r2
 751 0092 092A     		cmp	r2, #9
 752              		.loc 1 694 0
 753 0094 0BF1010B 		add	fp, fp, #1
 754              	.LVL91:
 755              		.loc 1 695 0
 756 0098 F2D9     		bls	.L96
 757              		.loc 1 697 0
 758 009a 2A2B     		cmp	r3, #42
 759 009c EED0     		beq	.L203
 760              		.loc 1 704 0
 761 009e 0020     		movs	r0, #0
 762 00a0 2E2B     		cmp	r3, #46
 763 00a2 0291     		str	r1, [sp, #8]
 764              	.LVL92:
 765 00a4 4BD0     		beq	.L102
 766              	.LVL93:
 767              		.loc 1 717 0
 768 00a6 6C2B     		cmp	r3, #108
 769 00a8 55D0     		beq	.L103
 770              	.LVL94:
 771              	.L204:
 772              		.loc 1 717 0 is_stmt 0 discriminator 1
 773 00aa 4C2B     		cmp	r3, #76
 774 00ac 53D0     		beq	.L103
 775              		.loc 1 723 0 is_stmt 1
 776 00ae A3F14101 		sub	r1, r3, #65
 777 00b2 1929     		cmp	r1, #25
 778 00b4 8CBF     		ite	hi
 779 00b6 0021     		movhi	r1, #0
 780 00b8 0121     		movls	r1, #1
 781              	.LVL95:
 782              	.L105:
 783              		.loc 1 726 0
 784 00ba A3F14402 		sub	r2, r3, #68
 785 00be 342A     		cmp	r2, #52
 786 00c0 00F22C81 		bhi	.L106
 787 00c4 DFE812F0 		tbh	[pc, r2, lsl #1]
 788              	.L113:
 789 00c8 1B01     		.2byte	(.L107-.L113)/2
 790 00ca 2A01     		.2byte	(.L106-.L113)/2
 791 00cc 2A01     		.2byte	(.L106-.L113)/2
 792 00ce 2A01     		.2byte	(.L106-.L113)/2
ARM GAS  C:\Users\Elis\AppData\Local\Temp\ccZf9x3w.s 			page 15


 793 00d0 2A01     		.2byte	(.L106-.L113)/2
 794 00d2 2A01     		.2byte	(.L106-.L113)/2
 795 00d4 2A01     		.2byte	(.L106-.L113)/2
 796 00d6 2A01     		.2byte	(.L106-.L113)/2
 797 00d8 2A01     		.2byte	(.L106-.L113)/2
 798 00da 2A01     		.2byte	(.L106-.L113)/2
 799 00dc 2A01     		.2byte	(.L106-.L113)/2
 800 00de 1901     		.2byte	(.L108-.L113)/2
 801 00e0 2A01     		.2byte	(.L106-.L113)/2
 802 00e2 2A01     		.2byte	(.L106-.L113)/2
 803 00e4 2A01     		.2byte	(.L106-.L113)/2
 804 00e6 2A01     		.2byte	(.L106-.L113)/2
 805 00e8 2A01     		.2byte	(.L106-.L113)/2
 806 00ea 1101     		.2byte	(.L136-.L113)/2
 807 00ec 2A01     		.2byte	(.L106-.L113)/2
 808 00ee 2A01     		.2byte	(.L106-.L113)/2
 809 00f0 0401     		.2byte	(.L110-.L113)/2
 810 00f2 2A01     		.2byte	(.L106-.L113)/2
 811 00f4 2A01     		.2byte	(.L106-.L113)/2
 812 00f6 2A01     		.2byte	(.L106-.L113)/2
 813 00f8 2A01     		.2byte	(.L106-.L113)/2
 814 00fa 2A01     		.2byte	(.L106-.L113)/2
 815 00fc 2A01     		.2byte	(.L106-.L113)/2
 816 00fe 2A01     		.2byte	(.L106-.L113)/2
 817 0100 2A01     		.2byte	(.L106-.L113)/2
 818 0102 2A01     		.2byte	(.L106-.L113)/2
 819 0104 2A01     		.2byte	(.L106-.L113)/2
 820 0106 8E00     		.2byte	(.L111-.L113)/2
 821 0108 1B01     		.2byte	(.L107-.L113)/2
 822 010a 2A01     		.2byte	(.L106-.L113)/2
 823 010c 2A01     		.2byte	(.L106-.L113)/2
 824 010e 2A01     		.2byte	(.L106-.L113)/2
 825 0110 2A01     		.2byte	(.L106-.L113)/2
 826 0112 2A01     		.2byte	(.L106-.L113)/2
 827 0114 2A01     		.2byte	(.L106-.L113)/2
 828 0116 2A01     		.2byte	(.L106-.L113)/2
 829 0118 2A01     		.2byte	(.L106-.L113)/2
 830 011a 2A01     		.2byte	(.L106-.L113)/2
 831 011c 2A01     		.2byte	(.L106-.L113)/2
 832 011e 1901     		.2byte	(.L108-.L113)/2
 833 0120 2A01     		.2byte	(.L106-.L113)/2
 834 0122 2A01     		.2byte	(.L106-.L113)/2
 835 0124 2A01     		.2byte	(.L106-.L113)/2
 836 0126 5100     		.2byte	(.L112-.L113)/2
 837 0128 2A01     		.2byte	(.L106-.L113)/2
 838 012a 1101     		.2byte	(.L136-.L113)/2
 839 012c 2A01     		.2byte	(.L106-.L113)/2
 840 012e 2A01     		.2byte	(.L106-.L113)/2
 841 0130 0401     		.2byte	(.L110-.L113)/2
 842              	.LVL96:
 843              	.L101:
 844              		.loc 1 710 0
 845 0132 0A78     		ldrb	r2, [r1, #0]	@ zero_extendqisi2
 846              	.LVL97:
 847 0134 0431     		adds	r1, r1, #4
 848              	.LVL98:
 849              	.L100:
ARM GAS  C:\Users\Elis\AppData\Local\Temp\ccZf9x3w.s 			page 16


 850              		.loc 1 713 0
 851 0136 00EB8000 		add	r0, r0, r0, lsl #2
 852              	.LVL99:
 853 013a 02EB4000 		add	r0, r2, r0, lsl #1
 854              	.LVL100:
 855              	.L102:
 856              		.loc 1 706 0
 857 013e 1BF8013B 		ldrb	r3, [fp], #1	@ zero_extendqisi2
 858              	.LVL101:
 859              		.loc 1 707 0
 860 0142 A3F13002 		sub	r2, r3, #48
 861 0146 D2B2     		uxtb	r2, r2
 862 0148 092A     		cmp	r2, #9
 863 014a F4D9     		bls	.L100
 864              		.loc 1 709 0
 865 014c 2A2B     		cmp	r3, #42
 866 014e F0D0     		beq	.L101
 867              		.loc 1 717 0
 868 0150 6C2B     		cmp	r3, #108
 869 0152 0291     		str	r1, [sp, #8]
 870 0154 A9D1     		bne	.L204
 871              	.LVL102:
 872              	.L103:
 873              		.loc 1 719 0
 874 0156 9BF80010 		ldrb	r1, [fp, #0]	@ zero_extendqisi2
 875 015a 0029     		cmp	r1, #0
 876 015c 00F0EE80 		beq	.L135
 877              	.LVL103:
 878              		.loc 1 720 0
 879 0160 0B46     		mov	r3, r1
 880 0162 0BF1010B 		add	fp, fp, #1
 881              	.LVL104:
 882              		.loc 1 718 0
 883 0166 0121     		movs	r1, #1
 884 0168 A7E7     		b	.L105
 885              	.LVL105:
 886              	.L112:
 887              		.loc 1 733 0
 888 016a 029E     		ldr	r6, [sp, #8]
 889              		.loc 1 734 0
 890 016c 40F20008 		movw	r8, #:lower16:.LC0
 891              		.loc 1 733 0
 892 0170 3368     		ldr	r3, [r6, #0]
 893              	.LVL106:
 894              		.loc 1 734 0
 895 0172 C0F20008 		movt	r8, #:upper16:.LC0
 896 0176 002B     		cmp	r3, #0
 897 0178 18BF     		it	ne
 898 017a 9846     		movne	r8, r3
 899              	.LVL107:
 900              		.loc 1 733 0
 901 017c 311D     		adds	r1, r6, #4
 902              	.LVL108:
 903              		.loc 1 737 0
 904 017e 98F80020 		ldrb	r2, [r8, #0]	@ zero_extendqisi2
 905              	.LVL109:
 906              		.loc 1 733 0
ARM GAS  C:\Users\Elis\AppData\Local\Temp\ccZf9x3w.s 			page 17


 907 0182 0291     		str	r1, [sp, #8]
 908              		.loc 1 736 0
 909 0184 47F6FF76 		movw	r6, #32767
 910 0188 0028     		cmp	r0, #0
 911 018a 08BF     		it	eq
 912 018c 3046     		moveq	r0, r6
 913              	.LVL110:
 914              		.loc 1 737 0
 915 018e 002A     		cmp	r2, #0
 916 0190 00F0EF80 		beq	.L139
 917 0194 98F80130 		ldrb	r3, [r8, #1]	@ zero_extendqisi2
 918 0198 411E     		subs	r1, r0, #1
 919 019a 08EB0009 		add	r9, r8, r0
 920              		.loc 1 651 0
 921 019e 08F10102 		add	r2, r8, #1
 922              	.LVL111:
 923 01a2 01F00100 		and	r0, r1, #1
 924              		.loc 1 737 0
 925 01a6 B3B1     		cbz	r3, .L186
 926 01a8 9145     		cmp	r9, r2
 927 01aa 1346     		mov	r3, r2
 928 01ac 00F0D680 		beq	.L187
 929 01b0 60B1     		cbz	r0, .L118
 930 01b2 5678     		ldrb	r6, [r2, #1]	@ zero_extendqisi2
 931              		.loc 1 651 0
 932 01b4 0132     		adds	r2, r2, #1
 933              	.LVL112:
 934              		.loc 1 737 0
 935 01b6 76B1     		cbz	r6, .L186
 936 01b8 9145     		cmp	r9, r2
 937 01ba 1346     		mov	r3, r2
 938 01bc 06D1     		bne	.L118
 939 01be CDE0     		b	.L187
 940              	.L117:
 941              		.loc 1 737 0 is_stmt 0 discriminator 2
 942 01c0 5678     		ldrb	r6, [r2, #1]	@ zero_extendqisi2
 943              		.loc 1 651 0 is_stmt 1 discriminator 2
 944 01c2 0132     		adds	r2, r2, #1
 945              	.LVL113:
 946              		.loc 1 737 0 discriminator 2
 947 01c4 3EB1     		cbz	r6, .L186
 948              		.loc 1 737 0 is_stmt 0
 949 01c6 9945     		cmp	r9, r3
 950 01c8 00F0C880 		beq	.L187
 951              	.L118:
 952              		.loc 1 737 0 discriminator 1
 953 01cc 5878     		ldrb	r0, [r3, #1]	@ zero_extendqisi2
 954              		.loc 1 651 0 is_stmt 1 discriminator 1
 955 01ce 5A1C     		adds	r2, r3, #1
 956              	.LVL114:
 957 01d0 531C     		adds	r3, r2, #1
 958              		.loc 1 737 0 discriminator 1
 959 01d2 0028     		cmp	r0, #0
 960 01d4 F4D1     		bne	.L117
 961              	.LVL115:
 962              	.L186:
 963 01d6 C8EB0209 		rsb	r9, r8, r2
ARM GAS  C:\Users\Elis\AppData\Local\Temp\ccZf9x3w.s 			page 18


 964              		.loc 1 732 0
 965 01da 2026     		movs	r6, #32
 966 01dc 0CE0     		b	.L114
 967              	.L209:
 968 01de 00BF     		.align	2
 969              	.L208:
 970 01e0 00000000 		.word	.LANCHOR0
 971              	.LVL116:
 972              	.L111:
 973              		.loc 1 729 0
 974 01e4 0298     		ldr	r0, [sp, #8]
 975              	.LVL117:
 976 01e6 DDF80490 		ldr	r9, [sp, #4]
 977 01ea 0268     		ldr	r2, [r0, #0]
 978 01ec 011D     		adds	r1, r0, #4
 979              	.LVL118:
 980 01ee 0291     		str	r1, [sp, #8]
 981 01f0 8DF80C20 		strb	r2, [sp, #12]
 982              	.LVL119:
 983              		.loc 1 728 0
 984 01f4 2026     		movs	r6, #32
 985              		.loc 1 680 0
 986 01f6 D046     		mov	r8, sl
 987              	.LVL120:
 988              	.L114:
 989              		.loc 1 785 0
 990 01f8 C9EB0505 		rsb	r5, r9, r5
 991              	.LVL121:
 992 01fc 25EAE575 		bic	r5, r5, r5, asr #31
 993              	.LVL122:
 994              		.loc 1 787 0
 995 0200 0FBB     		cbnz	r7, .L124
 996              		.loc 1 788 0
 997 0202 6D42     		negs	r5, r5
 998              	.LVL123:
 999              		.loc 1 789 0
 1000 0204 FDB1     		cbz	r5, .L124
 1001              		.loc 1 790 0
 1002 0206 98F80010 		ldrb	r1, [r8, #0]	@ zero_extendqisi2
 1003 020a 2D29     		cmp	r1, #45
 1004 020c 00F09880 		beq	.L205
 1005              	.L172:
 1006              		.loc 1 795 0
 1007 0210 2046     		mov	r0, r4
 1008 0212 3146     		mov	r1, r6
 1009 0214 EF43     		mvns	r7, r5
 1010              	.LVL124:
 1011 0216 FFF7FEFF 		bl	gwinPutChar
 1012              	.LVL125:
 1013              		.loc 1 796 0
 1014 021a 0135     		adds	r5, r5, #1
 1015              	.LVL126:
 1016 021c 07F00107 		and	r7, r7, #1
 1017              	.LVL127:
 1018 0220 11D0     		beq	.L124
 1019 0222 2FB1     		cbz	r7, .L148
 1020              	.LVL128:
ARM GAS  C:\Users\Elis\AppData\Local\Temp\ccZf9x3w.s 			page 19


 1021              		.loc 1 795 0
 1022 0224 2046     		mov	r0, r4
 1023 0226 3146     		mov	r1, r6
 1024 0228 FFF7FEFF 		bl	gwinPutChar
 1025              	.LVL129:
 1026              		.loc 1 796 0
 1027 022c 0135     		adds	r5, r5, #1
 1028              	.LVL130:
 1029 022e 0AD0     		beq	.L124
 1030              	.LVL131:
 1031              	.L148:
 1032              		.loc 1 795 0 discriminator 1
 1033 0230 2046     		mov	r0, r4
 1034 0232 3146     		mov	r1, r6
 1035 0234 FFF7FEFF 		bl	gwinPutChar
 1036              	.LVL132:
 1037              		.loc 1 796 0 discriminator 1
 1038 0238 0135     		adds	r5, r5, #1
 1039              	.LVL133:
 1040              		.loc 1 795 0 discriminator 1
 1041 023a 2046     		mov	r0, r4
 1042 023c 3146     		mov	r1, r6
 1043 023e FFF7FEFF 		bl	gwinPutChar
 1044              	.LVL134:
 1045              		.loc 1 796 0 discriminator 1
 1046 0242 0135     		adds	r5, r5, #1
 1047              	.LVL135:
 1048 0244 F4D1     		bne	.L148
 1049              	.LVL136:
 1050              	.L124:
 1051              		.loc 1 798 0 discriminator 1
 1052 0246 B9F1000F 		cmp	r9, #0
 1053 024a 26DD     		ble	.L130
 1054              		.loc 1 799 0
 1055 024c 4746     		mov	r7, r8
 1056              		.loc 1 651 0
 1057 024e C144     		add	r9, r8, r9
 1058              	.LVL137:
 1059              		.loc 1 799 0
 1060 0250 17F8011B 		ldrb	r1, [r7], #1	@ zero_extendqisi2
 1061 0254 6FEA0808 		mvn	r8, r8
 1062              	.LVL138:
 1063 0258 09EB0803 		add	r3, r9, r8
 1064 025c 2046     		mov	r0, r4
 1065 025e 03F00108 		and	r8, r3, #1
 1066              	.LVL139:
 1067 0262 FFF7FEFF 		bl	gwinPutChar
 1068              	.LVL140:
 1069              		.loc 1 798 0
 1070 0266 4F45     		cmp	r7, r9
 1071 0268 17D0     		beq	.L130
 1072 026a B8F1000F 		cmp	r8, #0
 1073 026e 06D0     		beq	.L129
 1074              	.LVL141:
 1075              		.loc 1 799 0
 1076 0270 17F8011B 		ldrb	r1, [r7], #1	@ zero_extendqisi2
 1077 0274 2046     		mov	r0, r4
ARM GAS  C:\Users\Elis\AppData\Local\Temp\ccZf9x3w.s 			page 20


 1078 0276 FFF7FEFF 		bl	gwinPutChar
 1079              	.LVL142:
 1080              		.loc 1 798 0
 1081 027a 4F45     		cmp	r7, r9
 1082 027c 0DD0     		beq	.L130
 1083              	.L129:
 1084              		.loc 1 799 0
 1085 027e B846     		mov	r8, r7
 1086 0280 2046     		mov	r0, r4
 1087 0282 18F8011B 		ldrb	r1, [r8], #1	@ zero_extendqisi2
 1088 0286 FFF7FEFF 		bl	gwinPutChar
 1089              	.LVL143:
 1090 028a 7978     		ldrb	r1, [r7, #1]	@ zero_extendqisi2
 1091 028c 2046     		mov	r0, r4
 1092 028e 08F10107 		add	r7, r8, #1
 1093 0292 FFF7FEFF 		bl	gwinPutChar
 1094              	.LVL144:
 1095              		.loc 1 798 0
 1096 0296 4F45     		cmp	r7, r9
 1097 0298 F1D1     		bne	.L129
 1098              	.L130:
 1099              	.LVL145:
 1100              		.loc 1 800 0
 1101 029a 002D     		cmp	r5, #0
 1102 029c 3FF4CEAE 		beq	.L185
 1103 02a0 6A1E     		subs	r2, r5, #1
 1104 02a2 1546     		mov	r5, r2
 1105              	.LVL146:
 1106              		.loc 1 801 0
 1107 02a4 2046     		mov	r0, r4
 1108 02a6 3146     		mov	r1, r6
 1109 02a8 02F00107 		and	r7, r2, #1
 1110 02ac FFF7FEFF 		bl	gwinPutChar
 1111              	.LVL147:
 1112              		.loc 1 800 0
 1113 02b0 002D     		cmp	r5, #0
 1114 02b2 3FF4C3AE 		beq	.L185
 1115 02b6 27B9     		cbnz	r7, .L197
 1116              	.LVL148:
 1117              	.L147:
 1118              		.loc 1 801 0
 1119 02b8 2046     		mov	r0, r4
 1120 02ba 3146     		mov	r1, r6
 1121 02bc FFF7FEFF 		bl	gwinPutChar
 1122              	.LVL149:
 1123              		.loc 1 802 0
 1124 02c0 013D     		subs	r5, r5, #1
 1125              	.L197:
 1126              		.loc 1 801 0
 1127 02c2 2046     		mov	r0, r4
 1128 02c4 3146     		mov	r1, r6
 1129 02c6 FFF7FEFF 		bl	gwinPutChar
 1130              	.LVL150:
 1131              		.loc 1 800 0
 1132 02ca 013D     		subs	r5, r5, #1
 1133 02cc F4D1     		bne	.L147
 1134 02ce B5E6     		b	.L185
ARM GAS  C:\Users\Elis\AppData\Local\Temp\ccZf9x3w.s 			page 21


 1135              	.LVL151:
 1136              	.L110:
 1137              		.loc 1 726 0
 1138 02d0 1022     		movs	r2, #16
 1139              	.LVL152:
 1140              	.L109:
 1141              		.loc 1 774 0
 1142 02d2 029B     		ldr	r3, [sp, #8]
 1143              		.loc 1 773 0
 1144 02d4 69B1     		cbz	r1, .L122
 1145              	.L206:
 1146              		.loc 1 774 0
 1147 02d6 191D     		adds	r1, r3, #4
 1148              	.LVL153:
 1149 02d8 0291     		str	r1, [sp, #8]
 1150 02da 1968     		ldr	r1, [r3, #0]
 1151              	.LVL154:
 1152              	.L123:
 1153              		.loc 1 777 0
 1154 02dc 5046     		mov	r0, sl
 1155 02de FFF7FEFF 		bl	ltoa_wd.constprop.1
 1156              	.LVL155:
 1157              		.loc 1 680 0
 1158 02e2 D046     		mov	r8, sl
 1159 02e4 CAEB0009 		rsb	r9, sl, r0
 1160              		.loc 1 778 0
 1161 02e8 86E7     		b	.L114
 1162              	.LVL156:
 1163              	.L136:
 1164              		.loc 1 726 0
 1165 02ea 0A22     		movs	r2, #10
 1166              	.LVL157:
 1167              		.loc 1 774 0
 1168 02ec 029B     		ldr	r3, [sp, #8]
 1169              		.loc 1 773 0
 1170 02ee 0029     		cmp	r1, #0
 1171 02f0 F1D1     		bne	.L206
 1172              	.L122:
 1173              		.loc 1 776 0
 1174 02f2 181D     		adds	r0, r3, #4
 1175              	.LVL158:
 1176 02f4 1968     		ldr	r1, [r3, #0]
 1177              	.LVL159:
 1178 02f6 0290     		str	r0, [sp, #8]
 1179 02f8 F0E7     		b	.L123
 1180              	.LVL160:
 1181              	.L108:
 1182 02fa 0822     		movs	r2, #8
 1183 02fc E9E7     		b	.L109
 1184              	.LVL161:
 1185              	.L107:
 1186              		.loc 1 742 0
 1187 02fe 029B     		ldr	r3, [sp, #8]
 1188              	.LVL162:
 1189 0300 1A1D     		adds	r2, r3, #4
 1190              	.LVL163:
 1191              		.loc 1 741 0
ARM GAS  C:\Users\Elis\AppData\Local\Temp\ccZf9x3w.s 			page 22


 1192 0302 41B3     		cbz	r1, .L119
 1193              		.loc 1 742 0
 1194 0304 1968     		ldr	r1, [r3, #0]
 1195              	.LVL164:
 1196 0306 0292     		str	r2, [sp, #8]
 1197              	.L120:
 1198              		.loc 1 745 0
 1199 0308 0029     		cmp	r1, #0
 1200 030a 2BDB     		blt	.L207
 1201              		.loc 1 679 0
 1202 030c 5046     		mov	r0, sl
 1203              	.LVL165:
 1204              	.L121:
 1205              		.loc 1 749 0
 1206 030e 0A22     		movs	r2, #10
 1207 0310 FFF7FEFF 		bl	ltoa_wd.constprop.1
 1208              	.LVL166:
 1209              		.loc 1 680 0
 1210 0314 D046     		mov	r8, sl
 1211 0316 CAEB0009 		rsb	r9, sl, r0
 1212              		.loc 1 750 0
 1213 031a 6DE7     		b	.L114
 1214              	.LVL167:
 1215              	.L106:
 1216              		.loc 1 780 0
 1217 031c 8DF80C30 		strb	r3, [sp, #12]
 1218              	.LVL168:
 1219 0320 DDF80490 		ldr	r9, [sp, #4]
 1220              		.loc 1 680 0
 1221 0324 D046     		mov	r8, sl
 1222              		.loc 1 781 0
 1223 0326 67E7     		b	.L114
 1224              	.LVL169:
 1225              	.L202:
 1226 0328 6B78     		ldrb	r3, [r5, #1]	@ zero_extendqisi2
 1227              		.loc 1 689 0
 1228 032a 3026     		movs	r6, #48
 1229              		.loc 1 688 0
 1230 032c 0135     		adds	r5, r5, #1
 1231              	.LVL170:
 1232 032e A1E6     		b	.L95
 1233              	.LVL171:
 1234              	.L201:
 1235              		.loc 1 683 0
 1236 0330 0BF10205 		add	r5, fp, #2
 1237              	.LVL172:
 1238 0334 9BF80230 		ldrb	r3, [fp, #2]	@ zero_extendqisi2
 1239              		.loc 1 684 0
 1240 0338 0127     		movs	r7, #1
 1241 033a 97E6     		b	.L94
 1242              	.LVL173:
 1243              	.L135:
 1244              		.loc 1 718 0
 1245 033c 0121     		movs	r1, #1
 1246 033e BCE6     		b	.L105
 1247              	.LVL174:
 1248              	.L205:
ARM GAS  C:\Users\Elis\AppData\Local\Temp\ccZf9x3w.s 			page 23


 1249              		.loc 1 790 0 discriminator 1
 1250 0340 302E     		cmp	r6, #48
 1251 0342 7FF465AF 		bne	.L172
 1252              		.loc 1 791 0
 1253 0346 2046     		mov	r0, r4
 1254 0348 FFF7FEFF 		bl	gwinPutChar
 1255              	.LVL175:
 1256 034c 08F10108 		add	r8, r8, #1
 1257              	.LVL176:
 1258              		.loc 1 792 0
 1259 0350 09F1FF39 		add	r9, r9, #-1
 1260              	.LVL177:
 1261 0354 5CE7     		b	.L172
 1262              	.LVL178:
 1263              	.L119:
 1264              		.loc 1 744 0
 1265 0356 1968     		ldr	r1, [r3, #0]
 1266              	.LVL179:
 1267 0358 0292     		str	r2, [sp, #8]
 1268 035a D5E7     		b	.L120
 1269              	.LVL180:
 1270              	.L187:
 1271 035c C8EB0909 		rsb	r9, r8, r9
 1272              		.loc 1 732 0
 1273 0360 2026     		movs	r6, #32
 1274 0362 49E7     		b	.L114
 1275              	.LVL181:
 1276              	.L207:
 1277              		.loc 1 746 0
 1278 0364 2D20     		movs	r0, #45
 1279              	.LVL182:
 1280 0366 8DF80C00 		strb	r0, [sp, #12]
 1281              	.LVL183:
 1282              		.loc 1 747 0
 1283 036a 4942     		negs	r1, r1
 1284              	.LVL184:
 1285              		.loc 1 746 0
 1286 036c 0DF10D00 		add	r0, sp, #13
 1287 0370 CDE7     		b	.L121
 1288              	.LVL185:
 1289              	.L139:
 1290              		.loc 1 737 0
 1291 0372 9146     		mov	r9, r2
 1292              		.loc 1 732 0
 1293 0374 2026     		movs	r6, #32
 1294 0376 3FE7     		b	.L114
 1295              		.cfi_endproc
 1296              	.LFE124:
 1297              		.size	gwinPrintf, .-gwinPrintf
 1298              		.section	.rodata.str1.4,"aMS",%progbits,1
 1299              		.align	2
 1300              	.LC0:
 1301 0000 286E756C 		.ascii	"(null)\000"
 1301      6C2900
 1302 0007 00       		.space	1
 1303              	.LC1:
 1304 0008 436F6E73 		.ascii	"Console\000"
ARM GAS  C:\Users\Elis\AppData\Local\Temp\ccZf9x3w.s 			page 24


 1304      6F6C6500 
 1305              		.section	.rodata.consoleVMT,"a",%progbits
 1306              		.align	2
 1307              		.set	.LANCHOR0,. + 0
 1308              		.type	consoleVMT, %object
 1309              		.size	consoleVMT, 20
 1310              	consoleVMT:
 1311 0000 08000000 		.word	.LC1
 1312 0004 28000000 		.word	40
 1313 0008 00000000 		.word	0
 1314 000c 00000000 		.word	0
 1315 0010 00000000 		.word	AfterClear
 1316              		.text
 1317              	.Letext0:
 1318              		.file 2 "c:\\chibistudio\\tools\\gnu tools arm embedded\\4.7 2014q2\\bin\\../lib/gcc/arm-none-eabi
 1319              		.file 3 "c:\\chibistudio\\tools\\gnu tools arm embedded\\4.7 2014q2\\bin\\../lib/gcc/arm-none-eabi
 1320              		.file 4 "../../chibios/os/ports/GCC/ARMCMx/chtypes.h"
 1321              		.file 5 "../../ugfx/src/gqueue/gqueue.h"
 1322              		.file 6 "../../ugfx/src/gdisp/gdisp.h"
 1323              		.file 7 "../../ugfx/src/gdisp/gdisp_colors.h"
 1324              		.file 8 "../../ugfx/src/gwin/gwin.h"
 1325              		.file 9 "../../ugfx/src/gwin/gwin_class.h"
 1326              		.file 10 "../../ugfx/src/gwin/gwin_console.h"
 1327              		.file 11 "c:\\chibistudio\\tools\\gnu tools arm embedded\\4.7 2014q2\\bin\\../lib/gcc/arm-none-eab
 1328              		.file 12 "<built-in>"
 1329              		.file 13 "../../chibios/os/ports/common/ARMCMx/CMSIS/include/core_cm4.h"