ARM GAS  C:\Users\Elis\AppData\Local\Temp\ccEZlUNg.s 			page 1


   1              		.syntax unified
   2              		.cpu cortex-m4
   3              		.fpu softvfp
   4              		.eabi_attribute 20, 1
   5              		.eabi_attribute 21, 1
   6              		.eabi_attribute 23, 3
   7              		.eabi_attribute 24, 1
   8              		.eabi_attribute 25, 1
   9              		.eabi_attribute 26, 1
  10              		.eabi_attribute 30, 2
  11              		.eabi_attribute 34, 1
  12              		.eabi_attribute 18, 4
  13              		.thumb
  14              		.file	"gwin.c"
  15              		.text
  16              	.Ltext0:
  17              		.cfi_sections	.debug_frame
  18              		.section	.text._gwinInit,"ax",%progbits
  19              		.align	2
  20              		.p2align 4,,15
  21              		.global	_gwinInit
  22              		.thumb
  23              		.thumb_func
  24              		.type	_gwinInit, %function
  25              	_gwinInit:
  26              	.LFB118:
  27              		.file 1 "../../ugfx/src/gwin/gwin.c"
  28              		.loc 1 48 0
  29              		.cfi_startproc
  30              		@ args = 0, pretend = 0, frame = 0
  31              		@ frame_needed = 0, uses_anonymous_args = 0
  32 0000 08B5     		push	{r3, lr}
  33              	.LCFI0:
  34              		.cfi_def_cfa_offset 8
  35              		.cfi_offset 3, -8
  36              		.cfi_offset 14, -4
  37              		.loc 1 51 0
  38 0002 FFF7FEFF 		bl	_gwmInit
  39              	.LVL0:
  40              		.loc 1 55 0
  41 0006 FFF7FEFF 		bl	_gwidgetInit
  42              	.LVL1:
  43              		.loc 1 62 0
  44 000a BDE80840 		pop	{r3, lr}
  45              		.loc 1 60 0
  46 000e FFF7FEBF 		b	_gcontainerInit
  47              	.LVL2:
  48              		.cfi_endproc
  49              	.LFE118:
  50              		.size	_gwinInit, .-_gwinInit
  51 0012 00BFAFF3 		.section	.text._gwinDeinit,"ax",%progbits
  51      0080AFF3 
  51      0080AFF3 
  51      0080
  52              		.align	2
  53              		.p2align 4,,15
  54              		.global	_gwinDeinit
ARM GAS  C:\Users\Elis\AppData\Local\Temp\ccEZlUNg.s 			page 2


  55              		.thumb
  56              		.thumb_func
  57              		.type	_gwinDeinit, %function
  58              	_gwinDeinit:
  59              	.LFB119:
  60              		.loc 1 65 0
  61              		.cfi_startproc
  62              		@ args = 0, pretend = 0, frame = 0
  63              		@ frame_needed = 0, uses_anonymous_args = 0
  64 0000 08B5     		push	{r3, lr}
  65              	.LCFI1:
  66              		.cfi_def_cfa_offset 8
  67              		.cfi_offset 3, -8
  68              		.cfi_offset 14, -4
  69              		.loc 1 71 0
  70 0002 FFF7FEFF 		bl	_gcontainerDeinit
  71              	.LVL3:
  72              		.loc 1 76 0
  73 0006 FFF7FEFF 		bl	_gwidgetDeinit
  74              	.LVL4:
  75              		.loc 1 80 0
  76 000a BDE80840 		pop	{r3, lr}
  77              		.loc 1 79 0
  78 000e FFF7FEBF 		b	_gwmDeinit
  79              	.LVL5:
  80              		.cfi_endproc
  81              	.LFE119:
  82              		.size	_gwinDeinit, .-_gwinDeinit
  83 0012 00BFAFF3 		.section	.text._gwindowCreate,"ax",%progbits
  83      0080AFF3 
  83      0080AFF3 
  83      0080
  84              		.align	2
  85              		.p2align 4,,15
  86              		.global	_gwindowCreate
  87              		.thumb
  88              		.thumb_func
  89              		.type	_gwindowCreate, %function
  90              	_gwindowCreate:
  91              	.LFB120:
  92              		.loc 1 84 0
  93              		.cfi_startproc
  94              		@ args = 4, pretend = 0, frame = 8
  95              		@ frame_needed = 0, uses_anonymous_args = 0
  96              	.LVL6:
  97 0000 F0B5     		push	{r4, r5, r6, r7, lr}
  98              	.LCFI2:
  99              		.cfi_def_cfa_offset 20
 100              		.cfi_offset 4, -20
 101              		.cfi_offset 5, -16
 102              		.cfi_offset 6, -12
 103              		.cfi_offset 7, -8
 104              		.cfi_offset 14, -4
 105              		.loc 1 86 0
 106 0002 0C46     		mov	r4, r1
 107              		.loc 1 84 0
 108 0004 83B0     		sub	sp, sp, #12
ARM GAS  C:\Users\Elis\AppData\Local\Temp\ccEZlUNg.s 			page 3


 109              	.LCFI3:
 110              		.cfi_def_cfa_offset 32
 111              		.loc 1 84 0
 112 0006 0746     		mov	r7, r0
 113 0008 1646     		mov	r6, r2
 114              		.loc 1 86 0
 115 000a 0029     		cmp	r1, #0
 116 000c 28D0     		beq	.L14
 117              		.loc 1 91 0
 118 000e 089A     		ldr	r2, [sp, #32]
 119              	.LVL7:
 120 0010 8A61     		str	r2, [r1, #24]
 121              	.LVL8:
 122              	.L7:
 123              		.loc 1 96 0
 124 0012 1A4D     		ldr	r5, .L17
 125              		.loc 1 97 0
 126 0014 1A4A     		ldr	r2, .L17+4
 127              		.loc 1 96 0
 128 0016 2888     		ldrh	r0, [r5, #0]
 129              		.loc 1 99 0
 130 0018 1A4D     		ldr	r5, .L17+8
 131              		.loc 1 97 0
 132 001a 1188     		ldrh	r1, [r2, #0]
 133              		.loc 1 103 0
 134 001c 5A68     		ldr	r2, [r3, #4]
 135              		.loc 1 99 0
 136 001e 2D68     		ldr	r5, [r5, #0]
 137              		.loc 1 94 0
 138 0020 A760     		str	r7, [r4, #8]
 139              		.loc 1 103 0
 140 0022 242A     		cmp	r2, #36
 141              		.loc 1 95 0
 142 0024 6360     		str	r3, [r4, #4]
 143              		.loc 1 96 0
 144 0026 A082     		strh	r0, [r4, #20]	@ movhi
 145              		.loc 1 97 0
 146 0028 E182     		strh	r1, [r4, #22]	@ movhi
 147              		.loc 1 99 0
 148 002a E561     		str	r5, [r4, #28]
 149              		.loc 1 103 0
 150 002c 0CD8     		bhi	.L15
 151              	.L8:
 152              		.loc 1 106 0
 153 002e 2046     		mov	r0, r4
 154 0030 3146     		mov	r1, r6
 155 0032 FFF7FEFF 		bl	_gwinWMAdd
 156              	.LVL9:
 157 0036 0546     		mov	r5, r0
 158 0038 18B9     		cbnz	r0, .L6
 159              		.loc 1 107 0
 160 003a A369     		ldr	r3, [r4, #24]
 161 003c DB04     		lsls	r3, r3, #19
 162 003e 0AD4     		bmi	.L16
 163              	.L9:
 164              		.loc 1 88 0
 165 0040 0024     		movs	r4, #0
ARM GAS  C:\Users\Elis\AppData\Local\Temp\ccEZlUNg.s 			page 4


 166              	.LVL10:
 167              	.L6:
 168              		.loc 1 113 0
 169 0042 2046     		mov	r0, r4
 170 0044 03B0     		add	sp, sp, #12
 171 0046 F0BD     		pop	{r4, r5, r6, r7, pc}
 172              	.LVL11:
 173              	.L15:
 174              		.loc 1 104 0
 175 0048 04F12400 		add	r0, r4, #36
 176 004c 0021     		movs	r1, #0
 177 004e 243A     		subs	r2, r2, #36
 178 0050 FFF7FEFF 		bl	memset
 179              	.LVL12:
 180 0054 EBE7     		b	.L8
 181              	.L16:
 182              		.loc 1 108 0
 183 0056 2046     		mov	r0, r4
 184 0058 FFF7FEFF 		bl	chHeapFree
 185              	.LVL13:
 186              		.loc 1 109 0
 187 005c 2C46     		mov	r4, r5
 188              	.LVL14:
 189 005e F0E7     		b	.L6
 190              	.LVL15:
 191              	.L14:
 192              		.loc 1 87 0
 193 0060 0846     		mov	r0, r1
 194              	.LVL16:
 195 0062 5968     		ldr	r1, [r3, #4]
 196              	.LVL17:
 197 0064 0193     		str	r3, [sp, #4]
 198 0066 FFF7FEFF 		bl	chHeapAlloc
 199              	.LVL18:
 200 006a 019B     		ldr	r3, [sp, #4]
 201 006c 0446     		mov	r4, r0
 202 006e 0028     		cmp	r0, #0
 203 0070 E6D0     		beq	.L9
 204              		.loc 1 89 0
 205 0072 0899     		ldr	r1, [sp, #32]
 206 0074 41F48050 		orr	r0, r1, #4096
 207              	.LVL19:
 208 0078 A061     		str	r0, [r4, #24]
 209 007a CAE7     		b	.L7
 210              	.L18:
 211              		.align	2
 212              	.L17:
 213 007c 00000000 		.word	.LANCHOR0
 214 0080 00000000 		.word	.LANCHOR1
 215 0084 00000000 		.word	.LANCHOR2
 216              		.cfi_endproc
 217              	.LFE120:
 218              		.size	_gwindowCreate, .-_gwindowCreate
 219 0088 AFF30080 		.section	.text._gwinDestroy,"ax",%progbits
 219      AFF30080 
 220              		.align	2
 221              		.p2align 4,,15
ARM GAS  C:\Users\Elis\AppData\Local\Temp\ccEZlUNg.s 			page 5


 222              		.global	_gwinDestroy
 223              		.thumb
 224              		.thumb_func
 225              		.type	_gwinDestroy, %function
 226              	_gwinDestroy:
 227              	.LFB121:
 228              		.loc 1 116 0
 229              		.cfi_startproc
 230              		@ args = 0, pretend = 0, frame = 0
 231              		@ frame_needed = 0, uses_anonymous_args = 0
 232              	.LVL20:
 233 0000 38B5     		push	{r3, r4, r5, lr}
 234              	.LCFI4:
 235              		.cfi_def_cfa_offset 16
 236              		.cfi_offset 3, -16
 237              		.cfi_offset 4, -12
 238              		.cfi_offset 5, -8
 239              		.cfi_offset 14, -4
 240              		.loc 1 116 0
 241 0002 0D46     		mov	r5, r1
 242              		.loc 1 117 0
 243 0004 0446     		mov	r4, r0
 244 0006 E0B1     		cbz	r0, .L19
 245              		.loc 1 121 0
 246 0008 0021     		movs	r1, #0
 247              	.LVL21:
 248 000a FFF7FEFF 		bl	gwinSetVisible
 249              	.LVL22:
 250              		.loc 1 124 0
 251 000e 2846     		mov	r0, r5
 252 0010 FFF7FEFF 		bl	_gwinFlushRedraws
 253              	.LVL23:
 254              		.loc 1 128 0
 255 0014 206A     		ldr	r0, [r4, #32]
 256 0016 20B1     		cbz	r0, .L21
 257              		.loc 1 128 0 is_stmt 0 discriminator 1
 258 0018 4368     		ldr	r3, [r0, #4]
 259 001a 9A6B     		ldr	r2, [r3, #56]
 260 001c 0AB1     		cbz	r2, .L21
 261              		.loc 1 129 0 is_stmt 1
 262 001e 2146     		mov	r1, r4
 263 0020 9047     		blx	r2
 264              	.LVL24:
 265              	.L21:
 266              		.loc 1 134 0
 267 0022 0C48     		ldr	r0, .L37
 268 0024 0168     		ldr	r1, [r0, #0]
 269 0026 0B68     		ldr	r3, [r1, #0]
 270 0028 2046     		mov	r0, r4
 271 002a DA68     		ldr	r2, [r3, #12]
 272 002c 9047     		blx	r2
 273              	.LVL25:
 274              		.loc 1 138 0
 275 002e 6068     		ldr	r0, [r4, #4]
 276 0030 8168     		ldr	r1, [r0, #8]
 277 0032 09B1     		cbz	r1, .L22
 278              		.loc 1 139 0
ARM GAS  C:\Users\Elis\AppData\Local\Temp\ccEZlUNg.s 			page 6


 279 0034 2046     		mov	r0, r4
 280 0036 8847     		blx	r1
 281              	.LVL26:
 282              	.L22:
 283              		.loc 1 142 0
 284 0038 A369     		ldr	r3, [r4, #24]
 285 003a 13F48052 		ands	r2, r3, #4096
 286 003e 01D1     		bne	.L36
 287              		.loc 1 146 0
 288 0040 A261     		str	r2, [r4, #24]
 289              	.L19:
 290 0042 38BD     		pop	{r3, r4, r5, pc}
 291              	.L36:
 292              		.loc 1 143 0
 293 0044 0020     		movs	r0, #0
 294 0046 A061     		str	r0, [r4, #24]
 295              		.loc 1 144 0
 296 0048 2046     		mov	r0, r4
 297              		.loc 1 147 0
 298 004a BDE83840 		pop	{r3, r4, r5, lr}
 299              		.loc 1 144 0
 300 004e FFF7FEBF 		b	chHeapFree
 301              	.LVL27:
 302              	.L38:
 303 0052 00BF     		.align	2
 304              	.L37:
 305 0054 00000000 		.word	_GWINwm
 306              		.cfi_endproc
 307              	.LFE121:
 308              		.size	_gwinDestroy, .-_gwinDestroy
 309 0058 AFF30080 		.section	.text.gwinClearInit,"ax",%progbits
 309      AFF30080 
 310              		.align	2
 311              		.p2align 4,,15
 312              		.global	gwinClearInit
 313              		.thumb
 314              		.thumb_func
 315              		.type	gwinClearInit, %function
 316              	gwinClearInit:
 317              	.LFB122:
 318              		.loc 1 153 0
 319              		.cfi_startproc
 320              		@ args = 0, pretend = 0, frame = 0
 321              		@ frame_needed = 0, uses_anonymous_args = 0
 322              		@ link register save eliminated.
 323              	.LVL28:
 324              		.loc 1 158 0
 325 0000 0023     		movs	r3, #0
 326 0002 0370     		strb	r3, [r0, #0]
 327              	.LVL29:
 328 0004 4370     		strb	r3, [r0, #1]
 329              	.LVL30:
 330 0006 8370     		strb	r3, [r0, #2]
 331              	.LVL31:
 332 0008 C370     		strb	r3, [r0, #3]
 333              	.LVL32:
 334 000a 0371     		strb	r3, [r0, #4]
ARM GAS  C:\Users\Elis\AppData\Local\Temp\ccEZlUNg.s 			page 7


 335              	.LVL33:
 336 000c 4371     		strb	r3, [r0, #5]
 337              	.LVL34:
 338 000e 8371     		strb	r3, [r0, #6]
 339              	.LVL35:
 340 0010 C371     		strb	r3, [r0, #7]
 341              	.LVL36:
 342 0012 0372     		strb	r3, [r0, #8]
 343              	.LVL37:
 344 0014 4372     		strb	r3, [r0, #9]
 345              	.LVL38:
 346 0016 8372     		strb	r3, [r0, #10]
 347              	.LVL39:
 348 0018 C372     		strb	r3, [r0, #11]
 349              	.LVL40:
 350 001a 0373     		strb	r3, [r0, #12]
 351              	.LVL41:
 352 001c 4373     		strb	r3, [r0, #13]
 353              	.LVL42:
 354 001e 8373     		strb	r3, [r0, #14]
 355              	.LVL43:
 356 0020 C373     		strb	r3, [r0, #15]
 357              	.LVL44:
 358 0022 7047     		bx	lr
 359              		.cfi_endproc
 360              	.LFE122:
 361              		.size	gwinClearInit, .-gwinClearInit
 362 0024 AFF30080 		.section	.text.gwinSetDefaultColor,"ax",%progbits
 362      AFF30080 
 362      AFF30080 
 363              		.align	2
 364              		.p2align 4,,15
 365              		.global	gwinSetDefaultColor
 366              		.thumb
 367              		.thumb_func
 368              		.type	gwinSetDefaultColor, %function
 369              	gwinSetDefaultColor:
 370              	.LFB123:
 371              		.loc 1 161 0
 372              		.cfi_startproc
 373              		@ args = 0, pretend = 0, frame = 0
 374              		@ frame_needed = 0, uses_anonymous_args = 0
 375              		@ link register save eliminated.
 376              	.LVL45:
 377              		.loc 1 162 0
 378 0000 40F20003 		movw	r3, #:lower16:.LANCHOR0
 379 0004 C0F20003 		movt	r3, #:upper16:.LANCHOR0
 380 0008 1880     		strh	r0, [r3, #0]	@ movhi
 381 000a 7047     		bx	lr
 382              		.cfi_endproc
 383              	.LFE123:
 384              		.size	gwinSetDefaultColor, .-gwinSetDefaultColor
 385 000c AFF30080 		.section	.text.gwinGetDefaultColor,"ax",%progbits
 386              		.align	2
 387              		.p2align 4,,15
 388              		.global	gwinGetDefaultColor
 389              		.thumb
ARM GAS  C:\Users\Elis\AppData\Local\Temp\ccEZlUNg.s 			page 8


 390              		.thumb_func
 391              		.type	gwinGetDefaultColor, %function
 392              	gwinGetDefaultColor:
 393              	.LFB124:
 394              		.loc 1 165 0
 395              		.cfi_startproc
 396              		@ args = 0, pretend = 0, frame = 0
 397              		@ frame_needed = 0, uses_anonymous_args = 0
 398              		@ link register save eliminated.
 399              		.loc 1 166 0
 400 0000 40F20003 		movw	r3, #:lower16:.LANCHOR0
 401 0004 C0F20003 		movt	r3, #:upper16:.LANCHOR0
 402              		.loc 1 167 0
 403 0008 1888     		ldrh	r0, [r3, #0]
 404 000a 7047     		bx	lr
 405              		.cfi_endproc
 406              	.LFE124:
 407              		.size	gwinGetDefaultColor, .-gwinGetDefaultColor
 408 000c AFF30080 		.section	.text.gwinSetDefaultBgColor,"ax",%progbits
 409              		.align	2
 410              		.p2align 4,,15
 411              		.global	gwinSetDefaultBgColor
 412              		.thumb
 413              		.thumb_func
 414              		.type	gwinSetDefaultBgColor, %function
 415              	gwinSetDefaultBgColor:
 416              	.LFB125:
 417              		.loc 1 169 0
 418              		.cfi_startproc
 419              		@ args = 0, pretend = 0, frame = 0
 420              		@ frame_needed = 0, uses_anonymous_args = 0
 421              		@ link register save eliminated.
 422              	.LVL46:
 423              		.loc 1 170 0
 424 0000 40F20003 		movw	r3, #:lower16:.LANCHOR1
 425 0004 C0F20003 		movt	r3, #:upper16:.LANCHOR1
 426 0008 1880     		strh	r0, [r3, #0]	@ movhi
 427 000a 7047     		bx	lr
 428              		.cfi_endproc
 429              	.LFE125:
 430              		.size	gwinSetDefaultBgColor, .-gwinSetDefaultBgColor
 431 000c AFF30080 		.section	.text.gwinGetDefaultBgColor,"ax",%progbits
 432              		.align	2
 433              		.p2align 4,,15
 434              		.global	gwinGetDefaultBgColor
 435              		.thumb
 436              		.thumb_func
 437              		.type	gwinGetDefaultBgColor, %function
 438              	gwinGetDefaultBgColor:
 439              	.LFB126:
 440              		.loc 1 173 0
 441              		.cfi_startproc
 442              		@ args = 0, pretend = 0, frame = 0
 443              		@ frame_needed = 0, uses_anonymous_args = 0
 444              		@ link register save eliminated.
 445              		.loc 1 174 0
 446 0000 40F20003 		movw	r3, #:lower16:.LANCHOR1
ARM GAS  C:\Users\Elis\AppData\Local\Temp\ccEZlUNg.s 			page 9


 447 0004 C0F20003 		movt	r3, #:upper16:.LANCHOR1
 448              		.loc 1 175 0
 449 0008 1888     		ldrh	r0, [r3, #0]
 450 000a 7047     		bx	lr
 451              		.cfi_endproc
 452              	.LFE126:
 453              		.size	gwinGetDefaultBgColor, .-gwinGetDefaultBgColor
 454 000c AFF30080 		.section	.text.gwinSetDefaultFont,"ax",%progbits
 455              		.align	2
 456              		.p2align 4,,15
 457              		.global	gwinSetDefaultFont
 458              		.thumb
 459              		.thumb_func
 460              		.type	gwinSetDefaultFont, %function
 461              	gwinSetDefaultFont:
 462              	.LFB127:
 463              		.loc 1 178 0
 464              		.cfi_startproc
 465              		@ args = 0, pretend = 0, frame = 0
 466              		@ frame_needed = 0, uses_anonymous_args = 0
 467              		@ link register save eliminated.
 468              	.LVL47:
 469              		.loc 1 179 0
 470 0000 40F20003 		movw	r3, #:lower16:.LANCHOR2
 471 0004 C0F20003 		movt	r3, #:upper16:.LANCHOR2
 472 0008 1860     		str	r0, [r3, #0]
 473 000a 7047     		bx	lr
 474              		.cfi_endproc
 475              	.LFE127:
 476              		.size	gwinSetDefaultFont, .-gwinSetDefaultFont
 477 000c AFF30080 		.section	.text.gwinGetDefaultFont,"ax",%progbits
 478              		.align	2
 479              		.p2align 4,,15
 480              		.global	gwinGetDefaultFont
 481              		.thumb
 482              		.thumb_func
 483              		.type	gwinGetDefaultFont, %function
 484              	gwinGetDefaultFont:
 485              	.LFB128:
 486              		.loc 1 182 0
 487              		.cfi_startproc
 488              		@ args = 0, pretend = 0, frame = 0
 489              		@ frame_needed = 0, uses_anonymous_args = 0
 490              		@ link register save eliminated.
 491              		.loc 1 183 0
 492 0000 40F20003 		movw	r3, #:lower16:.LANCHOR2
 493 0004 C0F20003 		movt	r3, #:upper16:.LANCHOR2
 494              		.loc 1 184 0
 495 0008 1868     		ldr	r0, [r3, #0]
 496 000a 7047     		bx	lr
 497              		.cfi_endproc
 498              	.LFE128:
 499              		.size	gwinGetDefaultFont, .-gwinGetDefaultFont
 500 000c AFF30080 		.section	.text.gwinGWindowCreate,"ax",%progbits
 501              		.align	2
 502              		.p2align 4,,15
 503              		.global	gwinGWindowCreate
ARM GAS  C:\Users\Elis\AppData\Local\Temp\ccEZlUNg.s 			page 10


 504              		.thumb
 505              		.thumb_func
 506              		.type	gwinGWindowCreate, %function
 507              	gwinGWindowCreate:
 508              	.LFB129:
 509              		.loc 1 191 0
 510              		.cfi_startproc
 511              		@ args = 0, pretend = 0, frame = 0
 512              		@ frame_needed = 0, uses_anonymous_args = 0
 513              	.LVL48:
 514 0000 30B5     		push	{r4, r5, lr}
 515              	.LCFI5:
 516              		.cfi_def_cfa_offset 12
 517              		.cfi_offset 4, -12
 518              		.cfi_offset 5, -8
 519              		.cfi_offset 14, -4
 520 0002 83B0     		sub	sp, sp, #12
 521              	.LCFI6:
 522              		.cfi_def_cfa_offset 24
 523              		.loc 1 192 0
 524 0004 0023     		movs	r3, #0
 525 0006 0093     		str	r3, [sp, #0]
 526 0008 054B     		ldr	r3, .L51
 527              		.loc 1 191 0
 528 000a 1546     		mov	r5, r2
 529              		.loc 1 192 0
 530 000c FFF7FEFF 		bl	_gwindowCreate
 531              	.LVL49:
 532 0010 0446     		mov	r4, r0
 533 0012 10B1     		cbz	r0, .L47
 534              		.loc 1 195 0
 535 0014 297A     		ldrb	r1, [r5, #8]	@ zero_extendqisi2
 536 0016 FFF7FEFF 		bl	gwinSetVisible
 537              	.LVL50:
 538              	.L47:
 539              		.loc 1 198 0
 540 001a 2046     		mov	r0, r4
 541 001c 03B0     		add	sp, sp, #12
 542 001e 30BD     		pop	{r4, r5, pc}
 543              	.L52:
 544              		.align	2
 545              	.L51:
 546 0020 00000000 		.word	.LANCHOR3
 547              		.cfi_endproc
 548              	.LFE129:
 549              		.size	gwinGWindowCreate, .-gwinGWindowCreate
 550 0024 AFF30080 		.section	.text.gwinDestroy,"ax",%progbits
 550      AFF30080 
 550      AFF30080 
 551              		.align	2
 552              		.p2align 4,,15
 553              		.global	gwinDestroy
 554              		.thumb
 555              		.thumb_func
 556              		.type	gwinDestroy, %function
 557              	gwinDestroy:
 558              	.LFB130:
ARM GAS  C:\Users\Elis\AppData\Local\Temp\ccEZlUNg.s 			page 11


 559              		.loc 1 200 0
 560              		.cfi_startproc
 561              		@ args = 0, pretend = 0, frame = 0
 562              		@ frame_needed = 0, uses_anonymous_args = 0
 563              		@ link register save eliminated.
 564              	.LVL51:
 565              		.loc 1 201 0
 566 0000 0021     		movs	r1, #0
 567              		.loc 1 202 0
 568              		.loc 1 201 0
 569 0002 FFF7FEBF 		b	_gwinDestroy
 570              	.LVL52:
 571              		.cfi_endproc
 572              	.LFE130:
 573              		.size	gwinDestroy, .-gwinDestroy
 574 0006 00BFAFF3 		.section	.text.gwinGetClassName,"ax",%progbits
 574      0080AFF3 
 574      0080
 575              		.align	2
 576              		.p2align 4,,15
 577              		.global	gwinGetClassName
 578              		.thumb
 579              		.thumb_func
 580              		.type	gwinGetClassName, %function
 581              	gwinGetClassName:
 582              	.LFB131:
 583              		.loc 1 204 0
 584              		.cfi_startproc
 585              		@ args = 0, pretend = 0, frame = 0
 586              		@ frame_needed = 0, uses_anonymous_args = 0
 587              		@ link register save eliminated.
 588              	.LVL53:
 589              		.loc 1 205 0
 590 0000 4368     		ldr	r3, [r0, #4]
 591              		.loc 1 206 0
 592 0002 1868     		ldr	r0, [r3, #0]
 593              	.LVL54:
 594 0004 7047     		bx	lr
 595              		.cfi_endproc
 596              	.LFE131:
 597              		.size	gwinGetClassName, .-gwinGetClassName
 598 0006 00BFAFF3 		.section	.text.gwinGetVisible,"ax",%progbits
 598      0080AFF3 
 598      0080
 599              		.align	2
 600              		.p2align 4,,15
 601              		.global	gwinGetVisible
 602              		.thumb
 603              		.thumb_func
 604              		.type	gwinGetVisible, %function
 605              	gwinGetVisible:
 606              	.LFB132:
 607              		.loc 1 208 0
 608              		.cfi_startproc
 609              		@ args = 0, pretend = 0, frame = 0
 610              		@ frame_needed = 0, uses_anonymous_args = 0
 611              		@ link register save eliminated.
ARM GAS  C:\Users\Elis\AppData\Local\Temp\ccEZlUNg.s 			page 12


 612              	.LVL55:
 613              		.loc 1 209 0
 614 0000 8069     		ldr	r0, [r0, #24]
 615              	.LVL56:
 616              		.loc 1 210 0
 617 0002 C0F34020 		ubfx	r0, r0, #9, #1
 618 0006 7047     		bx	lr
 619              		.cfi_endproc
 620              	.LFE132:
 621              		.size	gwinGetVisible, .-gwinGetVisible
 622 0008 AFF30080 		.section	.text.gwinGetEnabled,"ax",%progbits
 622      AFF30080 
 623              		.align	2
 624              		.p2align 4,,15
 625              		.global	gwinGetEnabled
 626              		.thumb
 627              		.thumb_func
 628              		.type	gwinGetEnabled, %function
 629              	gwinGetEnabled:
 630              	.LFB133:
 631              		.loc 1 212 0
 632              		.cfi_startproc
 633              		@ args = 0, pretend = 0, frame = 0
 634              		@ frame_needed = 0, uses_anonymous_args = 0
 635              		@ link register save eliminated.
 636              	.LVL57:
 637              		.loc 1 213 0
 638 0000 8069     		ldr	r0, [r0, #24]
 639              	.LVL58:
 640              		.loc 1 214 0
 641 0002 C0F3C020 		ubfx	r0, r0, #11, #1
 642 0006 7047     		bx	lr
 643              		.cfi_endproc
 644              	.LFE133:
 645              		.size	gwinGetEnabled, .-gwinGetEnabled
 646 0008 AFF30080 		.section	.text.gwinSetFont,"ax",%progbits
 646      AFF30080 
 647              		.align	2
 648              		.p2align 4,,15
 649              		.global	gwinSetFont
 650              		.thumb
 651              		.thumb_func
 652              		.type	gwinSetFont, %function
 653              	gwinSetFont:
 654              	.LFB134:
 655              		.loc 1 217 0
 656              		.cfi_startproc
 657              		@ args = 0, pretend = 0, frame = 0
 658              		@ frame_needed = 0, uses_anonymous_args = 0
 659              		@ link register save eliminated.
 660              	.LVL59:
 661              		.loc 1 218 0
 662 0000 C161     		str	r1, [r0, #28]
 663 0002 7047     		bx	lr
 664              		.cfi_endproc
 665              	.LFE134:
 666              		.size	gwinSetFont, .-gwinSetFont
ARM GAS  C:\Users\Elis\AppData\Local\Temp\ccEZlUNg.s 			page 13


 667 0004 AFF30080 		.section	.text.gwinClear,"ax",%progbits
 667      AFF30080 
 667      AFF30080 
 668              		.align	2
 669              		.p2align 4,,15
 670              		.global	gwinClear
 671              		.thumb
 672              		.thumb_func
 673              		.type	gwinClear, %function
 674              	gwinClear:
 675              	.LFB135:
 676              		.loc 1 222 0
 677              		.cfi_startproc
 678              		@ args = 0, pretend = 0, frame = 0
 679              		@ frame_needed = 0, uses_anonymous_args = 0
 680              	.LVL60:
 681 0000 70B5     		push	{r4, r5, r6, lr}
 682              	.LCFI7:
 683              		.cfi_def_cfa_offset 16
 684              		.cfi_offset 4, -16
 685              		.cfi_offset 5, -12
 686              		.cfi_offset 6, -8
 687              		.cfi_offset 14, -4
 688 0002 82B0     		sub	sp, sp, #8
 689              	.LCFI8:
 690              		.cfi_def_cfa_offset 24
 691              		.loc 1 222 0
 692 0004 0446     		mov	r4, r0
 693              		.loc 1 228 0
 694 0006 FFF7FEFF 		bl	_gwinDrawStart
 695              	.LVL61:
 696 000a 30B9     		cbnz	r0, .L67
 697              	.L59:
 698              		.loc 1 232 0
 699 000c 6368     		ldr	r3, [r4, #4]
 700 000e 1969     		ldr	r1, [r3, #16]
 701 0010 09B1     		cbz	r1, .L58
 702              		.loc 1 233 0
 703 0012 2046     		mov	r0, r4
 704 0014 8847     		blx	r1
 705              	.LVL62:
 706              	.L58:
 707              		.loc 1 234 0
 708 0016 02B0     		add	sp, sp, #8
 709 0018 70BD     		pop	{r4, r5, r6, pc}
 710              	.L67:
 711              		.loc 1 229 0
 712 001a B4F91260 		ldrsh	r6, [r4, #18]
 713 001e E58A     		ldrh	r5, [r4, #22]
 714 0020 A068     		ldr	r0, [r4, #8]
 715 0022 B4F90C10 		ldrsh	r1, [r4, #12]
 716 0026 B4F90E20 		ldrsh	r2, [r4, #14]
 717 002a B4F91030 		ldrsh	r3, [r4, #16]
 718 002e 0096     		str	r6, [sp, #0]
 719 0030 0195     		str	r5, [sp, #4]
 720 0032 FFF7FEFF 		bl	gdispGFillArea
 721              	.LVL63:
ARM GAS  C:\Users\Elis\AppData\Local\Temp\ccEZlUNg.s 			page 14


 722              		.loc 1 230 0
 723 0036 2046     		mov	r0, r4
 724 0038 FFF7FEFF 		bl	_gwinDrawEnd
 725              	.LVL64:
 726 003c E6E7     		b	.L59
 727              		.cfi_endproc
 728              	.LFE135:
 729              		.size	gwinClear, .-gwinClear
 730 003e 00BF     		.section	.text.gwinDrawPixel,"ax",%progbits
 731              		.align	2
 732              		.p2align 4,,15
 733              		.global	gwinDrawPixel
 734              		.thumb
 735              		.thumb_func
 736              		.type	gwinDrawPixel, %function
 737              	gwinDrawPixel:
 738              	.LFB136:
 739              		.loc 1 236 0
 740              		.cfi_startproc
 741              		@ args = 0, pretend = 0, frame = 0
 742              		@ frame_needed = 0, uses_anonymous_args = 0
 743              	.LVL65:
 744 0000 70B5     		push	{r4, r5, r6, lr}
 745              	.LCFI9:
 746              		.cfi_def_cfa_offset 16
 747              		.cfi_offset 4, -16
 748              		.cfi_offset 5, -12
 749              		.cfi_offset 6, -8
 750              		.cfi_offset 14, -4
 751              		.loc 1 236 0
 752 0002 0446     		mov	r4, r0
 753 0004 0E46     		mov	r6, r1
 754 0006 1546     		mov	r5, r2
 755              		.loc 1 237 0
 756 0008 FFF7FEFF 		bl	_gwinDrawStart
 757              	.LVL66:
 758 000c 00B9     		cbnz	r0, .L70
 759 000e 70BD     		pop	{r4, r5, r6, pc}
 760              	.L70:
 761              		.loc 1 238 0
 762 0010 A189     		ldrh	r1, [r4, #12]
 763 0012 E289     		ldrh	r2, [r4, #14]
 764 0014 A068     		ldr	r0, [r4, #8]
 765 0016 A38A     		ldrh	r3, [r4, #20]
 766 0018 7118     		adds	r1, r6, r1
 767 001a AA18     		adds	r2, r5, r2
 768 001c 09B2     		sxth	r1, r1
 769 001e 12B2     		sxth	r2, r2
 770 0020 FFF7FEFF 		bl	gdispGDrawPixel
 771              	.LVL67:
 772              		.loc 1 239 0
 773 0024 2046     		mov	r0, r4
 774              		.loc 1 240 0
 775 0026 BDE87040 		pop	{r4, r5, r6, lr}
 776              		.loc 1 239 0
 777 002a FFF7FEBF 		b	_gwinDrawEnd
 778              	.LVL68:
ARM GAS  C:\Users\Elis\AppData\Local\Temp\ccEZlUNg.s 			page 15


 779              		.cfi_endproc
 780              	.LFE136:
 781              		.size	gwinDrawPixel, .-gwinDrawPixel
 782 002e 00BF     		.section	.text.gwinDrawLine,"ax",%progbits
 783              		.align	2
 784              		.p2align 4,,15
 785              		.global	gwinDrawLine
 786              		.thumb
 787              		.thumb_func
 788              		.type	gwinDrawLine, %function
 789              	gwinDrawLine:
 790              	.LFB137:
 791              		.loc 1 242 0
 792              		.cfi_startproc
 793              		@ args = 4, pretend = 0, frame = 0
 794              		@ frame_needed = 0, uses_anonymous_args = 0
 795              	.LVL69:
 796 0000 2DE9F041 		push	{r4, r5, r6, r7, r8, lr}
 797              	.LCFI10:
 798              		.cfi_def_cfa_offset 24
 799              		.cfi_offset 4, -24
 800              		.cfi_offset 5, -20
 801              		.cfi_offset 6, -16
 802              		.cfi_offset 7, -12
 803              		.cfi_offset 8, -8
 804              		.cfi_offset 14, -4
 805 0004 82B0     		sub	sp, sp, #8
 806              	.LCFI11:
 807              		.cfi_def_cfa_offset 32
 808              		.loc 1 242 0
 809 0006 0446     		mov	r4, r0
 810 0008 0F46     		mov	r7, r1
 811 000a 1646     		mov	r6, r2
 812 000c 1D46     		mov	r5, r3
 813 000e BDF92080 		ldrsh	r8, [sp, #32]
 814              		.loc 1 243 0
 815 0012 FFF7FEFF 		bl	_gwinDrawStart
 816              	.LVL70:
 817 0016 10B9     		cbnz	r0, .L73
 818              		.loc 1 246 0
 819 0018 02B0     		add	sp, sp, #8
 820 001a BDE8F081 		pop	{r4, r5, r6, r7, r8, pc}
 821              	.L73:
 822              		.loc 1 244 0
 823 001e E289     		ldrh	r2, [r4, #14]
 824 0020 A389     		ldrh	r3, [r4, #12]
 825 0022 B4F814E0 		ldrh	lr, [r4, #20]
 826 0026 A068     		ldr	r0, [r4, #8]
 827 0028 9044     		add	r8, r2, r8
 828 002a D919     		adds	r1, r3, r7
 829 002c 9219     		adds	r2, r2, r6
 830 002e 5B19     		adds	r3, r3, r5
 831 0030 0FFA88F5 		sxth	r5, r8
 832 0034 8DE82040 		stmia	sp, {r5, lr}
 833 0038 09B2     		sxth	r1, r1
 834 003a 12B2     		sxth	r2, r2
 835 003c 1BB2     		sxth	r3, r3
ARM GAS  C:\Users\Elis\AppData\Local\Temp\ccEZlUNg.s 			page 16


 836 003e FFF7FEFF 		bl	gdispGDrawLine
 837              	.LVL71:
 838              		.loc 1 245 0
 839 0042 2046     		mov	r0, r4
 840              		.loc 1 246 0
 841 0044 02B0     		add	sp, sp, #8
 842 0046 BDE8F041 		pop	{r4, r5, r6, r7, r8, lr}
 843              		.loc 1 245 0
 844 004a FFF7FEBF 		b	_gwinDrawEnd
 845              	.LVL72:
 846              		.cfi_endproc
 847              	.LFE137:
 848              		.size	gwinDrawLine, .-gwinDrawLine
 849 004e 00BF     		.section	.text.gwinDrawBox,"ax",%progbits
 850              		.align	2
 851              		.p2align 4,,15
 852              		.global	gwinDrawBox
 853              		.thumb
 854              		.thumb_func
 855              		.type	gwinDrawBox, %function
 856              	gwinDrawBox:
 857              	.LFB138:
 858              		.loc 1 248 0
 859              		.cfi_startproc
 860              		@ args = 4, pretend = 0, frame = 0
 861              		@ frame_needed = 0, uses_anonymous_args = 0
 862              	.LVL73:
 863 0000 2DE9F041 		push	{r4, r5, r6, r7, r8, lr}
 864              	.LCFI12:
 865              		.cfi_def_cfa_offset 24
 866              		.cfi_offset 4, -24
 867              		.cfi_offset 5, -20
 868              		.cfi_offset 6, -16
 869              		.cfi_offset 7, -12
 870              		.cfi_offset 8, -8
 871              		.cfi_offset 14, -4
 872 0004 82B0     		sub	sp, sp, #8
 873              	.LCFI13:
 874              		.cfi_def_cfa_offset 32
 875              		.loc 1 248 0
 876 0006 0446     		mov	r4, r0
 877 0008 0F46     		mov	r7, r1
 878 000a 1646     		mov	r6, r2
 879 000c 1D46     		mov	r5, r3
 880 000e BDF92080 		ldrsh	r8, [sp, #32]
 881              		.loc 1 249 0
 882 0012 FFF7FEFF 		bl	_gwinDrawStart
 883              	.LVL74:
 884 0016 10B9     		cbnz	r0, .L76
 885              		.loc 1 252 0
 886 0018 02B0     		add	sp, sp, #8
 887 001a BDE8F081 		pop	{r4, r5, r6, r7, r8, pc}
 888              	.L76:
 889              		.loc 1 250 0
 890 001e A189     		ldrh	r1, [r4, #12]
 891 0020 E289     		ldrh	r2, [r4, #14]
 892 0022 A38A     		ldrh	r3, [r4, #20]
ARM GAS  C:\Users\Elis\AppData\Local\Temp\ccEZlUNg.s 			page 17


 893 0024 A068     		ldr	r0, [r4, #8]
 894 0026 0193     		str	r3, [sp, #4]
 895 0028 7918     		adds	r1, r7, r1
 896 002a B218     		adds	r2, r6, r2
 897 002c CDF80080 		str	r8, [sp, #0]
 898 0030 09B2     		sxth	r1, r1
 899 0032 12B2     		sxth	r2, r2
 900 0034 2B46     		mov	r3, r5
 901 0036 FFF7FEFF 		bl	gdispGDrawBox
 902              	.LVL75:
 903              		.loc 1 251 0
 904 003a 2046     		mov	r0, r4
 905              		.loc 1 252 0
 906 003c 02B0     		add	sp, sp, #8
 907 003e BDE8F041 		pop	{r4, r5, r6, r7, r8, lr}
 908              		.loc 1 251 0
 909 0042 FFF7FEBF 		b	_gwinDrawEnd
 910              	.LVL76:
 911              		.cfi_endproc
 912              	.LFE138:
 913              		.size	gwinDrawBox, .-gwinDrawBox
 914 0046 00BFAFF3 		.section	.text.gwinFillArea,"ax",%progbits
 914      0080AFF3 
 914      0080
 915              		.align	2
 916              		.p2align 4,,15
 917              		.global	gwinFillArea
 918              		.thumb
 919              		.thumb_func
 920              		.type	gwinFillArea, %function
 921              	gwinFillArea:
 922              	.LFB139:
 923              		.loc 1 254 0
 924              		.cfi_startproc
 925              		@ args = 4, pretend = 0, frame = 0
 926              		@ frame_needed = 0, uses_anonymous_args = 0
 927              	.LVL77:
 928 0000 2DE9F041 		push	{r4, r5, r6, r7, r8, lr}
 929              	.LCFI14:
 930              		.cfi_def_cfa_offset 24
 931              		.cfi_offset 4, -24
 932              		.cfi_offset 5, -20
 933              		.cfi_offset 6, -16
 934              		.cfi_offset 7, -12
 935              		.cfi_offset 8, -8
 936              		.cfi_offset 14, -4
 937 0004 82B0     		sub	sp, sp, #8
 938              	.LCFI15:
 939              		.cfi_def_cfa_offset 32
 940              		.loc 1 254 0
 941 0006 0446     		mov	r4, r0
 942 0008 0F46     		mov	r7, r1
 943 000a 1646     		mov	r6, r2
 944 000c 1D46     		mov	r5, r3
 945 000e BDF92080 		ldrsh	r8, [sp, #32]
 946              		.loc 1 255 0
 947 0012 FFF7FEFF 		bl	_gwinDrawStart
ARM GAS  C:\Users\Elis\AppData\Local\Temp\ccEZlUNg.s 			page 18


 948              	.LVL78:
 949 0016 10B9     		cbnz	r0, .L79
 950              		.loc 1 258 0
 951 0018 02B0     		add	sp, sp, #8
 952 001a BDE8F081 		pop	{r4, r5, r6, r7, r8, pc}
 953              	.L79:
 954              		.loc 1 256 0
 955 001e A189     		ldrh	r1, [r4, #12]
 956 0020 E289     		ldrh	r2, [r4, #14]
 957 0022 A38A     		ldrh	r3, [r4, #20]
 958 0024 A068     		ldr	r0, [r4, #8]
 959 0026 0193     		str	r3, [sp, #4]
 960 0028 7918     		adds	r1, r7, r1
 961 002a B218     		adds	r2, r6, r2
 962 002c CDF80080 		str	r8, [sp, #0]
 963 0030 09B2     		sxth	r1, r1
 964 0032 12B2     		sxth	r2, r2
 965 0034 2B46     		mov	r3, r5
 966 0036 FFF7FEFF 		bl	gdispGFillArea
 967              	.LVL79:
 968              		.loc 1 257 0
 969 003a 2046     		mov	r0, r4
 970              		.loc 1 258 0
 971 003c 02B0     		add	sp, sp, #8
 972 003e BDE8F041 		pop	{r4, r5, r6, r7, r8, lr}
 973              		.loc 1 257 0
 974 0042 FFF7FEBF 		b	_gwinDrawEnd
 975              	.LVL80:
 976              		.cfi_endproc
 977              	.LFE139:
 978              		.size	gwinFillArea, .-gwinFillArea
 979 0046 00BFAFF3 		.section	.text.gwinBlitArea,"ax",%progbits
 979      0080AFF3 
 979      0080
 980              		.align	2
 981              		.p2align 4,,15
 982              		.global	gwinBlitArea
 983              		.thumb
 984              		.thumb_func
 985              		.type	gwinBlitArea, %function
 986              	gwinBlitArea:
 987              	.LFB140:
 988              		.loc 1 260 0
 989              		.cfi_startproc
 990              		@ args = 20, pretend = 0, frame = 8
 991              		@ frame_needed = 0, uses_anonymous_args = 0
 992              	.LVL81:
 993 0000 2DE9F04F 		push	{r4, r5, r6, r7, r8, r9, sl, fp, lr}
 994              	.LCFI16:
 995              		.cfi_def_cfa_offset 36
 996              		.cfi_offset 4, -36
 997              		.cfi_offset 5, -32
 998              		.cfi_offset 6, -28
 999              		.cfi_offset 7, -24
 1000              		.cfi_offset 8, -20
 1001              		.cfi_offset 9, -16
 1002              		.cfi_offset 10, -12
ARM GAS  C:\Users\Elis\AppData\Local\Temp\ccEZlUNg.s 			page 19


 1003              		.cfi_offset 11, -8
 1004              		.cfi_offset 14, -4
 1005 0004 89B0     		sub	sp, sp, #36
 1006              	.LCFI17:
 1007              		.cfi_def_cfa_offset 72
 1008              		.loc 1 260 0
 1009 0006 9846     		mov	r8, r3
 1010 0008 BDF94C30 		ldrsh	r3, [sp, #76]
 1011              	.LVL82:
 1012 000c BDF948B0 		ldrsh	fp, [sp, #72]
 1013 0010 0793     		str	r3, [sp, #28]
 1014 0012 0446     		mov	r4, r0
 1015 0014 8A46     		mov	sl, r1
 1016 0016 9146     		mov	r9, r2
 1017 0018 BDF95070 		ldrsh	r7, [sp, #80]
 1018 001c BDF95460 		ldrsh	r6, [sp, #84]
 1019 0020 169D     		ldr	r5, [sp, #88]
 1020              		.loc 1 261 0
 1021 0022 FFF7FEFF 		bl	_gwinDrawStart
 1022              	.LVL83:
 1023 0026 10B9     		cbnz	r0, .L82
 1024              		.loc 1 264 0
 1025 0028 09B0     		add	sp, sp, #36
 1026 002a BDE8F08F 		pop	{r4, r5, r6, r7, r8, r9, sl, fp, pc}
 1027              	.L82:
 1028              		.loc 1 262 0
 1029 002e A289     		ldrh	r2, [r4, #12]
 1030 0030 E389     		ldrh	r3, [r4, #14]
 1031 0032 A068     		ldr	r0, [r4, #8]
 1032 0034 CDF800B0 		str	fp, [sp, #0]
 1033 0038 0AEB0201 		add	r1, sl, r2
 1034 003c 09EB0302 		add	r2, r9, r3
 1035 0040 079B     		ldr	r3, [sp, #28]
 1036 0042 0297     		str	r7, [sp, #8]
 1037 0044 0193     		str	r3, [sp, #4]
 1038 0046 0396     		str	r6, [sp, #12]
 1039 0048 0495     		str	r5, [sp, #16]
 1040 004a 09B2     		sxth	r1, r1
 1041 004c 12B2     		sxth	r2, r2
 1042 004e 4346     		mov	r3, r8
 1043 0050 FFF7FEFF 		bl	gdispGBlitArea
 1044              	.LVL84:
 1045              		.loc 1 263 0
 1046 0054 2046     		mov	r0, r4
 1047              		.loc 1 264 0
 1048 0056 09B0     		add	sp, sp, #36
 1049 0058 BDE8F04F 		pop	{r4, r5, r6, r7, r8, r9, sl, fp, lr}
 1050              		.loc 1 263 0
 1051 005c FFF7FEBF 		b	_gwinDrawEnd
 1052              	.LVL85:
 1053              		.cfi_endproc
 1054              	.LFE140:
 1055              		.size	gwinBlitArea, .-gwinBlitArea
 1056              		.section	.text.gwinDrawCircle,"ax",%progbits
 1057              		.align	2
 1058              		.p2align 4,,15
 1059              		.global	gwinDrawCircle
ARM GAS  C:\Users\Elis\AppData\Local\Temp\ccEZlUNg.s 			page 20


 1060              		.thumb
 1061              		.thumb_func
 1062              		.type	gwinDrawCircle, %function
 1063              	gwinDrawCircle:
 1064              	.LFB141:
 1065              		.loc 1 267 0
 1066              		.cfi_startproc
 1067              		@ args = 0, pretend = 0, frame = 0
 1068              		@ frame_needed = 0, uses_anonymous_args = 0
 1069              	.LVL86:
 1070 0000 F0B5     		push	{r4, r5, r6, r7, lr}
 1071              	.LCFI18:
 1072              		.cfi_def_cfa_offset 20
 1073              		.cfi_offset 4, -20
 1074              		.cfi_offset 5, -16
 1075              		.cfi_offset 6, -12
 1076              		.cfi_offset 7, -8
 1077              		.cfi_offset 14, -4
 1078 0002 83B0     		sub	sp, sp, #12
 1079              	.LCFI19:
 1080              		.cfi_def_cfa_offset 32
 1081              		.loc 1 267 0
 1082 0004 0446     		mov	r4, r0
 1083 0006 0F46     		mov	r7, r1
 1084 0008 1646     		mov	r6, r2
 1085 000a 1D46     		mov	r5, r3
 1086              		.loc 1 268 0
 1087 000c FFF7FEFF 		bl	_gwinDrawStart
 1088              	.LVL87:
 1089 0010 08B9     		cbnz	r0, .L85
 1090              		.loc 1 271 0
 1091 0012 03B0     		add	sp, sp, #12
 1092 0014 F0BD     		pop	{r4, r5, r6, r7, pc}
 1093              	.L85:
 1094              		.loc 1 269 0
 1095 0016 A189     		ldrh	r1, [r4, #12]
 1096 0018 E289     		ldrh	r2, [r4, #14]
 1097 001a A38A     		ldrh	r3, [r4, #20]
 1098 001c A068     		ldr	r0, [r4, #8]
 1099 001e 0093     		str	r3, [sp, #0]
 1100 0020 7918     		adds	r1, r7, r1
 1101 0022 B218     		adds	r2, r6, r2
 1102 0024 09B2     		sxth	r1, r1
 1103 0026 12B2     		sxth	r2, r2
 1104 0028 2B46     		mov	r3, r5
 1105 002a FFF7FEFF 		bl	gdispGDrawCircle
 1106              	.LVL88:
 1107              		.loc 1 270 0
 1108 002e 2046     		mov	r0, r4
 1109              		.loc 1 271 0
 1110 0030 03B0     		add	sp, sp, #12
 1111 0032 BDE8F040 		pop	{r4, r5, r6, r7, lr}
 1112              		.loc 1 270 0
 1113 0036 FFF7FEBF 		b	_gwinDrawEnd
 1114              	.LVL89:
 1115              		.cfi_endproc
 1116              	.LFE141:
ARM GAS  C:\Users\Elis\AppData\Local\Temp\ccEZlUNg.s 			page 21


 1117              		.size	gwinDrawCircle, .-gwinDrawCircle
 1118 003a 00BFAFF3 		.section	.text.gwinFillCircle,"ax",%progbits
 1118      0080
 1119              		.align	2
 1120              		.p2align 4,,15
 1121              		.global	gwinFillCircle
 1122              		.thumb
 1123              		.thumb_func
 1124              		.type	gwinFillCircle, %function
 1125              	gwinFillCircle:
 1126              	.LFB142:
 1127              		.loc 1 273 0
 1128              		.cfi_startproc
 1129              		@ args = 0, pretend = 0, frame = 0
 1130              		@ frame_needed = 0, uses_anonymous_args = 0
 1131              	.LVL90:
 1132 0000 F0B5     		push	{r4, r5, r6, r7, lr}
 1133              	.LCFI20:
 1134              		.cfi_def_cfa_offset 20
 1135              		.cfi_offset 4, -20
 1136              		.cfi_offset 5, -16
 1137              		.cfi_offset 6, -12
 1138              		.cfi_offset 7, -8
 1139              		.cfi_offset 14, -4
 1140 0002 83B0     		sub	sp, sp, #12
 1141              	.LCFI21:
 1142              		.cfi_def_cfa_offset 32
 1143              		.loc 1 273 0
 1144 0004 0446     		mov	r4, r0
 1145 0006 0F46     		mov	r7, r1
 1146 0008 1646     		mov	r6, r2
 1147 000a 1D46     		mov	r5, r3
 1148              		.loc 1 274 0
 1149 000c FFF7FEFF 		bl	_gwinDrawStart
 1150              	.LVL91:
 1151 0010 08B9     		cbnz	r0, .L88
 1152              		.loc 1 277 0
 1153 0012 03B0     		add	sp, sp, #12
 1154 0014 F0BD     		pop	{r4, r5, r6, r7, pc}
 1155              	.L88:
 1156              		.loc 1 275 0
 1157 0016 A189     		ldrh	r1, [r4, #12]
 1158 0018 E289     		ldrh	r2, [r4, #14]
 1159 001a A38A     		ldrh	r3, [r4, #20]
 1160 001c A068     		ldr	r0, [r4, #8]
 1161 001e 0093     		str	r3, [sp, #0]
 1162 0020 7918     		adds	r1, r7, r1
 1163 0022 B218     		adds	r2, r6, r2
 1164 0024 09B2     		sxth	r1, r1
 1165 0026 12B2     		sxth	r2, r2
 1166 0028 2B46     		mov	r3, r5
 1167 002a FFF7FEFF 		bl	gdispGFillCircle
 1168              	.LVL92:
 1169              		.loc 1 276 0
 1170 002e 2046     		mov	r0, r4
 1171              		.loc 1 277 0
 1172 0030 03B0     		add	sp, sp, #12
ARM GAS  C:\Users\Elis\AppData\Local\Temp\ccEZlUNg.s 			page 22


 1173 0032 BDE8F040 		pop	{r4, r5, r6, r7, lr}
 1174              		.loc 1 276 0
 1175 0036 FFF7FEBF 		b	_gwinDrawEnd
 1176              	.LVL93:
 1177              		.cfi_endproc
 1178              	.LFE142:
 1179              		.size	gwinFillCircle, .-gwinFillCircle
 1180 003a 00BFAFF3 		.section	.text.gwinDrawChar,"ax",%progbits
 1180      0080
 1181              		.align	2
 1182              		.p2align 4,,15
 1183              		.global	gwinDrawChar
 1184              		.thumb
 1185              		.thumb_func
 1186              		.type	gwinDrawChar, %function
 1187              	gwinDrawChar:
 1188              	.LFB143:
 1189              		.loc 1 331 0
 1190              		.cfi_startproc
 1191              		@ args = 0, pretend = 0, frame = 0
 1192              		@ frame_needed = 0, uses_anonymous_args = 0
 1193              	.LVL94:
 1194 0000 2DE9F041 		push	{r4, r5, r6, r7, r8, lr}
 1195              	.LCFI22:
 1196              		.cfi_def_cfa_offset 24
 1197              		.cfi_offset 4, -24
 1198              		.cfi_offset 5, -20
 1199              		.cfi_offset 6, -16
 1200              		.cfi_offset 7, -12
 1201              		.cfi_offset 8, -8
 1202              		.cfi_offset 14, -4
 1203              		.loc 1 332 0
 1204 0004 C569     		ldr	r5, [r0, #28]
 1205              		.loc 1 331 0
 1206 0006 82B0     		sub	sp, sp, #8
 1207              	.LCFI23:
 1208              		.cfi_def_cfa_offset 32
 1209              		.loc 1 331 0
 1210 0008 0446     		mov	r4, r0
 1211 000a 8846     		mov	r8, r1
 1212 000c 1746     		mov	r7, r2
 1213 000e 1E46     		mov	r6, r3
 1214              		.loc 1 332 0
 1215 0010 15B1     		cbz	r5, .L89
 1216              		.loc 1 332 0 is_stmt 0 discriminator 2
 1217 0012 FFF7FEFF 		bl	_gwinDrawStart
 1218              	.LVL95:
 1219 0016 10B9     		cbnz	r0, .L96
 1220              	.L89:
 1221              		.loc 1 335 0 is_stmt 1
 1222 0018 02B0     		add	sp, sp, #8
 1223 001a BDE8F081 		pop	{r4, r5, r6, r7, r8, pc}
 1224              	.L96:
 1225              		.loc 1 333 0
 1226 001e E189     		ldrh	r1, [r4, #14]
 1227 0020 A589     		ldrh	r5, [r4, #12]
 1228 0022 E369     		ldr	r3, [r4, #28]
ARM GAS  C:\Users\Elis\AppData\Local\Temp\ccEZlUNg.s 			page 23


 1229 0024 A28A     		ldrh	r2, [r4, #20]
 1230 0026 A068     		ldr	r0, [r4, #8]
 1231 0028 0093     		str	r3, [sp, #0]
 1232 002a 7F18     		adds	r7, r7, r1
 1233 002c A844     		add	r8, r8, r5
 1234 002e 0192     		str	r2, [sp, #4]
 1235 0030 0FFA88F1 		sxth	r1, r8
 1236 0034 3AB2     		sxth	r2, r7
 1237 0036 3346     		mov	r3, r6
 1238 0038 FFF7FEFF 		bl	gdispGDrawChar
 1239              	.LVL96:
 1240              		.loc 1 334 0
 1241 003c 2046     		mov	r0, r4
 1242              		.loc 1 335 0
 1243 003e 02B0     		add	sp, sp, #8
 1244 0040 BDE8F041 		pop	{r4, r5, r6, r7, r8, lr}
 1245              		.loc 1 334 0
 1246 0044 FFF7FEBF 		b	_gwinDrawEnd
 1247              	.LVL97:
 1248              		.cfi_endproc
 1249              	.LFE143:
 1250              		.size	gwinDrawChar, .-gwinDrawChar
 1251 0048 AFF30080 		.section	.text.gwinFillChar,"ax",%progbits
 1251      AFF30080 
 1252              		.align	2
 1253              		.p2align 4,,15
 1254              		.global	gwinFillChar
 1255              		.thumb
 1256              		.thumb_func
 1257              		.type	gwinFillChar, %function
 1258              	gwinFillChar:
 1259              	.LFB144:
 1260              		.loc 1 337 0
 1261              		.cfi_startproc
 1262              		@ args = 0, pretend = 0, frame = 0
 1263              		@ frame_needed = 0, uses_anonymous_args = 0
 1264              	.LVL98:
 1265 0000 2DE9F041 		push	{r4, r5, r6, r7, r8, lr}
 1266              	.LCFI24:
 1267              		.cfi_def_cfa_offset 24
 1268              		.cfi_offset 4, -24
 1269              		.cfi_offset 5, -20
 1270              		.cfi_offset 6, -16
 1271              		.cfi_offset 7, -12
 1272              		.cfi_offset 8, -8
 1273              		.cfi_offset 14, -4
 1274              		.loc 1 338 0
 1275 0004 C569     		ldr	r5, [r0, #28]
 1276              		.loc 1 337 0
 1277 0006 84B0     		sub	sp, sp, #16
 1278              	.LCFI25:
 1279              		.cfi_def_cfa_offset 40
 1280              		.loc 1 337 0
 1281 0008 0446     		mov	r4, r0
 1282 000a 8846     		mov	r8, r1
 1283 000c 1746     		mov	r7, r2
 1284 000e 1E46     		mov	r6, r3
ARM GAS  C:\Users\Elis\AppData\Local\Temp\ccEZlUNg.s 			page 24


 1285              		.loc 1 338 0
 1286 0010 15B1     		cbz	r5, .L97
 1287              		.loc 1 338 0 is_stmt 0 discriminator 2
 1288 0012 FFF7FEFF 		bl	_gwinDrawStart
 1289              	.LVL99:
 1290 0016 10B9     		cbnz	r0, .L104
 1291              	.L97:
 1292              		.loc 1 341 0 is_stmt 1
 1293 0018 04B0     		add	sp, sp, #16
 1294 001a BDE8F081 		pop	{r4, r5, r6, r7, r8, pc}
 1295              	.L104:
 1296              		.loc 1 339 0
 1297 001e B4F80CE0 		ldrh	lr, [r4, #12]
 1298 0022 E589     		ldrh	r5, [r4, #14]
 1299 0024 E369     		ldr	r3, [r4, #28]
 1300 0026 A18A     		ldrh	r1, [r4, #20]
 1301 0028 E28A     		ldrh	r2, [r4, #22]
 1302 002a A068     		ldr	r0, [r4, #8]
 1303 002c 0093     		str	r3, [sp, #0]
 1304 002e F044     		add	r8, r8, lr
 1305 0030 7F19     		adds	r7, r7, r5
 1306 0032 0191     		str	r1, [sp, #4]
 1307 0034 0292     		str	r2, [sp, #8]
 1308 0036 0FFA88F1 		sxth	r1, r8
 1309 003a 3AB2     		sxth	r2, r7
 1310 003c 3346     		mov	r3, r6
 1311 003e FFF7FEFF 		bl	gdispGFillChar
 1312              	.LVL100:
 1313              		.loc 1 340 0
 1314 0042 2046     		mov	r0, r4
 1315              		.loc 1 341 0
 1316 0044 04B0     		add	sp, sp, #16
 1317 0046 BDE8F041 		pop	{r4, r5, r6, r7, r8, lr}
 1318              		.loc 1 340 0
 1319 004a FFF7FEBF 		b	_gwinDrawEnd
 1320              	.LVL101:
 1321              		.cfi_endproc
 1322              	.LFE144:
 1323              		.size	gwinFillChar, .-gwinFillChar
 1324 004e 00BF     		.section	.text.gwinDrawString,"ax",%progbits
 1325              		.align	2
 1326              		.p2align 4,,15
 1327              		.global	gwinDrawString
 1328              		.thumb
 1329              		.thumb_func
 1330              		.type	gwinDrawString, %function
 1331              	gwinDrawString:
 1332              	.LFB145:
 1333              		.loc 1 343 0
 1334              		.cfi_startproc
 1335              		@ args = 0, pretend = 0, frame = 0
 1336              		@ frame_needed = 0, uses_anonymous_args = 0
 1337              	.LVL102:
 1338 0000 2DE9F041 		push	{r4, r5, r6, r7, r8, lr}
 1339              	.LCFI26:
 1340              		.cfi_def_cfa_offset 24
 1341              		.cfi_offset 4, -24
ARM GAS  C:\Users\Elis\AppData\Local\Temp\ccEZlUNg.s 			page 25


 1342              		.cfi_offset 5, -20
 1343              		.cfi_offset 6, -16
 1344              		.cfi_offset 7, -12
 1345              		.cfi_offset 8, -8
 1346              		.cfi_offset 14, -4
 1347              		.loc 1 344 0
 1348 0004 C569     		ldr	r5, [r0, #28]
 1349              		.loc 1 343 0
 1350 0006 82B0     		sub	sp, sp, #8
 1351              	.LCFI27:
 1352              		.cfi_def_cfa_offset 32
 1353              		.loc 1 343 0
 1354 0008 0446     		mov	r4, r0
 1355 000a 8846     		mov	r8, r1
 1356 000c 1746     		mov	r7, r2
 1357 000e 1E46     		mov	r6, r3
 1358              		.loc 1 344 0
 1359 0010 15B1     		cbz	r5, .L105
 1360              		.loc 1 344 0 is_stmt 0 discriminator 2
 1361 0012 FFF7FEFF 		bl	_gwinDrawStart
 1362              	.LVL103:
 1363 0016 10B9     		cbnz	r0, .L112
 1364              	.L105:
 1365              		.loc 1 347 0 is_stmt 1
 1366 0018 02B0     		add	sp, sp, #8
 1367 001a BDE8F081 		pop	{r4, r5, r6, r7, r8, pc}
 1368              	.L112:
 1369              		.loc 1 345 0
 1370 001e E189     		ldrh	r1, [r4, #14]
 1371 0020 A589     		ldrh	r5, [r4, #12]
 1372 0022 E369     		ldr	r3, [r4, #28]
 1373 0024 A28A     		ldrh	r2, [r4, #20]
 1374 0026 A068     		ldr	r0, [r4, #8]
 1375 0028 0093     		str	r3, [sp, #0]
 1376 002a 7F18     		adds	r7, r7, r1
 1377 002c A844     		add	r8, r8, r5
 1378 002e 0192     		str	r2, [sp, #4]
 1379 0030 0FFA88F1 		sxth	r1, r8
 1380 0034 3AB2     		sxth	r2, r7
 1381 0036 3346     		mov	r3, r6
 1382 0038 FFF7FEFF 		bl	gdispGDrawString
 1383              	.LVL104:
 1384              		.loc 1 346 0
 1385 003c 2046     		mov	r0, r4
 1386              		.loc 1 347 0
 1387 003e 02B0     		add	sp, sp, #8
 1388 0040 BDE8F041 		pop	{r4, r5, r6, r7, r8, lr}
 1389              		.loc 1 346 0
 1390 0044 FFF7FEBF 		b	_gwinDrawEnd
 1391              	.LVL105:
 1392              		.cfi_endproc
 1393              	.LFE145:
 1394              		.size	gwinDrawString, .-gwinDrawString
 1395 0048 AFF30080 		.section	.text.gwinFillString,"ax",%progbits
 1395      AFF30080 
 1396              		.align	2
 1397              		.p2align 4,,15
ARM GAS  C:\Users\Elis\AppData\Local\Temp\ccEZlUNg.s 			page 26


 1398              		.global	gwinFillString
 1399              		.thumb
 1400              		.thumb_func
 1401              		.type	gwinFillString, %function
 1402              	gwinFillString:
 1403              	.LFB146:
 1404              		.loc 1 349 0
 1405              		.cfi_startproc
 1406              		@ args = 0, pretend = 0, frame = 0
 1407              		@ frame_needed = 0, uses_anonymous_args = 0
 1408              	.LVL106:
 1409 0000 2DE9F041 		push	{r4, r5, r6, r7, r8, lr}
 1410              	.LCFI28:
 1411              		.cfi_def_cfa_offset 24
 1412              		.cfi_offset 4, -24
 1413              		.cfi_offset 5, -20
 1414              		.cfi_offset 6, -16
 1415              		.cfi_offset 7, -12
 1416              		.cfi_offset 8, -8
 1417              		.cfi_offset 14, -4
 1418              		.loc 1 350 0
 1419 0004 C569     		ldr	r5, [r0, #28]
 1420              		.loc 1 349 0
 1421 0006 84B0     		sub	sp, sp, #16
 1422              	.LCFI29:
 1423              		.cfi_def_cfa_offset 40
 1424              		.loc 1 349 0
 1425 0008 0446     		mov	r4, r0
 1426 000a 8846     		mov	r8, r1
 1427 000c 1746     		mov	r7, r2
 1428 000e 1E46     		mov	r6, r3
 1429              		.loc 1 350 0
 1430 0010 15B1     		cbz	r5, .L113
 1431              		.loc 1 350 0 is_stmt 0 discriminator 2
 1432 0012 FFF7FEFF 		bl	_gwinDrawStart
 1433              	.LVL107:
 1434 0016 10B9     		cbnz	r0, .L120
 1435              	.L113:
 1436              		.loc 1 353 0 is_stmt 1
 1437 0018 04B0     		add	sp, sp, #16
 1438 001a BDE8F081 		pop	{r4, r5, r6, r7, r8, pc}
 1439              	.L120:
 1440              		.loc 1 351 0
 1441 001e B4F80CE0 		ldrh	lr, [r4, #12]
 1442 0022 E589     		ldrh	r5, [r4, #14]
 1443 0024 E369     		ldr	r3, [r4, #28]
 1444 0026 A18A     		ldrh	r1, [r4, #20]
 1445 0028 E28A     		ldrh	r2, [r4, #22]
 1446 002a A068     		ldr	r0, [r4, #8]
 1447 002c 0093     		str	r3, [sp, #0]
 1448 002e F044     		add	r8, r8, lr
 1449 0030 7F19     		adds	r7, r7, r5
 1450 0032 0191     		str	r1, [sp, #4]
 1451 0034 0292     		str	r2, [sp, #8]
 1452 0036 0FFA88F1 		sxth	r1, r8
 1453 003a 3AB2     		sxth	r2, r7
 1454 003c 3346     		mov	r3, r6
ARM GAS  C:\Users\Elis\AppData\Local\Temp\ccEZlUNg.s 			page 27


 1455 003e FFF7FEFF 		bl	gdispGFillString
 1456              	.LVL108:
 1457              		.loc 1 352 0
 1458 0042 2046     		mov	r0, r4
 1459              		.loc 1 353 0
 1460 0044 04B0     		add	sp, sp, #16
 1461 0046 BDE8F041 		pop	{r4, r5, r6, r7, r8, lr}
 1462              		.loc 1 352 0
 1463 004a FFF7FEBF 		b	_gwinDrawEnd
 1464              	.LVL109:
 1465              		.cfi_endproc
 1466              	.LFE146:
 1467              		.size	gwinFillString, .-gwinFillString
 1468 004e 00BF     		.section	.text.gwinDrawStringBox,"ax",%progbits
 1469              		.align	2
 1470              		.p2align 4,,15
 1471              		.global	gwinDrawStringBox
 1472              		.thumb
 1473              		.thumb_func
 1474              		.type	gwinDrawStringBox, %function
 1475              	gwinDrawStringBox:
 1476              	.LFB147:
 1477              		.loc 1 355 0
 1478              		.cfi_startproc
 1479              		@ args = 12, pretend = 0, frame = 0
 1480              		@ frame_needed = 0, uses_anonymous_args = 0
 1481              	.LVL110:
 1482 0000 2DE9F04F 		push	{r4, r5, r6, r7, r8, r9, sl, fp, lr}
 1483              	.LCFI30:
 1484              		.cfi_def_cfa_offset 36
 1485              		.cfi_offset 4, -36
 1486              		.cfi_offset 5, -32
 1487              		.cfi_offset 6, -28
 1488              		.cfi_offset 7, -24
 1489              		.cfi_offset 8, -20
 1490              		.cfi_offset 9, -16
 1491              		.cfi_offset 10, -12
 1492              		.cfi_offset 11, -8
 1493              		.cfi_offset 14, -4
 1494              		.loc 1 356 0
 1495 0004 C569     		ldr	r5, [r0, #28]
 1496              		.loc 1 355 0
 1497 0006 87B0     		sub	sp, sp, #28
 1498              	.LCFI31:
 1499              		.cfi_def_cfa_offset 64
 1500              		.loc 1 355 0
 1501 0008 0446     		mov	r4, r0
 1502 000a 8B46     		mov	fp, r1
 1503 000c BDF94080 		ldrsh	r8, [sp, #64]
 1504 0010 119F     		ldr	r7, [sp, #68]
 1505 0012 9DF84860 		ldrb	r6, [sp, #72]	@ zero_extendqisi2
 1506 0016 9246     		mov	sl, r2
 1507 0018 9946     		mov	r9, r3
 1508              		.loc 1 356 0
 1509 001a 15B1     		cbz	r5, .L121
 1510              		.loc 1 356 0 is_stmt 0 discriminator 2
 1511 001c FFF7FEFF 		bl	_gwinDrawStart
ARM GAS  C:\Users\Elis\AppData\Local\Temp\ccEZlUNg.s 			page 28


 1512              	.LVL111:
 1513 0020 10B9     		cbnz	r0, .L128
 1514              	.L121:
 1515              		.loc 1 359 0 is_stmt 1
 1516 0022 07B0     		add	sp, sp, #28
 1517 0024 BDE8F08F 		pop	{r4, r5, r6, r7, r8, r9, sl, fp, pc}
 1518              	.L128:
 1519              		.loc 1 357 0
 1520 0028 E189     		ldrh	r1, [r4, #14]
 1521 002a A589     		ldrh	r5, [r4, #12]
 1522 002c E269     		ldr	r2, [r4, #28]
 1523 002e A38A     		ldrh	r3, [r4, #20]
 1524 0030 A068     		ldr	r0, [r4, #8]
 1525 0032 0292     		str	r2, [sp, #8]
 1526 0034 8A44     		add	sl, sl, r1
 1527 0036 AB44     		add	fp, fp, r5
 1528 0038 0393     		str	r3, [sp, #12]
 1529 003a CDF80080 		str	r8, [sp, #0]
 1530 003e 0197     		str	r7, [sp, #4]
 1531 0040 0496     		str	r6, [sp, #16]
 1532 0042 0FFA8BF1 		sxth	r1, fp
 1533 0046 0FFA8AF2 		sxth	r2, sl
 1534 004a 4B46     		mov	r3, r9
 1535 004c FFF7FEFF 		bl	gdispGDrawStringBox
 1536              	.LVL112:
 1537              		.loc 1 358 0
 1538 0050 2046     		mov	r0, r4
 1539              		.loc 1 359 0
 1540 0052 07B0     		add	sp, sp, #28
 1541 0054 BDE8F04F 		pop	{r4, r5, r6, r7, r8, r9, sl, fp, lr}
 1542              		.loc 1 358 0
 1543 0058 FFF7FEBF 		b	_gwinDrawEnd
 1544              	.LVL113:
 1545              		.cfi_endproc
 1546              	.LFE147:
 1547              		.size	gwinDrawStringBox, .-gwinDrawStringBox
 1548 005c AFF30080 		.section	.text.gwinFillStringBox,"ax",%progbits
 1549              		.align	2
 1550              		.p2align 4,,15
 1551              		.global	gwinFillStringBox
 1552              		.thumb
 1553              		.thumb_func
 1554              		.type	gwinFillStringBox, %function
 1555              	gwinFillStringBox:
 1556              	.LFB148:
 1557              		.loc 1 361 0
 1558              		.cfi_startproc
 1559              		@ args = 12, pretend = 0, frame = 0
 1560              		@ frame_needed = 0, uses_anonymous_args = 0
 1561              	.LVL114:
 1562 0000 2DE9F04F 		push	{r4, r5, r6, r7, r8, r9, sl, fp, lr}
 1563              	.LCFI32:
 1564              		.cfi_def_cfa_offset 36
 1565              		.cfi_offset 4, -36
 1566              		.cfi_offset 5, -32
 1567              		.cfi_offset 6, -28
 1568              		.cfi_offset 7, -24
ARM GAS  C:\Users\Elis\AppData\Local\Temp\ccEZlUNg.s 			page 29


 1569              		.cfi_offset 8, -20
 1570              		.cfi_offset 9, -16
 1571              		.cfi_offset 10, -12
 1572              		.cfi_offset 11, -8
 1573              		.cfi_offset 14, -4
 1574              		.loc 1 362 0
 1575 0004 C569     		ldr	r5, [r0, #28]
 1576              		.loc 1 361 0
 1577 0006 87B0     		sub	sp, sp, #28
 1578              	.LCFI33:
 1579              		.cfi_def_cfa_offset 64
 1580              		.loc 1 361 0
 1581 0008 0446     		mov	r4, r0
 1582 000a 8B46     		mov	fp, r1
 1583 000c BDF94080 		ldrsh	r8, [sp, #64]
 1584 0010 119F     		ldr	r7, [sp, #68]
 1585 0012 9DF84860 		ldrb	r6, [sp, #72]	@ zero_extendqisi2
 1586 0016 9246     		mov	sl, r2
 1587 0018 9946     		mov	r9, r3
 1588              		.loc 1 362 0
 1589 001a 15B1     		cbz	r5, .L129
 1590              		.loc 1 362 0 is_stmt 0 discriminator 2
 1591 001c FFF7FEFF 		bl	_gwinDrawStart
 1592              	.LVL115:
 1593 0020 10B9     		cbnz	r0, .L136
 1594              	.L129:
 1595              		.loc 1 365 0 is_stmt 1
 1596 0022 07B0     		add	sp, sp, #28
 1597 0024 BDE8F08F 		pop	{r4, r5, r6, r7, r8, r9, sl, fp, pc}
 1598              	.L136:
 1599              		.loc 1 363 0
 1600 0028 B4F80CE0 		ldrh	lr, [r4, #12]
 1601 002c E589     		ldrh	r5, [r4, #14]
 1602 002e E169     		ldr	r1, [r4, #28]
 1603 0030 A28A     		ldrh	r2, [r4, #20]
 1604 0032 E38A     		ldrh	r3, [r4, #22]
 1605 0034 A068     		ldr	r0, [r4, #8]
 1606 0036 0291     		str	r1, [sp, #8]
 1607 0038 F344     		add	fp, fp, lr
 1608 003a AA44     		add	sl, sl, r5
 1609 003c 0392     		str	r2, [sp, #12]
 1610 003e 0493     		str	r3, [sp, #16]
 1611 0040 CDF80080 		str	r8, [sp, #0]
 1612 0044 0197     		str	r7, [sp, #4]
 1613 0046 0596     		str	r6, [sp, #20]
 1614 0048 0FFA8BF1 		sxth	r1, fp
 1615 004c 0FFA8AF2 		sxth	r2, sl
 1616 0050 4B46     		mov	r3, r9
 1617 0052 FFF7FEFF 		bl	gdispGFillStringBox
 1618              	.LVL116:
 1619              		.loc 1 364 0
 1620 0056 2046     		mov	r0, r4
 1621              		.loc 1 365 0
 1622 0058 07B0     		add	sp, sp, #28
 1623 005a BDE8F04F 		pop	{r4, r5, r6, r7, r8, r9, sl, fp, lr}
 1624              		.loc 1 364 0
 1625 005e FFF7FEBF 		b	_gwinDrawEnd
ARM GAS  C:\Users\Elis\AppData\Local\Temp\ccEZlUNg.s 			page 30


 1626              	.LVL117:
 1627              		.cfi_endproc
 1628              	.LFE148:
 1629              		.size	gwinFillStringBox, .-gwinFillStringBox
 1630 0062 00BFAFF3 		.section	.text.gwinDrawImage,"ax",%progbits
 1630      0080AFF3 
 1630      0080AFF3 
 1630      0080
 1631              		.align	2
 1632              		.p2align 4,,15
 1633              		.global	gwinDrawImage
 1634              		.thumb
 1635              		.thumb_func
 1636              		.type	gwinDrawImage, %function
 1637              	gwinDrawImage:
 1638              	.LFB149:
 1639              		.loc 1 388 0
 1640              		.cfi_startproc
 1641              		@ args = 16, pretend = 0, frame = 0
 1642              		@ frame_needed = 0, uses_anonymous_args = 0
 1643              	.LVL118:
 1644 0000 F0B5     		push	{r4, r5, r6, r7, lr}
 1645              	.LCFI34:
 1646              		.cfi_def_cfa_offset 20
 1647              		.cfi_offset 4, -20
 1648              		.cfi_offset 5, -16
 1649              		.cfi_offset 6, -12
 1650              		.cfi_offset 7, -8
 1651              		.cfi_offset 14, -4
 1652 0002 85B0     		sub	sp, sp, #20
 1653              	.LCFI35:
 1654              		.cfi_def_cfa_offset 40
 1655              		.loc 1 388 0
 1656 0004 0446     		mov	r4, r0
 1657 0006 0D46     		mov	r5, r1
 1658 0008 1746     		mov	r7, r2
 1659 000a 1E46     		mov	r6, r3
 1660              		.loc 1 391 0
 1661 000c FFF7FEFF 		bl	_gwinDrawStart
 1662              	.LVL119:
 1663 0010 18B9     		cbnz	r0, .L140
 1664 0012 0546     		mov	r5, r0
 1665              	.LVL120:
 1666              	.L138:
 1667              		.loc 1 395 0
 1668 0014 2846     		mov	r0, r5
 1669 0016 05B0     		add	sp, sp, #20
 1670 0018 F0BD     		pop	{r4, r5, r6, r7, pc}
 1671              	.LVL121:
 1672              	.L140:
 1673              		.loc 1 392 0
 1674 001a E389     		ldrh	r3, [r4, #14]
 1675 001c BDF92810 		ldrsh	r1, [sp, #40]
 1676 0020 A289     		ldrh	r2, [r4, #12]
 1677 0022 A068     		ldr	r0, [r4, #8]
 1678 0024 0091     		str	r1, [sp, #0]
 1679 0026 F618     		adds	r6, r6, r3
ARM GAS  C:\Users\Elis\AppData\Local\Temp\ccEZlUNg.s 			page 31


 1680 0028 BDF92C30 		ldrsh	r3, [sp, #44]
 1681 002c BDF93010 		ldrsh	r1, [sp, #48]
 1682 0030 0193     		str	r3, [sp, #4]
 1683 0032 BDF93430 		ldrsh	r3, [sp, #52]
 1684 0036 0291     		str	r1, [sp, #8]
 1685 0038 BA18     		adds	r2, r7, r2
 1686 003a 0393     		str	r3, [sp, #12]
 1687 003c 2946     		mov	r1, r5
 1688 003e 12B2     		sxth	r2, r2
 1689 0040 33B2     		sxth	r3, r6
 1690 0042 FFF7FEFF 		bl	gdispGImageDraw
 1691              	.LVL122:
 1692 0046 0546     		mov	r5, r0
 1693              	.LVL123:
 1694              		.loc 1 393 0
 1695 0048 2046     		mov	r0, r4
 1696              	.LVL124:
 1697 004a FFF7FEFF 		bl	_gwinDrawEnd
 1698              	.LVL125:
 1699              		.loc 1 394 0
 1700 004e E1E7     		b	.L138
 1701              		.cfi_endproc
 1702              	.LFE149:
 1703              		.size	gwinDrawImage, .-gwinDrawImage
 1704              		.section	.rodata.basegwinVMT,"a",%progbits
 1705              		.align	2
 1706              		.set	.LANCHOR3,. + 0
 1707              		.type	basegwinVMT, %object
 1708              		.size	basegwinVMT, 20
 1709              	basegwinVMT:
 1710 0000 00000000 		.word	.LC0
 1711 0004 24000000 		.word	36
 1712 0008 00000000 		.word	0
 1713 000c 00000000 		.word	0
 1714 0010 00000000 		.word	0
 1715              		.section	.bss.defaultFont,"aw",%nobits
 1716              		.align	2
 1717              		.set	.LANCHOR2,. + 0
 1718              		.type	defaultFont, %object
 1719              		.size	defaultFont, 4
 1720              	defaultFont:
 1721 0000 00000000 		.space	4
 1722              		.section	.rodata.str1.4,"aMS",%progbits,1
 1723              		.align	2
 1724              	.LC0:
 1725 0000 4757494E 		.ascii	"GWIN\000"
 1725      00
 1726 0005 000000   		.section	.bss.defaultBgColor,"aw",%nobits
 1727              		.align	1
 1728              		.set	.LANCHOR1,. + 0
 1729              		.type	defaultBgColor, %object
 1730              		.size	defaultBgColor, 2
 1731              	defaultBgColor:
 1732 0000 0000     		.space	2
 1733              		.section	.data.defaultFgColor,"aw",%progbits
 1734              		.align	1
 1735              		.set	.LANCHOR0,. + 0
ARM GAS  C:\Users\Elis\AppData\Local\Temp\ccEZlUNg.s 			page 32


 1736              		.type	defaultFgColor, %object
 1737              		.size	defaultFgColor, 2
 1738              	defaultFgColor:
 1739 0000 FFFF     		.short	-1
 1740              		.text
 1741              	.Letext0:
 1742              		.file 2 "c:\\chibistudio\\tools\\gnu tools arm embedded\\4.7 2014q2\\bin\\../lib/gcc/arm-none-eabi
 1743              		.file 3 "c:\\chibistudio\\tools\\gnu tools arm embedded\\4.7 2014q2\\bin\\../lib/gcc/arm-none-eabi
 1744              		.file 4 "../../chibios/os/ports/GCC/ARMCMx/chtypes.h"
 1745              		.file 5 "../../chibios/os/kernel/include/chlists.h"
 1746              		.file 6 "../../chibios/os/kernel/include/chthreads.h"
 1747              		.file 7 "../../chibios/os/ports/GCC/ARMCMx/chcore_v7m.h"
 1748              		.file 8 "../../chibios/os/kernel/include/chmtx.h"
 1749              		.file 9 "../../chibios/os/kernel/include/chmemcore.h"
 1750              		.file 10 "../../chibios/os/kernel/include/chheap.h"
 1751              		.file 11 "../../ugfx/src/gfile/gfile.h"
 1752              		.file 12 "../../ugfx/src/gqueue/gqueue.h"
 1753              		.file 13 "../../ugfx/src/gdisp/gdisp.h"
 1754              		.file 14 "../../ugfx/src/gdisp/gdisp_colors.h"
 1755              		.file 15 "../../ugfx/src/gdisp/gdisp_image.h"
 1756              		.file 16 "../../ugfx/src/gwin/gwin.h"
 1757              		.file 17 "../../ugfx/src/gwin/gwin_class.h"
 1758              		.file 18 "../../ugfx/src/gwin/gwin_widget.h"
 1759              		.file 19 "../../chibios/os/ports/common/ARMCMx/CMSIS/include/core_cm4.h"