ARM GAS  C:\Users\Elis\AppData\Local\Temp\ccLc9hh4.s 			page 1


   1              		.syntax unified
   2              		.cpu cortex-m4
   3              		.fpu softvfp
   4              		.eabi_attribute 20, 1
   5              		.eabi_attribute 21, 1
   6              		.eabi_attribute 23, 3
   7              		.eabi_attribute 24, 1
   8              		.eabi_attribute 25, 1
   9              		.eabi_attribute 26, 1
  10              		.eabi_attribute 30, 2
  11              		.eabi_attribute 34, 1
  12              		.eabi_attribute 18, 4
  13              		.thumb
  14              		.file	"gwin_slider.c"
  15              		.text
  16              	.Ltext0:
  17              		.cfi_sections	.debug_frame
  18              		.section	.text.CalculatePosFromDPos,"ax",%progbits
  19              		.align	2
  20              		.p2align 4,,15
  21              		.thumb
  22              		.thumb_func
  23              		.type	CalculatePosFromDPos, %function
  24              	CalculatePosFromDPos:
  25              	.LFB118:
  26              		.file 1 "../../ugfx/src/gwin/gwin_slider.c"
  27              		.loc 1 22 0
  28              		.cfi_startproc
  29              		@ args = 0, pretend = 0, frame = 0
  30              		@ frame_needed = 0, uses_anonymous_args = 0
  31              		@ link register save eliminated.
  32              	.LVL0:
  33              		.loc 1 26 0
  34 0000 B0F91020 		ldrsh	r2, [r0, #16]
  35 0004 B0F91230 		ldrsh	r3, [r0, #18]
  36 0008 9A42     		cmp	r2, r3
  37              		.loc 1 22 0
  38 000a 30B4     		push	{r4, r5}
  39              	.LCFI0:
  40              		.cfi_def_cfa_offset 8
  41              		.cfi_offset 4, -8
  42              		.cfi_offset 5, -4
  43              		.loc 1 26 0
  44 000c 19DA     		bge	.L2
  45              		.loc 1 27 0
  46 000e B0F93420 		ldrsh	r2, [r0, #52]
  47 0012 591F     		subs	r1, r3, #5
  48 0014 8A42     		cmp	r2, r1
  49 0016 30DA     		bge	.L8
  50              		.loc 1 29 0
  51 0018 042A     		cmp	r2, #4
  52 001a 2BDD     		ble	.L7
  53              		.loc 1 32 0
  54 001c 816B     		ldr	r1, [r0, #56]
  55 001e C56B     		ldr	r5, [r0, #60]
  56              		.loc 1 31 0
  57 0020 03EBD374 		add	r4, r3, r3, lsr #31
ARM GAS  C:\Users\Elis\AppData\Local\Temp\ccLc9hh4.s 			page 2


  58 0024 6010     		asrs	r0, r4, #1
  59              	.LVL1:
  60 0026 441F     		subs	r4, r0, #5
  61              	.LVL2:
  62              		.loc 1 32 0
  63 0028 A942     		cmp	r1, r5
  64              		.loc 1 33 0
  65 002a C8BF     		it	gt
  66 002c 6442     		neggt	r4, r4
  67              	.LVL3:
  68              		.loc 1 34 0
  69 002e 981F     		subs	r0, r3, #6
  70 0030 821A     		subs	r2, r0, r2
  71 0032 681A     		subs	r0, r5, r1
  72 0034 00FB0242 		mla	r2, r0, r2, r4
  73 0038 0B3B     		subs	r3, r3, #11
  74 003a 92FBF3F3 		sdiv	r3, r2, r3
  75 003e C818     		adds	r0, r1, r3
  76 0040 19E0     		b	.L4
  77              	.LVL4:
  78              	.L2:
  79              		.loc 1 36 0
  80 0042 B0F93430 		ldrsh	r3, [r0, #52]
  81 0046 511F     		subs	r1, r2, #5
  82 0048 8B42     		cmp	r3, r1
  83 004a 13DA     		bge	.L7
  84              		.loc 1 38 0
  85 004c 042B     		cmp	r3, #4
  86 004e 14DD     		ble	.L8
  87              		.loc 1 41 0
  88 0050 816B     		ldr	r1, [r0, #56]
  89 0052 C56B     		ldr	r5, [r0, #60]
  90              		.loc 1 40 0
  91 0054 02EBD274 		add	r4, r2, r2, lsr #31
  92 0058 6010     		asrs	r0, r4, #1
  93              	.LVL5:
  94 005a 441F     		subs	r4, r0, #5
  95              	.LVL6:
  96              		.loc 1 41 0
  97 005c A942     		cmp	r1, r5
  98              		.loc 1 42 0
  99 005e C8BF     		it	gt
 100 0060 6442     		neggt	r4, r4
 101              	.LVL7:
 102              		.loc 1 43 0
 103 0062 681A     		subs	r0, r5, r1
 104 0064 053B     		subs	r3, r3, #5
 105 0066 00FB0343 		mla	r3, r0, r3, r4
 106 006a 0B3A     		subs	r2, r2, #11
 107 006c 93FBF2F2 		sdiv	r2, r3, r2
 108 0070 8818     		adds	r0, r1, r2
 109 0072 00E0     		b	.L4
 110              	.LVL8:
 111              	.L7:
 112              		.loc 1 30 0
 113 0074 C06B     		ldr	r0, [r0, #60]
 114              	.LVL9:
ARM GAS  C:\Users\Elis\AppData\Local\Temp\ccLc9hh4.s 			page 3


 115              	.L4:
 116              		.loc 1 44 0
 117 0076 30BC     		pop	{r4, r5}
 118 0078 7047     		bx	lr
 119              	.LVL10:
 120              	.L8:
 121              		.loc 1 28 0
 122 007a 806B     		ldr	r0, [r0, #56]
 123              	.LVL11:
 124 007c FBE7     		b	.L4
 125              		.cfi_endproc
 126              	.LFE118:
 127              		.size	CalculatePosFromDPos, .-CalculatePosFromDPos
 128 007e 00BF     		.section	.text.ResetDisplayPos,"ax",%progbits
 129              		.align	2
 130              		.p2align 4,,15
 131              		.thumb
 132              		.thumb_func
 133              		.type	ResetDisplayPos, %function
 134              	ResetDisplayPos:
 135              	.LFB120:
 136              		.loc 1 88 0
 137              		.cfi_startproc
 138              		@ args = 0, pretend = 0, frame = 0
 139              		@ frame_needed = 0, uses_anonymous_args = 0
 140              		@ link register save eliminated.
 141              	.LVL12:
 142              		.loc 1 89 0
 143 0000 428A     		ldrh	r2, [r0, #18]
 144 0002 B0F91030 		ldrsh	r3, [r0, #16]
 145 0006 11B2     		sxth	r1, r2
 146 0008 8B42     		cmp	r3, r1
 147              		.loc 1 88 0
 148 000a 30B4     		push	{r4, r5}
 149              	.LCFI1:
 150              		.cfi_def_cfa_offset 8
 151              		.cfi_offset 4, -8
 152              		.cfi_offset 5, -4
 153              		.loc 1 89 0
 154 000c 0CDB     		blt	.L14
 155              		.loc 1 92 0
 156 000e 826B     		ldr	r2, [r0, #56]
 157 0010 046C     		ldr	r4, [r0, #64]
 158 0012 C16B     		ldr	r1, [r0, #60]
 159 0014 A41A     		subs	r4, r4, r2
 160 0016 013B     		subs	r3, r3, #1
 161 0018 04FB03F3 		mul	r3, r4, r3
 162 001c 8A1A     		subs	r2, r1, r2
 163 001e 93FBF2F1 		sdiv	r1, r3, r2
 164 0022 8186     		strh	r1, [r0, #52]	@ movhi
 165              	.L11:
 166              		.loc 1 93 0
 167 0024 30BC     		pop	{r4, r5}
 168 0026 7047     		bx	lr
 169              	.L14:
 170              		.loc 1 90 0
 171 0028 00F13805 		add	r5, r0, #56
ARM GAS  C:\Users\Elis\AppData\Local\Temp\ccLc9hh4.s 			page 4


 172 002c 38CD     		ldmia	r5, {r3, r4, r5}
 173 002e 0139     		subs	r1, r1, #1
 174 0030 ED1A     		subs	r5, r5, r3
 175 0032 05FB01F1 		mul	r1, r5, r1
 176 0036 1C1B     		subs	r4, r3, r4
 177 0038 013A     		subs	r2, r2, #1
 178 003a 91FBF4F3 		sdiv	r3, r1, r4
 179 003e D118     		adds	r1, r2, r3
 180 0040 8186     		strh	r1, [r0, #52]	@ movhi
 181 0042 EFE7     		b	.L11
 182              		.cfi_endproc
 183              	.LFE120:
 184              		.size	ResetDisplayPos, .-ResetDisplayPos
 185 0044 AFF30080 		.section	.text.SendSliderEvent,"ax",%progbits
 185      AFF30080 
 185      AFF30080 
 186              		.align	2
 187              		.p2align 4,,15
 188              		.thumb
 189              		.thumb_func
 190              		.type	SendSliderEvent, %function
 191              	SendSliderEvent:
 192              	.LFB119:
 193              		.loc 1 47 0
 194              		.cfi_startproc
 195              		@ args = 0, pretend = 0, frame = 0
 196              		@ frame_needed = 0, uses_anonymous_args = 0
 197              	.LVL13:
 198              		.loc 1 53 0
 199 0000 0429     		cmp	r1, #4
 200              		.loc 1 47 0
 201 0002 2DE9F843 		push	{r3, r4, r5, r6, r7, r8, r9, lr}
 202              	.LCFI2:
 203              		.cfi_def_cfa_offset 32
 204              		.cfi_offset 3, -32
 205              		.cfi_offset 4, -28
 206              		.cfi_offset 5, -24
 207              		.cfi_offset 6, -20
 208              		.cfi_offset 7, -16
 209              		.cfi_offset 8, -12
 210              		.cfi_offset 9, -8
 211              		.cfi_offset 14, -4
 212              		.loc 1 47 0
 213 0006 0F46     		mov	r7, r1
 214 0008 0646     		mov	r6, r0
 215              		.loc 1 53 0
 216 000a 02D0     		beq	.L24
 217              		.loc 1 53 0 is_stmt 0 discriminator 1
 218 000c 8369     		ldr	r3, [r0, #24]
 219 000e DB07     		lsls	r3, r3, #31
 220 0010 28D5     		bpl	.L32
 221              	.L24:
 222              		.loc 1 53 0
 223 0012 0024     		movs	r4, #0
 224              		.loc 1 69 0 is_stmt 1
 225 0014 40F24129 		movw	r9, #577
 226              		.loc 1 80 0
ARM GAS  C:\Users\Elis\AppData\Local\Temp\ccLc9hh4.s 			page 5


 227 0018 4FF00008 		mov	r8, #0
 228              	.LVL14:
 229              	.L30:
 230              		.loc 1 57 0 discriminator 1
 231 001c 2146     		mov	r1, r4
 232 001e 1248     		ldr	r0, .L34
 233 0020 FFF7FEFF 		bl	geventGetSourceListener
 234              	.LVL15:
 235 0024 0446     		mov	r4, r0
 236 0026 DCB1     		cbz	r4, .L33
 237              		.loc 1 61 0
 238 0028 E168     		ldr	r1, [r4, #12]
 239 002a B942     		cmp	r1, r7
 240              		.loc 1 62 0
 241 002c 38BF     		it	cc
 242 002e E760     		strcc	r7, [r4, #12]
 243              		.loc 1 65 0
 244 0030 FFF7FEFF 		bl	geventGetEventBuffer
 245              	.LVL16:
 246 0034 0546     		mov	r5, r0
 247              		.loc 1 77 0
 248 0036 3046     		mov	r0, r6
 249              	.LVL17:
 250              		.loc 1 65 0
 251 0038 002D     		cmp	r5, #0
 252 003a EFD0     		beq	.L30
 253              	.LVL18:
 254              		.loc 1 71 0
 255 003c 227B     		ldrb	r2, [r4, #12]	@ zero_extendqisi2
 256              		.loc 1 69 0
 257 003e A5F80090 		strh	r9, [r5, #0]	@ movhi
 258              		.loc 1 77 0
 259 0042 022A     		cmp	r2, #2
 260              		.loc 1 71 0
 261 0044 2A73     		strb	r2, [r5, #12]
 262              		.loc 1 70 0
 263 0046 6E60     		str	r6, [r5, #4]
 264              		.loc 1 77 0
 265 0048 07D9     		bls	.L19
 266              		.loc 1 77 0 is_stmt 0 discriminator 1
 267 004a 306C     		ldr	r0, [r6, #64]
 268              	.LVL19:
 269              	.L20:
 270              		.loc 1 77 0 discriminator 3
 271 004c A860     		str	r0, [r5, #8]
 272              		.loc 1 81 0 is_stmt 1 discriminator 3
 273 004e 2046     		mov	r0, r4
 274              		.loc 1 80 0 discriminator 3
 275 0050 C4F80C80 		str	r8, [r4, #12]
 276              		.loc 1 81 0 discriminator 3
 277 0054 FFF7FEFF 		bl	geventSendEvent
 278              	.LVL20:
 279 0058 E0E7     		b	.L30
 280              	.LVL21:
 281              	.L19:
 282              		.loc 1 77 0 discriminator 2
 283 005a FFF7FEFF 		bl	CalculatePosFromDPos
ARM GAS  C:\Users\Elis\AppData\Local\Temp\ccLc9hh4.s 			page 6


 284              	.LVL22:
 285 005e F5E7     		b	.L20
 286              	.LVL23:
 287              	.L33:
 288 0060 BDE8F883 		pop	{r3, r4, r5, r6, r7, r8, r9, pc}
 289              	.LVL24:
 290              	.L32:
 291 0064 BDE8F883 		pop	{r3, r4, r5, r6, r7, r8, r9, pc}
 292              	.L35:
 293              		.align	2
 294              	.L34:
 295 0068 00000000 		.word	_gwidgetCreate
 296              		.cfi_endproc
 297              	.LFE119:
 298              		.size	SendSliderEvent, .-SendSliderEvent
 299 006c AFF30080 		.section	.text.MouseMove,"ax",%progbits
 300              		.align	2
 301              		.p2align 4,,15
 302              		.thumb
 303              		.thumb_func
 304              		.type	MouseMove, %function
 305              	MouseMove:
 306              	.LFB124:
 307              		.loc 1 165 0
 308              		.cfi_startproc
 309              		@ args = 0, pretend = 0, frame = 0
 310              		@ frame_needed = 0, uses_anonymous_args = 0
 311              	.LVL25:
 312 0000 70B5     		push	{r4, r5, r6, lr}
 313              	.LCFI3:
 314              		.cfi_def_cfa_offset 16
 315              		.cfi_offset 4, -16
 316              		.cfi_offset 5, -12
 317              		.cfi_offset 6, -8
 318              		.cfi_offset 14, -4
 319              	.LBB10:
 320              	.LBB11:
 321              		.loc 1 98 0
 322 0002 458A     		ldrh	r5, [r0, #18]
 323 0004 068A     		ldrh	r6, [r0, #16]
 324              	.LBE11:
 325              	.LBE10:
 326              		.loc 1 165 0
 327 0006 0446     		mov	r4, r0
 328              	.LVL26:
 329              	.LBB14:
 330              	.LBB12:
 331              		.loc 1 98 0
 332 0008 2BB2     		sxth	r3, r5
 333              	.LVL27:
 334 000a 30B2     		sxth	r0, r6
 335              	.LVL28:
 336 000c 9842     		cmp	r0, r3
 337 000e 0FDA     		bge	.L37
 338              		.loc 1 99 0
 339 0010 002A     		cmp	r2, #0
 340 0012 18DB     		blt	.L41
ARM GAS  C:\Users\Elis\AppData\Local\Temp\ccLc9hh4.s 			page 7


 341 0014 9A42     		cmp	r2, r3
 342 0016 01DB     		blt	.L38
 343 0018 6A1E     		subs	r2, r5, #1
 344              	.LVL29:
 345 001a 12B2     		sxth	r2, r2
 346              	.L38:
 347 001c A286     		strh	r2, [r4, #52]	@ movhi
 348              	.LVL30:
 349              	.L39:
 350              	.LBE12:
 351              	.LBE14:
 352              		.loc 1 172 0
 353 001e 2046     		mov	r0, r4
 354 0020 FFF7FEFF 		bl	_gwinUpdate
 355              	.LVL31:
 356              		.loc 1 175 0
 357 0024 2046     		mov	r0, r4
 358 0026 0121     		movs	r1, #1
 359              		.loc 1 178 0
 360 0028 BDE87040 		pop	{r4, r5, r6, lr}
 361              		.loc 1 175 0
 362 002c FFF7FEBF 		b	SendSliderEvent
 363              	.LVL32:
 364              	.L37:
 365              	.LBB15:
 366              	.LBB13:
 367              		.loc 1 101 0
 368 0030 0029     		cmp	r1, #0
 369 0032 05DB     		blt	.L42
 370 0034 8142     		cmp	r1, r0
 371 0036 01DB     		blt	.L40
 372 0038 711E     		subs	r1, r6, #1
 373              	.LVL33:
 374 003a 09B2     		sxth	r1, r1
 375              	.L40:
 376 003c A186     		strh	r1, [r4, #52]	@ movhi
 377 003e EEE7     		b	.L39
 378              	.LVL34:
 379              	.L42:
 380 0040 0021     		movs	r1, #0
 381              	.LVL35:
 382 0042 A186     		strh	r1, [r4, #52]	@ movhi
 383 0044 EBE7     		b	.L39
 384              	.LVL36:
 385              	.L41:
 386              		.loc 1 99 0
 387 0046 0022     		movs	r2, #0
 388              	.LVL37:
 389 0048 E8E7     		b	.L38
 390              	.LBE13:
 391              	.LBE15:
 392              		.cfi_endproc
 393              	.LFE124:
 394              		.size	MouseMove, .-MouseMove
 395 004a 00BFAFF3 		.section	.text.MouseDown,"ax",%progbits
 395      0080
 396              		.align	2
ARM GAS  C:\Users\Elis\AppData\Local\Temp\ccLc9hh4.s 			page 8


 397              		.p2align 4,,15
 398              		.thumb
 399              		.thumb_func
 400              		.type	MouseDown, %function
 401              	MouseDown:
 402              	.LFB123:
 403              		.loc 1 149 0
 404              		.cfi_startproc
 405              		@ args = 0, pretend = 0, frame = 0
 406              		@ frame_needed = 0, uses_anonymous_args = 0
 407              	.LVL38:
 408 0000 70B5     		push	{r4, r5, r6, lr}
 409              	.LCFI4:
 410              		.cfi_def_cfa_offset 16
 411              		.cfi_offset 4, -16
 412              		.cfi_offset 5, -12
 413              		.cfi_offset 6, -8
 414              		.cfi_offset 14, -4
 415              	.LBB16:
 416              	.LBB17:
 417              		.loc 1 98 0
 418 0002 458A     		ldrh	r5, [r0, #18]
 419 0004 068A     		ldrh	r6, [r0, #16]
 420              	.LBE17:
 421              	.LBE16:
 422              		.loc 1 149 0
 423 0006 0446     		mov	r4, r0
 424              	.LVL39:
 425              	.LBB20:
 426              	.LBB18:
 427              		.loc 1 98 0
 428 0008 2BB2     		sxth	r3, r5
 429              	.LVL40:
 430 000a 30B2     		sxth	r0, r6
 431              	.LVL41:
 432 000c 9842     		cmp	r0, r3
 433 000e 0FDA     		bge	.L44
 434              		.loc 1 99 0
 435 0010 002A     		cmp	r2, #0
 436 0012 18DB     		blt	.L48
 437 0014 9A42     		cmp	r2, r3
 438 0016 01DB     		blt	.L45
 439 0018 6A1E     		subs	r2, r5, #1
 440              	.LVL42:
 441 001a 12B2     		sxth	r2, r2
 442              	.L45:
 443 001c A286     		strh	r2, [r4, #52]	@ movhi
 444              	.LVL43:
 445              	.L46:
 446              	.LBE18:
 447              	.LBE20:
 448              		.loc 1 156 0
 449 001e 2046     		mov	r0, r4
 450 0020 FFF7FEFF 		bl	_gwinUpdate
 451              	.LVL44:
 452              		.loc 1 159 0
 453 0024 2046     		mov	r0, r4
ARM GAS  C:\Users\Elis\AppData\Local\Temp\ccLc9hh4.s 			page 9


 454 0026 0221     		movs	r1, #2
 455              		.loc 1 162 0
 456 0028 BDE87040 		pop	{r4, r5, r6, lr}
 457              		.loc 1 159 0
 458 002c FFF7FEBF 		b	SendSliderEvent
 459              	.LVL45:
 460              	.L44:
 461              	.LBB21:
 462              	.LBB19:
 463              		.loc 1 101 0
 464 0030 0029     		cmp	r1, #0
 465 0032 05DB     		blt	.L49
 466 0034 8142     		cmp	r1, r0
 467 0036 01DB     		blt	.L47
 468 0038 711E     		subs	r1, r6, #1
 469              	.LVL46:
 470 003a 09B2     		sxth	r1, r1
 471              	.L47:
 472 003c A186     		strh	r1, [r4, #52]	@ movhi
 473 003e EEE7     		b	.L46
 474              	.LVL47:
 475              	.L49:
 476 0040 0021     		movs	r1, #0
 477              	.LVL48:
 478 0042 A186     		strh	r1, [r4, #52]	@ movhi
 479 0044 EBE7     		b	.L46
 480              	.LVL49:
 481              	.L48:
 482              		.loc 1 99 0
 483 0046 0022     		movs	r2, #0
 484              	.LVL50:
 485 0048 E8E7     		b	.L45
 486              	.LBE19:
 487              	.LBE21:
 488              		.cfi_endproc
 489              	.LFE123:
 490              		.size	MouseDown, .-MouseDown
 491 004a 00BFAFF3 		.section	.text.gwinSliderDraw_Std,"ax",%progbits
 491      0080
 492              		.align	2
 493              		.p2align 4,,15
 494              		.global	gwinSliderDraw_Std
 495              		.thumb
 496              		.thumb_func
 497              		.type	gwinSliderDraw_Std, %function
 498              	gwinSliderDraw_Std:
 499              	.LFB129:
 500              		.loc 1 340 0
 501              		.cfi_startproc
 502              		@ args = 0, pretend = 0, frame = 0
 503              		@ frame_needed = 0, uses_anonymous_args = 0
 504              	.LVL51:
 505 0000 F0B5     		push	{r4, r5, r6, r7, lr}
 506              	.LCFI5:
 507              		.cfi_def_cfa_offset 20
 508              		.cfi_offset 4, -20
 509              		.cfi_offset 5, -16
ARM GAS  C:\Users\Elis\AppData\Local\Temp\ccLc9hh4.s 			page 10


 510              		.cfi_offset 6, -12
 511              		.cfi_offset 7, -8
 512              		.cfi_offset 14, -4
 513              		.loc 1 345 0
 514 0002 4368     		ldr	r3, [r0, #4]
 515 0004 8A4A     		ldr	r2, .L74
 516 0006 9342     		cmp	r3, r2
 517              		.loc 1 340 0
 518 0008 87B0     		sub	sp, sp, #28
 519              	.LCFI6:
 520              		.cfi_def_cfa_offset 48
 521              		.loc 1 340 0
 522 000a 0446     		mov	r4, r0
 523              		.loc 1 345 0
 524 000c 01D0     		beq	.L71
 525              	.LVL52:
 526              	.L50:
 527              		.loc 1 381 0
 528 000e 07B0     		add	sp, sp, #28
 529 0010 F0BD     		pop	{r4, r5, r6, r7, pc}
 530              	.LVL53:
 531              	.L71:
 532              	.LBB24:
 533              	.LBB25:
 534              		.loc 1 348 0
 535 0012 8069     		ldr	r0, [r0, #24]
 536              	.LVL54:
 537              		.loc 1 353 0
 538 0014 268A     		ldrh	r6, [r4, #16]
 539 0016 678A     		ldrh	r7, [r4, #18]
 540              		.loc 1 349 0
 541 0018 216B     		ldr	r1, [r4, #48]
 542              	.LVL55:
 543              		.loc 1 348 0
 544 001a 0305     		lsls	r3, r0, #20
 545              		.loc 1 353 0
 546 001c 3AB2     		sxth	r2, r7
 547 001e 33B2     		sxth	r3, r6
 548              		.loc 1 349 0
 549 0020 4CBF     		ite	mi
 550 0022 01F11205 		addmi	r5, r1, #18
 551              	.LVL56:
 552              		.loc 1 351 0
 553 0026 01F10A05 		addpl	r5, r1, #10
 554              	.LVL57:
 555              		.loc 1 353 0
 556 002a 9342     		cmp	r3, r2
 557 002c 68DA     		bge	.L54
 558              		.loc 1 354 0
 559 002e A18E     		ldrh	r1, [r4, #52]
 560 0030 501E     		subs	r0, r2, #1
 561 0032 0EB2     		sxth	r6, r1
 562 0034 8642     		cmp	r6, r0
 563 0036 10D0     		beq	.L55
 564              		.loc 1 355 0
 565 0038 8AB2     		uxth	r2, r1
 566 003a BF1A     		subs	r7, r7, r2
ARM GAS  C:\Users\Elis\AppData\Local\Temp\ccLc9hh4.s 			page 11


 567 003c 39B2     		sxth	r1, r7
 568 003e E789     		ldrh	r7, [r4, #14]
 569 0040 0091     		str	r1, [sp, #0]
 570 0042 EE88     		ldrh	r6, [r5, #6]
 571 0044 B4F90C10 		ldrsh	r1, [r4, #12]
 572 0048 A068     		ldr	r0, [r4, #8]
 573 004a 0196     		str	r6, [sp, #4]
 574 004c D219     		adds	r2, r2, r7
 575 004e 12B2     		sxth	r2, r2
 576 0050 FFF7FEFF 		bl	gdispGFillArea
 577              	.LVL58:
 578 0054 A18E     		ldrh	r1, [r4, #52]
 579 0056 B4F91030 		ldrsh	r3, [r4, #16]
 580              	.L55:
 581              		.loc 1 356 0
 582 005a 0029     		cmp	r1, #0
 583 005c 40F0A580 		bne	.L72
 584              	.L56:
 585              		.loc 1 358 0
 586 0060 B4F91220 		ldrsh	r2, [r4, #18]
 587 0064 A068     		ldr	r0, [r4, #8]
 588 0066 0092     		str	r2, [sp, #0]
 589 0068 6F88     		ldrh	r7, [r5, #2]
 590 006a B4F90C10 		ldrsh	r1, [r4, #12]
 591 006e B4F90E20 		ldrsh	r2, [r4, #14]
 592 0072 0197     		str	r7, [sp, #4]
 593 0074 FFF7FEFF 		bl	gdispGDrawBox
 594              	.LVL59:
 595              		.loc 1 359 0
 596 0078 A68E     		ldrh	r6, [r4, #52]
 597 007a E289     		ldrh	r2, [r4, #14]
 598 007c A189     		ldrh	r1, [r4, #12]
 599 007e 238A     		ldrh	r3, [r4, #16]
 600 0080 A068     		ldr	r0, [r4, #8]
 601 0082 B718     		adds	r7, r6, r2
 602 0084 3AB2     		sxth	r2, r7
 603 0086 0092     		str	r2, [sp, #0]
 604 0088 CB18     		adds	r3, r1, r3
 605 008a 6E88     		ldrh	r6, [r5, #2]
 606 008c 5F1E     		subs	r7, r3, #1
 607 008e 09B2     		sxth	r1, r1
 608 0090 3BB2     		sxth	r3, r7
 609 0092 0196     		str	r6, [sp, #4]
 610 0094 FFF7FEFF 		bl	gdispGDrawLine
 611              	.LVL60:
 612              		.loc 1 360 0
 613 0098 A38E     		ldrh	r3, [r4, #52]
 614 009a 19B2     		sxth	r1, r3
 615 009c 0129     		cmp	r1, #1
 616 009e 11DD     		ble	.L57
 617              		.loc 1 361 0
 618 00a0 E289     		ldrh	r2, [r4, #14]
 619 00a2 A189     		ldrh	r1, [r4, #12]
 620 00a4 268A     		ldrh	r6, [r4, #16]
 621 00a6 A068     		ldr	r0, [r4, #8]
 622 00a8 D318     		adds	r3, r2, r3
 623 00aa 9F1E     		subs	r7, r3, #2
ARM GAS  C:\Users\Elis\AppData\Local\Temp\ccLc9hh4.s 			page 12


 624 00ac 3AB2     		sxth	r2, r7
 625 00ae 0092     		str	r2, [sp, #0]
 626 00b0 8B19     		adds	r3, r1, r6
 627 00b2 6E88     		ldrh	r6, [r5, #2]
 628 00b4 5F1E     		subs	r7, r3, #1
 629 00b6 09B2     		sxth	r1, r1
 630 00b8 3BB2     		sxth	r3, r7
 631 00ba 0196     		str	r6, [sp, #4]
 632 00bc FFF7FEFF 		bl	gdispGDrawLine
 633              	.LVL61:
 634 00c0 A38E     		ldrh	r3, [r4, #52]
 635 00c2 19B2     		sxth	r1, r3
 636              	.L57:
 637              		.loc 1 362 0
 638 00c4 628A     		ldrh	r2, [r4, #18]
 639 00c6 10B2     		sxth	r0, r2
 640 00c8 461E     		subs	r6, r0, #1
 641 00ca 8E42     		cmp	r6, r1
 642 00cc 00F39D80 		bgt	.L58
 643 00d0 238A     		ldrh	r3, [r4, #16]
 644              	.L59:
 645              		.loc 1 378 0
 646 00d2 616A     		ldr	r1, [r4, #36]
 647 00d4 E069     		ldr	r0, [r4, #28]
 648 00d6 A789     		ldrh	r7, [r4, #12]
 649 00d8 E689     		ldrh	r6, [r4, #14]
 650 00da 0191     		str	r1, [sp, #4]
 651 00dc 023A     		subs	r2, r2, #2
 652 00de 12B2     		sxth	r2, r2
 653 00e0 0092     		str	r2, [sp, #0]
 654 00e2 0290     		str	r0, [sp, #8]
 655 00e4 2988     		ldrh	r1, [r5, #0]
 656 00e6 A068     		ldr	r0, [r4, #8]
 657 00e8 0391     		str	r1, [sp, #12]
 658 00ea 721C     		adds	r2, r6, #1
 659 00ec 791C     		adds	r1, r7, #1
 660 00ee 023B     		subs	r3, r3, #2
 661 00f0 0124     		movs	r4, #1
 662              	.LVL62:
 663 00f2 0494     		str	r4, [sp, #16]
 664 00f4 09B2     		sxth	r1, r1
 665 00f6 12B2     		sxth	r2, r2
 666 00f8 1BB2     		sxth	r3, r3
 667 00fa FFF7FEFF 		bl	gdispGDrawStringBox
 668              	.LVL63:
 669 00fe 86E7     		b	.L50
 670              	.LVL64:
 671              	.L54:
 672              		.loc 1 367 0
 673 0100 A78E     		ldrh	r7, [r4, #52]
 674 0102 013B     		subs	r3, r3, #1
 675 0104 38B2     		sxth	r0, r7
 676 0106 9842     		cmp	r0, r3
 677 0108 12D0     		beq	.L60
 678              		.loc 1 368 0
 679 010a 0092     		str	r2, [sp, #0]
 680 010c B4F80CE0 		ldrh	lr, [r4, #12]
ARM GAS  C:\Users\Elis\AppData\Local\Temp\ccLc9hh4.s 			page 13


 681 0110 0B89     		ldrh	r3, [r1, #8]
 682 0112 B4F90E20 		ldrsh	r2, [r4, #14]
 683 0116 A068     		ldr	r0, [r4, #8]
 684 0118 0193     		str	r3, [sp, #4]
 685 011a BFB2     		uxth	r7, r7
 686 011c 07EB0E01 		add	r1, r7, lr
 687 0120 F61B     		subs	r6, r6, r7
 688 0122 09B2     		sxth	r1, r1
 689 0124 33B2     		sxth	r3, r6
 690 0126 FFF7FEFF 		bl	gdispGFillArea
 691              	.LVL65:
 692 012a A78E     		ldrh	r7, [r4, #52]
 693 012c B4F91220 		ldrsh	r2, [r4, #18]
 694              	.L60:
 695              		.loc 1 369 0
 696 0130 002F     		cmp	r7, #0
 697 0132 5CD1     		bne	.L73
 698              	.L61:
 699              		.loc 1 371 0
 700 0134 0092     		str	r2, [sp, #0]
 701 0136 6E88     		ldrh	r6, [r5, #2]
 702 0138 A068     		ldr	r0, [r4, #8]
 703 013a B4F90C10 		ldrsh	r1, [r4, #12]
 704 013e B4F90E20 		ldrsh	r2, [r4, #14]
 705 0142 B4F91030 		ldrsh	r3, [r4, #16]
 706 0146 0196     		str	r6, [sp, #4]
 707 0148 FFF7FEFF 		bl	gdispGDrawBox
 708              	.LVL66:
 709              		.loc 1 372 0
 710 014c E789     		ldrh	r7, [r4, #14]
 711 014e 638A     		ldrh	r3, [r4, #18]
 712 0150 A189     		ldrh	r1, [r4, #12]
 713 0152 A28E     		ldrh	r2, [r4, #52]
 714 0154 A068     		ldr	r0, [r4, #8]
 715 0156 FE18     		adds	r6, r7, r3
 716 0158 731E     		subs	r3, r6, #1
 717 015a 1EB2     		sxth	r6, r3
 718 015c 0096     		str	r6, [sp, #0]
 719 015e 6B88     		ldrh	r3, [r5, #2]
 720 0160 5218     		adds	r2, r2, r1
 721 0162 11B2     		sxth	r1, r2
 722 0164 0193     		str	r3, [sp, #4]
 723 0166 3AB2     		sxth	r2, r7
 724 0168 0B46     		mov	r3, r1
 725 016a FFF7FEFF 		bl	gdispGDrawLine
 726              	.LVL67:
 727              		.loc 1 373 0
 728 016e A18E     		ldrh	r1, [r4, #52]
 729 0170 0FB2     		sxth	r7, r1
 730 0172 012F     		cmp	r7, #1
 731 0174 12DD     		ble	.L62
 732              		.loc 1 374 0
 733 0176 E789     		ldrh	r7, [r4, #14]
 734 0178 628A     		ldrh	r2, [r4, #18]
 735 017a A689     		ldrh	r6, [r4, #12]
 736 017c A068     		ldr	r0, [r4, #8]
 737 017e BB18     		adds	r3, r7, r2
ARM GAS  C:\Users\Elis\AppData\Local\Temp\ccLc9hh4.s 			page 14


 738 0180 5A1E     		subs	r2, r3, #1
 739 0182 7118     		adds	r1, r6, r1
 740 0184 16B2     		sxth	r6, r2
 741 0186 0096     		str	r6, [sp, #0]
 742 0188 6A88     		ldrh	r2, [r5, #2]
 743 018a 8B1E     		subs	r3, r1, #2
 744 018c 19B2     		sxth	r1, r3
 745 018e 0192     		str	r2, [sp, #4]
 746 0190 0B46     		mov	r3, r1
 747 0192 3AB2     		sxth	r2, r7
 748 0194 FFF7FEFF 		bl	gdispGDrawLine
 749              	.LVL68:
 750 0198 A18E     		ldrh	r1, [r4, #52]
 751 019a 0FB2     		sxth	r7, r1
 752              	.L62:
 753              		.loc 1 375 0
 754 019c 238A     		ldrh	r3, [r4, #16]
 755 019e 18B2     		sxth	r0, r3
 756 01a0 461E     		subs	r6, r0, #1
 757 01a2 BE42     		cmp	r6, r7
 758 01a4 10DC     		bgt	.L63
 759              	.L70:
 760 01a6 628A     		ldrh	r2, [r4, #18]
 761 01a8 93E7     		b	.L59
 762              	.L72:
 763              		.loc 1 357 0
 764 01aa 276B     		ldr	r7, [r4, #48]
 765 01ac 08B2     		sxth	r0, r1
 766 01ae 0090     		str	r0, [sp, #0]
 767 01b0 3E89     		ldrh	r6, [r7, #8]
 768 01b2 A068     		ldr	r0, [r4, #8]
 769 01b4 B4F90C10 		ldrsh	r1, [r4, #12]
 770 01b8 B4F90E20 		ldrsh	r2, [r4, #14]
 771 01bc 0196     		str	r6, [sp, #4]
 772 01be FFF7FEFF 		bl	gdispGFillArea
 773              	.LVL69:
 774 01c2 B4F91030 		ldrsh	r3, [r4, #16]
 775 01c6 4BE7     		b	.L56
 776              	.L63:
 777              		.loc 1 376 0
 778 01c8 E289     		ldrh	r2, [r4, #14]
 779 01ca 638A     		ldrh	r3, [r4, #18]
 780 01cc A789     		ldrh	r7, [r4, #12]
 781 01ce A068     		ldr	r0, [r4, #8]
 782 01d0 D618     		adds	r6, r2, r3
 783 01d2 731E     		subs	r3, r6, #1
 784 01d4 1EB2     		sxth	r6, r3
 785 01d6 0096     		str	r6, [sp, #0]
 786 01d8 0237     		adds	r7, r7, #2
 787 01da 6B88     		ldrh	r3, [r5, #2]
 788 01dc 7918     		adds	r1, r7, r1
 789 01de 09B2     		sxth	r1, r1
 790 01e0 0193     		str	r3, [sp, #4]
 791 01e2 12B2     		sxth	r2, r2
 792 01e4 0B46     		mov	r3, r1
 793 01e6 FFF7FEFF 		bl	gdispGDrawLine
 794              	.LVL70:
ARM GAS  C:\Users\Elis\AppData\Local\Temp\ccLc9hh4.s 			page 15


 795 01ea 238A     		ldrh	r3, [r4, #16]
 796 01ec DBE7     		b	.L70
 797              	.L73:
 798              		.loc 1 370 0
 799 01ee 0092     		str	r2, [sp, #0]
 800 01f0 EB88     		ldrh	r3, [r5, #6]
 801 01f2 B4F90E20 		ldrsh	r2, [r4, #14]
 802 01f6 A068     		ldr	r0, [r4, #8]
 803 01f8 B4F90C10 		ldrsh	r1, [r4, #12]
 804 01fc 0193     		str	r3, [sp, #4]
 805 01fe 3BB2     		sxth	r3, r7
 806 0200 FFF7FEFF 		bl	gdispGFillArea
 807              	.LVL71:
 808 0204 B4F91220 		ldrsh	r2, [r4, #18]
 809 0208 94E7     		b	.L61
 810              	.L58:
 811              		.loc 1 363 0
 812 020a E289     		ldrh	r2, [r4, #14]
 813 020c A789     		ldrh	r7, [r4, #12]
 814 020e 218A     		ldrh	r1, [r4, #16]
 815 0210 A068     		ldr	r0, [r4, #8]
 816 0212 961C     		adds	r6, r2, #2
 817 0214 F318     		adds	r3, r6, r3
 818 0216 1AB2     		sxth	r2, r3
 819 0218 0092     		str	r2, [sp, #0]
 820 021a 7918     		adds	r1, r7, r1
 821 021c 6E88     		ldrh	r6, [r5, #2]
 822 021e 4B1E     		subs	r3, r1, #1
 823 0220 1BB2     		sxth	r3, r3
 824 0222 0196     		str	r6, [sp, #4]
 825 0224 39B2     		sxth	r1, r7
 826 0226 FFF7FEFF 		bl	gdispGDrawLine
 827              	.LVL72:
 828 022a 238A     		ldrh	r3, [r4, #16]
 829 022c 628A     		ldrh	r2, [r4, #18]
 830 022e 50E7     		b	.L59
 831              	.L75:
 832              		.align	2
 833              	.L74:
 834 0230 00000000 		.word	.LANCHOR0
 835              	.LBE25:
 836              	.LBE24:
 837              		.cfi_endproc
 838              	.LFE129:
 839              		.size	gwinSliderDraw_Std, .-gwinSliderDraw_Std
 840 0234 AFF30080 		.section	.text.MouseUp,"ax",%progbits
 840      AFF30080 
 840      AFF30080 
 841              		.align	2
 842              		.p2align 4,,15
 843              		.thumb
 844              		.thumb_func
 845              		.type	MouseUp, %function
 846              	MouseUp:
 847              	.LFB122:
 848              		.loc 1 105 0
 849              		.cfi_startproc
ARM GAS  C:\Users\Elis\AppData\Local\Temp\ccLc9hh4.s 			page 16


 850              		@ args = 0, pretend = 0, frame = 0
 851              		@ frame_needed = 0, uses_anonymous_args = 0
 852              	.LVL73:
 853              		.loc 1 110 0
 854 0000 0029     		cmp	r1, #0
 855              	.LVL74:
 856              		.loc 1 105 0
 857 0002 38B5     		push	{r3, r4, r5, lr}
 858              	.LCFI7:
 859              		.cfi_def_cfa_offset 16
 860              		.cfi_offset 3, -16
 861              		.cfi_offset 4, -12
 862              		.cfi_offset 5, -8
 863              		.cfi_offset 14, -4
 864              		.loc 1 105 0
 865 0004 0446     		mov	r4, r0
 866              		.loc 1 110 0
 867 0006 1CDB     		blt	.L77
 868              		.loc 1 110 0 is_stmt 0 discriminator 1
 869 0008 B0F91030 		ldrsh	r3, [r0, #16]
 870 000c 9942     		cmp	r1, r3
 871 000e 18DA     		bge	.L77
 872 0010 002A     		cmp	r2, #0
 873 0012 16DB     		blt	.L77
 874 0014 B0F91250 		ldrsh	r5, [r0, #18]
 875 0018 AA42     		cmp	r2, r5
 876 001a 12DA     		bge	.L77
 877              	.LVL75:
 878              	.LBB32:
 879              	.LBB33:
 880              		.loc 1 99 0 is_stmt 1
 881 001c AB42     		cmp	r3, r5
 882 001e A8BF     		it	ge
 883 0020 0A46     		movge	r2, r1
 884              	.LVL76:
 885 0022 8286     		strh	r2, [r0, #52]	@ movhi
 886              	.LVL77:
 887              	.LBE33:
 888              	.LBE32:
 889              	.LBB34:
 890              	.LBB35:
 891              		.loc 1 121 0
 892 0024 FFF7FEFF 		bl	CalculatePosFromDPos
 893              	.LVL78:
 894 0028 2064     		str	r0, [r4, #64]
 895              		.loc 1 138 0
 896 002a 2046     		mov	r0, r4
 897 002c FFF7FEFF 		bl	ResetDisplayPos
 898              	.LVL79:
 899              		.loc 1 140 0
 900 0030 2046     		mov	r0, r4
 901 0032 FFF7FEFF 		bl	_gwinUpdate
 902              	.LVL80:
 903              		.loc 1 143 0
 904 0036 2046     		mov	r0, r4
 905 0038 0421     		movs	r1, #4
 906              	.LBE35:
ARM GAS  C:\Users\Elis\AppData\Local\Temp\ccLc9hh4.s 			page 17


 907              	.LBE34:
 908              		.loc 1 146 0
 909 003a BDE83840 		pop	{r3, r4, r5, lr}
 910              	.LBB37:
 911              	.LBB36:
 912              		.loc 1 143 0
 913 003e FFF7FEBF 		b	SendSliderEvent
 914              	.LVL81:
 915              	.L77:
 916              	.LBE36:
 917              	.LBE37:
 918              		.loc 1 112 0
 919 0042 2046     		mov	r0, r4
 920              	.LVL82:
 921 0044 FFF7FEFF 		bl	ResetDisplayPos
 922              	.LVL83:
 923              		.loc 1 113 0
 924 0048 2046     		mov	r0, r4
 925 004a FFF7FEFF 		bl	_gwinUpdate
 926              	.LVL84:
 927              		.loc 1 114 0
 928 004e 2046     		mov	r0, r4
 929 0050 0321     		movs	r1, #3
 930              		.loc 1 146 0
 931 0052 BDE83840 		pop	{r3, r4, r5, lr}
 932              		.loc 1 114 0
 933 0056 FFF7FEBF 		b	SendSliderEvent
 934              	.LVL85:
 935              		.cfi_endproc
 936              	.LFE122:
 937              		.size	MouseUp, .-MouseUp
 938 005a 00BFAFF3 		.section	.text.gwinGSliderCreate,"ax",%progbits
 938      0080
 939              		.align	2
 940              		.p2align 4,,15
 941              		.global	gwinGSliderCreate
 942              		.thumb
 943              		.thumb_func
 944              		.type	gwinGSliderCreate, %function
 945              	gwinGSliderCreate:
 946              	.LFB125:
 947              		.loc 1 272 0
 948              		.cfi_startproc
 949              		@ args = 0, pretend = 0, frame = 0
 950              		@ frame_needed = 0, uses_anonymous_args = 0
 951              	.LVL86:
 952 0000 38B5     		push	{r3, r4, r5, lr}
 953              	.LCFI8:
 954              		.cfi_def_cfa_offset 16
 955              		.cfi_offset 3, -16
 956              		.cfi_offset 4, -12
 957              		.cfi_offset 5, -8
 958              		.cfi_offset 14, -4
 959              		.loc 1 273 0
 960 0002 094B     		ldr	r3, .L86
 961              		.loc 1 272 0
 962 0004 1546     		mov	r5, r2
ARM GAS  C:\Users\Elis\AppData\Local\Temp\ccLc9hh4.s 			page 18


 963              		.loc 1 273 0
 964 0006 FFF7FEFF 		bl	_gwidgetCreate
 965              	.LVL87:
 966 000a 0446     		mov	r4, r0
 967 000c 50B1     		cbz	r0, .L82
 968              		.loc 1 282 0
 969 000e 0023     		movs	r3, #0
 970              		.loc 1 283 0
 971 0010 6422     		movs	r2, #100
 972              		.loc 1 282 0
 973 0012 8363     		str	r3, [r0, #56]
 974              		.loc 1 283 0
 975 0014 C263     		str	r2, [r0, #60]
 976              		.loc 1 284 0
 977 0016 0364     		str	r3, [r0, #64]
 978              		.loc 1 285 0
 979 0018 FFF7FEFF 		bl	ResetDisplayPos
 980              	.LVL88:
 981              		.loc 1 286 0
 982 001c 2046     		mov	r0, r4
 983 001e 297A     		ldrb	r1, [r5, #8]	@ zero_extendqisi2
 984 0020 FFF7FEFF 		bl	gwinSetVisible
 985              	.LVL89:
 986              	.L82:
 987              		.loc 1 288 0
 988 0024 2046     		mov	r0, r4
 989 0026 38BD     		pop	{r3, r4, r5, pc}
 990              	.L87:
 991              		.align	2
 992              	.L86:
 993 0028 00000000 		.word	.LANCHOR0
 994              		.cfi_endproc
 995              	.LFE125:
 996              		.size	gwinGSliderCreate, .-gwinGSliderCreate
 997 002c AFF30080 		.section	.text.gwinSliderSetRange,"ax",%progbits
 998              		.align	2
 999              		.p2align 4,,15
 1000              		.global	gwinSliderSetRange
 1001              		.thumb
 1002              		.thumb_func
 1003              		.type	gwinSliderSetRange, %function
 1004              	gwinSliderSetRange:
 1005              	.LFB126:
 1006              		.loc 1 290 0
 1007              		.cfi_startproc
 1008              		@ args = 0, pretend = 0, frame = 0
 1009              		@ frame_needed = 0, uses_anonymous_args = 0
 1010              		@ link register save eliminated.
 1011              	.LVL90:
 1012 0000 10B4     		push	{r4}
 1013              	.LCFI9:
 1014              		.cfi_def_cfa_offset 4
 1015              		.cfi_offset 4, -4
 1016              		.loc 1 293 0
 1017 0002 4368     		ldr	r3, [r0, #4]
 1018 0004 064C     		ldr	r4, .L92
 1019 0006 A342     		cmp	r3, r4
ARM GAS  C:\Users\Elis\AppData\Local\Temp\ccLc9hh4.s 			page 19


 1020 0008 01D0     		beq	.L91
 1021              		.loc 1 303 0
 1022 000a 10BC     		pop	{r4}
 1023 000c 7047     		bx	lr
 1024              	.L91:
 1025              		.loc 1 296 0
 1026 000e 9142     		cmp	r1, r2
 1027              		.loc 1 297 0
 1028 0010 08BF     		it	eq
 1029 0012 4A1C     		addeq	r2, r1, #1
 1030              	.LVL91:
 1031              		.loc 1 298 0
 1032 0014 8163     		str	r1, [r0, #56]
 1033              		.loc 1 299 0
 1034 0016 C263     		str	r2, [r0, #60]
 1035              		.loc 1 300 0
 1036 0018 0164     		str	r1, [r0, #64]
 1037              		.loc 1 303 0
 1038 001a 10BC     		pop	{r4}
 1039              		.loc 1 301 0
 1040 001c FFF7FEBF 		b	ResetDisplayPos
 1041              	.LVL92:
 1042              	.L93:
 1043              		.align	2
 1044              	.L92:
 1045 0020 00000000 		.word	.LANCHOR0
 1046              		.cfi_endproc
 1047              	.LFE126:
 1048              		.size	gwinSliderSetRange, .-gwinSliderSetRange
 1049 0024 AFF30080 		.section	.text.gwinSliderSetPosition,"ax",%progbits
 1049      AFF30080 
 1049      AFF30080 
 1050              		.align	2
 1051              		.p2align 4,,15
 1052              		.global	gwinSliderSetPosition
 1053              		.thumb
 1054              		.thumb_func
 1055              		.type	gwinSliderSetPosition, %function
 1056              	gwinSliderSetPosition:
 1057              	.LFB127:
 1058              		.loc 1 305 0
 1059              		.cfi_startproc
 1060              		@ args = 0, pretend = 0, frame = 0
 1061              		@ frame_needed = 0, uses_anonymous_args = 0
 1062              	.LVL93:
 1063              		.loc 1 308 0
 1064 0000 4368     		ldr	r3, [r0, #4]
 1065 0002 104A     		ldr	r2, .L105
 1066 0004 9342     		cmp	r3, r2
 1067              		.loc 1 305 0
 1068 0006 10B5     		push	{r4, lr}
 1069              	.LCFI10:
 1070              		.cfi_def_cfa_offset 8
 1071              		.cfi_offset 4, -8
 1072              		.cfi_offset 14, -4
 1073              		.loc 1 305 0
 1074 0008 0446     		mov	r4, r0
ARM GAS  C:\Users\Elis\AppData\Local\Temp\ccLc9hh4.s 			page 20


 1075              		.loc 1 308 0
 1076 000a 00D0     		beq	.L103
 1077 000c 10BD     		pop	{r4, pc}
 1078              	.L103:
 1079              		.loc 1 311 0
 1080 000e 806B     		ldr	r0, [r0, #56]
 1081              	.LVL94:
 1082 0010 E36B     		ldr	r3, [r4, #60]
 1083 0012 9842     		cmp	r0, r3
 1084 0014 0DDD     		ble	.L104
 1085              		.loc 1 316 0
 1086 0016 8842     		cmp	r0, r1
 1087 0018 12DB     		blt	.L102
 1088              		.loc 1 317 0
 1089 001a 8B42     		cmp	r3, r1
 1090 001c ACBF     		ite	ge
 1091 001e 2364     		strge	r3, [r4, #64]
 1092 0020 2164     		strlt	r1, [r4, #64]
 1093              	.L98:
 1094              		.loc 1 320 0
 1095 0022 2046     		mov	r0, r4
 1096 0024 FFF7FEFF 		bl	ResetDisplayPos
 1097              	.LVL95:
 1098              		.loc 1 321 0
 1099 0028 2046     		mov	r0, r4
 1100              		.loc 1 324 0
 1101 002a BDE81040 		pop	{r4, lr}
 1102              		.loc 1 321 0
 1103 002e FFF7FEBF 		b	_gwinUpdate
 1104              	.LVL96:
 1105              	.L104:
 1106              		.loc 1 312 0
 1107 0032 8842     		cmp	r0, r1
 1108 0034 04DC     		bgt	.L102
 1109              		.loc 1 313 0
 1110 0036 8B42     		cmp	r3, r1
 1111 0038 D4BF     		ite	le
 1112 003a 2364     		strle	r3, [r4, #64]
 1113 003c 2164     		strgt	r1, [r4, #64]
 1114 003e F0E7     		b	.L98
 1115              	.L102:
 1116              		.loc 1 316 0 discriminator 1
 1117 0040 2064     		str	r0, [r4, #64]
 1118 0042 EEE7     		b	.L98
 1119              	.L106:
 1120              		.align	2
 1121              	.L105:
 1122 0044 00000000 		.word	.LANCHOR0
 1123              		.cfi_endproc
 1124              	.LFE127:
 1125              		.size	gwinSliderSetPosition, .-gwinSliderSetPosition
 1126 0048 AFF30080 		.section	.text.gwinSliderSendExtendedEvents,"ax",%progbits
 1126      AFF30080 
 1127              		.align	2
 1128              		.p2align 4,,15
 1129              		.global	gwinSliderSendExtendedEvents
 1130              		.thumb
ARM GAS  C:\Users\Elis\AppData\Local\Temp\ccLc9hh4.s 			page 21


 1131              		.thumb_func
 1132              		.type	gwinSliderSendExtendedEvents, %function
 1133              	gwinSliderSendExtendedEvents:
 1134              	.LFB128:
 1135              		.loc 1 326 0
 1136              		.cfi_startproc
 1137              		@ args = 0, pretend = 0, frame = 0
 1138              		@ frame_needed = 0, uses_anonymous_args = 0
 1139              		@ link register save eliminated.
 1140              	.LVL97:
 1141              		.loc 1 327 0
 1142 0000 4368     		ldr	r3, [r0, #4]
 1143 0002 074A     		ldr	r2, .L112
 1144 0004 9342     		cmp	r3, r2
 1145 0006 00D0     		beq	.L110
 1146 0008 7047     		bx	lr
 1147              	.L110:
 1148              		.loc 1 331 0
 1149 000a 8369     		ldr	r3, [r0, #24]
 1150              		.loc 1 330 0
 1151 000c 19B9     		cbnz	r1, .L111
 1152              		.loc 1 333 0
 1153 000e 23F00101 		bic	r1, r3, #1
 1154              	.LVL98:
 1155 0012 8161     		str	r1, [r0, #24]
 1156 0014 7047     		bx	lr
 1157              	.LVL99:
 1158              	.L111:
 1159              		.loc 1 331 0
 1160 0016 43F00102 		orr	r2, r3, #1
 1161 001a 8261     		str	r2, [r0, #24]
 1162 001c 7047     		bx	lr
 1163              	.L113:
 1164 001e 00BF     		.align	2
 1165              	.L112:
 1166 0020 00000000 		.word	.LANCHOR0
 1167              		.cfi_endproc
 1168              	.LFE128:
 1169              		.size	gwinSliderSendExtendedEvents, .-gwinSliderSendExtendedEvents
 1170 0024 AFF30080 		.section	.text.gwinSliderDraw_Image,"ax",%progbits
 1170      AFF30080 
 1170      AFF30080 
 1171              		.align	2
 1172              		.p2align 4,,15
 1173              		.global	gwinSliderDraw_Image
 1174              		.thumb
 1175              		.thumb_func
 1176              		.type	gwinSliderDraw_Image, %function
 1177              	gwinSliderDraw_Image:
 1178              	.LFB130:
 1179              		.loc 1 384 0
 1180              		.cfi_startproc
 1181              		@ args = 0, pretend = 0, frame = 0
 1182              		@ frame_needed = 0, uses_anonymous_args = 0
 1183              	.LVL100:
 1184 0000 2DE9F04F 		push	{r4, r5, r6, r7, r8, r9, sl, fp, lr}
 1185              	.LCFI11:
ARM GAS  C:\Users\Elis\AppData\Local\Temp\ccLc9hh4.s 			page 22


 1186              		.cfi_def_cfa_offset 36
 1187              		.cfi_offset 4, -36
 1188              		.cfi_offset 5, -32
 1189              		.cfi_offset 6, -28
 1190              		.cfi_offset 7, -24
 1191              		.cfi_offset 8, -20
 1192              		.cfi_offset 9, -16
 1193              		.cfi_offset 10, -12
 1194              		.cfi_offset 11, -8
 1195              		.cfi_offset 14, -4
 1196              		.loc 1 390 0
 1197 0004 4368     		ldr	r3, [r0, #4]
 1198 0006 8D4A     		ldr	r2, .L139
 1199 0008 9342     		cmp	r3, r2
 1200              		.loc 1 384 0
 1201 000a 87B0     		sub	sp, sp, #28
 1202              	.LCFI12:
 1203              		.cfi_def_cfa_offset 64
 1204              		.loc 1 384 0
 1205 000c 0446     		mov	r4, r0
 1206 000e 0F46     		mov	r7, r1
 1207              		.loc 1 390 0
 1208 0010 02D0     		beq	.L136
 1209              	.LVL101:
 1210              	.L114:
 1211              		.loc 1 432 0
 1212 0012 07B0     		add	sp, sp, #28
 1213 0014 BDE8F08F 		pop	{r4, r5, r6, r7, r8, r9, sl, fp, pc}
 1214              	.LVL102:
 1215              	.L136:
 1216              		.loc 1 393 0
 1217 0018 8069     		ldr	r0, [r0, #24]
 1218              	.LVL103:
 1219              		.loc 1 398 0
 1220 001a B4F810C0 		ldrh	ip, [r4, #16]
 1221 001e 658A     		ldrh	r5, [r4, #18]
 1222              		.loc 1 394 0
 1223 0020 266B     		ldr	r6, [r4, #48]
 1224              		.loc 1 393 0
 1225 0022 0305     		lsls	r3, r0, #20
 1226              		.loc 1 398 0
 1227 0024 29B2     		sxth	r1, r5
 1228              	.LVL104:
 1229 0026 0FFA8CF3 		sxth	r3, ip
 1230              		.loc 1 394 0
 1231 002a 4CBF     		ite	mi
 1232 002c 06F11209 		addmi	r9, r6, #18
 1233              	.LVL105:
 1234              		.loc 1 396 0
 1235 0030 06F10A09 		addpl	r9, r6, #10
 1236              	.LVL106:
 1237              		.loc 1 398 0
 1238 0034 8B42     		cmp	r3, r1
 1239 0036 47DA     		bge	.L118
 1240              		.loc 1 399 0
 1241 0038 A28E     		ldrh	r2, [r4, #52]
 1242 003a 002A     		cmp	r2, #0
ARM GAS  C:\Users\Elis\AppData\Local\Temp\ccLc9hh4.s 			page 23


 1243 003c 40F0ED80 		bne	.L137
 1244              	.L119:
 1245              		.loc 1 401 0
 1246 0040 0FFA82FE 		sxth	lr, r2
 1247 0044 481E     		subs	r0, r1, #1
 1248 0046 8645     		cmp	lr, r0
 1249 0048 00F0CA80 		beq	.L120
 1250              	.LVL107:
 1251              		.loc 1 402 0
 1252 004c 8E45     		cmp	lr, r1
 1253 004e B7F808C0 		ldrh	ip, [r7, #8]
 1254              	.LVL108:
 1255 0052 80F2C580 		bge	.L120
 1256 0056 E346     		mov	fp, ip
 1257              		.loc 1 408 0
 1258 0058 4FF0000A 		mov	sl, #0
 1259 005c 1FE0     		b	.L124
 1260              	.LVL109:
 1261              	.L138:
 1262              		.loc 1 404 0
 1263 005e 0146     		mov	r1, r0
 1264              	.LVL110:
 1265              	.L122:
 1266              		.loc 1 408 0
 1267 0060 B4F80EE0 		ldrh	lr, [r4, #14]
 1268 0064 B4F90C20 		ldrsh	r2, [r4, #12]
 1269 0068 A068     		ldr	r0, [r4, #8]
 1270 006a 0093     		str	r3, [sp, #0]
 1271 006c C6EB0C06 		rsb	r6, r6, ip
 1272 0070 01EB0E03 		add	r3, r1, lr
 1273 0074 36B2     		sxth	r6, r6
 1274 0076 0FFA8BF1 		sxth	r1, fp
 1275 007a 0191     		str	r1, [sp, #4]
 1276 007c CDF808A0 		str	sl, [sp, #8]
 1277 0080 0396     		str	r6, [sp, #12]
 1278 0082 3946     		mov	r1, r7
 1279 0084 1BB2     		sxth	r3, r3
 1280 0086 FFF7FEFF 		bl	gdispGImageDraw
 1281              	.LVL111:
 1282              		.loc 1 402 0
 1283 008a A28E     		ldrh	r2, [r4, #52]
 1284 008c 0FFA82FE 		sxth	lr, r2
 1285 0090 F045     		cmp	r8, lr
 1286 0092 40F3A180 		ble	.L123
 1287 0096 B7F808C0 		ldrh	ip, [r7, #8]
 1288 009a B4F91030 		ldrsh	r3, [r4, #16]
 1289              	.LVL112:
 1290              	.L124:
 1291              		.loc 1 403 0
 1292 009e 1FFA8BF6 		uxth	r6, fp
 1293 00a2 A91B     		subs	r1, r5, r6
 1294 00a4 88B2     		uxth	r0, r1
 1295 00a6 85B2     		uxth	r5, r0
 1296              	.LVL113:
 1297              		.loc 1 404 0
 1298 00a8 0FFA85F8 		sxth	r8, r5
 1299              		.loc 1 405 0
ARM GAS  C:\Users\Elis\AppData\Local\Temp\ccLc9hh4.s 			page 24


 1300 00ac 91B2     		uxth	r1, r2
 1301              		.loc 1 404 0
 1302 00ae F045     		cmp	r8, lr
 1303              		.loc 1 405 0
 1304 00b0 C1EB000E 		rsb	lr, r1, r0
 1305              		.loc 1 404 0
 1306 00b4 D3DA     		bge	.L138
 1307              		.loc 1 405 0
 1308 00b6 06EB0E05 		add	r5, r6, lr
 1309 00ba AEB2     		uxth	r6, r5
 1310 00bc 1FFA86FB 		uxth	fp, r6
 1311              	.LVL114:
 1312 00c0 1546     		mov	r5, r2
 1313 00c2 0FFA82F8 		sxth	r8, r2
 1314 00c6 CBE7     		b	.L122
 1315              	.LVL115:
 1316              	.L118:
 1317              		.loc 1 416 0
 1318 00c8 B4F834E0 		ldrh	lr, [r4, #52]
 1319 00cc 5D1E     		subs	r5, r3, #1
 1320 00ce 0FFA8EF3 		sxth	r3, lr
 1321 00d2 AB42     		cmp	r3, r5
 1322 00d4 14D0     		beq	.L126
 1323              		.loc 1 417 0
 1324 00d6 0091     		str	r1, [sp, #0]
 1325 00d8 A189     		ldrh	r1, [r4, #12]
 1326 00da 3689     		ldrh	r6, [r6, #8]
 1327 00dc A068     		ldr	r0, [r4, #8]
 1328 00de B4F90E20 		ldrsh	r2, [r4, #14]
 1329 00e2 0196     		str	r6, [sp, #4]
 1330 00e4 1FFA8EFE 		uxth	lr, lr
 1331 00e8 0EEB0105 		add	r5, lr, r1
 1332 00ec CEEB0C03 		rsb	r3, lr, ip
 1333 00f0 29B2     		sxth	r1, r5
 1334 00f2 1BB2     		sxth	r3, r3
 1335 00f4 FFF7FEFF 		bl	gdispGFillArea
 1336              	.LVL116:
 1337 00f8 B4F834E0 		ldrh	lr, [r4, #52]
 1338 00fc B4F91210 		ldrsh	r1, [r4, #18]
 1339              	.L126:
 1340              		.loc 1 418 0
 1341 0100 BEF1000F 		cmp	lr, #0
 1342 0104 2FD0     		beq	.L127
 1343              	.LVL117:
 1344              		.loc 1 419 0
 1345 0106 0FFA8EF5 		sxth	r5, lr
 1346 010a 002D     		cmp	r5, #0
 1347 010c B7F806A0 		ldrh	sl, [r7, #6]
 1348              	.LVL118:
 1349 0110 29DD     		ble	.L127
 1350 0112 0023     		movs	r3, #0
 1351 0114 1846     		mov	r0, r3
 1352 0116 0FFA8AF6 		sxth	r6, sl
 1353              		.loc 1 422 0
 1354 011a 9846     		mov	r8, r3
 1355              	.LVL119:
 1356              	.L131:
ARM GAS  C:\Users\Elis\AppData\Local\Temp\ccLc9hh4.s 			page 25


 1357              		.loc 1 420 0
 1358 011c 8019     		adds	r0, r0, r6
 1359 011e A842     		cmp	r0, r5
 1360              		.loc 1 421 0
 1361 0120 9DB2     		uxth	r5, r3
 1362              		.loc 1 420 0
 1363 0122 05DD     		ble	.L129
 1364              		.loc 1 421 0
 1365 0124 C5EB0E0A 		rsb	sl, r5, lr
 1366 0128 1FFA8AFA 		uxth	sl, sl
 1367              	.LVL120:
 1368 012c 0FFA8AF6 		sxth	r6, sl
 1369              	.LVL121:
 1370              	.L129:
 1371              		.loc 1 422 0
 1372 0130 A289     		ldrh	r2, [r4, #12]
 1373 0132 B4F90E30 		ldrsh	r3, [r4, #14]
 1374 0136 A068     		ldr	r0, [r4, #8]
 1375 0138 0191     		str	r1, [sp, #4]
 1376 013a AA18     		adds	r2, r5, r2
 1377 013c 3946     		mov	r1, r7
 1378 013e 0096     		str	r6, [sp, #0]
 1379 0140 CDF80880 		str	r8, [sp, #8]
 1380 0144 CDF80C80 		str	r8, [sp, #12]
 1381 0148 12B2     		sxth	r2, r2
 1382 014a FFF7FEFF 		bl	gdispGImageDraw
 1383              	.LVL122:
 1384              		.loc 1 419 0
 1385 014e 05EB0A01 		add	r1, r5, sl
 1386 0152 B4F834E0 		ldrh	lr, [r4, #52]
 1387 0156 8BB2     		uxth	r3, r1
 1388              	.LVL123:
 1389 0158 0FFA8EF5 		sxth	r5, lr
 1390 015c 18B2     		sxth	r0, r3
 1391 015e 8542     		cmp	r5, r0
 1392 0160 B4F91210 		ldrsh	r1, [r4, #18]
 1393              	.LVL124:
 1394 0164 DADC     		bgt	.L131
 1395              	.LVL125:
 1396              	.L127:
 1397              		.loc 1 425 0
 1398 0166 0091     		str	r1, [sp, #0]
 1399 0168 B9F80260 		ldrh	r6, [r9, #2]
 1400 016c A068     		ldr	r0, [r4, #8]
 1401 016e B4F90C10 		ldrsh	r1, [r4, #12]
 1402 0172 B4F90E20 		ldrsh	r2, [r4, #14]
 1403 0176 B4F91030 		ldrsh	r3, [r4, #16]
 1404 017a 0196     		str	r6, [sp, #4]
 1405 017c FFF7FEFF 		bl	gdispGDrawBox
 1406              	.LVL126:
 1407              		.loc 1 426 0
 1408 0180 E289     		ldrh	r2, [r4, #14]
 1409 0182 638A     		ldrh	r3, [r4, #18]
 1410 0184 A189     		ldrh	r1, [r4, #12]
 1411 0186 A58E     		ldrh	r5, [r4, #52]
 1412 0188 A068     		ldr	r0, [r4, #8]
 1413 018a D618     		adds	r6, r2, r3
ARM GAS  C:\Users\Elis\AppData\Local\Temp\ccLc9hh4.s 			page 26


 1414 018c 731E     		subs	r3, r6, #1
 1415 018e 1EB2     		sxth	r6, r3
 1416 0190 0096     		str	r6, [sp, #0]
 1417 0192 B9F80230 		ldrh	r3, [r9, #2]
 1418 0196 6D18     		adds	r5, r5, r1
 1419 0198 29B2     		sxth	r1, r5
 1420 019a 0193     		str	r3, [sp, #4]
 1421 019c 12B2     		sxth	r2, r2
 1422 019e 0B46     		mov	r3, r1
 1423 01a0 FFF7FEFF 		bl	gdispGDrawLine
 1424              	.LVL127:
 1425              	.L125:
 1426              		.loc 1 428 0
 1427 01a4 668A     		ldrh	r6, [r4, #18]
 1428 01a6 636A     		ldr	r3, [r4, #36]
 1429 01a8 258A     		ldrh	r5, [r4, #16]
 1430 01aa E069     		ldr	r0, [r4, #28]
 1431 01ac A189     		ldrh	r1, [r4, #12]
 1432 01ae E289     		ldrh	r2, [r4, #14]
 1433 01b0 0193     		str	r3, [sp, #4]
 1434 01b2 B31E     		subs	r3, r6, #2
 1435 01b4 1BB2     		sxth	r3, r3
 1436 01b6 0093     		str	r3, [sp, #0]
 1437 01b8 0290     		str	r0, [sp, #8]
 1438 01ba B9F80030 		ldrh	r3, [r9, #0]
 1439 01be A068     		ldr	r0, [r4, #8]
 1440 01c0 0393     		str	r3, [sp, #12]
 1441 01c2 0131     		adds	r1, r1, #1
 1442 01c4 0132     		adds	r2, r2, #1
 1443 01c6 AB1E     		subs	r3, r5, #2
 1444 01c8 0124     		movs	r4, #1
 1445              	.LVL128:
 1446 01ca 0494     		str	r4, [sp, #16]
 1447 01cc 09B2     		sxth	r1, r1
 1448 01ce 12B2     		sxth	r2, r2
 1449 01d0 1BB2     		sxth	r3, r3
 1450 01d2 FFF7FEFF 		bl	gdispGDrawStringBox
 1451              	.LVL129:
 1452 01d6 1CE7     		b	.L114
 1453              	.LVL130:
 1454              	.L123:
 1455 01d8 B4F91030 		ldrsh	r3, [r4, #16]
 1456 01dc B4F91210 		ldrsh	r1, [r4, #18]
 1457              	.LVL131:
 1458              	.L120:
 1459              		.loc 1 411 0
 1460 01e0 0091     		str	r1, [sp, #0]
 1461 01e2 B9F80250 		ldrh	r5, [r9, #2]
 1462 01e6 A068     		ldr	r0, [r4, #8]
 1463 01e8 B4F90C10 		ldrsh	r1, [r4, #12]
 1464 01ec B4F90E20 		ldrsh	r2, [r4, #14]
 1465 01f0 0195     		str	r5, [sp, #4]
 1466 01f2 FFF7FEFF 		bl	gdispGDrawBox
 1467              	.LVL132:
 1468              		.loc 1 412 0
 1469 01f6 A68E     		ldrh	r6, [r4, #52]
 1470 01f8 E289     		ldrh	r2, [r4, #14]
ARM GAS  C:\Users\Elis\AppData\Local\Temp\ccLc9hh4.s 			page 27


 1471 01fa A189     		ldrh	r1, [r4, #12]
 1472 01fc 238A     		ldrh	r3, [r4, #16]
 1473 01fe A068     		ldr	r0, [r4, #8]
 1474 0200 B518     		adds	r5, r6, r2
 1475 0202 2AB2     		sxth	r2, r5
 1476 0204 0092     		str	r2, [sp, #0]
 1477 0206 CE18     		adds	r6, r1, r3
 1478 0208 B9F80250 		ldrh	r5, [r9, #2]
 1479 020c 731E     		subs	r3, r6, #1
 1480 020e 0195     		str	r5, [sp, #4]
 1481 0210 09B2     		sxth	r1, r1
 1482 0212 1BB2     		sxth	r3, r3
 1483 0214 FFF7FEFF 		bl	gdispGDrawLine
 1484              	.LVL133:
 1485 0218 C4E7     		b	.L125
 1486              	.L137:
 1487              		.loc 1 400 0
 1488 021a 10B2     		sxth	r0, r2
 1489 021c 0090     		str	r0, [sp, #0]
 1490 021e 3689     		ldrh	r6, [r6, #8]
 1491 0220 B4F90C10 		ldrsh	r1, [r4, #12]
 1492 0224 B4F90E20 		ldrsh	r2, [r4, #14]
 1493 0228 A068     		ldr	r0, [r4, #8]
 1494 022a 0196     		str	r6, [sp, #4]
 1495 022c FFF7FEFF 		bl	gdispGFillArea
 1496              	.LVL134:
 1497 0230 658A     		ldrh	r5, [r4, #18]
 1498 0232 A28E     		ldrh	r2, [r4, #52]
 1499 0234 B4F91030 		ldrsh	r3, [r4, #16]
 1500 0238 29B2     		sxth	r1, r5
 1501 023a 01E7     		b	.L119
 1502              	.L140:
 1503              		.align	2
 1504              	.L139:
 1505 023c 00000000 		.word	.LANCHOR0
 1506              		.cfi_endproc
 1507              	.LFE130:
 1508              		.size	gwinSliderDraw_Image, .-gwinSliderDraw_Image
 1509              		.section	.rodata.str1.4,"aMS",%progbits,1
 1510              		.align	2
 1511              	.LC0:
 1512 0000 536C6964 		.ascii	"Slider\000"
 1512      657200
 1513 0007 00       		.section	.rodata.sliderVMT,"a",%progbits
 1514              		.align	2
 1515              		.set	.LANCHOR0,. + 0
 1516              		.type	sliderVMT, %object
 1517              		.size	sliderVMT, 36
 1518              	sliderVMT:
 1519 0000 00000000 		.word	.LC0
 1520 0004 44000000 		.word	68
 1521 0008 00000000 		.word	_gwidgetDestroy
 1522 000c 00000000 		.word	_gwidgetRedraw
 1523 0010 00000000 		.word	0
 1524 0014 00000000 		.word	gwinSliderDraw_Std
 1525 0018 00000000 		.word	MouseDown
 1526 001c 00000000 		.word	MouseUp
ARM GAS  C:\Users\Elis\AppData\Local\Temp\ccLc9hh4.s 			page 28


 1527 0020 00000000 		.word	MouseMove
 1528              		.text
 1529              	.Letext0:
 1530              		.file 2 "c:\\chibistudio\\tools\\gnu tools arm embedded\\4.7 2014q2\\bin\\../lib/gcc/arm-none-eabi
 1531              		.file 3 "c:\\chibistudio\\tools\\gnu tools arm embedded\\4.7 2014q2\\bin\\../lib/gcc/arm-none-eabi
 1532              		.file 4 "../../chibios/os/ports/GCC/ARMCMx/chtypes.h"
 1533              		.file 5 "../../chibios/os/kernel/include/chlists.h"
 1534              		.file 6 "../../chibios/os/kernel/include/chthreads.h"
 1535              		.file 7 "../../chibios/os/ports/GCC/ARMCMx/chcore_v7m.h"
 1536              		.file 8 "../../chibios/os/kernel/include/chsem.h"
 1537              		.file 9 "../../chibios/os/kernel/include/chmtx.h"
 1538              		.file 10 "../../ugfx/src/gos/gos_chibios.h"
 1539              		.file 11 "../../ugfx/src/gfile/gfile.h"
 1540              		.file 12 "../../ugfx/src/gqueue/gqueue.h"
 1541              		.file 13 "../../ugfx/src/gevent/gevent.h"
 1542              		.file 14 "../../ugfx/src/gdisp/gdisp.h"
 1543              		.file 15 "../../ugfx/src/gdisp/gdisp_colors.h"
 1544              		.file 16 "../../ugfx/src/gdisp/gdisp_image.h"
 1545              		.file 17 "../../ugfx/src/gwin/gwin.h"
 1546              		.file 18 "../../ugfx/src/gwin/gwin_class.h"
 1547              		.file 19 "../../ugfx/src/gwin/gwin_widget.h"
 1548              		.file 20 "../../ugfx/src/gwin/gwin_slider.h"
 1549              		.file 21 "../../chibios/os/ports/common/ARMCMx/CMSIS/include/core_cm4.h"