ARM GAS  C:\Users\Elis\AppData\Local\Temp\cciPcAfI.s 			page 1


   1              		.syntax unified
   2              		.cpu cortex-m4
   3              		.fpu softvfp
   4              		.eabi_attribute 20, 1
   5              		.eabi_attribute 21, 1
   6              		.eabi_attribute 23, 3
   7              		.eabi_attribute 24, 1
   8              		.eabi_attribute 25, 1
   9              		.eabi_attribute 26, 1
  10              		.eabi_attribute 30, 2
  11              		.eabi_attribute 34, 1
  12              		.eabi_attribute 18, 4
  13              		.thumb
  14              		.file	"gwin_progressbar.c"
  15              		.text
  16              	.Ltext0:
  17              		.cfi_sections	.debug_frame
  18              		.section	.text.ResetDisplayPos,"ax",%progbits
  19              		.align	2
  20              		.p2align 4,,15
  21              		.thumb
  22              		.thumb_func
  23              		.type	ResetDisplayPos, %function
  24              	ResetDisplayPos:
  25              	.LFB118:
  26              		.file 1 "../../ugfx/src/gwin/gwin_progressbar.c"
  27              		.loc 1 20 0
  28              		.cfi_startproc
  29              		@ args = 0, pretend = 0, frame = 0
  30              		@ frame_needed = 0, uses_anonymous_args = 0
  31              		@ link register save eliminated.
  32              	.LVL0:
  33              		.loc 1 21 0
  34 0000 428A     		ldrh	r2, [r0, #18]
  35 0002 B0F91030 		ldrsh	r3, [r0, #16]
  36 0006 11B2     		sxth	r1, r2
  37 0008 8B42     		cmp	r3, r1
  38              		.loc 1 20 0
  39 000a 30B4     		push	{r4, r5}
  40              	.LCFI0:
  41              		.cfi_def_cfa_offset 8
  42              		.cfi_offset 4, -8
  43              		.cfi_offset 5, -4
  44              		.loc 1 21 0
  45 000c 0CDB     		blt	.L5
  46              		.loc 1 24 0
  47 000e 826B     		ldr	r2, [r0, #56]
  48 0010 446C     		ldr	r4, [r0, #68]
  49 0012 C16B     		ldr	r1, [r0, #60]
  50 0014 A41A     		subs	r4, r4, r2
  51 0016 013B     		subs	r3, r3, #1
  52 0018 04FB03F3 		mul	r3, r4, r3
  53 001c 8A1A     		subs	r2, r1, r2
  54 001e 93FBF2F1 		sdiv	r1, r3, r2
  55 0022 8186     		strh	r1, [r0, #52]	@ movhi
  56              	.L1:
  57              		.loc 1 25 0
ARM GAS  C:\Users\Elis\AppData\Local\Temp\cciPcAfI.s 			page 2


  58 0024 30BC     		pop	{r4, r5}
  59 0026 7047     		bx	lr
  60              	.L5:
  61              		.loc 1 22 0
  62 0028 836B     		ldr	r3, [r0, #56]
  63 002a 456C     		ldr	r5, [r0, #68]
  64 002c C46B     		ldr	r4, [r0, #60]
  65 002e ED1A     		subs	r5, r5, r3
  66 0030 0139     		subs	r1, r1, #1
  67 0032 05FB01F1 		mul	r1, r5, r1
  68 0036 1C1B     		subs	r4, r3, r4
  69 0038 013A     		subs	r2, r2, #1
  70 003a 91FBF4F3 		sdiv	r3, r1, r4
  71 003e D118     		adds	r1, r2, r3
  72 0040 8186     		strh	r1, [r0, #52]	@ movhi
  73 0042 EFE7     		b	.L1
  74              		.cfi_endproc
  75              	.LFE118:
  76              		.size	ResetDisplayPos, .-ResetDisplayPos
  77 0044 AFF30080 		.section	.text._destroy,"ax",%progbits
  77      AFF30080 
  77      AFF30080 
  78              		.align	2
  79              		.p2align 4,,15
  80              		.thumb
  81              		.thumb_func
  82              		.type	_destroy, %function
  83              	_destroy:
  84              	.LFB119:
  85              		.loc 1 28 0
  86              		.cfi_startproc
  87              		@ args = 0, pretend = 0, frame = 0
  88              		@ frame_needed = 0, uses_anonymous_args = 0
  89              		@ link register save eliminated.
  90              	.LVL1:
  91              		.loc 1 35 0
  92              		.loc 1 34 0
  93 0000 FFF7FEBF 		b	_gwidgetDestroy
  94              	.LVL2:
  95              		.cfi_endproc
  96              	.LFE119:
  97              		.size	_destroy, .-_destroy
  98 0004 AFF30080 		.section	.text.gwinProgressbarDraw_Std,"ax",%progbits
  98      AFF30080 
  98      AFF30080 
  99              		.align	2
 100              		.p2align 4,,15
 101              		.global	gwinProgressbarDraw_Std
 102              		.thumb
 103              		.thumb_func
 104              		.type	gwinProgressbarDraw_Std, %function
 105              	gwinProgressbarDraw_Std:
 106              	.LFB126:
 107              		.loc 1 225 0
 108              		.cfi_startproc
 109              		@ args = 0, pretend = 0, frame = 0
 110              		@ frame_needed = 0, uses_anonymous_args = 0
ARM GAS  C:\Users\Elis\AppData\Local\Temp\cciPcAfI.s 			page 3


 111              	.LVL3:
 112 0000 F0B5     		push	{r4, r5, r6, r7, lr}
 113              	.LCFI1:
 114              		.cfi_def_cfa_offset 20
 115              		.cfi_offset 4, -20
 116              		.cfi_offset 5, -16
 117              		.cfi_offset 6, -12
 118              		.cfi_offset 7, -8
 119              		.cfi_offset 14, -4
 120              		.loc 1 231 0
 121 0002 4368     		ldr	r3, [r0, #4]
 122 0004 5B4A     		ldr	r2, .L26
 123 0006 9342     		cmp	r3, r2
 124              		.loc 1 225 0
 125 0008 87B0     		sub	sp, sp, #28
 126              	.LCFI2:
 127              		.cfi_def_cfa_offset 48
 128              		.loc 1 225 0
 129 000a 0446     		mov	r4, r0
 130              		.loc 1 231 0
 131 000c 01D0     		beq	.L23
 132              	.LVL4:
 133              	.L7:
 134              		.loc 1 261 0
 135 000e 07B0     		add	sp, sp, #28
 136 0010 F0BD     		pop	{r4, r5, r6, r7, pc}
 137              	.LVL5:
 138              	.L23:
 139              	.LBB4:
 140              	.LBB5:
 141              		.loc 1 235 0
 142 0012 8069     		ldr	r0, [r0, #24]
 143              	.LVL6:
 144              		.loc 1 241 0
 145 0014 268A     		ldrh	r6, [r4, #16]
 146 0016 678A     		ldrh	r7, [r4, #18]
 147              		.loc 1 236 0
 148 0018 216B     		ldr	r1, [r4, #48]
 149              	.LVL7:
 150              		.loc 1 235 0
 151 001a 0305     		lsls	r3, r0, #20
 152              		.loc 1 241 0
 153 001c 3AB2     		sxth	r2, r7
 154 001e 33B2     		sxth	r3, r6
 155              		.loc 1 236 0
 156 0020 4CBF     		ite	mi
 157 0022 01F11205 		addmi	r5, r1, #18
 158              	.LVL8:
 159              		.loc 1 238 0
 160 0026 01F10A05 		addpl	r5, r1, #10
 161              	.LVL9:
 162              		.loc 1 241 0
 163 002a 9342     		cmp	r3, r2
 164 002c 4CDA     		bge	.L11
 165              		.loc 1 242 0
 166 002e A18E     		ldrh	r1, [r4, #52]
 167 0030 501E     		subs	r0, r2, #1
ARM GAS  C:\Users\Elis\AppData\Local\Temp\cciPcAfI.s 			page 4


 168 0032 0EB2     		sxth	r6, r1
 169 0034 8642     		cmp	r6, r0
 170 0036 10D0     		beq	.L12
 171              		.loc 1 243 0
 172 0038 8AB2     		uxth	r2, r1
 173 003a BF1A     		subs	r7, r7, r2
 174 003c 39B2     		sxth	r1, r7
 175 003e E789     		ldrh	r7, [r4, #14]
 176 0040 0091     		str	r1, [sp, #0]
 177 0042 EE88     		ldrh	r6, [r5, #6]
 178 0044 B4F90C10 		ldrsh	r1, [r4, #12]
 179 0048 A068     		ldr	r0, [r4, #8]
 180 004a 0196     		str	r6, [sp, #4]
 181 004c D219     		adds	r2, r2, r7
 182 004e 12B2     		sxth	r2, r2
 183 0050 FFF7FEFF 		bl	gdispGFillArea
 184              	.LVL10:
 185 0054 A18E     		ldrh	r1, [r4, #52]
 186 0056 B4F91030 		ldrsh	r3, [r4, #16]
 187              	.L12:
 188              		.loc 1 244 0
 189 005a 0029     		cmp	r1, #0
 190 005c 6CD1     		bne	.L24
 191              	.L13:
 192              		.loc 1 246 0
 193 005e B4F91220 		ldrsh	r2, [r4, #18]
 194 0062 A068     		ldr	r0, [r4, #8]
 195 0064 0092     		str	r2, [sp, #0]
 196 0066 6F88     		ldrh	r7, [r5, #2]
 197 0068 B4F90C10 		ldrsh	r1, [r4, #12]
 198 006c B4F90E20 		ldrsh	r2, [r4, #14]
 199 0070 0197     		str	r7, [sp, #4]
 200 0072 FFF7FEFF 		bl	gdispGDrawBox
 201              	.LVL11:
 202              		.loc 1 247 0
 203 0076 A68E     		ldrh	r6, [r4, #52]
 204 0078 E289     		ldrh	r2, [r4, #14]
 205 007a A189     		ldrh	r1, [r4, #12]
 206 007c 238A     		ldrh	r3, [r4, #16]
 207 007e A068     		ldr	r0, [r4, #8]
 208 0080 B718     		adds	r7, r6, r2
 209 0082 3AB2     		sxth	r2, r7
 210 0084 0092     		str	r2, [sp, #0]
 211 0086 CB18     		adds	r3, r1, r3
 212 0088 6E88     		ldrh	r6, [r5, #2]
 213 008a 5F1E     		subs	r7, r3, #1
 214 008c 0196     		str	r6, [sp, #4]
 215 008e 09B2     		sxth	r1, r1
 216 0090 3BB2     		sxth	r3, r7
 217 0092 FFF7FEFF 		bl	gdispGDrawLine
 218              	.LVL12:
 219              	.L14:
 220              		.loc 1 258 0
 221 0096 678A     		ldrh	r7, [r4, #18]
 222 0098 636A     		ldr	r3, [r4, #36]
 223 009a 268A     		ldrh	r6, [r4, #16]
 224 009c E069     		ldr	r0, [r4, #28]
ARM GAS  C:\Users\Elis\AppData\Local\Temp\cciPcAfI.s 			page 5


 225 009e A189     		ldrh	r1, [r4, #12]
 226 00a0 E289     		ldrh	r2, [r4, #14]
 227 00a2 0193     		str	r3, [sp, #4]
 228 00a4 BB1E     		subs	r3, r7, #2
 229 00a6 1BB2     		sxth	r3, r3
 230 00a8 0093     		str	r3, [sp, #0]
 231 00aa 0290     		str	r0, [sp, #8]
 232 00ac 2B88     		ldrh	r3, [r5, #0]
 233 00ae A068     		ldr	r0, [r4, #8]
 234 00b0 0393     		str	r3, [sp, #12]
 235 00b2 0131     		adds	r1, r1, #1
 236 00b4 0132     		adds	r2, r2, #1
 237 00b6 B31E     		subs	r3, r6, #2
 238 00b8 0124     		movs	r4, #1
 239              	.LVL13:
 240 00ba 0494     		str	r4, [sp, #16]
 241 00bc 09B2     		sxth	r1, r1
 242 00be 12B2     		sxth	r2, r2
 243 00c0 1BB2     		sxth	r3, r3
 244 00c2 FFF7FEFF 		bl	gdispGDrawStringBox
 245              	.LVL14:
 246 00c6 A2E7     		b	.L7
 247              	.LVL15:
 248              	.L11:
 249              		.loc 1 251 0
 250 00c8 A78E     		ldrh	r7, [r4, #52]
 251 00ca 013B     		subs	r3, r3, #1
 252 00cc 38B2     		sxth	r0, r7
 253 00ce 9842     		cmp	r0, r3
 254 00d0 12D0     		beq	.L15
 255              		.loc 1 252 0
 256 00d2 0092     		str	r2, [sp, #0]
 257 00d4 B4F80CE0 		ldrh	lr, [r4, #12]
 258 00d8 0B89     		ldrh	r3, [r1, #8]
 259 00da B4F90E20 		ldrsh	r2, [r4, #14]
 260 00de A068     		ldr	r0, [r4, #8]
 261 00e0 0193     		str	r3, [sp, #4]
 262 00e2 BFB2     		uxth	r7, r7
 263 00e4 07EB0E01 		add	r1, r7, lr
 264 00e8 F61B     		subs	r6, r6, r7
 265 00ea 09B2     		sxth	r1, r1
 266 00ec 33B2     		sxth	r3, r6
 267 00ee FFF7FEFF 		bl	gdispGFillArea
 268              	.LVL16:
 269 00f2 A78E     		ldrh	r7, [r4, #52]
 270 00f4 B4F91220 		ldrsh	r2, [r4, #18]
 271              	.L15:
 272              		.loc 1 253 0
 273 00f8 002F     		cmp	r7, #0
 274 00fa 2CD1     		bne	.L25
 275              	.L16:
 276              		.loc 1 255 0
 277 00fc 0092     		str	r2, [sp, #0]
 278 00fe 6E88     		ldrh	r6, [r5, #2]
 279 0100 A068     		ldr	r0, [r4, #8]
 280 0102 B4F90C10 		ldrsh	r1, [r4, #12]
 281 0106 B4F90E20 		ldrsh	r2, [r4, #14]
ARM GAS  C:\Users\Elis\AppData\Local\Temp\cciPcAfI.s 			page 6


 282 010a B4F91030 		ldrsh	r3, [r4, #16]
 283 010e 0196     		str	r6, [sp, #4]
 284 0110 FFF7FEFF 		bl	gdispGDrawBox
 285              	.LVL17:
 286              		.loc 1 256 0
 287 0114 E789     		ldrh	r7, [r4, #14]
 288 0116 638A     		ldrh	r3, [r4, #18]
 289 0118 A189     		ldrh	r1, [r4, #12]
 290 011a A28E     		ldrh	r2, [r4, #52]
 291 011c A068     		ldr	r0, [r4, #8]
 292 011e FE18     		adds	r6, r7, r3
 293 0120 731E     		subs	r3, r6, #1
 294 0122 1EB2     		sxth	r6, r3
 295 0124 0096     		str	r6, [sp, #0]
 296 0126 6B88     		ldrh	r3, [r5, #2]
 297 0128 5218     		adds	r2, r2, r1
 298 012a 11B2     		sxth	r1, r2
 299 012c 0193     		str	r3, [sp, #4]
 300 012e 3AB2     		sxth	r2, r7
 301 0130 0B46     		mov	r3, r1
 302 0132 FFF7FEFF 		bl	gdispGDrawLine
 303              	.LVL18:
 304 0136 AEE7     		b	.L14
 305              	.L24:
 306              		.loc 1 245 0
 307 0138 276B     		ldr	r7, [r4, #48]
 308 013a 08B2     		sxth	r0, r1
 309 013c 0090     		str	r0, [sp, #0]
 310 013e 3E89     		ldrh	r6, [r7, #8]
 311 0140 A068     		ldr	r0, [r4, #8]
 312 0142 B4F90C10 		ldrsh	r1, [r4, #12]
 313 0146 B4F90E20 		ldrsh	r2, [r4, #14]
 314 014a 0196     		str	r6, [sp, #4]
 315 014c FFF7FEFF 		bl	gdispGFillArea
 316              	.LVL19:
 317 0150 B4F91030 		ldrsh	r3, [r4, #16]
 318 0154 83E7     		b	.L13
 319              	.L25:
 320              		.loc 1 254 0
 321 0156 0092     		str	r2, [sp, #0]
 322 0158 EB88     		ldrh	r3, [r5, #6]
 323 015a B4F90E20 		ldrsh	r2, [r4, #14]
 324 015e A068     		ldr	r0, [r4, #8]
 325 0160 B4F90C10 		ldrsh	r1, [r4, #12]
 326 0164 0193     		str	r3, [sp, #4]
 327 0166 3BB2     		sxth	r3, r7
 328 0168 FFF7FEFF 		bl	gdispGFillArea
 329              	.LVL20:
 330 016c B4F91220 		ldrsh	r2, [r4, #18]
 331 0170 C4E7     		b	.L16
 332              	.L27:
 333 0172 00BF     		.align	2
 334              	.L26:
 335 0174 00000000 		.word	.LANCHOR0
 336              	.LBE5:
 337              	.LBE4:
 338              		.cfi_endproc
ARM GAS  C:\Users\Elis\AppData\Local\Temp\cciPcAfI.s 			page 7


 339              	.LFE126:
 340              		.size	gwinProgressbarDraw_Std, .-gwinProgressbarDraw_Std
 341 0178 AFF30080 		.section	.text.gwinGProgressbarCreate,"ax",%progbits
 341      AFF30080 
 342              		.align	2
 343              		.p2align 4,,15
 344              		.global	gwinGProgressbarCreate
 345              		.thumb
 346              		.thumb_func
 347              		.type	gwinGProgressbarCreate, %function
 348              	gwinGProgressbarCreate:
 349              	.LFB120:
 350              		.loc 1 73 0
 351              		.cfi_startproc
 352              		@ args = 0, pretend = 0, frame = 0
 353              		@ frame_needed = 0, uses_anonymous_args = 0
 354              	.LVL21:
 355 0000 38B5     		push	{r3, r4, r5, lr}
 356              	.LCFI3:
 357              		.cfi_def_cfa_offset 16
 358              		.cfi_offset 3, -16
 359              		.cfi_offset 4, -12
 360              		.cfi_offset 5, -8
 361              		.cfi_offset 14, -4
 362              		.loc 1 74 0
 363 0002 0A4B     		ldr	r3, .L33
 364              		.loc 1 73 0
 365 0004 1546     		mov	r5, r2
 366              		.loc 1 74 0
 367 0006 FFF7FEFF 		bl	_gwidgetCreate
 368              	.LVL22:
 369 000a 0446     		mov	r4, r0
 370 000c 60B1     		cbz	r0, .L29
 371              		.loc 1 77 0
 372 000e 0023     		movs	r3, #0
 373              		.loc 1 79 0
 374 0010 0121     		movs	r1, #1
 375              		.loc 1 78 0
 376 0012 6422     		movs	r2, #100
 377              		.loc 1 79 0
 378 0014 0164     		str	r1, [r0, #64]
 379              		.loc 1 77 0
 380 0016 8363     		str	r3, [r0, #56]
 381              		.loc 1 78 0
 382 0018 C263     		str	r2, [r0, #60]
 383              		.loc 1 80 0
 384 001a 4364     		str	r3, [r0, #68]
 385              		.loc 1 86 0
 386 001c FFF7FEFF 		bl	ResetDisplayPos
 387              	.LVL23:
 388              		.loc 1 87 0
 389 0020 2046     		mov	r0, r4
 390 0022 297A     		ldrb	r1, [r5, #8]	@ zero_extendqisi2
 391 0024 FFF7FEFF 		bl	gwinSetVisible
 392              	.LVL24:
 393              	.L29:
 394              		.loc 1 90 0
ARM GAS  C:\Users\Elis\AppData\Local\Temp\cciPcAfI.s 			page 8


 395 0028 2046     		mov	r0, r4
 396 002a 38BD     		pop	{r3, r4, r5, pc}
 397              	.L34:
 398              		.align	2
 399              	.L33:
 400 002c 00000000 		.word	.LANCHOR0
 401              		.cfi_endproc
 402              	.LFE120:
 403              		.size	gwinGProgressbarCreate, .-gwinGProgressbarCreate
 404              		.section	.text.gwinProgressbarSetRange,"ax",%progbits
 405              		.align	2
 406              		.p2align 4,,15
 407              		.global	gwinProgressbarSetRange
 408              		.thumb
 409              		.thumb_func
 410              		.type	gwinProgressbarSetRange, %function
 411              	gwinProgressbarSetRange:
 412              	.LFB121:
 413              		.loc 1 92 0
 414              		.cfi_startproc
 415              		@ args = 0, pretend = 0, frame = 0
 416              		@ frame_needed = 0, uses_anonymous_args = 0
 417              		@ link register save eliminated.
 418              	.LVL25:
 419 0000 10B4     		push	{r4}
 420              	.LCFI4:
 421              		.cfi_def_cfa_offset 4
 422              		.cfi_offset 4, -4
 423              		.loc 1 95 0
 424 0002 4368     		ldr	r3, [r0, #4]
 425 0004 064C     		ldr	r4, .L39
 426 0006 A342     		cmp	r3, r4
 427 0008 01D0     		beq	.L38
 428              		.loc 1 107 0
 429 000a 10BC     		pop	{r4}
 430 000c 7047     		bx	lr
 431              	.L38:
 432              		.loc 1 98 0
 433 000e 9142     		cmp	r1, r2
 434              		.loc 1 99 0
 435 0010 08BF     		it	eq
 436 0012 4A1C     		addeq	r2, r1, #1
 437              	.LVL26:
 438              		.loc 1 100 0
 439 0014 8163     		str	r1, [r0, #56]
 440              		.loc 1 101 0
 441 0016 C263     		str	r2, [r0, #60]
 442              		.loc 1 102 0
 443 0018 4164     		str	r1, [r0, #68]
 444              		.loc 1 107 0
 445 001a 10BC     		pop	{r4}
 446              		.loc 1 104 0
 447 001c FFF7FEBF 		b	ResetDisplayPos
 448              	.LVL27:
 449              	.L40:
 450              		.align	2
 451              	.L39:
ARM GAS  C:\Users\Elis\AppData\Local\Temp\cciPcAfI.s 			page 9


 452 0020 00000000 		.word	.LANCHOR0
 453              		.cfi_endproc
 454              	.LFE121:
 455              		.size	gwinProgressbarSetRange, .-gwinProgressbarSetRange
 456 0024 AFF30080 		.section	.text.gwinProgressbarSetPosition,"ax",%progbits
 456      AFF30080 
 456      AFF30080 
 457              		.align	2
 458              		.p2align 4,,15
 459              		.global	gwinProgressbarSetPosition
 460              		.thumb
 461              		.thumb_func
 462              		.type	gwinProgressbarSetPosition, %function
 463              	gwinProgressbarSetPosition:
 464              	.LFB122:
 465              		.loc 1 109 0
 466              		.cfi_startproc
 467              		@ args = 0, pretend = 0, frame = 0
 468              		@ frame_needed = 0, uses_anonymous_args = 0
 469              	.LVL28:
 470              		.loc 1 112 0
 471 0000 4368     		ldr	r3, [r0, #4]
 472 0002 104A     		ldr	r2, .L52
 473 0004 9342     		cmp	r3, r2
 474              		.loc 1 109 0
 475 0006 10B5     		push	{r4, lr}
 476              	.LCFI5:
 477              		.cfi_def_cfa_offset 8
 478              		.cfi_offset 4, -8
 479              		.cfi_offset 14, -4
 480              		.loc 1 109 0
 481 0008 0446     		mov	r4, r0
 482              		.loc 1 112 0
 483 000a 00D0     		beq	.L50
 484 000c 10BD     		pop	{r4, pc}
 485              	.L50:
 486              		.loc 1 115 0
 487 000e 806B     		ldr	r0, [r0, #56]
 488              	.LVL29:
 489 0010 E36B     		ldr	r3, [r4, #60]
 490 0012 9842     		cmp	r0, r3
 491 0014 0DDD     		ble	.L51
 492              		.loc 1 120 0
 493 0016 8842     		cmp	r0, r1
 494 0018 12DB     		blt	.L49
 495              		.loc 1 121 0
 496 001a 8B42     		cmp	r3, r1
 497 001c ACBF     		ite	ge
 498 001e 6364     		strge	r3, [r4, #68]
 499 0020 6164     		strlt	r1, [r4, #68]
 500              	.L45:
 501              		.loc 1 125 0
 502 0022 2046     		mov	r0, r4
 503 0024 FFF7FEFF 		bl	ResetDisplayPos
 504              	.LVL30:
 505              		.loc 1 126 0
 506 0028 2046     		mov	r0, r4
ARM GAS  C:\Users\Elis\AppData\Local\Temp\cciPcAfI.s 			page 10


 507              		.loc 1 129 0
 508 002a BDE81040 		pop	{r4, lr}
 509              		.loc 1 126 0
 510 002e FFF7FEBF 		b	_gwinUpdate
 511              	.LVL31:
 512              	.L51:
 513              		.loc 1 116 0
 514 0032 8842     		cmp	r0, r1
 515 0034 04DC     		bgt	.L49
 516              		.loc 1 117 0
 517 0036 8B42     		cmp	r3, r1
 518 0038 D4BF     		ite	le
 519 003a 6364     		strle	r3, [r4, #68]
 520 003c 6164     		strgt	r1, [r4, #68]
 521 003e F0E7     		b	.L45
 522              	.L49:
 523              		.loc 1 120 0 discriminator 1
 524 0040 6064     		str	r0, [r4, #68]
 525 0042 EEE7     		b	.L45
 526              	.L53:
 527              		.align	2
 528              	.L52:
 529 0044 00000000 		.word	.LANCHOR0
 530              		.cfi_endproc
 531              	.LFE122:
 532              		.size	gwinProgressbarSetPosition, .-gwinProgressbarSetPosition
 533 0048 AFF30080 		.section	.text.gwinProgressbarSetResolution,"ax",%progbits
 533      AFF30080 
 534              		.align	2
 535              		.p2align 4,,15
 536              		.global	gwinProgressbarSetResolution
 537              		.thumb
 538              		.thumb_func
 539              		.type	gwinProgressbarSetResolution, %function
 540              	gwinProgressbarSetResolution:
 541              	.LFB123:
 542              		.loc 1 131 0
 543              		.cfi_startproc
 544              		@ args = 0, pretend = 0, frame = 0
 545              		@ frame_needed = 0, uses_anonymous_args = 0
 546              		@ link register save eliminated.
 547              	.LVL32:
 548              		.loc 1 134 0
 549 0000 4368     		ldr	r3, [r0, #4]
 550 0002 044A     		ldr	r2, .L59
 551 0004 9342     		cmp	r3, r2
 552 0006 00D0     		beq	.L58
 553 0008 7047     		bx	lr
 554              	.L58:
 555              		.loc 1 138 0
 556 000a 0129     		cmp	r1, #1
 557 000c B8BF     		it	lt
 558 000e 0121     		movlt	r1, #1
 559              	.LVL33:
 560              		.loc 1 140 0
 561 0010 0164     		str	r1, [r0, #64]
 562 0012 7047     		bx	lr
ARM GAS  C:\Users\Elis\AppData\Local\Temp\cciPcAfI.s 			page 11


 563              	.L60:
 564              		.align	2
 565              	.L59:
 566 0014 00000000 		.word	.LANCHOR0
 567              		.cfi_endproc
 568              	.LFE123:
 569              		.size	gwinProgressbarSetResolution, .-gwinProgressbarSetResolution
 570 0018 AFF30080 		.section	.text.gwinProgressbarIncrement,"ax",%progbits
 570      AFF30080 
 571              		.align	2
 572              		.p2align 4,,15
 573              		.global	gwinProgressbarIncrement
 574              		.thumb
 575              		.thumb_func
 576              		.type	gwinProgressbarIncrement, %function
 577              	gwinProgressbarIncrement:
 578              	.LFB124:
 579              		.loc 1 145 0
 580              		.cfi_startproc
 581              		@ args = 0, pretend = 0, frame = 0
 582              		@ frame_needed = 0, uses_anonymous_args = 0
 583              	.LVL34:
 584              		.loc 1 148 0
 585 0000 4368     		ldr	r3, [r0, #4]
 586 0002 0C4A     		ldr	r2, .L66
 587 0004 9342     		cmp	r3, r2
 588              		.loc 1 145 0
 589 0006 10B5     		push	{r4, lr}
 590              	.LCFI6:
 591              		.cfi_def_cfa_offset 8
 592              		.cfi_offset 4, -8
 593              		.cfi_offset 14, -4
 594              		.loc 1 145 0
 595 0008 0446     		mov	r4, r0
 596              		.loc 1 148 0
 597 000a 00D0     		beq	.L65
 598 000c 10BD     		pop	{r4, pc}
 599              	.L65:
 600              		.loc 1 151 0
 601 000e 416C     		ldr	r1, [r0, #68]
 602 0010 C36B     		ldr	r3, [r0, #60]
 603 0012 026C     		ldr	r2, [r0, #64]
 604 0014 581A     		subs	r0, r3, r1
 605              	.LVL35:
 606 0016 9042     		cmp	r0, r2
 607              		.loc 1 152 0
 608 0018 C8BF     		it	gt
 609 001a 8A18     		addgt	r2, r1, r2
 610              		.loc 1 156 0
 611 001c 2046     		mov	r0, r4
 612              		.loc 1 152 0
 613 001e CCBF     		ite	gt
 614 0020 6264     		strgt	r2, [r4, #68]
 615              		.loc 1 154 0
 616 0022 6364     		strle	r3, [r4, #68]
 617              		.loc 1 156 0
 618 0024 FFF7FEFF 		bl	ResetDisplayPos
ARM GAS  C:\Users\Elis\AppData\Local\Temp\cciPcAfI.s 			page 12


 619              	.LVL36:
 620              		.loc 1 157 0
 621 0028 2046     		mov	r0, r4
 622              		.loc 1 160 0
 623 002a BDE81040 		pop	{r4, lr}
 624              		.loc 1 157 0
 625 002e FFF7FEBF 		b	_gwinUpdate
 626              	.LVL37:
 627              	.L67:
 628 0032 00BF     		.align	2
 629              	.L66:
 630 0034 00000000 		.word	.LANCHOR0
 631              		.cfi_endproc
 632              	.LFE124:
 633              		.size	gwinProgressbarIncrement, .-gwinProgressbarIncrement
 634 0038 AFF30080 		.section	.text.gwinProgressbarDecrement,"ax",%progbits
 634      AFF30080 
 635              		.align	2
 636              		.p2align 4,,15
 637              		.global	gwinProgressbarDecrement
 638              		.thumb
 639              		.thumb_func
 640              		.type	gwinProgressbarDecrement, %function
 641              	gwinProgressbarDecrement:
 642              	.LFB125:
 643              		.loc 1 162 0
 644              		.cfi_startproc
 645              		@ args = 0, pretend = 0, frame = 0
 646              		@ frame_needed = 0, uses_anonymous_args = 0
 647              	.LVL38:
 648              		.loc 1 165 0
 649 0000 4368     		ldr	r3, [r0, #4]
 650 0002 0C4A     		ldr	r2, .L73
 651 0004 9342     		cmp	r3, r2
 652              		.loc 1 162 0
 653 0006 10B5     		push	{r4, lr}
 654              	.LCFI7:
 655              		.cfi_def_cfa_offset 8
 656              		.cfi_offset 4, -8
 657              		.cfi_offset 14, -4
 658              		.loc 1 162 0
 659 0008 0446     		mov	r4, r0
 660              		.loc 1 165 0
 661 000a 00D0     		beq	.L72
 662 000c 10BD     		pop	{r4, pc}
 663              	.L72:
 664              		.loc 1 168 0
 665 000e 406C     		ldr	r0, [r0, #68]
 666              	.LVL39:
 667 0010 236C     		ldr	r3, [r4, #64]
 668 0012 9842     		cmp	r0, r3
 669              		.loc 1 169 0
 670 0014 CABF     		itet	gt
 671 0016 A16B     		ldrgt	r1, [r4, #56]
 672              		.loc 1 171 0
 673 0018 A06B     		ldrle	r0, [r4, #56]
 674              		.loc 1 169 0
ARM GAS  C:\Users\Elis\AppData\Local\Temp\cciPcAfI.s 			page 13


 675 001a C1EB0000 		rsbgt	r0, r1, r0
 676              		.loc 1 173 0
 677 001e C11A     		subs	r1, r0, r3
 678 0020 6164     		str	r1, [r4, #68]
 679              		.loc 1 175 0
 680 0022 2046     		mov	r0, r4
 681 0024 FFF7FEFF 		bl	ResetDisplayPos
 682              	.LVL40:
 683              		.loc 1 176 0
 684 0028 2046     		mov	r0, r4
 685              		.loc 1 179 0
 686 002a BDE81040 		pop	{r4, lr}
 687              		.loc 1 176 0
 688 002e FFF7FEBF 		b	_gwinUpdate
 689              	.LVL41:
 690              	.L74:
 691 0032 00BF     		.align	2
 692              	.L73:
 693 0034 00000000 		.word	.LANCHOR0
 694              		.cfi_endproc
 695              	.LFE125:
 696              		.size	gwinProgressbarDecrement, .-gwinProgressbarDecrement
 697 0038 AFF30080 		.section	.text.gwinProgressbarDraw_Image,"ax",%progbits
 697      AFF30080 
 698              		.align	2
 699              		.p2align 4,,15
 700              		.global	gwinProgressbarDraw_Image
 701              		.thumb
 702              		.thumb_func
 703              		.type	gwinProgressbarDraw_Image, %function
 704              	gwinProgressbarDraw_Image:
 705              	.LFB127:
 706              		.loc 1 264 0
 707              		.cfi_startproc
 708              		@ args = 0, pretend = 0, frame = 0
 709              		@ frame_needed = 0, uses_anonymous_args = 0
 710              	.LVL42:
 711 0000 2DE9F04F 		push	{r4, r5, r6, r7, r8, r9, sl, fp, lr}
 712              	.LCFI8:
 713              		.cfi_def_cfa_offset 36
 714              		.cfi_offset 4, -36
 715              		.cfi_offset 5, -32
 716              		.cfi_offset 6, -28
 717              		.cfi_offset 7, -24
 718              		.cfi_offset 8, -20
 719              		.cfi_offset 9, -16
 720              		.cfi_offset 10, -12
 721              		.cfi_offset 11, -8
 722              		.cfi_offset 14, -4
 723              		.loc 1 270 0
 724 0004 4368     		ldr	r3, [r0, #4]
 725 0006 8D4A     		ldr	r2, .L100
 726 0008 9342     		cmp	r3, r2
 727              		.loc 1 264 0
 728 000a 87B0     		sub	sp, sp, #28
 729              	.LCFI9:
 730              		.cfi_def_cfa_offset 64
ARM GAS  C:\Users\Elis\AppData\Local\Temp\cciPcAfI.s 			page 14


 731              		.loc 1 264 0
 732 000c 0446     		mov	r4, r0
 733 000e 0F46     		mov	r7, r1
 734              		.loc 1 270 0
 735 0010 02D0     		beq	.L97
 736              	.LVL43:
 737              	.L75:
 738              		.loc 1 311 0
 739 0012 07B0     		add	sp, sp, #28
 740 0014 BDE8F08F 		pop	{r4, r5, r6, r7, r8, r9, sl, fp, pc}
 741              	.LVL44:
 742              	.L97:
 743              		.loc 1 273 0
 744 0018 8069     		ldr	r0, [r0, #24]
 745              	.LVL45:
 746              		.loc 1 278 0
 747 001a B4F810C0 		ldrh	ip, [r4, #16]
 748 001e 658A     		ldrh	r5, [r4, #18]
 749              		.loc 1 274 0
 750 0020 266B     		ldr	r6, [r4, #48]
 751              		.loc 1 273 0
 752 0022 0305     		lsls	r3, r0, #20
 753              		.loc 1 278 0
 754 0024 29B2     		sxth	r1, r5
 755              	.LVL46:
 756 0026 0FFA8CF3 		sxth	r3, ip
 757              		.loc 1 274 0
 758 002a 4CBF     		ite	mi
 759 002c 06F11209 		addmi	r9, r6, #18
 760              	.LVL47:
 761              		.loc 1 276 0
 762 0030 06F10A09 		addpl	r9, r6, #10
 763              	.LVL48:
 764              		.loc 1 278 0
 765 0034 8B42     		cmp	r3, r1
 766 0036 47DA     		bge	.L79
 767              		.loc 1 279 0
 768 0038 A28E     		ldrh	r2, [r4, #52]
 769 003a 002A     		cmp	r2, #0
 770 003c 40F0ED80 		bne	.L98
 771              	.L80:
 772              		.loc 1 281 0
 773 0040 0FFA82FE 		sxth	lr, r2
 774 0044 481E     		subs	r0, r1, #1
 775 0046 8645     		cmp	lr, r0
 776 0048 00F0CA80 		beq	.L81
 777              	.LVL49:
 778              		.loc 1 282 0
 779 004c 8E45     		cmp	lr, r1
 780 004e B7F808C0 		ldrh	ip, [r7, #8]
 781              	.LVL50:
 782 0052 80F2C580 		bge	.L81
 783 0056 E346     		mov	fp, ip
 784              		.loc 1 288 0
 785 0058 4FF0000A 		mov	sl, #0
 786 005c 1FE0     		b	.L85
 787              	.LVL51:
ARM GAS  C:\Users\Elis\AppData\Local\Temp\cciPcAfI.s 			page 15


 788              	.L99:
 789              		.loc 1 284 0
 790 005e 0146     		mov	r1, r0
 791              	.LVL52:
 792              	.L83:
 793              		.loc 1 288 0
 794 0060 B4F80EE0 		ldrh	lr, [r4, #14]
 795 0064 B4F90C20 		ldrsh	r2, [r4, #12]
 796 0068 A068     		ldr	r0, [r4, #8]
 797 006a 0093     		str	r3, [sp, #0]
 798 006c C6EB0C06 		rsb	r6, r6, ip
 799 0070 01EB0E03 		add	r3, r1, lr
 800 0074 36B2     		sxth	r6, r6
 801 0076 0FFA8BF1 		sxth	r1, fp
 802 007a 0191     		str	r1, [sp, #4]
 803 007c CDF808A0 		str	sl, [sp, #8]
 804 0080 0396     		str	r6, [sp, #12]
 805 0082 3946     		mov	r1, r7
 806 0084 1BB2     		sxth	r3, r3
 807 0086 FFF7FEFF 		bl	gdispGImageDraw
 808              	.LVL53:
 809              		.loc 1 282 0
 810 008a A28E     		ldrh	r2, [r4, #52]
 811 008c 0FFA82FE 		sxth	lr, r2
 812 0090 F045     		cmp	r8, lr
 813 0092 40F3A180 		ble	.L84
 814 0096 B7F808C0 		ldrh	ip, [r7, #8]
 815 009a B4F91030 		ldrsh	r3, [r4, #16]
 816              	.LVL54:
 817              	.L85:
 818              		.loc 1 283 0
 819 009e 1FFA8BF6 		uxth	r6, fp
 820 00a2 A91B     		subs	r1, r5, r6
 821 00a4 88B2     		uxth	r0, r1
 822 00a6 85B2     		uxth	r5, r0
 823              	.LVL55:
 824              		.loc 1 284 0
 825 00a8 0FFA85F8 		sxth	r8, r5
 826              		.loc 1 285 0
 827 00ac 91B2     		uxth	r1, r2
 828              		.loc 1 284 0
 829 00ae F045     		cmp	r8, lr
 830              		.loc 1 285 0
 831 00b0 C1EB000E 		rsb	lr, r1, r0
 832              		.loc 1 284 0
 833 00b4 D3DA     		bge	.L99
 834              		.loc 1 285 0
 835 00b6 06EB0E05 		add	r5, r6, lr
 836 00ba AEB2     		uxth	r6, r5
 837 00bc 1FFA86FB 		uxth	fp, r6
 838              	.LVL56:
 839 00c0 1546     		mov	r5, r2
 840 00c2 0FFA82F8 		sxth	r8, r2
 841 00c6 CBE7     		b	.L83
 842              	.LVL57:
 843              	.L79:
 844              		.loc 1 296 0
ARM GAS  C:\Users\Elis\AppData\Local\Temp\cciPcAfI.s 			page 16


 845 00c8 B4F834E0 		ldrh	lr, [r4, #52]
 846 00cc 5D1E     		subs	r5, r3, #1
 847 00ce 0FFA8EF3 		sxth	r3, lr
 848 00d2 AB42     		cmp	r3, r5
 849 00d4 14D0     		beq	.L87
 850              		.loc 1 297 0
 851 00d6 0091     		str	r1, [sp, #0]
 852 00d8 A189     		ldrh	r1, [r4, #12]
 853 00da 3689     		ldrh	r6, [r6, #8]
 854 00dc A068     		ldr	r0, [r4, #8]
 855 00de B4F90E20 		ldrsh	r2, [r4, #14]
 856 00e2 0196     		str	r6, [sp, #4]
 857 00e4 1FFA8EFE 		uxth	lr, lr
 858 00e8 0EEB0105 		add	r5, lr, r1
 859 00ec CEEB0C03 		rsb	r3, lr, ip
 860 00f0 29B2     		sxth	r1, r5
 861 00f2 1BB2     		sxth	r3, r3
 862 00f4 FFF7FEFF 		bl	gdispGFillArea
 863              	.LVL58:
 864 00f8 B4F834E0 		ldrh	lr, [r4, #52]
 865 00fc B4F91210 		ldrsh	r1, [r4, #18]
 866              	.L87:
 867              		.loc 1 298 0
 868 0100 BEF1000F 		cmp	lr, #0
 869 0104 2FD0     		beq	.L88
 870              	.LVL59:
 871              		.loc 1 299 0
 872 0106 0FFA8EF5 		sxth	r5, lr
 873 010a 002D     		cmp	r5, #0
 874 010c B7F806A0 		ldrh	sl, [r7, #6]
 875              	.LVL60:
 876 0110 29DD     		ble	.L88
 877 0112 0023     		movs	r3, #0
 878 0114 1846     		mov	r0, r3
 879 0116 0FFA8AF6 		sxth	r6, sl
 880              		.loc 1 302 0
 881 011a 9846     		mov	r8, r3
 882              	.LVL61:
 883              	.L92:
 884              		.loc 1 300 0
 885 011c 8019     		adds	r0, r0, r6
 886 011e A842     		cmp	r0, r5
 887              		.loc 1 301 0
 888 0120 9DB2     		uxth	r5, r3
 889              		.loc 1 300 0
 890 0122 05DD     		ble	.L90
 891              		.loc 1 301 0
 892 0124 C5EB0E0A 		rsb	sl, r5, lr
 893 0128 1FFA8AFA 		uxth	sl, sl
 894              	.LVL62:
 895 012c 0FFA8AF6 		sxth	r6, sl
 896              	.LVL63:
 897              	.L90:
 898              		.loc 1 302 0
 899 0130 A289     		ldrh	r2, [r4, #12]
 900 0132 B4F90E30 		ldrsh	r3, [r4, #14]
 901 0136 A068     		ldr	r0, [r4, #8]
ARM GAS  C:\Users\Elis\AppData\Local\Temp\cciPcAfI.s 			page 17


 902 0138 0191     		str	r1, [sp, #4]
 903 013a AA18     		adds	r2, r5, r2
 904 013c 3946     		mov	r1, r7
 905 013e 0096     		str	r6, [sp, #0]
 906 0140 CDF80880 		str	r8, [sp, #8]
 907 0144 CDF80C80 		str	r8, [sp, #12]
 908 0148 12B2     		sxth	r2, r2
 909 014a FFF7FEFF 		bl	gdispGImageDraw
 910              	.LVL64:
 911              		.loc 1 299 0
 912 014e 05EB0A01 		add	r1, r5, sl
 913 0152 B4F834E0 		ldrh	lr, [r4, #52]
 914 0156 8BB2     		uxth	r3, r1
 915              	.LVL65:
 916 0158 0FFA8EF5 		sxth	r5, lr
 917 015c 18B2     		sxth	r0, r3
 918 015e 8542     		cmp	r5, r0
 919 0160 B4F91210 		ldrsh	r1, [r4, #18]
 920              	.LVL66:
 921 0164 DADC     		bgt	.L92
 922              	.LVL67:
 923              	.L88:
 924              		.loc 1 305 0
 925 0166 0091     		str	r1, [sp, #0]
 926 0168 B9F80260 		ldrh	r6, [r9, #2]
 927 016c A068     		ldr	r0, [r4, #8]
 928 016e B4F90C10 		ldrsh	r1, [r4, #12]
 929 0172 B4F90E20 		ldrsh	r2, [r4, #14]
 930 0176 B4F91030 		ldrsh	r3, [r4, #16]
 931 017a 0196     		str	r6, [sp, #4]
 932 017c FFF7FEFF 		bl	gdispGDrawBox
 933              	.LVL68:
 934              		.loc 1 306 0
 935 0180 E289     		ldrh	r2, [r4, #14]
 936 0182 638A     		ldrh	r3, [r4, #18]
 937 0184 A189     		ldrh	r1, [r4, #12]
 938 0186 A58E     		ldrh	r5, [r4, #52]
 939 0188 A068     		ldr	r0, [r4, #8]
 940 018a D618     		adds	r6, r2, r3
 941 018c 731E     		subs	r3, r6, #1
 942 018e 1EB2     		sxth	r6, r3
 943 0190 0096     		str	r6, [sp, #0]
 944 0192 B9F80230 		ldrh	r3, [r9, #2]
 945 0196 6D18     		adds	r5, r5, r1
 946 0198 29B2     		sxth	r1, r5
 947 019a 0193     		str	r3, [sp, #4]
 948 019c 12B2     		sxth	r2, r2
 949 019e 0B46     		mov	r3, r1
 950 01a0 FFF7FEFF 		bl	gdispGDrawLine
 951              	.LVL69:
 952              	.L86:
 953              		.loc 1 308 0
 954 01a4 668A     		ldrh	r6, [r4, #18]
 955 01a6 636A     		ldr	r3, [r4, #36]
 956 01a8 258A     		ldrh	r5, [r4, #16]
 957 01aa E069     		ldr	r0, [r4, #28]
 958 01ac A189     		ldrh	r1, [r4, #12]
ARM GAS  C:\Users\Elis\AppData\Local\Temp\cciPcAfI.s 			page 18


 959 01ae E289     		ldrh	r2, [r4, #14]
 960 01b0 0193     		str	r3, [sp, #4]
 961 01b2 B31E     		subs	r3, r6, #2
 962 01b4 1BB2     		sxth	r3, r3
 963 01b6 0093     		str	r3, [sp, #0]
 964 01b8 0290     		str	r0, [sp, #8]
 965 01ba B9F80030 		ldrh	r3, [r9, #0]
 966 01be A068     		ldr	r0, [r4, #8]
 967 01c0 0393     		str	r3, [sp, #12]
 968 01c2 0131     		adds	r1, r1, #1
 969 01c4 0132     		adds	r2, r2, #1
 970 01c6 AB1E     		subs	r3, r5, #2
 971 01c8 0124     		movs	r4, #1
 972              	.LVL70:
 973 01ca 0494     		str	r4, [sp, #16]
 974 01cc 09B2     		sxth	r1, r1
 975 01ce 12B2     		sxth	r2, r2
 976 01d0 1BB2     		sxth	r3, r3
 977 01d2 FFF7FEFF 		bl	gdispGDrawStringBox
 978              	.LVL71:
 979 01d6 1CE7     		b	.L75
 980              	.LVL72:
 981              	.L84:
 982 01d8 B4F91030 		ldrsh	r3, [r4, #16]
 983 01dc B4F91210 		ldrsh	r1, [r4, #18]
 984              	.LVL73:
 985              	.L81:
 986              		.loc 1 291 0
 987 01e0 0091     		str	r1, [sp, #0]
 988 01e2 B9F80250 		ldrh	r5, [r9, #2]
 989 01e6 A068     		ldr	r0, [r4, #8]
 990 01e8 B4F90C10 		ldrsh	r1, [r4, #12]
 991 01ec B4F90E20 		ldrsh	r2, [r4, #14]
 992 01f0 0195     		str	r5, [sp, #4]
 993 01f2 FFF7FEFF 		bl	gdispGDrawBox
 994              	.LVL74:
 995              		.loc 1 292 0
 996 01f6 A68E     		ldrh	r6, [r4, #52]
 997 01f8 E289     		ldrh	r2, [r4, #14]
 998 01fa A189     		ldrh	r1, [r4, #12]
 999 01fc 238A     		ldrh	r3, [r4, #16]
 1000 01fe A068     		ldr	r0, [r4, #8]
 1001 0200 B518     		adds	r5, r6, r2
 1002 0202 2AB2     		sxth	r2, r5
 1003 0204 0092     		str	r2, [sp, #0]
 1004 0206 CE18     		adds	r6, r1, r3
 1005 0208 B9F80250 		ldrh	r5, [r9, #2]
 1006 020c 731E     		subs	r3, r6, #1
 1007 020e 0195     		str	r5, [sp, #4]
 1008 0210 09B2     		sxth	r1, r1
 1009 0212 1BB2     		sxth	r3, r3
 1010 0214 FFF7FEFF 		bl	gdispGDrawLine
 1011              	.LVL75:
 1012 0218 C4E7     		b	.L86
 1013              	.L98:
 1014              		.loc 1 280 0
 1015 021a 10B2     		sxth	r0, r2
ARM GAS  C:\Users\Elis\AppData\Local\Temp\cciPcAfI.s 			page 19


 1016 021c 0090     		str	r0, [sp, #0]
 1017 021e 3689     		ldrh	r6, [r6, #8]
 1018 0220 B4F90C10 		ldrsh	r1, [r4, #12]
 1019 0224 B4F90E20 		ldrsh	r2, [r4, #14]
 1020 0228 A068     		ldr	r0, [r4, #8]
 1021 022a 0196     		str	r6, [sp, #4]
 1022 022c FFF7FEFF 		bl	gdispGFillArea
 1023              	.LVL76:
 1024 0230 658A     		ldrh	r5, [r4, #18]
 1025 0232 A28E     		ldrh	r2, [r4, #52]
 1026 0234 B4F91030 		ldrsh	r3, [r4, #16]
 1027 0238 29B2     		sxth	r1, r5
 1028 023a 01E7     		b	.L80
 1029              	.L101:
 1030              		.align	2
 1031              	.L100:
 1032 023c 00000000 		.word	.LANCHOR0
 1033              		.cfi_endproc
 1034              	.LFE127:
 1035              		.size	gwinProgressbarDraw_Image, .-gwinProgressbarDraw_Image
 1036              		.section	.rodata.progressbarVMT,"a",%progbits
 1037              		.align	2
 1038              		.set	.LANCHOR0,. + 0
 1039              		.type	progressbarVMT, %object
 1040              		.size	progressbarVMT, 36
 1041              	progressbarVMT:
 1042 0000 00000000 		.word	.LC0
 1043 0004 48000000 		.word	72
 1044 0008 00000000 		.word	_destroy
 1045 000c 00000000 		.word	_gwidgetRedraw
 1046 0010 00000000 		.word	0
 1047 0014 00000000 		.word	gwinProgressbarDraw_Std
 1048 0018 00000000 		.word	0
 1049 001c 00000000 		.word	0
 1050 0020 00000000 		.word	0
 1051              		.section	.rodata.str1.4,"aMS",%progbits,1
 1052              		.align	2
 1053              	.LC0:
 1054 0000 50726F67 		.ascii	"Progressbar\000"
 1054      72657373 
 1054      62617200 
 1055              		.text
 1056              	.Letext0:
 1057              		.file 2 "c:\\chibistudio\\tools\\gnu tools arm embedded\\4.7 2014q2\\bin\\../lib/gcc/arm-none-eabi
 1058              		.file 3 "c:\\chibistudio\\tools\\gnu tools arm embedded\\4.7 2014q2\\bin\\../lib/gcc/arm-none-eabi
 1059              		.file 4 "../../chibios/os/ports/GCC/ARMCMx/chtypes.h"
 1060              		.file 5 "../../ugfx/src/gfile/gfile.h"
 1061              		.file 6 "../../ugfx/src/gqueue/gqueue.h"
 1062              		.file 7 "../../ugfx/src/gdisp/gdisp.h"
 1063              		.file 8 "../../ugfx/src/gdisp/gdisp_colors.h"
 1064              		.file 9 "../../ugfx/src/gdisp/gdisp_image.h"
 1065              		.file 10 "../../ugfx/src/gwin/gwin.h"
 1066              		.file 11 "../../ugfx/src/gwin/gwin_class.h"
 1067              		.file 12 "../../ugfx/src/gwin/gwin_widget.h"
 1068              		.file 13 "../../ugfx/src/gwin/gwin_progressbar.h"
 1069              		.file 14 "../../chibios/os/ports/common/ARMCMx/CMSIS/include/core_cm4.h"