ARM GAS  C:\Users\Elis\AppData\Local\Temp\ccWZdxVI.s 			page 1


   1              		.syntax unified
   2              		.cpu cortex-m4
   3              		.fpu softvfp
   4              		.eabi_attribute 20, 1
   5              		.eabi_attribute 21, 1
   6              		.eabi_attribute 23, 3
   7              		.eabi_attribute 24, 1
   8              		.eabi_attribute 25, 1
   9              		.eabi_attribute 26, 1
  10              		.eabi_attribute 30, 2
  11              		.eabi_attribute 34, 1
  12              		.eabi_attribute 18, 4
  13              		.thumb
  14              		.file	"gwin_container.c"
  15              		.text
  16              	.Ltext0:
  17              		.cfi_sections	.debug_frame
  18              		.section	.text.BorderSize,"ax",%progbits
  19              		.align	2
  20              		.p2align 4,,15
  21              		.thumb
  22              		.thumb_func
  23              		.type	BorderSize, %function
  24              	BorderSize:
  25              	.LFB126:
  26              		.file 1 "../../ugfx/src/gwin/gwin_container.c"
  27              		.loc 1 95 0
  28              		.cfi_startproc
  29              		@ args = 0, pretend = 0, frame = 0
  30              		@ frame_needed = 0, uses_anonymous_args = 0
  31              		@ link register save eliminated.
  32              	.LVL0:
  33              		.loc 1 95 0
  34 0000 8369     		ldr	r3, [r0, #24]
  35 0002 13F0010F 		tst	r3, #1
  36 0006 14BF     		ite	ne
  37 0008 0220     		movne	r0, #2
  38 000a 0020     		moveq	r0, #0
  39              	.LVL1:
  40 000c 7047     		bx	lr
  41              		.cfi_endproc
  42              	.LFE126:
  43              		.size	BorderSize, .-BorderSize
  44 000e 00BF     		.section	.text._gcontainerInit,"ax",%progbits
  45              		.align	2
  46              		.p2align 4,,15
  47              		.global	_gcontainerInit
  48              		.thumb
  49              		.thumb_func
  50              		.type	_gcontainerInit, %function
  51              	_gcontainerInit:
  52              	.LFB118:
  53              		.loc 1 20 0
  54              		.cfi_startproc
  55              		@ args = 0, pretend = 0, frame = 0
  56              		@ frame_needed = 0, uses_anonymous_args = 0
  57              		@ link register save eliminated.
ARM GAS  C:\Users\Elis\AppData\Local\Temp\ccWZdxVI.s 			page 2


  58 0000 7047     		bx	lr
  59              		.cfi_endproc
  60              	.LFE118:
  61              		.size	_gcontainerInit, .-_gcontainerInit
  62 0002 00BFAFF3 		.section	.text._gcontainerDeinit,"ax",%progbits
  62      0080AFF3 
  62      0080AFF3 
  62      0080
  63              		.align	2
  64              		.p2align 4,,15
  65              		.global	_gcontainerDeinit
  66              		.thumb
  67              		.thumb_func
  68              		.type	_gcontainerDeinit, %function
  69              	_gcontainerDeinit:
  70              	.LFB119:
  71              		.loc 1 24 0
  72              		.cfi_startproc
  73              		@ args = 0, pretend = 0, frame = 0
  74              		@ frame_needed = 0, uses_anonymous_args = 0
  75              		@ link register save eliminated.
  76 0000 7047     		bx	lr
  77              		.cfi_endproc
  78              	.LFE119:
  79              		.size	_gcontainerDeinit, .-_gcontainerDeinit
  80 0002 00BFAFF3 		.section	.text._gcontainerCreate,"ax",%progbits
  80      0080AFF3 
  80      0080AFF3 
  80      0080
  81              		.align	2
  82              		.p2align 4,,15
  83              		.global	_gcontainerCreate
  84              		.thumb
  85              		.thumb_func
  86              		.type	_gcontainerCreate, %function
  87              	_gcontainerCreate:
  88              	.LFB120:
  89              		.loc 1 27 0
  90              		.cfi_startproc
  91              		@ args = 0, pretend = 0, frame = 0
  92              		@ frame_needed = 0, uses_anonymous_args = 0
  93              	.LVL2:
  94              		.loc 1 27 0
  95 0000 08B5     		push	{r3, lr}
  96              	.LCFI0:
  97              		.cfi_def_cfa_offset 8
  98              		.cfi_offset 3, -8
  99              		.cfi_offset 14, -4
 100              		.loc 1 28 0
 101 0002 FFF7FEFF 		bl	_gwidgetCreate
 102              	.LVL3:
 103 0006 18B1     		cbz	r0, .L7
 104              		.loc 1 31 0
 105 0008 8369     		ldr	r3, [r0, #24]
 106 000a 43F40031 		orr	r1, r3, #131072
 107 000e 8161     		str	r1, [r0, #24]
 108              	.L7:
ARM GAS  C:\Users\Elis\AppData\Local\Temp\ccWZdxVI.s 			page 3


 109              		.loc 1 34 0
 110 0010 08BD     		pop	{r3, pc}
 111              		.cfi_endproc
 112              	.LFE120:
 113              		.size	_gcontainerCreate, .-_gcontainerCreate
 114 0012 00BFAFF3 		.section	.text.gwinGetFirstChild,"ax",%progbits
 114      0080AFF3 
 114      0080AFF3 
 114      0080
 115              		.align	2
 116              		.p2align 4,,15
 117              		.global	gwinGetFirstChild
 118              		.thumb
 119              		.thumb_func
 120              		.type	gwinGetFirstChild, %function
 121              	gwinGetFirstChild:
 122              	.LFB122:
 123              		.loc 1 44 0
 124              		.cfi_startproc
 125              		@ args = 0, pretend = 0, frame = 0
 126              		@ frame_needed = 0, uses_anonymous_args = 0
 127              	.LVL4:
 128 0000 10B5     		push	{r4, lr}
 129              	.LCFI1:
 130              		.cfi_def_cfa_offset 8
 131              		.cfi_offset 4, -8
 132              		.cfi_offset 14, -4
 133              		.loc 1 44 0
 134 0002 0446     		mov	r4, r0
 135              		.loc 1 47 0
 136 0004 0020     		movs	r0, #0
 137              	.LVL5:
 138 0006 FFF7FEFF 		bl	gwinGetNextWindow
 139              	.LVL6:
 140 000a 50B1     		cbz	r0, .L17
 141              		.loc 1 48 0
 142 000c 036A     		ldr	r3, [r0, #32]
 143 000e A342     		cmp	r3, r4
 144 0010 03D1     		bne	.L18
 145 0012 09E0     		b	.L20
 146              	.L16:
 147 0014 016A     		ldr	r1, [r0, #32]
 148 0016 A142     		cmp	r1, r4
 149 0018 05D0     		beq	.L13
 150              	.L18:
 151              		.loc 1 47 0
 152 001a FFF7FEFF 		bl	gwinGetNextWindow
 153              	.LVL7:
 154 001e 0028     		cmp	r0, #0
 155 0020 F8D1     		bne	.L16
 156              	.L17:
 157              		.loc 1 50 0
 158 0022 0020     		movs	r0, #0
 159              	.LVL8:
 160 0024 10BD     		pop	{r4, pc}
 161              	.LVL9:
 162              	.L13:
ARM GAS  C:\Users\Elis\AppData\Local\Temp\ccWZdxVI.s 			page 4


 163              		.loc 1 51 0
 164 0026 10BD     		pop	{r4, pc}
 165              	.L20:
 166 0028 10BD     		pop	{r4, pc}
 167              		.cfi_endproc
 168              	.LFE122:
 169              		.size	gwinGetFirstChild, .-gwinGetFirstChild
 170 002a 00BFAFF3 		.section	.text._gcontainerDestroy,"ax",%progbits
 170      0080
 171              		.align	2
 172              		.p2align 4,,15
 173              		.global	_gcontainerDestroy
 174              		.thumb
 175              		.thumb_func
 176              		.type	_gcontainerDestroy, %function
 177              	_gcontainerDestroy:
 178              	.LFB121:
 179              		.loc 1 36 0
 180              		.cfi_startproc
 181              		@ args = 0, pretend = 0, frame = 0
 182              		@ frame_needed = 0, uses_anonymous_args = 0
 183              	.LVL10:
 184 0000 10B5     		push	{r4, lr}
 185              	.LCFI2:
 186              		.cfi_def_cfa_offset 8
 187              		.cfi_offset 4, -8
 188              		.cfi_offset 14, -4
 189              		.loc 1 36 0
 190 0002 0446     		mov	r4, r0
 191              		.loc 1 39 0
 192 0004 01E0     		b	.L22
 193              	.LVL11:
 194              	.L23:
 195              		.loc 1 40 0
 196 0006 FFF7FEFF 		bl	gwinDestroy
 197              	.LVL12:
 198              	.L22:
 199              		.loc 1 39 0 discriminator 1
 200 000a 2046     		mov	r0, r4
 201 000c FFF7FEFF 		bl	gwinGetFirstChild
 202              	.LVL13:
 203 0010 0028     		cmp	r0, #0
 204 0012 F8D1     		bne	.L23
 205              		.loc 1 41 0
 206 0014 2046     		mov	r0, r4
 207              	.LVL14:
 208              		.loc 1 42 0
 209 0016 BDE81040 		pop	{r4, lr}
 210              		.loc 1 41 0
 211 001a FFF7FEBF 		b	_gwidgetDestroy
 212              	.LVL15:
 213              		.cfi_endproc
 214              	.LFE121:
 215              		.size	_gcontainerDestroy, .-_gcontainerDestroy
 216 001e 00BF     		.section	.text.gwinGetSibling,"ax",%progbits
 217              		.align	2
 218              		.p2align 4,,15
ARM GAS  C:\Users\Elis\AppData\Local\Temp\ccWZdxVI.s 			page 5


 219              		.global	gwinGetSibling
 220              		.thumb
 221              		.thumb_func
 222              		.type	gwinGetSibling, %function
 223              	gwinGetSibling:
 224              	.LFB123:
 225              		.loc 1 53 0
 226              		.cfi_startproc
 227              		@ args = 0, pretend = 0, frame = 0
 228              		@ frame_needed = 0, uses_anonymous_args = 0
 229              	.LVL16:
 230 0000 10B5     		push	{r4, lr}
 231              	.LCFI3:
 232              		.cfi_def_cfa_offset 8
 233              		.cfi_offset 4, -8
 234              		.cfi_offset 14, -4
 235              		.loc 1 53 0
 236 0002 0446     		mov	r4, r0
 237              		.loc 1 56 0
 238 0004 FFF7FEFF 		bl	gwinGetNextWindow
 239              	.LVL17:
 240 0008 246A     		ldr	r4, [r4, #32]
 241              	.LVL18:
 242 000a 50B1     		cbz	r0, .L30
 243              		.loc 1 57 0
 244 000c 036A     		ldr	r3, [r0, #32]
 245 000e A342     		cmp	r3, r4
 246 0010 03D1     		bne	.L31
 247 0012 09E0     		b	.L33
 248              	.L29:
 249 0014 016A     		ldr	r1, [r0, #32]
 250 0016 A142     		cmp	r1, r4
 251 0018 05D0     		beq	.L26
 252              	.LVL19:
 253              	.L31:
 254              		.loc 1 56 0
 255 001a FFF7FEFF 		bl	gwinGetNextWindow
 256              	.LVL20:
 257 001e 0028     		cmp	r0, #0
 258 0020 F8D1     		bne	.L29
 259              	.LVL21:
 260              	.L30:
 261              		.loc 1 59 0
 262 0022 0020     		movs	r0, #0
 263 0024 10BD     		pop	{r4, pc}
 264              	.LVL22:
 265              	.L26:
 266              		.loc 1 60 0
 267 0026 10BD     		pop	{r4, pc}
 268              	.L33:
 269 0028 10BD     		pop	{r4, pc}
 270              		.cfi_endproc
 271              	.LFE123:
 272              		.size	gwinGetSibling, .-gwinGetSibling
 273 002a 00BFAFF3 		.section	.text.gwinGetInnerWidth,"ax",%progbits
 273      0080
 274              		.align	2
ARM GAS  C:\Users\Elis\AppData\Local\Temp\ccWZdxVI.s 			page 6


 275              		.p2align 4,,15
 276              		.global	gwinGetInnerWidth
 277              		.thumb
 278              		.thumb_func
 279              		.type	gwinGetInnerWidth, %function
 280              	gwinGetInnerWidth:
 281              	.LFB124:
 282              		.loc 1 62 0
 283              		.cfi_startproc
 284              		@ args = 0, pretend = 0, frame = 0
 285              		@ frame_needed = 0, uses_anonymous_args = 0
 286              	.LVL23:
 287 0000 38B5     		push	{r3, r4, r5, lr}
 288              	.LCFI4:
 289              		.cfi_def_cfa_offset 16
 290              		.cfi_offset 3, -16
 291              		.cfi_offset 4, -12
 292              		.cfi_offset 5, -8
 293              		.cfi_offset 14, -4
 294              		.loc 1 63 0
 295 0002 8369     		ldr	r3, [r0, #24]
 296 0004 13F40031 		ands	r1, r3, #131072
 297              		.loc 1 62 0
 298 0008 0446     		mov	r4, r0
 299              		.loc 1 63 0
 300 000a 02D1     		bne	.L37
 301              		.loc 1 64 0
 302 000c 0B46     		mov	r3, r1
 303              		.loc 1 66 0
 304 000e 18B2     		sxth	r0, r3
 305              	.LVL24:
 306 0010 38BD     		pop	{r3, r4, r5, pc}
 307              	.LVL25:
 308              	.L37:
 309              		.loc 1 65 0
 310 0012 4268     		ldr	r2, [r0, #4]
 311 0014 058A     		ldrh	r5, [r0, #16]
 312 0016 536A     		ldr	r3, [r2, #36]
 313 0018 9847     		blx	r3
 314              	.LVL26:
 315 001a 6168     		ldr	r1, [r4, #4]
 316 001c 2D1A     		subs	r5, r5, r0
 317 001e CA6A     		ldr	r2, [r1, #44]
 318 0020 2046     		mov	r0, r4
 319 0022 9047     		blx	r2
 320              	.LVL27:
 321 0024 ACB2     		uxth	r4, r5
 322              	.LVL28:
 323 0026 201A     		subs	r0, r4, r0
 324 0028 83B2     		uxth	r3, r0
 325              		.loc 1 66 0
 326 002a 18B2     		sxth	r0, r3
 327 002c 38BD     		pop	{r3, r4, r5, pc}
 328              		.cfi_endproc
 329              	.LFE124:
 330              		.size	gwinGetInnerWidth, .-gwinGetInnerWidth
 331 002e 00BF     		.section	.text.gwinGetInnerHeight,"ax",%progbits
ARM GAS  C:\Users\Elis\AppData\Local\Temp\ccWZdxVI.s 			page 7


 332              		.align	2
 333              		.p2align 4,,15
 334              		.global	gwinGetInnerHeight
 335              		.thumb
 336              		.thumb_func
 337              		.type	gwinGetInnerHeight, %function
 338              	gwinGetInnerHeight:
 339              	.LFB125:
 340              		.loc 1 68 0
 341              		.cfi_startproc
 342              		@ args = 0, pretend = 0, frame = 0
 343              		@ frame_needed = 0, uses_anonymous_args = 0
 344              	.LVL29:
 345 0000 38B5     		push	{r3, r4, r5, lr}
 346              	.LCFI5:
 347              		.cfi_def_cfa_offset 16
 348              		.cfi_offset 3, -16
 349              		.cfi_offset 4, -12
 350              		.cfi_offset 5, -8
 351              		.cfi_offset 14, -4
 352              		.loc 1 69 0
 353 0002 8369     		ldr	r3, [r0, #24]
 354 0004 13F40031 		ands	r1, r3, #131072
 355              		.loc 1 68 0
 356 0008 0446     		mov	r4, r0
 357              		.loc 1 69 0
 358 000a 02D1     		bne	.L41
 359              		.loc 1 70 0
 360 000c 0B46     		mov	r3, r1
 361              		.loc 1 72 0
 362 000e 18B2     		sxth	r0, r3
 363              	.LVL30:
 364 0010 38BD     		pop	{r3, r4, r5, pc}
 365              	.LVL31:
 366              	.L41:
 367              		.loc 1 71 0
 368 0012 4268     		ldr	r2, [r0, #4]
 369 0014 458A     		ldrh	r5, [r0, #18]
 370 0016 936A     		ldr	r3, [r2, #40]
 371 0018 9847     		blx	r3
 372              	.LVL32:
 373 001a 6168     		ldr	r1, [r4, #4]
 374 001c 2D1A     		subs	r5, r5, r0
 375 001e 0A6B     		ldr	r2, [r1, #48]
 376 0020 2046     		mov	r0, r4
 377 0022 9047     		blx	r2
 378              	.LVL33:
 379 0024 ACB2     		uxth	r4, r5
 380              	.LVL34:
 381 0026 201A     		subs	r0, r4, r0
 382 0028 83B2     		uxth	r3, r0
 383              		.loc 1 72 0
 384 002a 18B2     		sxth	r0, r3
 385 002c 38BD     		pop	{r3, r4, r5, pc}
 386              		.cfi_endproc
 387              	.LFE125:
 388              		.size	gwinGetInnerHeight, .-gwinGetInnerHeight
ARM GAS  C:\Users\Elis\AppData\Local\Temp\ccWZdxVI.s 			page 8


 389 002e 00BF     		.section	.text.gwinGContainerCreate,"ax",%progbits
 390              		.align	2
 391              		.p2align 4,,15
 392              		.global	gwinGContainerCreate
 393              		.thumb
 394              		.thumb_func
 395              		.type	gwinGContainerCreate, %function
 396              	gwinGContainerCreate:
 397              	.LFB127:
 398              		.loc 1 132 0
 399              		.cfi_startproc
 400              		@ args = 0, pretend = 0, frame = 0
 401              		@ frame_needed = 0, uses_anonymous_args = 0
 402              	.LVL35:
 403 0000 70B5     		push	{r4, r5, r6, lr}
 404              	.LCFI6:
 405              		.cfi_def_cfa_offset 16
 406              		.cfi_offset 4, -16
 407              		.cfi_offset 5, -12
 408              		.cfi_offset 6, -8
 409              		.cfi_offset 14, -4
 410              		.loc 1 132 0
 411 0002 1D46     		mov	r5, r3
 412              		.loc 1 133 0
 413 0004 074B     		ldr	r3, .L47
 414              	.LVL36:
 415              		.loc 1 132 0
 416 0006 1646     		mov	r6, r2
 417              		.loc 1 133 0
 418 0008 FFF7FEFF 		bl	_gcontainerCreate
 419              	.LVL37:
 420 000c 0446     		mov	r4, r0
 421 000e 38B1     		cbz	r0, .L43
 422              		.loc 1 136 0
 423 0010 8369     		ldr	r3, [r0, #24]
 424              		.loc 1 138 0
 425 0012 317A     		ldrb	r1, [r6, #8]	@ zero_extendqisi2
 426              		.loc 1 136 0
 427 0014 05F00105 		and	r5, r5, #1
 428              	.LVL38:
 429 0018 2B43     		orrs	r3, r3, r5
 430 001a 8361     		str	r3, [r0, #24]
 431              		.loc 1 138 0
 432 001c FFF7FEFF 		bl	gwinSetVisible
 433              	.LVL39:
 434              	.L43:
 435              		.loc 1 140 0
 436 0020 2046     		mov	r0, r4
 437 0022 70BD     		pop	{r4, r5, r6, pc}
 438              	.L48:
 439              		.align	2
 440              	.L47:
 441 0024 00000000 		.word	.LANCHOR0
 442              		.cfi_endproc
 443              	.LFE127:
 444              		.size	gwinGContainerCreate, .-gwinGContainerCreate
 445 0028 AFF30080 		.section	.text.gwinContainerDraw_Transparent,"ax",%progbits
ARM GAS  C:\Users\Elis\AppData\Local\Temp\ccWZdxVI.s 			page 9


 445      AFF30080 
 446              		.align	2
 447              		.p2align 4,,15
 448              		.global	gwinContainerDraw_Transparent
 449              		.thumb
 450              		.thumb_func
 451              		.type	gwinContainerDraw_Transparent, %function
 452              	gwinContainerDraw_Transparent:
 453              	.LFB128:
 454              		.loc 1 142 0
 455              		.cfi_startproc
 456              		@ args = 0, pretend = 0, frame = 0
 457              		@ frame_needed = 0, uses_anonymous_args = 0
 458              	.LVL40:
 459 0000 70B5     		push	{r4, r5, r6, lr}
 460              	.LCFI7:
 461              		.cfi_def_cfa_offset 16
 462              		.cfi_offset 4, -16
 463              		.cfi_offset 5, -12
 464              		.cfi_offset 6, -8
 465              		.cfi_offset 14, -4
 466              		.loc 1 145 0
 467 0002 4368     		ldr	r3, [r0, #4]
 468 0004 0E4A     		ldr	r2, .L57
 469 0006 9342     		cmp	r3, r2
 470              		.loc 1 142 0
 471 0008 82B0     		sub	sp, sp, #8
 472              	.LCFI8:
 473              		.cfi_def_cfa_offset 24
 474              		.loc 1 145 0
 475 000a 01D0     		beq	.L56
 476              	.LVL41:
 477              	.L49:
 478              		.loc 1 152 0
 479 000c 02B0     		add	sp, sp, #8
 480 000e 70BD     		pop	{r4, r5, r6, pc}
 481              	.LVL42:
 482              	.L56:
 483              	.LBB4:
 484              	.LBB5:
 485              		.loc 1 148 0
 486 0010 8469     		ldr	r4, [r0, #24]
 487 0012 E307     		lsls	r3, r4, #31
 488 0014 FAD5     		bpl	.L49
 489              		.loc 1 149 0
 490 0016 8568     		ldr	r5, [r0, #8]
 491 0018 468A     		ldrh	r6, [r0, #18]
 492 001a 8189     		ldrh	r1, [r0, #12]
 493              	.LVL43:
 494 001c C289     		ldrh	r2, [r0, #14]
 495 001e 038A     		ldrh	r3, [r0, #16]
 496 0020 006B     		ldr	r0, [r0, #48]
 497              	.LVL44:
 498 0022 2405     		lsls	r4, r4, #20
 499 0024 4CBF     		ite	mi
 500 0026 8488     		ldrhmi	r4, [r0, #4]
 501 0028 8489     		ldrhpl	r4, [r0, #12]
ARM GAS  C:\Users\Elis\AppData\Local\Temp\ccWZdxVI.s 			page 10


 502 002a 30B2     		sxth	r0, r6
 503 002c 8DE81100 		stmia	sp, {r0, r4}
 504 0030 09B2     		sxth	r1, r1
 505 0032 2846     		mov	r0, r5
 506 0034 12B2     		sxth	r2, r2
 507 0036 1BB2     		sxth	r3, r3
 508 0038 FFF7FEFF 		bl	gdispGDrawBox
 509              	.LVL45:
 510 003c E6E7     		b	.L49
 511              	.L58:
 512 003e 00BF     		.align	2
 513              	.L57:
 514 0040 00000000 		.word	.LANCHOR0
 515              	.LBE5:
 516              	.LBE4:
 517              		.cfi_endproc
 518              	.LFE128:
 519              		.size	gwinContainerDraw_Transparent, .-gwinContainerDraw_Transparent
 520 0044 AFF30080 		.section	.text.gwinContainerDraw_Std,"ax",%progbits
 520      AFF30080 
 520      AFF30080 
 521              		.align	2
 522              		.p2align 4,,15
 523              		.global	gwinContainerDraw_Std
 524              		.thumb
 525              		.thumb_func
 526              		.type	gwinContainerDraw_Std, %function
 527              	gwinContainerDraw_Std:
 528              	.LFB129:
 529              		.loc 1 154 0
 530              		.cfi_startproc
 531              		@ args = 0, pretend = 0, frame = 0
 532              		@ frame_needed = 0, uses_anonymous_args = 0
 533              	.LVL46:
 534 0000 70B5     		push	{r4, r5, r6, lr}
 535              	.LCFI9:
 536              		.cfi_def_cfa_offset 16
 537              		.cfi_offset 4, -16
 538              		.cfi_offset 5, -12
 539              		.cfi_offset 6, -8
 540              		.cfi_offset 14, -4
 541              		.loc 1 157 0
 542 0002 4368     		ldr	r3, [r0, #4]
 543 0004 0E4A     		ldr	r2, .L62
 544 0006 9342     		cmp	r3, r2
 545              		.loc 1 154 0
 546 0008 82B0     		sub	sp, sp, #8
 547              	.LCFI10:
 548              		.cfi_def_cfa_offset 24
 549              		.loc 1 154 0
 550 000a 0446     		mov	r4, r0
 551 000c 0D46     		mov	r5, r1
 552              		.loc 1 157 0
 553 000e 01D0     		beq	.L61
 554              		.loc 1 162 0
 555 0010 02B0     		add	sp, sp, #8
 556 0012 70BD     		pop	{r4, r5, r6, pc}
ARM GAS  C:\Users\Elis\AppData\Local\Temp\ccWZdxVI.s 			page 11


 557              	.L61:
 558              	.LVL47:
 559              	.LBB8:
 560              	.LBB9:
 561              		.loc 1 160 0
 562 0014 B0F91200 		ldrsh	r0, [r0, #18]
 563              	.LVL48:
 564 0018 266B     		ldr	r6, [r4, #48]
 565 001a 0090     		str	r0, [sp, #0]
 566 001c 3688     		ldrh	r6, [r6, #0]
 567 001e A068     		ldr	r0, [r4, #8]
 568 0020 B4F90C10 		ldrsh	r1, [r4, #12]
 569              	.LVL49:
 570 0024 B4F90E20 		ldrsh	r2, [r4, #14]
 571 0028 B4F91030 		ldrsh	r3, [r4, #16]
 572 002c 0196     		str	r6, [sp, #4]
 573 002e FFF7FEFF 		bl	gdispGFillArea
 574              	.LVL50:
 575              		.loc 1 161 0
 576 0032 2046     		mov	r0, r4
 577 0034 2946     		mov	r1, r5
 578              	.LBE9:
 579              	.LBE8:
 580              		.loc 1 162 0
 581 0036 02B0     		add	sp, sp, #8
 582 0038 BDE87040 		pop	{r4, r5, r6, lr}
 583              	.LBB11:
 584              	.LBB10:
 585              		.loc 1 161 0
 586 003c FFF7FEBF 		b	gwinContainerDraw_Transparent
 587              	.LVL51:
 588              	.L63:
 589              		.align	2
 590              	.L62:
 591 0040 00000000 		.word	.LANCHOR0
 592              	.LBE10:
 593              	.LBE11:
 594              		.cfi_endproc
 595              	.LFE129:
 596              		.size	gwinContainerDraw_Std, .-gwinContainerDraw_Std
 597 0044 AFF30080 		.section	.text.gwinContainerDraw_Image,"ax",%progbits
 597      AFF30080 
 597      AFF30080 
 598              		.align	2
 599              		.p2align 4,,15
 600              		.global	gwinContainerDraw_Image
 601              		.thumb
 602              		.thumb_func
 603              		.type	gwinContainerDraw_Image, %function
 604              	gwinContainerDraw_Image:
 605              	.LFB130:
 606              		.loc 1 165 0
 607              		.cfi_startproc
 608              		@ args = 0, pretend = 0, frame = 24
 609              		@ frame_needed = 0, uses_anonymous_args = 0
 610              	.LVL52:
 611 0000 2DE9F04F 		push	{r4, r5, r6, r7, r8, r9, sl, fp, lr}
ARM GAS  C:\Users\Elis\AppData\Local\Temp\ccWZdxVI.s 			page 12


 612              	.LCFI11:
 613              		.cfi_def_cfa_offset 36
 614              		.cfi_offset 4, -36
 615              		.cfi_offset 5, -32
 616              		.cfi_offset 6, -28
 617              		.cfi_offset 7, -24
 618              		.cfi_offset 8, -20
 619              		.cfi_offset 9, -16
 620              		.cfi_offset 10, -12
 621              		.cfi_offset 11, -8
 622              		.cfi_offset 14, -4
 623              		.loc 1 169 0
 624 0004 4368     		ldr	r3, [r0, #4]
 625 0006 3E4A     		ldr	r2, .L86
 626 0008 9342     		cmp	r3, r2
 627              		.loc 1 165 0
 628 000a 8BB0     		sub	sp, sp, #44
 629              	.LCFI12:
 630              		.cfi_def_cfa_offset 80
 631              		.loc 1 165 0
 632 000c 8046     		mov	r8, r0
 633 000e 8A46     		mov	sl, r1
 634              		.loc 1 169 0
 635 0010 02D0     		beq	.L85
 636              	.LVL53:
 637              	.L64:
 638              		.loc 1 198 0
 639 0012 0BB0     		add	sp, sp, #44
 640 0014 BDE8F08F 		pop	{r4, r5, r6, r7, r8, r9, sl, fp, pc}
 641              	.LVL54:
 642              	.L85:
 643              		.loc 1 173 0
 644 0018 FFF7FEFF 		bl	gwinContainerDraw_Transparent
 645              	.LVL55:
 646              		.loc 1 177 0
 647 001c B8F81250 		ldrh	r5, [r8, #18]
 648              		.loc 1 176 0
 649 0020 B8F80C30 		ldrh	r3, [r8, #12]
 650 0024 B8F81000 		ldrh	r0, [r8, #16]
 651              		.loc 1 177 0
 652 0028 B8F80E40 		ldrh	r4, [r8, #14]
 653              		.loc 1 179 0
 654 002c D8F81810 		ldr	r1, [r8, #24]
 655              		.loc 1 177 0
 656 0030 2A19     		adds	r2, r5, r4
 657              		.loc 1 176 0
 658 0032 C018     		adds	r0, r0, r3
 659 0034 85B2     		uxth	r5, r0
 660              		.loc 1 177 0
 661 0036 92B2     		uxth	r2, r2
 662              		.loc 1 179 0
 663 0038 11F00101 		ands	r1, r1, #1
 664              		.loc 1 176 0
 665 003c 0595     		str	r5, [sp, #20]
 666              	.LVL56:
 667              		.loc 1 177 0
 668 003e 0992     		str	r2, [sp, #36]
ARM GAS  C:\Users\Elis\AppData\Local\Temp\ccWZdxVI.s 			page 13


 669              	.LVL57:
 670              		.loc 1 179 0
 671 0040 09D0     		beq	.L66
 672              		.loc 1 180 0
 673 0042 681E     		subs	r0, r5, #1
 674              		.loc 1 181 0
 675 0044 551E     		subs	r5, r2, #1
 676              		.loc 1 182 0
 677 0046 04F1010B 		add	fp, r4, #1
 678              		.loc 1 181 0
 679 004a AAB2     		uxth	r2, r5
 680              		.loc 1 180 0
 681 004c 84B2     		uxth	r4, r0
 682 004e 0594     		str	r4, [sp, #20]
 683              		.loc 1 181 0
 684 0050 0992     		str	r2, [sp, #36]
 685              		.loc 1 182 0
 686 0052 1FFA8BF4 		uxth	r4, fp
 687              	.LVL58:
 688              	.L66:
 689              		.loc 1 184 0
 690 0056 0998     		ldr	r0, [sp, #36]
 691 0058 BAF80820 		ldrh	r2, [sl, #8]
 692 005c 05B2     		sxth	r5, r0
 693 005e 0895     		str	r5, [sp, #32]
 694 0060 089D     		ldr	r5, [sp, #32]
 695 0062 0692     		str	r2, [sp, #24]
 696              	.LVL59:
 697 0064 0FFA84F9 		sxth	r9, r4
 698 0068 A945     		cmp	r9, r5
 699 006a D2DA     		bge	.L64
 700 006c 059E     		ldr	r6, [sp, #20]
 701              		.loc 1 193 0
 702 006e 0027     		movs	r7, #0
 703 0070 0FFA86FB 		sxth	fp, r6
 704              	.LVL60:
 705              	.L77:
 706              		.loc 1 185 0
 707 0074 089D     		ldr	r5, [sp, #32]
 708 0076 0698     		ldr	r0, [sp, #24]
 709 0078 C9EB0502 		rsb	r2, r9, r5
 710 007c 06B2     		sxth	r6, r0
 711 007e 9642     		cmp	r6, r2
 712              		.loc 1 186 0
 713 0080 C8BF     		it	gt
 714 0082 099D     		ldrgt	r5, [sp, #36]
 715 0084 A4B2     		uxth	r4, r4
 716 0086 C4BF     		itt	gt
 717 0088 C4EB0502 		rsbgt	r2, r4, r5
 718 008c 92B2     		uxthgt	r2, r2
 719 008e 0794     		str	r4, [sp, #28]
 720 0090 C8BF     		it	gt
 721 0092 0692     		strgt	r2, [sp, #24]
 722              	.LVL61:
 723              		.loc 1 188 0
 724 0094 09B1     		cbz	r1, .L70
 725              		.loc 1 189 0
ARM GAS  C:\Users\Elis\AppData\Local\Temp\ccWZdxVI.s 			page 14


 726 0096 0133     		adds	r3, r3, #1
 727              	.LVL62:
 728 0098 9BB2     		uxth	r3, r3
 729              	.LVL63:
 730              	.L70:
 731              		.loc 1 190 0
 732 009a 1AB2     		sxth	r2, r3
 733 009c 5A45     		cmp	r2, fp
 734 009e BAF80660 		ldrh	r6, [sl, #6]
 735              	.LVL64:
 736 00a2 1CDA     		bge	.L76
 737 00a4 0699     		ldr	r1, [sp, #24]
 738 00a6 08B2     		sxth	r0, r1
 739 00a8 0490     		str	r0, [sp, #16]
 740 00aa 35B2     		sxth	r5, r6
 741              	.LVL65:
 742              	.L75:
 743              		.loc 1 191 0
 744 00ac C2EB0B04 		rsb	r4, r2, fp
 745 00b0 A542     		cmp	r5, r4
 746              		.loc 1 192 0
 747 00b2 9CB2     		uxth	r4, r3
 748              		.loc 1 191 0
 749 00b4 03DD     		ble	.L74
 750              		.loc 1 192 0
 751 00b6 059E     		ldr	r6, [sp, #20]
 752 00b8 351B     		subs	r5, r6, r4
 753 00ba AEB2     		uxth	r6, r5
 754              	.LVL66:
 755 00bc 35B2     		sxth	r5, r6
 756              	.LVL67:
 757              	.L74:
 758              		.loc 1 193 0
 759 00be 049B     		ldr	r3, [sp, #16]
 760 00c0 D8F80800 		ldr	r0, [r8, #8]
 761 00c4 0193     		str	r3, [sp, #4]
 762 00c6 0095     		str	r5, [sp, #0]
 763 00c8 4B46     		mov	r3, r9
 764 00ca 0297     		str	r7, [sp, #8]
 765 00cc 0397     		str	r7, [sp, #12]
 766 00ce 5146     		mov	r1, sl
 767 00d0 FFF7FEFF 		bl	gdispGImageDraw
 768              	.LVL68:
 769              		.loc 1 190 0
 770 00d4 A219     		adds	r2, r4, r6
 771 00d6 93B2     		uxth	r3, r2
 772              	.LVL69:
 773 00d8 1AB2     		sxth	r2, r3
 774              	.LVL70:
 775 00da 9345     		cmp	fp, r2
 776 00dc E6DC     		bgt	.L75
 777              	.LVL71:
 778              	.L76:
 779              		.loc 1 184 0
 780 00de 0799     		ldr	r1, [sp, #28]
 781 00e0 0698     		ldr	r0, [sp, #24]
 782 00e2 089D     		ldr	r5, [sp, #32]
ARM GAS  C:\Users\Elis\AppData\Local\Temp\ccWZdxVI.s 			page 15


 783 00e4 0C18     		adds	r4, r1, r0
 784 00e6 A4B2     		uxth	r4, r4
 785              	.LVL72:
 786 00e8 0FFA84F9 		sxth	r9, r4
 787 00ec 4D45     		cmp	r5, r9
 788 00ee 90DD     		ble	.L64
 789 00f0 D8F81860 		ldr	r6, [r8, #24]
 790 00f4 B8F80C30 		ldrh	r3, [r8, #12]
 791 00f8 06F00101 		and	r1, r6, #1
 792 00fc BAE7     		b	.L77
 793              	.L87:
 794 00fe 00BF     		.align	2
 795              	.L86:
 796 0100 00000000 		.word	.LANCHOR0
 797              		.cfi_endproc
 798              	.LFE130:
 799              		.size	gwinContainerDraw_Image, .-gwinContainerDraw_Image
 800 0104 AFF30080 		.section	.rodata.containerVMT,"a",%progbits
 800      AFF30080 
 800      AFF30080 
 801              		.align	2
 802              		.set	.LANCHOR0,. + 0
 803              		.type	containerVMT, %object
 804              		.size	containerVMT, 60
 805              	containerVMT:
 806 0000 00000000 		.word	.LC0
 807 0004 34000000 		.word	52
 808 0008 00000000 		.word	_gcontainerDestroy
 809 000c 00000000 		.word	_gwidgetRedraw
 810 0010 00000000 		.word	0
 811 0014 00000000 		.word	gwinContainerDraw_Std
 812 0018 00000000 		.word	0
 813 001c 00000000 		.word	0
 814 0020 00000000 		.word	0
 815 0024 00000000 		.word	BorderSize
 816 0028 00000000 		.word	BorderSize
 817 002c 00000000 		.word	BorderSize
 818 0030 00000000 		.word	BorderSize
 819 0034 00000000 		.word	0
 820 0038 00000000 		.word	0
 821              		.section	.rodata.str1.4,"aMS",%progbits,1
 822              		.align	2
 823              	.LC0:
 824 0000 436F6E74 		.ascii	"Container\000"
 824      61696E65 
 824      7200
 825 000a 0000     		.text
 826              	.Letext0:
 827              		.file 2 "c:\\chibistudio\\tools\\gnu tools arm embedded\\4.7 2014q2\\bin\\../lib/gcc/arm-none-eabi
 828              		.file 3 "c:\\chibistudio\\tools\\gnu tools arm embedded\\4.7 2014q2\\bin\\../lib/gcc/arm-none-eabi
 829              		.file 4 "../../chibios/os/ports/GCC/ARMCMx/chtypes.h"
 830              		.file 5 "../../ugfx/src/gfile/gfile.h"
 831              		.file 6 "../../ugfx/src/gqueue/gqueue.h"
 832              		.file 7 "../../ugfx/src/gdisp/gdisp.h"
 833              		.file 8 "../../ugfx/src/gdisp/gdisp_colors.h"
 834              		.file 9 "../../ugfx/src/gdisp/gdisp_image.h"
 835              		.file 10 "../../ugfx/src/gwin/gwin.h"
ARM GAS  C:\Users\Elis\AppData\Local\Temp\ccWZdxVI.s 			page 16


 836              		.file 11 "../../ugfx/src/gwin/gwin_class.h"
 837              		.file 12 "../../ugfx/src/gwin/gwin_widget.h"
 838              		.file 13 "../../ugfx/src/gwin/gwin_container.h"
 839              		.file 14 "../../chibios/os/ports/common/ARMCMx/CMSIS/include/core_cm4.h"