ARM GAS  C:\Users\Elis\AppData\Local\Temp\ccOkNZMc.s 			page 1


   1              		.syntax unified
   2              		.cpu cortex-m4
   3              		.fpu softvfp
   4              		.eabi_attribute 20, 1
   5              		.eabi_attribute 21, 1
   6              		.eabi_attribute 23, 3
   7              		.eabi_attribute 24, 1
   8              		.eabi_attribute 25, 1
   9              		.eabi_attribute 26, 1
  10              		.eabi_attribute 30, 2
  11              		.eabi_attribute 34, 1
  12              		.eabi_attribute 18, 4
  13              		.thumb
  14              		.file	"mf_justify.c"
  15              		.text
  16              	.Ltext0:
  17              		.cfi_sections	.debug_frame
  18              		.section	.text.mf_round_to_tab,"ax",%progbits
  19              		.align	2
  20              		.p2align 4,,15
  21              		.thumb
  22              		.thumb_func
  23              		.type	mf_round_to_tab, %function
  24              	mf_round_to_tab:
  25              	.LFB118:
  26              		.file 1 "../../ugfx/src/gdisp/mcufont/mf_justify.c"
  27              		.loc 1 17 0
  28              		.cfi_startproc
  29              		@ args = 0, pretend = 0, frame = 0
  30              		@ frame_needed = 0, uses_anonymous_args = 0
  31              	.LVL0:
  32 0000 F8B5     		push	{r3, r4, r5, r6, r7, lr}
  33              	.LCFI0:
  34              		.cfi_def_cfa_offset 24
  35              		.cfi_offset 3, -24
  36              		.cfi_offset 4, -20
  37              		.cfi_offset 5, -16
  38              		.cfi_offset 6, -12
  39              		.cfi_offset 7, -8
  40              		.cfi_offset 14, -4
  41              		.loc 1 17 0
  42 0002 0E46     		mov	r6, r1
  43              		.loc 1 20 0
  44 0004 6D21     		movs	r1, #109
  45              	.LVL1:
  46              		.loc 1 17 0
  47 0006 1746     		mov	r7, r2
  48 0008 0546     		mov	r5, r0
  49              		.loc 1 20 0
  50 000a FFF7FEFF 		bl	mf_character_width
  51              	.LVL2:
  52              		.loc 1 23 0
  53 000e 2021     		movs	r1, #32
  54              		.loc 1 20 0
  55 0010 C400     		lsls	r4, r0, #3
  56              		.loc 1 23 0
  57 0012 2846     		mov	r0, r5
ARM GAS  C:\Users\Elis\AppData\Local\Temp\ccOkNZMc.s 			page 2


  58 0014 FFF7FEFF 		bl	mf_character_width
  59              	.LVL3:
  60              		.loc 1 26 0
  61 0018 2B7B     		ldrb	r3, [r5, #12]	@ zero_extendqisi2
  62              		.loc 1 23 0
  63 001a C019     		adds	r0, r0, r7
  64 001c 82B2     		uxth	r2, r0
  65              		.loc 1 26 0
  66 001e 991B     		subs	r1, r3, r6
  67 0020 5318     		adds	r3, r2, r1
  68              		.loc 1 27 0
  69 0022 19B2     		sxth	r1, r3
  70              		.loc 1 20 0
  71 0024 A4B2     		uxth	r4, r4
  72              	.LVL4:
  73              		.loc 1 27 0
  74 0026 91FBF4F0 		sdiv	r0, r1, r4
  75 002a 1219     		adds	r2, r2, r4
  76              	.LVL5:
  77 002c 04FB1014 		mls	r4, r4, r0, r1
  78              	.LVL6:
  79 0030 131B     		subs	r3, r2, r4
  80              		.loc 1 30 0
  81 0032 18B2     		sxth	r0, r3
  82 0034 F8BD     		pop	{r3, r4, r5, r6, r7, pc}
  83              		.cfi_endproc
  84              	.LFE118:
  85              		.size	mf_round_to_tab, .-mf_round_to_tab
  86 0036 00BFAFF3 		.section	.text.render_left,"ax",%progbits
  86      0080AFF3 
  86      0080
  87              		.align	2
  88              		.p2align 4,,15
  89              		.thumb
  90              		.thumb_func
  91              		.type	render_left, %function
  92              	render_left:
  93              	.LFB122:
  94              		.loc 1 122 0
  95              		.cfi_startproc
  96              		@ args = 12, pretend = 0, frame = 8
  97              		@ frame_needed = 0, uses_anonymous_args = 0
  98              	.LVL7:
  99 0000 2DE9F04F 		push	{r4, r5, r6, r7, r8, r9, sl, fp, lr}
 100              	.LCFI1:
 101              		.cfi_def_cfa_offset 36
 102              		.cfi_offset 4, -36
 103              		.cfi_offset 5, -32
 104              		.cfi_offset 6, -28
 105              		.cfi_offset 7, -24
 106              		.cfi_offset 8, -20
 107              		.cfi_offset 9, -16
 108              		.cfi_offset 10, -12
 109              		.cfi_offset 11, -8
 110              		.cfi_offset 14, -4
 111 0004 83B0     		sub	sp, sp, #12
 112              	.LCFI2:
ARM GAS  C:\Users\Elis\AppData\Local\Temp\ccOkNZMc.s 			page 3


 113              		.cfi_def_cfa_offset 48
 114              		.loc 1 126 0
 115 0006 057B     		ldrb	r5, [r0, #12]	@ zero_extendqisi2
 116              		.loc 1 122 0
 117 0008 BDF83040 		ldrh	r4, [sp, #48]
 118 000c DDF83490 		ldr	r9, [sp, #52]
 119 0010 DDF83880 		ldr	r8, [sp, #56]
 120 0014 02AE     		add	r6, sp, #8
 121 0016 8346     		mov	fp, r0
 122              		.loc 1 126 0
 123 0018 481B     		subs	r0, r1, r5
 124              	.LVL8:
 125              		.loc 1 122 0
 126 001a 8A46     		mov	sl, r1
 127 001c 1746     		mov	r7, r2
 128 001e 46F8043D 		str	r3, [r6, #-4]!
 129              		.loc 1 126 0
 130 0022 85B2     		uxth	r5, r0
 131              	.LVL9:
 132              		.loc 1 127 0
 133 0024 04E0     		b	.L3
 134              	.LVL10:
 135              	.L4:
 136              		.loc 1 145 0
 137 0026 C847     		blx	r9
 138              	.LVL11:
 139 0028 4119     		adds	r1, r0, r5
 140 002a 8DB2     		uxth	r5, r1
 141              	.LVL12:
 142              	.L5:
 143 002c 013C     		subs	r4, r4, #1
 144 002e A4B2     		uxth	r4, r4
 145              	.L3:
 146              	.LVL13:
 147              		.loc 1 129 0 discriminator 1
 148 0030 3046     		mov	r0, r6
 149              		.loc 1 127 0 discriminator 1
 150 0032 84B1     		cbz	r4, .L8
 151              		.loc 1 129 0
 152 0034 FFF7FEFF 		bl	mf_getchar
 153              	.LVL14:
 154 0038 8646     		mov	lr, r0
 155              	.LVL15:
 156              		.loc 1 131 0
 157 003a BEF1090F 		cmp	lr, #9
 158              		.loc 1 145 0
 159 003e 3946     		mov	r1, r7
 160 0040 28B2     		sxth	r0, r5
 161              	.LVL16:
 162 0042 7246     		mov	r2, lr
 163 0044 4346     		mov	r3, r8
 164              		.loc 1 131 0
 165 0046 EED1     		bne	.L4
 166              		.loc 1 134 0
 167 0048 2AB2     		sxth	r2, r5
 168 004a 5846     		mov	r0, fp
 169 004c 5146     		mov	r1, sl
ARM GAS  C:\Users\Elis\AppData\Local\Temp\ccOkNZMc.s 			page 4


 170 004e FFF7FEFF 		bl	mf_round_to_tab
 171              	.LVL17:
 172 0052 0546     		mov	r5, r0
 173              	.LVL18:
 174              		.loc 1 136 0
 175 0054 EAE7     		b	.L5
 176              	.LVL19:
 177              	.L8:
 178              		.loc 1 148 0
 179 0056 03B0     		add	sp, sp, #12
 180 0058 BDE8F08F 		pop	{r4, r5, r6, r7, r8, r9, sl, fp, pc}
 181              		.cfi_endproc
 182              	.LFE122:
 183              		.size	render_left, .-render_left
 184 005c AFF30080 		.section	.text.mf_get_string_width,"ax",%progbits
 185              		.align	2
 186              		.p2align 4,,15
 187              		.global	mf_get_string_width
 188              		.thumb
 189              		.thumb_func
 190              		.type	mf_get_string_width, %function
 191              	mf_get_string_width:
 192              	.LFB120:
 193              		.loc 1 53 0
 194              		.cfi_startproc
 195              		@ args = 0, pretend = 0, frame = 8
 196              		@ frame_needed = 0, uses_anonymous_args = 0
 197              	.LVL20:
 198 0000 2DE9F041 		push	{r4, r5, r6, r7, r8, lr}
 199              	.LCFI3:
 200              		.cfi_def_cfa_offset 24
 201              		.cfi_offset 4, -24
 202              		.cfi_offset 5, -20
 203              		.cfi_offset 6, -16
 204              		.cfi_offset 7, -12
 205              		.cfi_offset 8, -8
 206              		.cfi_offset 14, -4
 207 0004 82B0     		sub	sp, sp, #8
 208              	.LCFI4:
 209              		.cfi_def_cfa_offset 32
 210              		.loc 1 53 0
 211 0006 02AE     		add	r6, sp, #8
 212              		.loc 1 58 0
 213 0008 4FF6FF75 		movw	r5, #65535
 214              		.loc 1 53 0
 215 000c 46F8041D 		str	r1, [r6, #-4]!
 216              		.loc 1 58 0
 217 0010 002A     		cmp	r2, #0
 218 0012 18BF     		it	ne
 219 0014 1546     		movne	r5, r2
 220              	.LVL21:
 221              		.loc 1 60 0
 222 0016 0B78     		ldrb	r3, [r1, #0]	@ zero_extendqisi2
 223              	.LVL22:
 224 0018 6A1E     		subs	r2, r5, #1
 225              		.loc 1 53 0
 226 001a 0746     		mov	r7, r0
ARM GAS  C:\Users\Elis\AppData\Local\Temp\ccOkNZMc.s 			page 5


 227              		.loc 1 58 0
 228 001c 0024     		movs	r4, #0
 229 001e 02F00108 		and	r8, r2, #1
 230              		.loc 1 60 0
 231 0022 002B     		cmp	r3, #0
 232 0024 4FD0     		beq	.L15
 233              		.loc 1 62 0
 234 0026 3046     		mov	r0, r6
 235              	.LVL23:
 236 0028 FFF7FEFF 		bl	mf_getchar
 237              	.LVL24:
 238              		.loc 1 64 0
 239 002c 0928     		cmp	r0, #9
 240              		.loc 1 62 0
 241 002e 0146     		mov	r1, r0
 242              	.LVL25:
 243              		.loc 1 64 0
 244 0030 4DD0     		beq	.L31
 245              	.LVL26:
 246              		.loc 1 78 0
 247 0032 3846     		mov	r0, r7
 248 0034 FFF7FEFF 		bl	mf_character_width
 249              	.LVL27:
 250 0038 84B2     		uxth	r4, r0
 251              	.LVL28:
 252              	.L32:
 253 003a 013D     		subs	r5, r5, #1
 254 003c ADB2     		uxth	r5, r5
 255              	.LVL29:
 256              		.loc 1 60 0
 257 003e 002D     		cmp	r5, #0
 258 0040 41D0     		beq	.L15
 259 0042 B8F1000F 		cmp	r8, #0
 260 0046 23D0     		beq	.L11
 261              	.LVL30:
 262 0048 0198     		ldr	r0, [sp, #4]
 263 004a 0178     		ldrb	r1, [r0, #0]	@ zero_extendqisi2
 264 004c 0029     		cmp	r1, #0
 265 004e 3AD0     		beq	.L15
 266              		.loc 1 62 0
 267 0050 3046     		mov	r0, r6
 268 0052 FFF7FEFF 		bl	mf_getchar
 269              	.LVL31:
 270 0056 0146     		mov	r1, r0
 271              		.loc 1 64 0
 272 0058 0929     		cmp	r1, #9
 273              		.loc 1 67 0
 274 005a 3846     		mov	r0, r7
 275              		.loc 1 64 0
 276 005c 11D1     		bne	.L39
 277              	.LVL32:
 278 005e 29E0     		b	.L38
 279              	.LVL33:
 280              	.L12:
 281              		.loc 1 78 0
 282 0060 FFF7FEFF 		bl	mf_character_width
 283              	.LVL34:
ARM GAS  C:\Users\Elis\AppData\Local\Temp\ccOkNZMc.s 			page 6


 284 0064 0419     		adds	r4, r0, r4
 285              	.LVL35:
 286 0066 A4B2     		uxth	r4, r4
 287              	.LVL36:
 288              	.L13:
 289              		.loc 1 60 0 discriminator 1
 290 0068 019A     		ldr	r2, [sp, #4]
 291 006a 1178     		ldrb	r1, [r2, #0]	@ zero_extendqisi2
 292 006c 013D     		subs	r5, r5, #1
 293              		.loc 1 62 0 discriminator 1
 294 006e 3046     		mov	r0, r6
 295 0070 ADB2     		uxth	r5, r5
 296              	.LVL37:
 297              		.loc 1 60 0 discriminator 1
 298 0072 41B3     		cbz	r1, .L15
 299              		.loc 1 62 0
 300 0074 FFF7FEFF 		bl	mf_getchar
 301              	.LVL38:
 302 0078 0346     		mov	r3, r0
 303              		.loc 1 64 0
 304 007a 092B     		cmp	r3, #9
 305              		.loc 1 78 0
 306 007c 0146     		mov	r1, r0
 307 007e 3846     		mov	r0, r7
 308              		.loc 1 64 0
 309 0080 17D0     		beq	.L35
 310              	.LVL39:
 311              	.L39:
 312              		.loc 1 78 0
 313 0082 FFF7FEFF 		bl	mf_character_width
 314              	.LVL40:
 315 0086 6B1E     		subs	r3, r5, #1
 316 0088 0019     		adds	r0, r0, r4
 317 008a 9DB2     		uxth	r5, r3
 318 008c 84B2     		uxth	r4, r0
 319              	.LVL41:
 320              		.loc 1 60 0
 321 008e D5B1     		cbz	r5, .L15
 322              	.LVL42:
 323              	.L11:
 324              		.loc 1 60 0 is_stmt 0 discriminator 2
 325 0090 019A     		ldr	r2, [sp, #4]
 326 0092 1178     		ldrb	r1, [r2, #0]	@ zero_extendqisi2
 327              		.loc 1 62 0 is_stmt 1 discriminator 2
 328 0094 3046     		mov	r0, r6
 329              		.loc 1 60 0 discriminator 2
 330 0096 B1B1     		cbz	r1, .L15
 331              		.loc 1 62 0
 332 0098 FFF7FEFF 		bl	mf_getchar
 333              	.LVL43:
 334 009c 0346     		mov	r3, r0
 335              	.LVL44:
 336              		.loc 1 64 0
 337 009e 092B     		cmp	r3, #9
 338              		.loc 1 78 0
 339 00a0 0146     		mov	r1, r0
 340 00a2 3846     		mov	r0, r7
ARM GAS  C:\Users\Elis\AppData\Local\Temp\ccOkNZMc.s 			page 7


 341              	.LVL45:
 342              		.loc 1 64 0
 343 00a4 DCD1     		bne	.L12
 344              	.LVL46:
 345              		.loc 1 67 0
 346 00a6 22B2     		sxth	r2, r4
 347 00a8 0021     		movs	r1, #0
 348              	.LVL47:
 349 00aa FFF7FEFF 		bl	mf_round_to_tab
 350              	.LVL48:
 351 00ae 0446     		mov	r4, r0
 352              	.LVL49:
 353              		.loc 1 69 0
 354 00b0 DAE7     		b	.L13
 355              	.LVL50:
 356              	.L35:
 357              		.loc 1 67 0
 358 00b2 3846     		mov	r0, r7
 359              	.LVL51:
 360              	.L38:
 361 00b4 22B2     		sxth	r2, r4
 362 00b6 0021     		movs	r1, #0
 363 00b8 FFF7FEFF 		bl	mf_round_to_tab
 364              	.LVL52:
 365 00bc 6B1E     		subs	r3, r5, #1
 366 00be 9DB2     		uxth	r5, r3
 367 00c0 0446     		mov	r4, r0
 368              	.LVL53:
 369              		.loc 1 60 0
 370 00c2 002D     		cmp	r5, #0
 371 00c4 E4D1     		bne	.L11
 372              	.LVL54:
 373              	.L15:
 374              		.loc 1 82 0
 375 00c6 20B2     		sxth	r0, r4
 376              		.loc 1 83 0
 377 00c8 02B0     		add	sp, sp, #8
 378 00ca BDE8F081 		pop	{r4, r5, r6, r7, r8, pc}
 379              	.LVL55:
 380              	.L31:
 381              		.loc 1 67 0
 382 00ce 2146     		mov	r1, r4
 383 00d0 2246     		mov	r2, r4
 384 00d2 3846     		mov	r0, r7
 385 00d4 FFF7FEFF 		bl	mf_round_to_tab
 386              	.LVL56:
 387 00d8 0446     		mov	r4, r0
 388              	.LVL57:
 389 00da AEE7     		b	.L32
 390              		.cfi_endproc
 391              	.LFE120:
 392              		.size	mf_get_string_width, .-mf_get_string_width
 393 00dc AFF30080 		.section	.text.mf_render_aligned,"ax",%progbits
 394              		.align	2
 395              		.p2align 4,,15
 396              		.global	mf_render_aligned
 397              		.thumb
ARM GAS  C:\Users\Elis\AppData\Local\Temp\ccOkNZMc.s 			page 8


 398              		.thumb_func
 399              		.type	mf_render_aligned, %function
 400              	mf_render_aligned:
 401              	.LFB124:
 402              		.loc 1 219 0
 403              		.cfi_startproc
 404              		@ args = 16, pretend = 0, frame = 24
 405              		@ frame_needed = 0, uses_anonymous_args = 0
 406              	.LVL58:
 407 0000 2DE9F04F 		push	{r4, r5, r6, r7, r8, r9, sl, fp, lr}
 408              	.LCFI5:
 409              		.cfi_def_cfa_offset 36
 410              		.cfi_offset 4, -36
 411              		.cfi_offset 5, -32
 412              		.cfi_offset 6, -28
 413              		.cfi_offset 7, -24
 414              		.cfi_offset 8, -20
 415              		.cfi_offset 9, -16
 416              		.cfi_offset 10, -12
 417              		.cfi_offset 11, -8
 418              		.cfi_offset 14, -4
 419 0004 8BB0     		sub	sp, sp, #44
 420              	.LCFI6:
 421              		.cfi_def_cfa_offset 80
 422              	.LBB8:
 423              	.LBB9:
 424              		.loc 1 92 0
 425 0006 4FF6FF75 		movw	r5, #65535
 426              		.loc 1 94 0
 427 000a 149C     		ldr	r4, [sp, #80]
 428              	.LBE9:
 429              	.LBE8:
 430              		.loc 1 219 0
 431 000c BDF85460 		ldrh	r6, [sp, #84]
 432              	.LBB13:
 433              	.LBB10:
 434              		.loc 1 94 0
 435 0010 94F800C0 		ldrb	ip, [r4, #0]	@ zero_extendqisi2
 436              	.LBE10:
 437              	.LBE13:
 438              		.loc 1 219 0
 439 0014 0591     		str	r1, [sp, #20]
 440              	.LBB14:
 441              	.LBB11:
 442              		.loc 1 92 0
 443 0016 002E     		cmp	r6, #0
 444 0018 08BF     		it	eq
 445 001a 2E46     		moveq	r6, r5
 446 001c 0AAC     		add	r4, sp, #40
 447              	.LBE11:
 448              	.LBE14:
 449              		.loc 1 219 0
 450 001e 9146     		mov	r9, r2
 451 0020 149A     		ldr	r2, [sp, #80]
 452              	.LVL59:
 453 0022 06F1FF3B 		add	fp, r6, #-1
 454 0026 0746     		mov	r7, r0
ARM GAS  C:\Users\Elis\AppData\Local\Temp\ccOkNZMc.s 			page 9


 455 0028 9846     		mov	r8, r3
 456 002a 44F80C2D 		str	r2, [r4, #-12]!
 457              	.LVL60:
 458              	.LBB15:
 459              	.LBB12:
 460              		.loc 1 101 0
 461 002e 0025     		movs	r5, #0
 462 0030 0BF0010A 		and	sl, fp, #1
 463              		.loc 1 94 0
 464 0034 BCF1000F 		cmp	ip, #0
 465 0038 45D0     		beq	.L47
 466              		.loc 1 97 0
 467 003a 2046     		mov	r0, r4
 468              	.LVL61:
 469 003c FFF7FEFF 		bl	mf_getchar
 470              	.LVL62:
 471              		.loc 1 98 0
 472 0040 2028     		cmp	r0, #32
 473              		.loc 1 96 0
 474 0042 4FF0010B 		mov	fp, #1
 475              	.LVL63:
 476              		.loc 1 98 0
 477 0046 09D0     		beq	.L83
 478 0048 A028     		cmp	r0, #160
 479 004a 07D0     		beq	.L83
 480 004c 0A28     		cmp	r0, #10
 481 004e 05D0     		beq	.L83
 482 0050 0D28     		cmp	r0, #13
 483 0052 03D0     		beq	.L83
 484              		.loc 1 101 0
 485 0054 0928     		cmp	r0, #9
 486 0056 14BF     		ite	ne
 487 0058 5D46     		movne	r5, fp
 488 005a 0025     		moveq	r5, #0
 489              	.L83:
 490              	.LVL64:
 491              		.loc 1 94 0
 492 005c B345     		cmp	fp, r6
 493 005e 32D0     		beq	.L47
 494 0060 BAF1000F 		cmp	sl, #0
 495 0064 16D0     		beq	.L42
 496              	.LVL65:
 497              	.L43:
 498 0066 079B     		ldr	r3, [sp, #28]
 499 0068 1878     		ldrb	r0, [r3, #0]	@ zero_extendqisi2
 500 006a 60B3     		cbz	r0, .L47
 501              	.LVL66:
 502              	.L89:
 503              		.loc 1 97 0
 504 006c 2046     		mov	r0, r4
 505 006e FFF7FEFF 		bl	mf_getchar
 506              	.LVL67:
 507              		.loc 1 96 0
 508 0072 0BF1010B 		add	fp, fp, #1
 509              		.loc 1 98 0
 510 0076 2028     		cmp	r0, #32
 511              		.loc 1 96 0
ARM GAS  C:\Users\Elis\AppData\Local\Temp\ccOkNZMc.s 			page 10


 512 0078 1FFA8BFB 		uxth	fp, fp
 513              		.loc 1 98 0
 514 007c 08D0     		beq	.L90
 515 007e A028     		cmp	r0, #160
 516 0080 06D0     		beq	.L90
 517 0082 0A28     		cmp	r0, #10
 518 0084 04D0     		beq	.L90
 519 0086 0D28     		cmp	r0, #13
 520 0088 02D0     		beq	.L90
 521              		.loc 1 101 0
 522 008a 0928     		cmp	r0, #9
 523 008c 18BF     		it	ne
 524 008e 5D46     		movne	r5, fp
 525              	.L90:
 526              	.LVL68:
 527              		.loc 1 94 0
 528 0090 B345     		cmp	fp, r6
 529 0092 18D0     		beq	.L47
 530              	.LVL69:
 531              	.L42:
 532 0094 0799     		ldr	r1, [sp, #28]
 533 0096 0A78     		ldrb	r2, [r1, #0]	@ zero_extendqisi2
 534 0098 AAB1     		cbz	r2, .L47
 535              		.loc 1 96 0
 536 009a 0BF1010E 		add	lr, fp, #1
 537              		.loc 1 97 0
 538 009e 2046     		mov	r0, r4
 539              		.loc 1 96 0
 540 00a0 1FFA8EFB 		uxth	fp, lr
 541              		.loc 1 97 0
 542 00a4 FFF7FEFF 		bl	mf_getchar
 543              	.LVL70:
 544              		.loc 1 98 0
 545 00a8 2028     		cmp	r0, #32
 546 00aa DCD0     		beq	.L43
 547 00ac A028     		cmp	r0, #160
 548 00ae DAD0     		beq	.L43
 549 00b0 0A28     		cmp	r0, #10
 550 00b2 D8D0     		beq	.L43
 551 00b4 0D28     		cmp	r0, #13
 552 00b6 D6D0     		beq	.L43
 553              		.loc 1 94 0
 554 00b8 079B     		ldr	r3, [sp, #28]
 555              		.loc 1 101 0
 556 00ba 0928     		cmp	r0, #9
 557 00bc 18BF     		it	ne
 558 00be 5D46     		movne	r5, fp
 559              	.LVL71:
 560              		.loc 1 94 0
 561 00c0 1878     		ldrb	r0, [r3, #0]	@ zero_extendqisi2
 562 00c2 0028     		cmp	r0, #0
 563 00c4 D2D1     		bne	.L89
 564              	.LVL72:
 565              	.L47:
 566              	.LBE12:
 567              	.LBE15:
 568              		.loc 1 223 0
ARM GAS  C:\Users\Elis\AppData\Local\Temp\ccOkNZMc.s 			page 11


 569 00c6 B8F1000F 		cmp	r8, #0
 570 00ca 09D0     		beq	.L132
 571              		.loc 1 227 0
 572 00cc B8F1010F 		cmp	r8, #1
 573 00d0 00F0E680 		beq	.L133
 574              		.loc 1 233 0
 575 00d4 B8F1020F 		cmp	r8, #2
 576 00d8 0ED0     		beq	.L134
 577              	.LVL73:
 578              	.L40:
 579              		.loc 1 237 0
 580 00da 0BB0     		add	sp, sp, #44
 581 00dc BDE8F08F 		pop	{r4, r5, r6, r7, r8, r9, sl, fp, pc}
 582              	.LVL74:
 583              	.L132:
 584              		.loc 1 225 0
 585 00e0 169C     		ldr	r4, [sp, #88]
 586 00e2 179E     		ldr	r6, [sp, #92]
 587 00e4 0095     		str	r5, [sp, #0]
 588 00e6 0194     		str	r4, [sp, #4]
 589 00e8 0296     		str	r6, [sp, #8]
 590 00ea 3846     		mov	r0, r7
 591 00ec 0599     		ldr	r1, [sp, #20]
 592 00ee 149B     		ldr	r3, [sp, #80]
 593 00f0 4A46     		mov	r2, r9
 594 00f2 FFF7FEFF 		bl	render_left
 595              	.LVL75:
 596 00f6 F0E7     		b	.L40
 597              	.L134:
 598              	.LVL76:
 599 00f8 149E     		ldr	r6, [sp, #80]
 600 00fa 0896     		str	r6, [sp, #32]
 601              	.LVL77:
 602              	.LBB16:
 603              	.LBB17:
 604              		.loc 1 179 0
 605 00fc 002D     		cmp	r5, #0
 606 00fe ECD0     		beq	.L40
 607 0100 0126     		movs	r6, #1
 608              		.loc 1 180 0
 609 0102 08A8     		add	r0, sp, #32
 610 0104 6C1E     		subs	r4, r5, #1
 611 0106 FFF7FEFF 		bl	mf_getchar
 612              	.LVL78:
 613              		.loc 1 179 0
 614 010a AE42     		cmp	r6, r5
 615 010c 04EA0604 		and	r4, r4, r6
 616 0110 12D0     		beq	.L115
 617 0112 2CB1     		cbz	r4, .L50
 618              		.loc 1 180 0
 619 0114 08A8     		add	r0, sp, #32
 620 0116 FFF7FEFF 		bl	mf_getchar
 621              	.LVL79:
 622              		.loc 1 179 0
 623 011a A845     		cmp	r8, r5
 624 011c 4646     		mov	r6, r8
 625 011e 0BD0     		beq	.L115
ARM GAS  C:\Users\Elis\AppData\Local\Temp\ccOkNZMc.s 			page 12


 626              	.L50:
 627              		.loc 1 180 0
 628 0120 08A8     		add	r0, sp, #32
 629 0122 FFF7FEFF 		bl	mf_getchar
 630              	.LVL80:
 631              		.loc 1 179 0
 632 0126 731C     		adds	r3, r6, #1
 633 0128 9CB2     		uxth	r4, r3
 634              		.loc 1 180 0
 635 012a 08A8     		add	r0, sp, #32
 636 012c FFF7FEFF 		bl	mf_getchar
 637              	.LVL81:
 638              		.loc 1 179 0
 639 0130 601C     		adds	r0, r4, #1
 640 0132 86B2     		uxth	r6, r0
 641 0134 AE42     		cmp	r6, r5
 642 0136 F3D1     		bne	.L50
 643              	.L115:
 644              		.loc 1 182 0
 645 0138 059E     		ldr	r6, [sp, #20]
 646 013a 397B     		ldrb	r1, [r7, #12]	@ zero_extendqisi2
 647 013c 1FFA86FA 		uxth	sl, r6
 648 0140 C1EB0A02 		rsb	r2, r1, sl
 649              		.loc 1 185 0
 650 0144 08A8     		add	r0, sp, #32
 651              		.loc 1 182 0
 652 0146 94B2     		uxth	r4, r2
 653              	.LVL82:
 654              		.loc 1 185 0
 655 0148 FFF7FEFF 		bl	mf_rewind
 656              	.LVL83:
 657              		.loc 1 186 0
 658 014c 089B     		ldr	r3, [sp, #32]
 659              		.loc 1 187 0
 660 014e 09A8     		add	r0, sp, #36
 661              		.loc 1 186 0
 662 0150 0993     		str	r3, [sp, #36]
 663              	.LVL84:
 664              		.loc 1 187 0
 665 0152 FFF7FEFF 		bl	mf_getchar
 666              	.LVL85:
 667 0156 05F1FF38 		add	r8, r5, #-1
 668              		.loc 1 190 0
 669 015a 0928     		cmp	r0, #9
 670 015c 08F00108 		and	r8, r8, #1
 671              		.loc 1 187 0
 672 0160 8346     		mov	fp, r0
 673              		.loc 1 190 0
 674 0162 00F0B480 		beq	.L135
 675              		.loc 1 202 0
 676 0166 0146     		mov	r1, r0
 677 0168 3846     		mov	r0, r7
 678 016a FFF7FEFF 		bl	mf_character_width
 679              	.LVL86:
 680 016e 201A     		subs	r0, r4, r0
 681 0170 81B2     		uxth	r1, r0
 682 0172 0591     		str	r1, [sp, #20]
ARM GAS  C:\Users\Elis\AppData\Local\Temp\ccOkNZMc.s 			page 13


 683              	.LVL87:
 684              		.loc 1 208 0
 685 0174 08B2     		sxth	r0, r1
 686 0176 5A46     		mov	r2, fp
 687 0178 4946     		mov	r1, r9
 688 017a 179B     		ldr	r3, [sp, #92]
 689 017c 169C     		ldr	r4, [sp, #88]
 690 017e A047     		blx	r4
 691              	.LVL88:
 692              	.L118:
 693              		.loc 1 183 0
 694 0180 0124     		movs	r4, #1
 695              	.LVL89:
 696 0182 AC42     		cmp	r4, r5
 697 0184 A9D0     		beq	.L40
 698 0186 B8F1000F 		cmp	r8, #0
 699 018a 40D0     		beq	.L54
 700              		.loc 1 185 0
 701 018c 08A8     		add	r0, sp, #32
 702 018e FFF7FEFF 		bl	mf_rewind
 703              	.LVL90:
 704              		.loc 1 186 0
 705 0192 089B     		ldr	r3, [sp, #32]
 706              		.loc 1 187 0
 707 0194 09A8     		add	r0, sp, #36
 708              		.loc 1 186 0
 709 0196 0993     		str	r3, [sp, #36]
 710              		.loc 1 187 0
 711 0198 FFF7FEFF 		bl	mf_getchar
 712              	.LVL91:
 713              		.loc 1 190 0
 714 019c 0928     		cmp	r0, #9
 715              		.loc 1 187 0
 716 019e 8046     		mov	r8, r0
 717              		.loc 1 190 0
 718 01a0 00F0AF80 		beq	.L119
 719              		.loc 1 202 0
 720 01a4 0146     		mov	r1, r0
 721 01a6 3846     		mov	r0, r7
 722 01a8 FFF7FEFF 		bl	mf_character_width
 723              	.LVL92:
 724 01ac 0599     		ldr	r1, [sp, #20]
 725 01ae 081A     		subs	r0, r1, r0
 726 01b0 20E0     		b	.L123
 727              	.LVL93:
 728              	.L52:
 729 01b2 FFF7FEFF 		bl	mf_character_width
 730              	.LVL94:
 731 01b6 0599     		ldr	r1, [sp, #20]
 732              		.loc 1 208 0
 733 01b8 179B     		ldr	r3, [sp, #92]
 734 01ba 169E     		ldr	r6, [sp, #88]
 735              	.LVL95:
 736              		.loc 1 202 0
 737 01bc 0A1A     		subs	r2, r1, r0
 738 01be 1FFA82FB 		uxth	fp, r2
 739              	.LVL96:
ARM GAS  C:\Users\Elis\AppData\Local\Temp\ccOkNZMc.s 			page 14


 740              		.loc 1 208 0
 741 01c2 4946     		mov	r1, r9
 742              	.LVL97:
 743 01c4 4246     		mov	r2, r8
 744 01c6 0FFA8BF0 		sxth	r0, fp
 745 01ca B047     		blx	r6
 746              	.LVL98:
 747              	.L53:
 748              		.loc 1 185 0
 749 01cc 08A8     		add	r0, sp, #32
 750 01ce FFF7FEFF 		bl	mf_rewind
 751              	.LVL99:
 752              		.loc 1 186 0
 753 01d2 089A     		ldr	r2, [sp, #32]
 754              		.loc 1 187 0
 755 01d4 09A8     		add	r0, sp, #36
 756              		.loc 1 186 0
 757 01d6 0992     		str	r2, [sp, #36]
 758              		.loc 1 187 0
 759 01d8 FFF7FEFF 		bl	mf_getchar
 760              	.LVL100:
 761 01dc 8046     		mov	r8, r0
 762              	.LVL101:
 763              		.loc 1 183 0
 764 01de 0134     		adds	r4, r4, #1
 765              		.loc 1 190 0
 766 01e0 B8F1090F 		cmp	r8, #9
 767              		.loc 1 202 0
 768 01e4 0146     		mov	r1, r0
 769              		.loc 1 183 0
 770 01e6 A4B2     		uxth	r4, r4
 771              		.loc 1 202 0
 772 01e8 3846     		mov	r0, r7
 773              		.loc 1 190 0
 774 01ea 3BD0     		beq	.L136
 775              	.LVL102:
 776              		.loc 1 202 0
 777 01ec FFF7FEFF 		bl	mf_character_width
 778              	.LVL103:
 779 01f0 C0EB0B00 		rsb	r0, r0, fp
 780              	.L123:
 781 01f4 86B2     		uxth	r6, r0
 782 01f6 0596     		str	r6, [sp, #20]
 783              	.LVL104:
 784              		.loc 1 208 0
 785 01f8 30B2     		sxth	r0, r6
 786 01fa 4946     		mov	r1, r9
 787 01fc 4246     		mov	r2, r8
 788 01fe 179B     		ldr	r3, [sp, #92]
 789 0200 169E     		ldr	r6, [sp, #88]
 790 0202 B047     		blx	r6
 791              	.LVL105:
 792              	.L121:
 793              		.loc 1 183 0
 794 0204 0134     		adds	r4, r4, #1
 795 0206 A4B2     		uxth	r4, r4
 796              	.LVL106:
ARM GAS  C:\Users\Elis\AppData\Local\Temp\ccOkNZMc.s 			page 15


 797 0208 AC42     		cmp	r4, r5
 798 020a 3FF466AF 		beq	.L40
 799              	.LVL107:
 800              	.L54:
 801              		.loc 1 185 0
 802 020e 08A8     		add	r0, sp, #32
 803 0210 FFF7FEFF 		bl	mf_rewind
 804              	.LVL108:
 805              		.loc 1 186 0
 806 0214 089E     		ldr	r6, [sp, #32]
 807              		.loc 1 187 0
 808 0216 09A8     		add	r0, sp, #36
 809              		.loc 1 186 0
 810 0218 0996     		str	r6, [sp, #36]
 811              		.loc 1 187 0
 812 021a FFF7FEFF 		bl	mf_getchar
 813              	.LVL109:
 814 021e 8046     		mov	r8, r0
 815              	.LVL110:
 816              		.loc 1 190 0
 817 0220 B8F1090F 		cmp	r8, #9
 818              		.loc 1 202 0
 819 0224 0146     		mov	r1, r0
 820 0226 3846     		mov	r0, r7
 821              	.LVL111:
 822              		.loc 1 190 0
 823 0228 C3D1     		bne	.L52
 824              	.LVL112:
 825              	.LBB18:
 826              	.LBB19:
 827              		.loc 1 38 0
 828 022a 6D21     		movs	r1, #109
 829              	.LVL113:
 830 022c FFF7FEFF 		bl	mf_character_width
 831              	.LVL114:
 832              		.loc 1 41 0
 833 0230 2021     		movs	r1, #32
 834              		.loc 1 38 0
 835 0232 4FEAC003 		lsl	r3, r0, #3
 836              		.loc 1 41 0
 837 0236 3846     		mov	r0, r7
 838              		.loc 1 38 0
 839 0238 1FFA83FB 		uxth	fp, r3
 840              	.LVL115:
 841              		.loc 1 41 0
 842 023c FFF7FEFF 		bl	mf_character_width
 843              	.LVL116:
 844 0240 059A     		ldr	r2, [sp, #20]
 845              		.loc 1 44 0
 846 0242 397B     		ldrb	r1, [r7, #12]	@ zero_extendqisi2
 847              		.loc 1 41 0
 848 0244 101A     		subs	r0, r2, r0
 849 0246 86B2     		uxth	r6, r0
 850              	.LVL117:
 851              		.loc 1 44 0
 852 0248 0AEB0103 		add	r3, sl, r1
 853 024c 991B     		subs	r1, r3, r6
ARM GAS  C:\Users\Elis\AppData\Local\Temp\ccOkNZMc.s 			page 16


 854              		.loc 1 45 0
 855 024e 08B2     		sxth	r0, r1
 856              	.LVL118:
 857 0250 90FBFBF2 		sdiv	r2, r0, fp
 858 0254 CBEB0606 		rsb	r6, fp, r6
 859              	.LVL119:
 860 0258 0BFB1203 		mls	r3, fp, r2, r0
 861 025c F118     		adds	r1, r6, r3
 862 025e 1FFA81FB 		uxth	fp, r1
 863              	.LVL120:
 864 0262 B3E7     		b	.L53
 865              	.LVL121:
 866              	.L136:
 867              		.loc 1 38 0
 868 0264 6D21     		movs	r1, #109
 869 0266 3846     		mov	r0, r7
 870              	.LVL122:
 871 0268 FFF7FEFF 		bl	mf_character_width
 872              	.LVL123:
 873              		.loc 1 41 0
 874 026c 2021     		movs	r1, #32
 875              		.loc 1 38 0
 876 026e 4FEAC00C 		lsl	ip, r0, #3
 877              		.loc 1 41 0
 878 0272 3846     		mov	r0, r7
 879              		.loc 1 38 0
 880 0274 1FFA8CF8 		uxth	r8, ip
 881              		.loc 1 41 0
 882 0278 FFF7FEFF 		bl	mf_character_width
 883              	.LVL124:
 884              		.loc 1 44 0
 885 027c 3B7B     		ldrb	r3, [r7, #12]	@ zero_extendqisi2
 886              		.loc 1 41 0
 887 027e C0EB0B01 		rsb	r1, r0, fp
 888 0282 88B2     		uxth	r0, r1
 889              		.loc 1 44 0
 890 0284 0AEB0302 		add	r2, sl, r3
 891 0288 161A     		subs	r6, r2, r0
 892              		.loc 1 45 0
 893 028a 33B2     		sxth	r3, r6
 894 028c 93FBF8F1 		sdiv	r1, r3, r8
 895 0290 C8EB0000 		rsb	r0, r8, r0
 896 0294 08FB1132 		mls	r2, r8, r1, r3
 897 0298 8618     		adds	r6, r0, r2
 898 029a B6B2     		uxth	r6, r6
 899 029c 0596     		str	r6, [sp, #20]
 900              	.LVL125:
 901 029e B1E7     		b	.L121
 902              	.LVL126:
 903              	.L133:
 904              	.LBE19:
 905              	.LBE18:
 906              	.LBE17:
 907              	.LBE16:
 908              		.loc 1 229 0
 909 02a0 1499     		ldr	r1, [sp, #80]
 910 02a2 2A46     		mov	r2, r5
ARM GAS  C:\Users\Elis\AppData\Local\Temp\ccOkNZMc.s 			page 17


 911 02a4 0023     		movs	r3, #0
 912 02a6 3846     		mov	r0, r7
 913 02a8 FFF7FEFF 		bl	mf_get_string_width
 914              	.LVL127:
 915              		.loc 1 230 0
 916 02ac 059C     		ldr	r4, [sp, #20]
 917              		.loc 1 231 0
 918 02ae 169E     		ldr	r6, [sp, #88]
 919 02b0 0095     		str	r5, [sp, #0]
 920              		.loc 1 230 0
 921 02b2 00EBD073 		add	r3, r0, r0, lsr #31
 922 02b6 A4EB6301 		sub	r1, r4, r3, asr #1
 923              	.LVL128:
 924              		.loc 1 231 0
 925 02ba 179C     		ldr	r4, [sp, #92]
 926 02bc 0196     		str	r6, [sp, #4]
 927 02be 0294     		str	r4, [sp, #8]
 928 02c0 3846     		mov	r0, r7
 929              	.LVL129:
 930 02c2 09B2     		sxth	r1, r1
 931              	.LVL130:
 932 02c4 4A46     		mov	r2, r9
 933 02c6 149B     		ldr	r3, [sp, #80]
 934              	.LVL131:
 935 02c8 FFF7FEFF 		bl	render_left
 936              	.LVL132:
 937 02cc 05E7     		b	.L40
 938              	.LVL133:
 939              	.L135:
 940              	.LBB23:
 941              	.LBB22:
 942              	.LBB21:
 943              	.LBB20:
 944              		.loc 1 38 0
 945 02ce 6D21     		movs	r1, #109
 946 02d0 3846     		mov	r0, r7
 947 02d2 FFF7FEFF 		bl	mf_character_width
 948              	.LVL134:
 949              		.loc 1 41 0
 950 02d6 2021     		movs	r1, #32
 951              		.loc 1 38 0
 952 02d8 C600     		lsls	r6, r0, #3
 953              		.loc 1 41 0
 954 02da 3846     		mov	r0, r7
 955 02dc FFF7FEFF 		bl	mf_character_width
 956              	.LVL135:
 957              		.loc 1 44 0
 958 02e0 3B7B     		ldrb	r3, [r7, #12]	@ zero_extendqisi2
 959              		.loc 1 41 0
 960 02e2 221A     		subs	r2, r4, r0
 961 02e4 90B2     		uxth	r0, r2
 962              		.loc 1 44 0
 963 02e6 0AEB0301 		add	r1, sl, r3
 964 02ea 0C1A     		subs	r4, r1, r0
 965              		.loc 1 38 0
 966 02ec B6B2     		uxth	r6, r6
 967              		.loc 1 45 0
ARM GAS  C:\Users\Elis\AppData\Local\Temp\ccOkNZMc.s 			page 18


 968 02ee 23B2     		sxth	r3, r4
 969 02f0 93FBF6F1 		sdiv	r1, r3, r6
 970 02f4 821B     		subs	r2, r0, r6
 971 02f6 06FB1136 		mls	r6, r6, r1, r3
 972 02fa 9019     		adds	r0, r2, r6
 973 02fc 86B2     		uxth	r6, r0
 974 02fe 0596     		str	r6, [sp, #20]
 975              	.LVL136:
 976 0300 3EE7     		b	.L118
 977              	.LVL137:
 978              	.L119:
 979              		.loc 1 38 0
 980 0302 6D21     		movs	r1, #109
 981 0304 3846     		mov	r0, r7
 982 0306 FFF7FEFF 		bl	mf_character_width
 983              	.LVL138:
 984              		.loc 1 41 0
 985 030a 2021     		movs	r1, #32
 986              		.loc 1 38 0
 987 030c 4FEAC00C 		lsl	ip, r0, #3
 988              		.loc 1 41 0
 989 0310 3846     		mov	r0, r7
 990              		.loc 1 38 0
 991 0312 1FFA8CF8 		uxth	r8, ip
 992              		.loc 1 41 0
 993 0316 FFF7FEFF 		bl	mf_character_width
 994              	.LVL139:
 995 031a 059A     		ldr	r2, [sp, #20]
 996              		.loc 1 44 0
 997 031c 3B7B     		ldrb	r3, [r7, #12]	@ zero_extendqisi2
 998              		.loc 1 41 0
 999 031e 161A     		subs	r6, r2, r0
 1000 0320 B0B2     		uxth	r0, r6
 1001              	.LVL140:
 1002              		.loc 1 44 0
 1003 0322 0AEB0301 		add	r1, sl, r3
 1004 0326 0B1A     		subs	r3, r1, r0
 1005              		.loc 1 45 0
 1006 0328 1EB2     		sxth	r6, r3
 1007 032a 96FBF8F1 		sdiv	r1, r6, r8
 1008 032e C8EB0002 		rsb	r2, r8, r0
 1009 0332 08FB1160 		mls	r0, r8, r1, r6
 1010 0336 1318     		adds	r3, r2, r0
 1011 0338 9EB2     		uxth	r6, r3
 1012 033a 0596     		str	r6, [sp, #20]
 1013              	.LVL141:
 1014 033c 62E7     		b	.L121
 1015              	.LBE20:
 1016              	.LBE21:
 1017              	.LBE22:
 1018              	.LBE23:
 1019              		.cfi_endproc
 1020              	.LFE124:
 1021              		.size	mf_render_aligned, .-mf_render_aligned
 1022 033e 00BF     		.section	.text.mf_render_justified,"ax",%progbits
 1023              		.align	2
 1024              		.p2align 4,,15
ARM GAS  C:\Users\Elis\AppData\Local\Temp\ccOkNZMc.s 			page 19


 1025              		.global	mf_render_justified
 1026              		.thumb
 1027              		.thumb_func
 1028              		.type	mf_render_justified, %function
 1029              	mf_render_justified:
 1030              	.LFB125:
 1031              		.loc 1 249 0
 1032              		.cfi_startproc
 1033              		@ args = 16, pretend = 0, frame = 0
 1034              		@ frame_needed = 0, uses_anonymous_args = 0
 1035              		@ link register save eliminated.
 1036              	.LVL142:
 1037              		.loc 1 249 0
 1038 0000 BDF80430 		ldrh	r3, [sp, #4]
 1039              	.LVL143:
 1040              		.loc 1 251 0
 1041 0004 0193     		str	r3, [sp, #4]
 1042 0006 0023     		movs	r3, #0
 1043              		.loc 1 252 0
 1044              		.loc 1 251 0
 1045 0008 FFF7FEBF 		b	mf_render_aligned
 1046              	.LVL144:
 1047              		.cfi_endproc
 1048              	.LFE125:
 1049              		.size	mf_render_justified, .-mf_render_justified
 1050 000c AFF30080 		.text
 1051              	.Letext0:
 1052              		.file 2 "c:\\chibistudio\\tools\\gnu tools arm embedded\\4.7 2014q2\\bin\\../lib/gcc/arm-none-eabi
 1053              		.file 3 "../../ugfx/src/gdisp/mcufont/mf_font.h"
 1054              		.file 4 "../../ugfx/src/gdisp/mcufont/mf_encoding.h"
 1055              		.file 5 "../../ugfx/src/gdisp/mcufont/mf_justify.h"
 1056              		.file 6 "../../chibios/os/ports/common/ARMCMx/CMSIS/include/core_cm4.h"