ARM GAS  C:\Users\Elis\AppData\Local\Temp\ccaKRZiY.s 			page 1


   1              		.syntax unified
   2              		.cpu cortex-m4
   3              		.fpu softvfp
   4              		.eabi_attribute 20, 1
   5              		.eabi_attribute 21, 1
   6              		.eabi_attribute 23, 3
   7              		.eabi_attribute 24, 1
   8              		.eabi_attribute 25, 1
   9              		.eabi_attribute 26, 1
  10              		.eabi_attribute 30, 2
  11              		.eabi_attribute 34, 1
  12              		.eabi_attribute 18, 4
  13              		.thumb
  14              		.file	"mf_wordwrap.c"
  15              		.text
  16              	.Ltext0:
  17              		.cfi_sections	.debug_frame
  18              		.section	.text.mf_wordwrap,"ax",%progbits
  19              		.align	2
  20              		.p2align 4,,15
  21              		.global	mf_wordwrap
  22              		.thumb
  23              		.thumb_func
  24              		.type	mf_wordwrap, %function
  25              	mf_wordwrap:
  26              	.LFB119:
  27              		.file 1 "../../ugfx/src/gdisp/mcufont/mf_wordwrap.c"
  28              		.loc 1 231 0
  29              		.cfi_startproc
  30              		@ args = 4, pretend = 0, frame = 16
  31              		@ frame_needed = 0, uses_anonymous_args = 0
  32              	.LVL0:
  33 0000 2DE9F04F 		push	{r4, r5, r6, r7, r8, r9, sl, fp, lr}
  34              	.LCFI0:
  35              		.cfi_def_cfa_offset 36
  36              		.cfi_offset 4, -36
  37              		.cfi_offset 5, -32
  38              		.cfi_offset 6, -28
  39              		.cfi_offset 7, -24
  40              		.cfi_offset 8, -20
  41              		.cfi_offset 9, -16
  42              		.cfi_offset 10, -12
  43              		.cfi_offset 11, -8
  44              		.cfi_offset 14, -4
  45 0004 85B0     		sub	sp, sp, #20
  46              	.LCFI1:
  47              		.cfi_def_cfa_offset 56
  48              		.loc 1 241 0
  49 0006 9146     		mov	r9, r2
  50              	.LVL1:
  51              		.loc 1 231 0
  52 0008 0392     		str	r2, [sp, #12]
  53              		.loc 1 243 0
  54 000a 1278     		ldrb	r2, [r2, #0]	@ zero_extendqisi2
  55              	.LVL2:
  56              		.loc 1 231 0
  57 000c 0293     		str	r3, [sp, #8]
ARM GAS  C:\Users\Elis\AppData\Local\Temp\ccaKRZiY.s 			page 2


  58 000e 0746     		mov	r7, r0
  59 0010 8846     		mov	r8, r1
  60              		.loc 1 243 0
  61 0012 002A     		cmp	r2, #0
  62 0014 48D0     		beq	.L1
  63              		.loc 1 243 0 is_stmt 0 discriminator 1
  64 0016 CDF80490 		str	r9, [sp, #4]
  65              	.LVL3:
  66              	.L10:
  67              	.LBB5:
  68              		.loc 1 276 0 is_stmt 1 discriminator 1
  69 001a DDF804A0 		ldr	sl, [sp, #4]
  70 001e 0025     		movs	r5, #0
  71 0020 5646     		mov	r6, sl
  72 0022 2C46     		mov	r4, r5
  73 0024 AB46     		mov	fp, r5
  74 0026 0EE0     		b	.L11
  75              	.LVL4:
  76              	.L32:
  77              	.LBB6:
  78              	.LBB7:
  79              		.loc 1 15 0
  80 0028 B9F1090F 		cmp	r9, #9
  81 002c 23D0     		beq	.L8
  82 002e B9F10D0F 		cmp	r9, #13
  83 0032 20D0     		beq	.L8
  84 0034 B9F12D0F 		cmp	r9, #45
  85 0038 1DD0     		beq	.L8
  86 003a DDF80CA0 		ldr	sl, [sp, #12]
  87              	.L12:
  88 003e 1FFA82FB 		uxth	fp, r2
  89 0042 9AF80020 		ldrb	r2, [sl, #0]	@ zero_extendqisi2
  90              	.LVL5:
  91              	.L11:
  92              	.LBE7:
  93              	.LBE6:
  94              		.loc 1 255 0 discriminator 1
  95 0046 03A8     		add	r0, sp, #12
  96              	.LBE5:
  97              		.loc 1 248 0 discriminator 1
  98 0048 E2B1     		cbz	r2, .L7
  99              	.LBB12:
 100              		.loc 1 255 0
 101 004a FFF7FEFF 		bl	mf_getchar
 102              	.LVL6:
 103 004e 8146     		mov	r9, r0
 104              	.LVL7:
 105              		.loc 1 256 0
 106 0050 4946     		mov	r1, r9
 107 0052 3846     		mov	r0, r7
 108              	.LVL8:
 109 0054 FFF7FEFF 		bl	mf_character_width
 110              	.LVL9:
 111 0058 00EB0B0C 		add	ip, r0, fp
 112 005c 1FFA8CF2 		uxth	r2, ip
 113              	.LVL10:
 114              		.loc 1 271 0
ARM GAS  C:\Users\Elis\AppData\Local\Temp\ccaKRZiY.s 			page 3


 115 0060 601C     		adds	r0, r4, #1
 116              		.loc 1 258 0
 117 0062 B9F10A0F 		cmp	r9, #10
 118              		.loc 1 265 0
 119 0066 11B2     		sxth	r1, r2
 120              		.loc 1 258 0
 121 0068 1AD0     		beq	.L30
 122              		.loc 1 265 0
 123 006a 4145     		cmp	r1, r8
 124 006c 08DC     		bgt	.L31
 125              	.LBB10:
 126              	.LBB8:
 127              		.loc 1 15 0
 128 006e B9F1200F 		cmp	r9, #32
 129              	.LBE8:
 130              	.LBE10:
 131              		.loc 1 271 0
 132 0072 84B2     		uxth	r4, r0
 133              	.LVL11:
 134              	.LBB11:
 135              	.LBB9:
 136              		.loc 1 15 0
 137 0074 D8D1     		bne	.L32
 138              	.L8:
 139              	.LBE9:
 140              	.LBE11:
 141              		.loc 1 277 0
 142 0076 DDF80CA0 		ldr	sl, [sp, #12]
 143              	.LVL12:
 144              		.loc 1 276 0
 145 007a 2546     		mov	r5, r4
 146              		.loc 1 277 0
 147 007c 5646     		mov	r6, sl
 148 007e DEE7     		b	.L12
 149              	.LVL13:
 150              	.L31:
 151              		.loc 1 267 0
 152 0080 CDF80CA0 		str	sl, [sp, #12]
 153              	.LVL14:
 154              	.L7:
 155              	.LBE12:
 156              		.loc 1 282 0
 157 0084 0DB9     		cbnz	r5, .L5
 158              	.LVL15:
 159              		.loc 1 285 0
 160 0086 039E     		ldr	r6, [sp, #12]
 161              	.LVL16:
 162 0088 2546     		mov	r5, r4
 163              	.LVL17:
 164              	.L5:
 165              		.loc 1 288 0
 166 008a 0198     		ldr	r0, [sp, #4]
 167 008c 0E9A     		ldr	r2, [sp, #56]
 168 008e 029B     		ldr	r3, [sp, #8]
 169 0090 A9B2     		uxth	r1, r5
 170 0092 9847     		blx	r3
 171              	.LVL18:
ARM GAS  C:\Users\Elis\AppData\Local\Temp\ccaKRZiY.s 			page 4


 172 0094 40B1     		cbz	r0, .L1
 173              	.LVL19:
 174              		.loc 1 292 0
 175 0096 0396     		str	r6, [sp, #12]
 176              	.LVL20:
 177              		.loc 1 243 0
 178 0098 3278     		ldrb	r2, [r6, #0]	@ zero_extendqisi2
 179 009a 2AB1     		cbz	r2, .L1
 180 009c 0196     		str	r6, [sp, #4]
 181 009e BCE7     		b	.L10
 182              	.LVL21:
 183              	.L30:
 184              	.LBB13:
 185              		.loc 1 260 0
 186 00a0 0446     		mov	r4, r0
 187              	.LVL22:
 188 00a2 85B2     		uxth	r5, r0
 189              	.LVL23:
 190              		.loc 1 261 0
 191 00a4 039E     		ldr	r6, [sp, #12]
 192              	.LVL24:
 193 00a6 F0E7     		b	.L5
 194              	.LVL25:
 195              	.L1:
 196              	.LBE13:
 197              		.loc 1 296 0
 198 00a8 05B0     		add	sp, sp, #20
 199 00aa BDE8F08F 		pop	{r4, r5, r6, r7, r8, r9, sl, fp, pc}
 200              		.cfi_endproc
 201              	.LFE119:
 202              		.size	mf_wordwrap, .-mf_wordwrap
 203 00ae 00BF     		.text
 204              	.Letext0:
 205              		.file 2 "c:\\chibistudio\\tools\\gnu tools arm embedded\\4.7 2014q2\\bin\\../lib/gcc/arm-none-eabi
 206              		.file 3 "../../ugfx/src/gdisp/mcufont/mf_font.h"
 207              		.file 4 "../../ugfx/src/gdisp/mcufont/mf_encoding.h"
 208              		.file 5 "../../ugfx/src/gdisp/mcufont/mf_wordwrap.h"
 209              		.file 6 "../../chibios/os/ports/common/ARMCMx/CMSIS/include/core_cm4.h"