ARM GAS  C:\Users\Elis\AppData\Local\Temp\ccZdfxr9.s 			page 1


   1              		.syntax unified
   2              		.cpu cortex-m4
   3              		.fpu softvfp
   4              		.eabi_attribute 20, 1
   5              		.eabi_attribute 21, 1
   6              		.eabi_attribute 23, 3
   7              		.eabi_attribute 24, 1
   8              		.eabi_attribute 25, 1
   9              		.eabi_attribute 26, 1
  10              		.eabi_attribute 30, 2
  11              		.eabi_attribute 34, 1
  12              		.eabi_attribute 18, 4
  13              		.thumb
  14              		.file	"pwm_lld.c"
  15              		.text
  16              	.Ltext0:
  17              		.cfi_sections	.debug_frame
  18              		.section	.text.VectorB4,"ax",%progbits
  19              		.align	2
  20              		.p2align 4,,15
  21              		.global	VectorB4
  22              		.thumb
  23              		.thumb_func
  24              		.type	VectorB4, %function
  25              	VectorB4:
  26              	.LFB119:
  27              		.file 1 "../../chibios/os/hal/platforms/STM32/TIMv1/pwm_lld.c"
  28              		.loc 1 216 0
  29              		.cfi_startproc
  30              		@ args = 0, pretend = 0, frame = 0
  31              		@ frame_needed = 0, uses_anonymous_args = 0
  32 0000 38B5     		push	{r3, r4, r5, lr}
  33              	.LCFI0:
  34              		.cfi_def_cfa_offset 16
  35              		.cfi_offset 3, -16
  36              		.cfi_offset 4, -12
  37              		.cfi_offset 5, -8
  38              		.cfi_offset 14, -4
  39              	.LBB4:
  40              	.LBB5:
  41              		.loc 1 115 0
  42 0002 1E4D     		ldr	r5, .L27
  43              	.LBE5:
  44              	.LBE4:
  45              		.loc 1 218 0
  46 0004 FFF7FEFF 		bl	dbg_check_enter_isr
  47              	.LVL0:
  48              	.LBB8:
  49              	.LBB6:
  50              		.loc 1 115 0
  51 0008 2B69     		ldr	r3, [r5, #16]
  52 000a 1A69     		ldr	r2, [r3, #16]
  53              	.LVL1:
  54              		.loc 1 116 0
  55 000c DC68     		ldr	r4, [r3, #12]
  56 000e 1440     		ands	r4, r4, r2
  57 0010 A4B2     		uxth	r4, r4
ARM GAS  C:\Users\Elis\AppData\Local\Temp\ccZdfxr9.s 			page 2


  58              	.LVL2:
  59              		.loc 1 117 0
  60 0012 E1B2     		uxtb	r1, r4
  61              		.loc 1 118 0
  62 0014 04F00200 		and	r0, r4, #2
  63              		.loc 1 117 0
  64 0018 C943     		mvns	r1, r1
  65              		.loc 1 118 0
  66 001a 82B2     		uxth	r2, r0
  67              		.loc 1 117 0
  68 001c 1961     		str	r1, [r3, #16]
  69              		.loc 1 118 0
  70 001e 002A     		cmp	r2, #0
  71 0020 27D1     		bne	.L23
  72              	.L2:
  73              		.loc 1 120 0
  74 0022 04F00400 		and	r0, r4, #4
  75 0026 82B2     		uxth	r2, r0
  76 0028 002A     		cmp	r2, #0
  77 002a 1DD1     		bne	.L24
  78              	.L3:
  79              		.loc 1 122 0
  80 002c 04F00800 		and	r0, r4, #8
  81 0030 82B2     		uxth	r2, r0
  82 0032 A2B9     		cbnz	r2, .L25
  83              	.L4:
  84              		.loc 1 124 0
  85 0034 04F01000 		and	r0, r4, #16
  86 0038 82B2     		uxth	r2, r0
  87 003a 5AB9     		cbnz	r2, .L26
  88              	.L5:
  89              		.loc 1 126 0
  90 003c E307     		lsls	r3, r4, #31
  91 003e 03D5     		bpl	.L6
  92              		.loc 1 127 0
  93 0040 6A68     		ldr	r2, [r5, #4]
  94 0042 0E48     		ldr	r0, .L27
  95 0044 9368     		ldr	r3, [r2, #8]
  96 0046 9847     		blx	r3
  97              	.LVL3:
  98              	.L6:
  99              	.LBE6:
 100              	.LBE8:
 101              		.loc 1 222 0
 102 0048 FFF7FEFF 		bl	dbg_check_leave_isr
 103              	.LVL4:
 104              		.loc 1 223 0
 105 004c BDE83840 		pop	{r3, r4, r5, lr}
 106              		.loc 1 222 0
 107 0050 FFF7FEBF 		b	_port_irq_epilogue
 108              	.LVL5:
 109              	.L26:
 110              	.LBB9:
 111              	.LBB7:
 112              		.loc 1 125 0
 113 0054 6B68     		ldr	r3, [r5, #4]
 114 0056 0948     		ldr	r0, .L27
ARM GAS  C:\Users\Elis\AppData\Local\Temp\ccZdfxr9.s 			page 3


 115 0058 996A     		ldr	r1, [r3, #40]
 116 005a 8847     		blx	r1
 117              	.LVL6:
 118 005c EEE7     		b	.L5
 119              	.L25:
 120              		.loc 1 123 0
 121 005e 6B68     		ldr	r3, [r5, #4]
 122 0060 0648     		ldr	r0, .L27
 123 0062 196A     		ldr	r1, [r3, #32]
 124 0064 8847     		blx	r1
 125              	.LVL7:
 126 0066 E5E7     		b	.L4
 127              	.L24:
 128              		.loc 1 121 0
 129 0068 6B68     		ldr	r3, [r5, #4]
 130 006a 0448     		ldr	r0, .L27
 131 006c 9969     		ldr	r1, [r3, #24]
 132 006e 8847     		blx	r1
 133              	.LVL8:
 134 0070 DCE7     		b	.L3
 135              	.L23:
 136              		.loc 1 119 0
 137 0072 6B68     		ldr	r3, [r5, #4]
 138 0074 2846     		mov	r0, r5
 139 0076 1969     		ldr	r1, [r3, #16]
 140 0078 8847     		blx	r1
 141              	.LVL9:
 142 007a D2E7     		b	.L2
 143              	.L28:
 144              		.align	2
 145              	.L27:
 146 007c 00000000 		.word	.LANCHOR0
 147              	.LBE7:
 148              	.LBE9:
 149              		.cfi_endproc
 150              	.LFE119:
 151              		.size	VectorB4, .-VectorB4
 152              		.section	.text.pwm_lld_init,"ax",%progbits
 153              		.align	2
 154              		.p2align 4,,15
 155              		.global	pwm_lld_init
 156              		.thumb
 157              		.thumb_func
 158              		.type	pwm_lld_init, %function
 159              	pwm_lld_init:
 160              	.LFB120:
 161              		.loc 1 345 0
 162              		.cfi_startproc
 163              		@ args = 0, pretend = 0, frame = 0
 164              		@ frame_needed = 0, uses_anonymous_args = 0
 165 0000 10B5     		push	{r4, lr}
 166              	.LCFI1:
 167              		.cfi_def_cfa_offset 8
 168              		.cfi_offset 4, -8
 169              		.cfi_offset 14, -4
 170              		.loc 1 361 0
 171 0002 40F20004 		movw	r4, #:lower16:.LANCHOR0
ARM GAS  C:\Users\Elis\AppData\Local\Temp\ccZdfxr9.s 			page 4


 172 0006 C0F20004 		movt	r4, #:upper16:.LANCHOR0
 173 000a 2046     		mov	r0, r4
 174 000c FFF7FEFF 		bl	pwmObjectInit
 175              	.LVL10:
 176              		.loc 1 362 0
 177 0010 4FF48063 		mov	r3, #1024
 178 0014 C4F20003 		movt	r3, 16384
 179 0018 2361     		str	r3, [r4, #16]
 180 001a 10BD     		pop	{r4, pc}
 181              		.cfi_endproc
 182              	.LFE120:
 183              		.size	pwm_lld_init, .-pwm_lld_init
 184 001c AFF30080 		.section	.text.pwm_lld_start,"ax",%progbits
 185              		.align	2
 186              		.p2align 4,,15
 187              		.global	pwm_lld_start
 188              		.thumb
 189              		.thumb_func
 190              		.type	pwm_lld_start, %function
 191              	pwm_lld_start:
 192              	.LFB121:
 193              		.loc 1 399 0
 194              		.cfi_startproc
 195              		@ args = 0, pretend = 0, frame = 0
 196              		@ frame_needed = 0, uses_anonymous_args = 0
 197              	.LVL11:
 198              		.loc 1 404 0
 199 0000 0378     		ldrb	r3, [r0, #0]	@ zero_extendqisi2
 200 0002 012B     		cmp	r3, #1
 201              		.loc 1 399 0
 202 0004 70B5     		push	{r4, r5, r6, lr}
 203              	.LCFI2:
 204              		.cfi_def_cfa_offset 16
 205              		.cfi_offset 4, -16
 206              		.cfi_offset 5, -12
 207              		.cfi_offset 6, -8
 208              		.cfi_offset 14, -4
 209              		.loc 1 399 0
 210 0006 0446     		mov	r4, r0
 211              		.loc 1 404 0
 212 0008 61D0     		beq	.L57
 213              		.loc 1 492 0
 214 000a 0369     		ldr	r3, [r0, #16]
 215 000c 0022     		movs	r2, #0
 216 000e 1A60     		str	r2, [r3, #0]
 217              		.loc 1 493 0
 218 0010 5A63     		str	r2, [r3, #52]
 219              		.loc 1 494 0
 220 0012 9A63     		str	r2, [r3, #56]
 221              		.loc 1 495 0
 222 0014 DA63     		str	r2, [r3, #60]
 223              		.loc 1 496 0
 224 0016 1A64     		str	r2, [r3, #64]
 225              		.loc 1 497 0
 226 0018 5A62     		str	r2, [r3, #36]
 227              	.LVL12:
 228              	.L33:
ARM GAS  C:\Users\Elis\AppData\Local\Temp\ccZdfxr9.s 			page 5


 229              		.loc 1 501 0
 230 001a 6268     		ldr	r2, [r4, #4]
 231              	.LVL13:
 232 001c E668     		ldr	r6, [r4, #12]
 233 001e 1568     		ldr	r5, [r2, #0]
 234              		.loc 1 506 0
 235 0020 2489     		ldrh	r4, [r4, #8]
 236              	.LVL14:
 237              		.loc 1 511 0
 238 0022 D168     		ldr	r1, [r2, #12]
 239              		.loc 1 507 0
 240 0024 D06A     		ldr	r0, [r2, #44]
 241              		.loc 1 501 0
 242 0026 B6FBF5F5 		udiv	r5, r6, r5
 243 002a 013D     		subs	r5, r5, #1
 244              	.LVL15:
 245              		.loc 1 506 0
 246 002c 013C     		subs	r4, r4, #1
 247              		.loc 1 511 0
 248 002e 01F00F01 		and	r1, r1, #15
 249              		.loc 1 505 0
 250 0032 ADB2     		uxth	r5, r5
 251              	.LVL16:
 252              		.loc 1 506 0
 253 0034 A4B2     		uxth	r4, r4
 254              		.loc 1 511 0
 255 0036 0129     		cmp	r1, #1
 256              		.loc 1 505 0
 257 0038 9D62     		str	r5, [r3, #40]
 258              		.loc 1 506 0
 259 003a DC62     		str	r4, [r3, #44]
 260              		.loc 1 507 0
 261 003c 5860     		str	r0, [r3, #4]
 262              	.LVL17:
 263              		.loc 1 511 0
 264 003e 03D0     		beq	.L34
 265              		.loc 1 510 0
 266 0040 0229     		cmp	r1, #2
 267 0042 0CBF     		ite	eq
 268 0044 0321     		moveq	r1, #3
 269 0046 0021     		movne	r1, #0
 270              	.L34:
 271              	.LVL18:
 272              		.loc 1 519 0
 273 0048 5069     		ldr	r0, [r2, #20]
 274 004a 00F00F04 		and	r4, r0, #15
 275 004e 012C     		cmp	r4, #1
 276 0050 22D0     		beq	.L38
 277 0052 022C     		cmp	r4, #2
 278 0054 1ED0     		beq	.L58
 279              		.loc 1 527 0
 280 0056 D069     		ldr	r0, [r2, #28]
 281 0058 00F00F04 		and	r4, r0, #15
 282 005c 012C     		cmp	r4, #1
 283 005e 22D0     		beq	.L41
 284              	.L61:
 285 0060 022C     		cmp	r4, #2
ARM GAS  C:\Users\Elis\AppData\Local\Temp\ccZdfxr9.s 			page 6


 286 0062 2FD0     		beq	.L59
 287              		.loc 1 535 0
 288 0064 506A     		ldr	r0, [r2, #36]
 289 0066 00F00F04 		and	r4, r0, #15
 290 006a 012C     		cmp	r4, #1
 291 006c 22D0     		beq	.L44
 292              	.L62:
 293 006e 022C     		cmp	r4, #2
 294 0070 23D0     		beq	.L60
 295              	.L43:
 296              		.loc 1 584 0
 297 0072 146B     		ldr	r4, [r2, #48]
 298              		.loc 1 583 0
 299 0074 9068     		ldr	r0, [r2, #8]
 300              		.loc 1 580 0
 301 0076 1962     		str	r1, [r3, #32]
 302              		.loc 1 584 0
 303 0078 24F0FF02 		bic	r2, r4, #255
 304              	.LVL19:
 305              		.loc 1 583 0
 306 007c 0028     		cmp	r0, #0
 307 007e 18BF     		it	ne
 308 0080 42F00102 		orrne	r2, r2, #1
 309              		.loc 1 581 0
 310 0084 0121     		movs	r1, #1
 311              	.LVL20:
 312              		.loc 1 582 0
 313 0086 0020     		movs	r0, #0
 314              		.loc 1 581 0
 315 0088 5961     		str	r1, [r3, #20]
 316              		.loc 1 582 0
 317 008a 1861     		str	r0, [r3, #16]
 318              		.loc 1 583 0
 319 008c DA60     		str	r2, [r3, #12]
 320              		.loc 1 593 0
 321 008e 8522     		movs	r2, #133
 322 0090 1A60     		str	r2, [r3, #0]
 323 0092 70BD     		pop	{r4, r5, r6, pc}
 324              	.LVL21:
 325              	.L58:
 326              		.loc 1 521 0
 327 0094 41F02001 		orr	r1, r1, #32
 328              	.LVL22:
 329              	.L38:
 330              		.loc 1 527 0
 331 0098 D069     		ldr	r0, [r2, #28]
 332 009a 00F00F04 		and	r4, r0, #15
 333 009e 012C     		cmp	r4, #1
 334              		.loc 1 523 0
 335 00a0 41F01001 		orr	r1, r1, #16
 336              	.LVL23:
 337              		.loc 1 527 0
 338 00a4 DCD1     		bne	.L61
 339              	.L41:
 340              		.loc 1 531 0
 341 00a6 41F48071 		orr	r1, r1, #256
 342              	.LVL24:
ARM GAS  C:\Users\Elis\AppData\Local\Temp\ccZdfxr9.s 			page 7


 343              	.L63:
 344              		.loc 1 535 0
 345 00aa 506A     		ldr	r0, [r2, #36]
 346 00ac 00F00F04 		and	r4, r0, #15
 347 00b0 012C     		cmp	r4, #1
 348 00b2 DCD1     		bne	.L62
 349              	.L44:
 350              		.loc 1 539 0
 351 00b4 41F48051 		orr	r1, r1, #4096
 352              	.LVL25:
 353 00b8 DBE7     		b	.L43
 354              	.L60:
 355              		.loc 1 537 0
 356 00ba 41F40051 		orr	r1, r1, #8192
 357              	.LVL26:
 358              		.loc 1 539 0
 359 00be 41F48051 		orr	r1, r1, #4096
 360              	.LVL27:
 361 00c2 D6E7     		b	.L43
 362              	.L59:
 363              		.loc 1 529 0
 364 00c4 41F40071 		orr	r1, r1, #512
 365              	.LVL28:
 366              		.loc 1 531 0
 367 00c8 41F48071 		orr	r1, r1, #256
 368              	.LVL29:
 369 00cc EDE7     		b	.L63
 370              	.LVL30:
 371              	.L57:
 372              		.loc 1 431 0
 373 00ce 1048     		ldr	r0, .L65
 374              	.LVL31:
 375 00d0 8442     		cmp	r4, r0
 376 00d2 05D0     		beq	.L64
 377              	.L32:
 378              		.loc 1 485 0
 379 00d4 2369     		ldr	r3, [r4, #16]
 380 00d6 46F66801 		movw	r1, #26728
 381 00da 9961     		str	r1, [r3, #24]
 382              		.loc 1 487 0
 383 00dc D961     		str	r1, [r3, #28]
 384 00de 9CE7     		b	.L33
 385              	.L64:
 386              		.loc 1 432 0
 387 00e0 4FF46051 		mov	r1, #14336
 388 00e4 C4F20201 		movt	r1, 16386
 389              		.loc 1 434 0
 390 00e8 1D20     		movs	r0, #29
 391              		.loc 1 432 0
 392 00ea 0D6C     		ldr	r5, [r1, #64]
 393 00ec 45F00206 		orr	r6, r5, #2
 394 00f0 0E64     		str	r6, [r1, #64]
 395              		.loc 1 433 0
 396 00f2 0B6A     		ldr	r3, [r1, #32]
 397 00f4 0025     		movs	r5, #0
 398 00f6 43F00202 		orr	r2, r3, #2
 399 00fa 0A62     		str	r2, [r1, #32]
ARM GAS  C:\Users\Elis\AppData\Local\Temp\ccZdfxr9.s 			page 8


 400 00fc 0D62     		str	r5, [r1, #32]
 401              		.loc 1 434 0
 402 00fe 7021     		movs	r1, #112
 403 0100 FFF7FEFF 		bl	nvicEnableVector
 404              	.LVL32:
 405              		.loc 1 436 0
 406 0104 4FF43D40 		mov	r0, #48384
 407 0108 C0F20150 		movt	r0, 1281
 408 010c E060     		str	r0, [r4, #12]
 409 010e E1E7     		b	.L32
 410              	.L66:
 411              		.align	2
 412              	.L65:
 413 0110 00000000 		.word	.LANCHOR0
 414              		.cfi_endproc
 415              	.LFE121:
 416              		.size	pwm_lld_start, .-pwm_lld_start
 417 0114 AFF30080 		.section	.text.pwm_lld_stop,"ax",%progbits
 417      AFF30080 
 417      AFF30080 
 418              		.align	2
 419              		.p2align 4,,15
 420              		.global	pwm_lld_stop
 421              		.thumb
 422              		.thumb_func
 423              		.type	pwm_lld_stop, %function
 424              	pwm_lld_stop:
 425              	.LFB122:
 426              		.loc 1 604 0
 427              		.cfi_startproc
 428              		@ args = 0, pretend = 0, frame = 0
 429              		@ frame_needed = 0, uses_anonymous_args = 0
 430              	.LVL33:
 431 0000 08B5     		push	{r3, lr}
 432              	.LCFI3:
 433              		.cfi_def_cfa_offset 8
 434              		.cfi_offset 3, -8
 435              		.cfi_offset 14, -4
 436              		.loc 1 607 0
 437 0002 0378     		ldrb	r3, [r0, #0]	@ zero_extendqisi2
 438 0004 022B     		cmp	r3, #2
 439 0006 00D0     		beq	.L71
 440              	.LVL34:
 441              	.L67:
 442 0008 08BD     		pop	{r3, pc}
 443              	.LVL35:
 444              	.L71:
 445              		.loc 1 629 0
 446 000a 0A4B     		ldr	r3, .L72
 447              		.loc 1 608 0
 448 000c 0169     		ldr	r1, [r0, #16]
 449 000e 0022     		movs	r2, #0
 450              		.loc 1 629 0
 451 0010 9842     		cmp	r0, r3
 452              		.loc 1 608 0
 453 0012 0A60     		str	r2, [r1, #0]
 454              		.loc 1 609 0
ARM GAS  C:\Users\Elis\AppData\Local\Temp\ccZdfxr9.s 			page 9


 455 0014 CA60     		str	r2, [r1, #12]
 456              		.loc 1 610 0
 457 0016 0A61     		str	r2, [r1, #16]
 458              		.loc 1 629 0
 459 0018 F6D1     		bne	.L67
 460              		.loc 1 630 0
 461 001a 1D20     		movs	r0, #29
 462              	.LVL36:
 463 001c FFF7FEFF 		bl	nvicDisableVector
 464              	.LVL37:
 465              		.loc 1 631 0
 466 0020 4FF46050 		mov	r0, #14336
 467 0024 C4F20200 		movt	r0, 16386
 468 0028 016C     		ldr	r1, [r0, #64]
 469 002a 21F00202 		bic	r2, r1, #2
 470 002e 0264     		str	r2, [r0, #64]
 471 0030 EAE7     		b	.L67
 472              	.L73:
 473 0032 00BF     		.align	2
 474              	.L72:
 475 0034 00000000 		.word	.LANCHOR0
 476              		.cfi_endproc
 477              	.LFE122:
 478              		.size	pwm_lld_stop, .-pwm_lld_stop
 479 0038 AFF30080 		.section	.text.pwm_lld_enable_channel,"ax",%progbits
 479      AFF30080 
 480              		.align	2
 481              		.p2align 4,,15
 482              		.global	pwm_lld_enable_channel
 483              		.thumb
 484              		.thumb_func
 485              		.type	pwm_lld_enable_channel, %function
 486              	pwm_lld_enable_channel:
 487              	.LFB123:
 488              		.loc 1 676 0
 489              		.cfi_startproc
 490              		@ args = 0, pretend = 0, frame = 0
 491              		@ frame_needed = 0, uses_anonymous_args = 0
 492              		@ link register save eliminated.
 493              	.LVL38:
 494 0000 10B4     		push	{r4}
 495              	.LCFI4:
 496              		.cfi_def_cfa_offset 4
 497              		.cfi_offset 4, -4
 498              		.loc 1 681 0
 499 0002 4468     		ldr	r4, [r0, #4]
 500              		.loc 1 678 0
 501 0004 0369     		ldr	r3, [r0, #16]
 502              		.loc 1 681 0
 503 0006 04EBC100 		add	r0, r4, r1, lsl #3
 504              	.LVL39:
 505              		.loc 1 678 0
 506 000a 01F10C04 		add	r4, r1, #12
 507 000e 03EB8404 		add	r4, r3, r4, lsl #2
 508              		.loc 1 681 0
 509 0012 0069     		ldr	r0, [r0, #16]
 510              		.loc 1 678 0
ARM GAS  C:\Users\Elis\AppData\Local\Temp\ccZdfxr9.s 			page 10


 511 0014 6260     		str	r2, [r4, #4]
 512              		.loc 1 681 0
 513 0016 48B1     		cbz	r0, .L74
 514              	.LBB10:
 515              		.loc 1 685 0
 516 0018 0220     		movs	r0, #2
 517              		.loc 1 682 0
 518 001a DA68     		ldr	r2, [r3, #12]
 519              	.LVL40:
 520              		.loc 1 685 0
 521 001c 00FA01F1 		lsl	r1, r0, r1
 522              	.LVL41:
 523 0020 1142     		tst	r1, r2
 524 0022 03D1     		bne	.L74
 525              		.loc 1 686 0
 526 0024 0A43     		orrs	r2, r2, r1
 527              	.LVL42:
 528              		.loc 1 687 0
 529 0026 C843     		mvns	r0, r1
 530              		.loc 1 686 0
 531 0028 DA60     		str	r2, [r3, #12]
 532              		.loc 1 687 0
 533 002a 1861     		str	r0, [r3, #16]
 534              	.L74:
 535              	.LBE10:
 536              		.loc 1 690 0
 537 002c 10BC     		pop	{r4}
 538 002e 7047     		bx	lr
 539              		.cfi_endproc
 540              	.LFE123:
 541              		.size	pwm_lld_enable_channel, .-pwm_lld_enable_channel
 542              		.section	.text.pwm_lld_disable_channel,"ax",%progbits
 543              		.align	2
 544              		.p2align 4,,15
 545              		.global	pwm_lld_disable_channel
 546              		.thumb
 547              		.thumb_func
 548              		.type	pwm_lld_disable_channel, %function
 549              	pwm_lld_disable_channel:
 550              	.LFB124:
 551              		.loc 1 704 0
 552              		.cfi_startproc
 553              		@ args = 0, pretend = 0, frame = 0
 554              		@ frame_needed = 0, uses_anonymous_args = 0
 555              		@ link register save eliminated.
 556              	.LVL43:
 557              		.loc 1 706 0
 558 0000 0369     		ldr	r3, [r0, #16]
 559 0002 01F10C02 		add	r2, r1, #12
 560 0006 03EB8202 		add	r2, r3, r2, lsl #2
 561 000a 0020     		movs	r0, #0
 562              	.LVL44:
 563 000c 5060     		str	r0, [r2, #4]
 564              		.loc 1 707 0
 565 000e DA68     		ldr	r2, [r3, #12]
 566 0010 0220     		movs	r0, #2
 567 0012 00FA01F1 		lsl	r1, r0, r1
ARM GAS  C:\Users\Elis\AppData\Local\Temp\ccZdfxr9.s 			page 11


 568              	.LVL45:
 569 0016 22EA0102 		bic	r2, r2, r1
 570 001a DA60     		str	r2, [r3, #12]
 571 001c 7047     		bx	lr
 572              		.cfi_endproc
 573              	.LFE124:
 574              		.size	pwm_lld_disable_channel, .-pwm_lld_disable_channel
 575              		.global	PWMD3
 576 001e 00BF     		.section	.bss.PWMD3,"aw",%nobits
 577              		.align	2
 578              		.set	.LANCHOR0,. + 0
 579              		.type	PWMD3, %object
 580              		.size	PWMD3, 20
 581              	PWMD3:
 582 0000 00000000 		.space	20
 582      00000000 
 582      00000000 
 582      00000000 
 582      00000000 
 583              		.text
 584              	.Letext0:
 585              		.file 2 "c:\\chibistudio\\tools\\gnu tools arm embedded\\4.7 2014q2\\bin\\../lib/gcc/arm-none-eabi
 586              		.file 3 "../../chibios/os/hal/platforms/STM32F4xx/stm32f4xx.h"
 587              		.file 4 "../../chibios/os/hal/include/pwm.h"
 588              		.file 5 "../../chibios/os/hal/platforms/STM32/TIMv1/pwm_lld.h"
 589              		.file 6 "../../chibios/os/hal/platforms/STM32/TIMv1/stm32_tim.h"
 590              		.file 7 "../../chibios/os/ports/common/ARMCMx/CMSIS/include/core_cm4.h"
 591              		.file 8 "../../chibios/os/kernel/include/chdebug.h"
 592              		.file 9 "../../chibios/os/ports/GCC/ARMCMx/chcore_v7m.h"
 593              		.file 10 "../../chibios/os/ports/common/ARMCMx/nvic.h"