ARM GAS  C:\Users\Elis\AppData\Local\Temp\ccwn0TXn.s 			page 1


   1              		.syntax unified
   2              		.cpu cortex-m4
   3              		.fpu softvfp
   4              		.eabi_attribute 20, 1
   5              		.eabi_attribute 21, 1
   6              		.eabi_attribute 23, 3
   7              		.eabi_attribute 24, 1
   8              		.eabi_attribute 25, 1
   9              		.eabi_attribute 26, 1
  10              		.eabi_attribute 30, 2
  11              		.eabi_attribute 34, 1
  12              		.eabi_attribute 18, 4
  13              		.thumb
  14              		.file	"sdc.c"
  15              		.text
  16              	.Ltext0:
  17              		.cfi_sections	.debug_frame
  18              		.section	.text.sdcGetInfo,"ax",%progbits
  19              		.align	2
  20              		.p2align 4,,15
  21              		.global	sdcGetInfo
  22              		.thumb
  23              		.thumb_func
  24              		.type	sdcGetInfo, %function
  25              	sdcGetInfo:
  26              	.LFB129:
  27              		.file 1 "../../chibios/os/hal/src/sdc.c"
  28              		.loc 1 512 0
  29              		.cfi_startproc
  30              		@ args = 0, pretend = 0, frame = 0
  31              		@ frame_needed = 0, uses_anonymous_args = 0
  32              		@ link register save eliminated.
  33              	.LVL0:
  34              		.loc 1 516 0
  35 0000 0379     		ldrb	r3, [r0, #4]	@ zero_extendqisi2
  36 0002 052B     		cmp	r3, #5
  37 0004 01D0     		beq	.L5
  38              		.loc 1 517 0
  39 0006 0120     		movs	r0, #1
  40              	.LVL1:
  41              		.loc 1 523 0
  42 0008 7047     		bx	lr
  43              	.LVL2:
  44              	.L5:
  45              		.loc 1 519 0
  46 000a 806A     		ldr	r0, [r0, #40]
  47              	.LVL3:
  48              		.loc 1 520 0
  49 000c 4FF40072 		mov	r2, #512
  50              		.loc 1 519 0
  51 0010 4860     		str	r0, [r1, #4]
  52              		.loc 1 520 0
  53 0012 0A60     		str	r2, [r1, #0]
  54              		.loc 1 522 0
  55 0014 0020     		movs	r0, #0
  56 0016 7047     		bx	lr
  57              		.cfi_endproc
ARM GAS  C:\Users\Elis\AppData\Local\Temp\ccwn0TXn.s 			page 2


  58              	.LFE129:
  59              		.size	sdcGetInfo, .-sdcGetInfo
  60 0018 AFF30080 		.section	.text.sdcConnect,"ax",%progbits
  60      AFF30080 
  61              		.align	2
  62              		.p2align 4,,15
  63              		.global	sdcConnect
  64              		.thumb
  65              		.thumb_func
  66              		.type	sdcConnect, %function
  67              	sdcConnect:
  68              	.LFB123:
  69              		.loc 1 198 0
  70              		.cfi_startproc
  71              		@ args = 0, pretend = 0, frame = 8
  72              		@ frame_needed = 0, uses_anonymous_args = 0
  73              	.LVL4:
  74 0000 F0B5     		push	{r4, r5, r6, r7, lr}
  75              	.LCFI0:
  76              		.cfi_def_cfa_offset 20
  77              		.cfi_offset 4, -20
  78              		.cfi_offset 5, -16
  79              		.cfi_offset 6, -12
  80              		.cfi_offset 7, -8
  81              		.cfi_offset 14, -4
  82              		.loc 1 206 0
  83 0002 0323     		movs	r3, #3
  84              		.loc 1 198 0
  85 0004 83B0     		sub	sp, sp, #12
  86              	.LCFI1:
  87              		.cfi_def_cfa_offset 32
  88              		.loc 1 206 0
  89 0006 0371     		strb	r3, [r0, #4]
  90              		.loc 1 198 0
  91 0008 0446     		mov	r4, r0
  92              		.loc 1 209 0
  93 000a FFF7FEFF 		bl	sdc_lld_start_clk
  94              	.LVL5:
  95              		.loc 1 212 0
  96 000e 0021     		movs	r1, #0
  97 0010 0A46     		mov	r2, r1
  98 0012 2046     		mov	r0, r4
  99 0014 FFF7FEFF 		bl	sdc_lld_send_cmd_none
 100              	.LVL6:
 101              		.loc 1 215 0
 102 0018 4FF4D572 		mov	r2, #426
 103 001c 2046     		mov	r0, r4
 104 001e 0821     		movs	r1, #8
 105 0020 01AB     		add	r3, sp, #4
 106 0022 FFF7FEFF 		bl	sdc_lld_send_cmd_short_crc
 107              	.LVL7:
 108 0026 0246     		mov	r2, r0
 109 0028 70B9     		cbnz	r0, .L7
 110              		.loc 1 219 0
 111 002a 0199     		ldr	r1, [sp, #4]
 112              		.loc 1 217 0
 113 002c 0120     		movs	r0, #1
ARM GAS  C:\Users\Elis\AppData\Local\Temp\ccwn0TXn.s 			page 3


 114              		.loc 1 219 0
 115 002e C1F30323 		ubfx	r3, r1, #8, #4
 116 0032 8342     		cmp	r3, r0
 117              		.loc 1 217 0
 118 0034 2063     		str	r0, [r4, #48]
 119              		.loc 1 219 0
 120 0036 7CD0     		beq	.L33
 121              	.L8:
 122              	.LDL1:
 123              		.loc 1 330 0
 124 0038 2046     		mov	r0, r4
 125 003a FFF7FEFF 		bl	sdc_lld_stop_clk
 126              	.LVL8:
 127              		.loc 1 331 0
 128 003e 0223     		movs	r3, #2
 129 0040 2371     		strb	r3, [r4, #4]
 130              		.loc 1 332 0
 131 0042 0120     		movs	r0, #1
 132              	.L16:
 133              		.loc 1 333 0
 134 0044 03B0     		add	sp, sp, #12
 135 0046 F0BD     		pop	{r4, r5, r6, r7, pc}
 136              	.L7:
 137              		.loc 1 234 0
 138 0048 0020     		movs	r0, #0
 139              		.loc 1 237 0
 140 004a 0146     		mov	r1, r0
 141              		.loc 1 234 0
 142 004c 2063     		str	r0, [r4, #48]
 143              		.loc 1 237 0
 144 004e 0A46     		mov	r2, r1
 145 0050 2046     		mov	r0, r4
 146 0052 FFF7FEFF 		bl	sdc_lld_send_cmd_none
 147              	.LVL9:
 148              	.L9:
 149              	.LBB5:
 150              		.loc 1 253 0
 151 0056 256B     		ldr	r5, [r4, #48]
 152              		.loc 1 254 0
 153 0058 0026     		movs	r6, #0
 154 005a 3346     		mov	r3, r6
 155              		.loc 1 253 0
 156 005c 05F00F00 		and	r0, r5, #15
 157              		.loc 1 254 0
 158 0060 C8F21006 		movt	r6, 32784
 159 0064 CCF21003 		movt	r3, 49168
 160 0068 0128     		cmp	r0, #1
 161 006a 14BF     		ite	ne
 162 006c 3546     		movne	r5, r6
 163 006e 1D46     		moveq	r5, r3
 164              	.LVL10:
 165              		.loc 1 256 0
 166 0070 6426     		movs	r6, #100
 167              	.LVL11:
 168              	.L13:
 169              		.loc 1 261 0
 170 0072 2046     		mov	r0, r4
ARM GAS  C:\Users\Elis\AppData\Local\Temp\ccwn0TXn.s 			page 4


 171 0074 3721     		movs	r1, #55
 172 0076 0022     		movs	r2, #0
 173 0078 01AB     		add	r3, sp, #4
 174 007a FFF7FEFF 		bl	sdc_lld_send_cmd_short_crc
 175              	.LVL12:
 176 007e 0028     		cmp	r0, #0
 177 0080 DAD1     		bne	.L8
 178              		.loc 1 262 0 discriminator 1
 179 0082 4EF20801 		movw	r1, #57352
 180 0086 019A     		ldr	r2, [sp, #4]
 181 0088 CFF6FF51 		movt	r1, 65023
 182 008c 1140     		ands	r1, r1, r2
 183              		.loc 1 261 0 discriminator 1
 184 008e 0029     		cmp	r1, #0
 185 0090 D2D1     		bne	.L8
 186              		.loc 1 264 0
 187 0092 2046     		mov	r0, r4
 188 0094 2921     		movs	r1, #41
 189 0096 2A46     		mov	r2, r5
 190 0098 01AB     		add	r3, sp, #4
 191 009a FFF7FEFF 		bl	sdc_lld_send_cmd_short
 192              	.LVL13:
 193 009e 0746     		mov	r7, r0
 194 00a0 0028     		cmp	r0, #0
 195 00a2 C9D1     		bne	.L8
 196              		.loc 1 266 0
 197 00a4 019B     		ldr	r3, [sp, #4]
 198 00a6 002B     		cmp	r3, #0
 199 00a8 55DB     		blt	.L32
 200              		.loc 1 271 0
 201 00aa 013E     		subs	r6, r6, #1
 202 00ac C4D0     		beq	.L8
 203              		.loc 1 273 0
 204 00ae 0A20     		movs	r0, #10
 205 00b0 FFF7FEFF 		bl	chThdSleep
 206              	.LVL14:
 207              		.loc 1 261 0
 208 00b4 2046     		mov	r0, r4
 209 00b6 3721     		movs	r1, #55
 210 00b8 3A46     		mov	r2, r7
 211 00ba 01AB     		add	r3, sp, #4
 212 00bc FFF7FEFF 		bl	sdc_lld_send_cmd_short_crc
 213              	.LVL15:
 214 00c0 0028     		cmp	r0, #0
 215 00c2 B9D1     		bne	.L8
 216              		.loc 1 262 0
 217 00c4 4EF20803 		movw	r3, #57352
 218 00c8 0198     		ldr	r0, [sp, #4]
 219 00ca CFF6FF53 		movt	r3, 65023
 220 00ce 0340     		ands	r3, r3, r0
 221              		.loc 1 261 0
 222 00d0 002B     		cmp	r3, #0
 223 00d2 B1D1     		bne	.L8
 224              		.loc 1 264 0
 225 00d4 2046     		mov	r0, r4
 226 00d6 2921     		movs	r1, #41
 227 00d8 2A46     		mov	r2, r5
ARM GAS  C:\Users\Elis\AppData\Local\Temp\ccwn0TXn.s 			page 5


 228 00da 01AB     		add	r3, sp, #4
 229 00dc FFF7FEFF 		bl	sdc_lld_send_cmd_short
 230              	.LVL16:
 231 00e0 0746     		mov	r7, r0
 232 00e2 0028     		cmp	r0, #0
 233 00e4 A8D1     		bne	.L8
 234              		.loc 1 266 0
 235 00e6 019B     		ldr	r3, [sp, #4]
 236 00e8 002B     		cmp	r3, #0
 237 00ea 34DB     		blt	.L32
 238              		.loc 1 273 0
 239 00ec 0A20     		movs	r0, #10
 240 00ee FFF7FEFF 		bl	chThdSleep
 241              	.LVL17:
 242              		.loc 1 261 0
 243 00f2 2046     		mov	r0, r4
 244 00f4 3721     		movs	r1, #55
 245 00f6 3A46     		mov	r2, r7
 246 00f8 01AB     		add	r3, sp, #4
 247 00fa FFF7FEFF 		bl	sdc_lld_send_cmd_short_crc
 248              	.LVL18:
 249 00fe 0028     		cmp	r0, #0
 250 0100 9AD1     		bne	.L8
 251              		.loc 1 262 0
 252 0102 4EF20801 		movw	r1, #57352
 253 0106 019A     		ldr	r2, [sp, #4]
 254 0108 CFF6FF51 		movt	r1, 65023
 255 010c 1140     		ands	r1, r1, r2
 256              		.loc 1 261 0
 257 010e 0029     		cmp	r1, #0
 258 0110 92D1     		bne	.L8
 259              		.loc 1 264 0
 260 0112 2046     		mov	r0, r4
 261 0114 2921     		movs	r1, #41
 262 0116 2A46     		mov	r2, r5
 263 0118 01AB     		add	r3, sp, #4
 264 011a FFF7FEFF 		bl	sdc_lld_send_cmd_short
 265              	.LVL19:
 266 011e 0028     		cmp	r0, #0
 267 0120 8AD1     		bne	.L8
 268              		.loc 1 266 0
 269 0122 019B     		ldr	r3, [sp, #4]
 270 0124 002B     		cmp	r3, #0
 271 0126 16DB     		blt	.L32
 272              		.loc 1 273 0
 273 0128 0A20     		movs	r0, #10
 274 012a 023E     		subs	r6, r6, #2
 275 012c FFF7FEFF 		bl	chThdSleep
 276              	.LVL20:
 277 0130 9FE7     		b	.L13
 278              	.LVL21:
 279              	.L33:
 280              	.LBE5:
 281              		.loc 1 221 0
 282 0132 2046     		mov	r0, r4
 283 0134 3721     		movs	r1, #55
 284 0136 01AB     		add	r3, sp, #4
ARM GAS  C:\Users\Elis\AppData\Local\Temp\ccwn0TXn.s 			page 6


 285 0138 FFF7FEFF 		bl	sdc_lld_send_cmd_short_crc
 286              	.LVL22:
 287 013c 0028     		cmp	r0, #0
 288 013e 7FF47BAF 		bne	.L8
 289              		.loc 1 222 0 discriminator 1
 290 0142 4EF20801 		movw	r1, #57352
 291 0146 019A     		ldr	r2, [sp, #4]
 292 0148 CFF6FF51 		movt	r1, 65023
 293 014c 1140     		ands	r1, r1, r2
 294              		.loc 1 221 0 discriminator 1
 295 014e 0029     		cmp	r1, #0
 296 0150 7FF472AF 		bne	.L8
 297 0154 7FE7     		b	.L9
 298              	.LVL23:
 299              	.L32:
 300              	.LBB6:
 301              		.loc 1 267 0
 302 0156 5B00     		lsls	r3, r3, #1
 303 0158 03D5     		bpl	.L12
 304              		.loc 1 268 0
 305 015a 206B     		ldr	r0, [r4, #48]
 306 015c 40F01001 		orr	r1, r0, #16
 307 0160 2163     		str	r1, [r4, #48]
 308              	.L12:
 309              	.LBE6:
 310              		.loc 1 278 0
 311 0162 0022     		movs	r2, #0
 312 0164 2046     		mov	r0, r4
 313 0166 0221     		movs	r1, #2
 314 0168 04F10803 		add	r3, r4, #8
 315 016c FFF7FEFF 		bl	sdc_lld_send_cmd_long_crc
 316              	.LVL24:
 317 0170 0246     		mov	r2, r0
 318 0172 0028     		cmp	r0, #0
 319 0174 7FF460AF 		bne	.L8
 320              		.loc 1 282 0
 321 0178 2046     		mov	r0, r4
 322 017a 0321     		movs	r1, #3
 323 017c 04F13803 		add	r3, r4, #56
 324 0180 FFF7FEFF 		bl	sdc_lld_send_cmd_short_crc
 325              	.LVL25:
 326 0184 0028     		cmp	r0, #0
 327 0186 7FF457AF 		bne	.L8
 328              		.loc 1 288 0
 329 018a 04F11805 		add	r5, r4, #24
 330              	.LVL26:
 331              		.loc 1 287 0
 332 018e 2046     		mov	r0, r4
 333 0190 0921     		movs	r1, #9
 334 0192 A26B     		ldr	r2, [r4, #56]
 335 0194 2B46     		mov	r3, r5
 336 0196 FFF7FEFF 		bl	sdc_lld_send_cmd_long_crc
 337              	.LVL27:
 338 019a 0028     		cmp	r0, #0
 339 019c 7FF44CAF 		bne	.L8
 340              		.loc 1 292 0
 341 01a0 2046     		mov	r0, r4
ARM GAS  C:\Users\Elis\AppData\Local\Temp\ccwn0TXn.s 			page 7


 342 01a2 FFF7FEFF 		bl	sdc_lld_set_data_clk
 343              	.LVL28:
 344              		.loc 1 295 0
 345 01a6 2046     		mov	r0, r4
 346 01a8 0721     		movs	r1, #7
 347 01aa A26B     		ldr	r2, [r4, #56]
 348 01ac 01AB     		add	r3, sp, #4
 349 01ae FFF7FEFF 		bl	sdc_lld_send_cmd_short_crc
 350              	.LVL29:
 351 01b2 0028     		cmp	r0, #0
 352 01b4 7FF440AF 		bne	.L8
 353              		.loc 1 300 0
 354 01b8 2046     		mov	r0, r4
 355 01ba 1021     		movs	r1, #16
 356 01bc 4FF40072 		mov	r2, #512
 357 01c0 01AB     		add	r3, sp, #4
 358 01c2 FFF7FEFF 		bl	sdc_lld_send_cmd_short_crc
 359              	.LVL30:
 360 01c6 0028     		cmp	r0, #0
 361 01c8 7FF436AF 		bne	.L8
 362              		.loc 1 302 0
 363 01cc 4EF20802 		movw	r2, #57352
 364 01d0 019B     		ldr	r3, [sp, #4]
 365 01d2 CFF6FF52 		movt	r2, 65023
 366 01d6 1A40     		ands	r2, r2, r3
 367              		.loc 1 301 0
 368 01d8 002A     		cmp	r2, #0
 369 01da 7FF42DAF 		bne	.L8
 370              		.loc 1 306 0
 371 01de 206B     		ldr	r0, [r4, #48]
 372 01e0 00F00F01 		and	r1, r0, #15
 373 01e4 0129     		cmp	r1, #1
 374 01e6 27D8     		bhi	.L14
 375              		.loc 1 309 0
 376 01e8 0121     		movs	r1, #1
 377 01ea 2046     		mov	r0, r4
 378 01ec FFF7FEFF 		bl	sdc_lld_set_bus_mode
 379              	.LVL31:
 380              		.loc 1 310 0
 381 01f0 2046     		mov	r0, r4
 382 01f2 3721     		movs	r1, #55
 383 01f4 A26B     		ldr	r2, [r4, #56]
 384 01f6 01AB     		add	r3, sp, #4
 385 01f8 FFF7FEFF 		bl	sdc_lld_send_cmd_short_crc
 386              	.LVL32:
 387 01fc 0028     		cmp	r0, #0
 388 01fe 7FF41BAF 		bne	.L8
 389              		.loc 1 311 0 discriminator 1
 390 0202 4EF20802 		movw	r2, #57352
 391 0206 019B     		ldr	r3, [sp, #4]
 392 0208 CFF6FF52 		movt	r2, 65023
 393 020c 1A40     		ands	r2, r2, r3
 394              		.loc 1 310 0 discriminator 1
 395 020e 002A     		cmp	r2, #0
 396 0210 7FF412AF 		bne	.L8
 397              		.loc 1 313 0
 398 0214 2046     		mov	r0, r4
ARM GAS  C:\Users\Elis\AppData\Local\Temp\ccwn0TXn.s 			page 8


 399 0216 0621     		movs	r1, #6
 400 0218 0222     		movs	r2, #2
 401 021a 01AB     		add	r3, sp, #4
 402 021c FFF7FEFF 		bl	sdc_lld_send_cmd_short_crc
 403              	.LVL33:
 404 0220 0028     		cmp	r0, #0
 405 0222 7FF409AF 		bne	.L8
 406              		.loc 1 314 0 discriminator 1
 407 0226 4EF20800 		movw	r0, #57352
 408 022a 0199     		ldr	r1, [sp, #4]
 409 022c CFF6FF50 		movt	r0, 65023
 410 0230 0840     		ands	r0, r0, r1
 411              		.loc 1 313 0 discriminator 1
 412 0232 0028     		cmp	r0, #0
 413 0234 7FF400AF 		bne	.L8
 414              	.L14:
 415              		.loc 1 320 0
 416 0238 2846     		mov	r0, r5
 417 023a FFF7FEFF 		bl	mmcsdGetCapacity
 418              	.LVL34:
 419 023e A062     		str	r0, [r4, #40]
 420              		.loc 1 321 0
 421 0240 0028     		cmp	r0, #0
 422 0242 3FF4F9AE 		beq	.L8
 423              		.loc 1 325 0
 424 0246 0522     		movs	r2, #5
 425 0248 2271     		strb	r2, [r4, #4]
 426              		.loc 1 326 0
 427 024a 0020     		movs	r0, #0
 428 024c FAE6     		b	.L16
 429              		.cfi_endproc
 430              	.LFE123:
 431              		.size	sdcConnect, .-sdcConnect
 432 024e 00BF     		.section	.text.sdcSync,"ax",%progbits
 433              		.align	2
 434              		.p2align 4,,15
 435              		.global	sdcSync
 436              		.thumb
 437              		.thumb_func
 438              		.type	sdcSync, %function
 439              	sdcSync:
 440              	.LFB128:
 441              		.loc 1 482 0
 442              		.cfi_startproc
 443              		@ args = 0, pretend = 0, frame = 0
 444              		@ frame_needed = 0, uses_anonymous_args = 0
 445              	.LVL35:
 446 0000 38B5     		push	{r3, r4, r5, lr}
 447              	.LCFI2:
 448              		.cfi_def_cfa_offset 16
 449              		.cfi_offset 3, -16
 450              		.cfi_offset 4, -12
 451              		.cfi_offset 5, -8
 452              		.cfi_offset 14, -4
 453              		.loc 1 487 0
 454 0002 0579     		ldrb	r5, [r0, #4]	@ zero_extendqisi2
 455 0004 052D     		cmp	r5, #5
ARM GAS  C:\Users\Elis\AppData\Local\Temp\ccwn0TXn.s 			page 9


 456              		.loc 1 482 0
 457 0006 0446     		mov	r4, r0
 458              		.loc 1 487 0
 459 0008 01D0     		beq	.L37
 460              		.loc 1 488 0
 461 000a 0120     		movs	r0, #1
 462              	.LVL36:
 463              		.loc 1 498 0
 464 000c 38BD     		pop	{r3, r4, r5, pc}
 465              	.LVL37:
 466              	.L37:
 467              	.LBB9:
 468              	.LBB10:
 469              		.loc 1 491 0
 470 000e 0823     		movs	r3, #8
 471 0010 0371     		strb	r3, [r0, #4]
 472              		.loc 1 493 0
 473 0012 FFF7FEFF 		bl	sdc_lld_sync
 474              	.LVL38:
 475              		.loc 1 496 0
 476 0016 2571     		strb	r5, [r4, #4]
 477 0018 38BD     		pop	{r3, r4, r5, pc}
 478              	.LBE10:
 479              	.LBE9:
 480              		.cfi_endproc
 481              	.LFE128:
 482              		.size	sdcSync, .-sdcSync
 483 001a 00BFAFF3 		.section	.text.sdcWrite,"ax",%progbits
 483      0080
 484              		.align	2
 485              		.p2align 4,,15
 486              		.global	sdcWrite
 487              		.thumb
 488              		.thumb_func
 489              		.type	sdcWrite, %function
 490              	sdcWrite:
 491              	.LFB126:
 492              		.loc 1 428 0
 493              		.cfi_startproc
 494              		@ args = 0, pretend = 0, frame = 0
 495              		@ frame_needed = 0, uses_anonymous_args = 0
 496              	.LVL39:
 497 0000 70B5     		push	{r4, r5, r6, lr}
 498              	.LCFI3:
 499              		.cfi_def_cfa_offset 16
 500              		.cfi_offset 4, -16
 501              		.cfi_offset 5, -12
 502              		.cfi_offset 6, -8
 503              		.cfi_offset 14, -4
 504              		.loc 1 434 0
 505 0002 4E1E     		subs	r6, r1, #1
 506 0004 856A     		ldr	r5, [r0, #40]
 507 0006 F618     		adds	r6, r6, r3
 508 0008 AE42     		cmp	r6, r5
 509              		.loc 1 428 0
 510 000a 0446     		mov	r4, r0
 511              		.loc 1 434 0
ARM GAS  C:\Users\Elis\AppData\Local\Temp\ccwn0TXn.s 			page 10


 512 000c 05D9     		bls	.L39
 513              		.loc 1 435 0
 514 000e 406B     		ldr	r0, [r0, #52]
 515              	.LVL40:
 516 0010 40F08001 		orr	r1, r0, #128
 517              	.LVL41:
 518 0014 6163     		str	r1, [r4, #52]
 519              		.loc 1 436 0
 520 0016 0120     		movs	r0, #1
 521 0018 70BD     		pop	{r4, r5, r6, pc}
 522              	.LVL42:
 523              	.L39:
 524              	.LBB13:
 525              	.LBB14:
 526              		.loc 1 440 0
 527 001a 0725     		movs	r5, #7
 528 001c 0571     		strb	r5, [r0, #4]
 529              		.loc 1 442 0
 530 001e FFF7FEFF 		bl	sdc_lld_write
 531              	.LVL43:
 532              		.loc 1 445 0
 533 0022 0523     		movs	r3, #5
 534 0024 2371     		strb	r3, [r4, #4]
 535              	.LBE14:
 536              	.LBE13:
 537              		.loc 1 447 0
 538 0026 70BD     		pop	{r4, r5, r6, pc}
 539              		.cfi_endproc
 540              	.LFE126:
 541              		.size	sdcWrite, .-sdcWrite
 542 0028 AFF30080 		.section	.text.sdcRead,"ax",%progbits
 542      AFF30080 
 543              		.align	2
 544              		.p2align 4,,15
 545              		.global	sdcRead
 546              		.thumb
 547              		.thumb_func
 548              		.type	sdcRead, %function
 549              	sdcRead:
 550              	.LFB125:
 551              		.loc 1 390 0
 552              		.cfi_startproc
 553              		@ args = 0, pretend = 0, frame = 0
 554              		@ frame_needed = 0, uses_anonymous_args = 0
 555              	.LVL44:
 556 0000 70B5     		push	{r4, r5, r6, lr}
 557              	.LCFI4:
 558              		.cfi_def_cfa_offset 16
 559              		.cfi_offset 4, -16
 560              		.cfi_offset 5, -12
 561              		.cfi_offset 6, -8
 562              		.cfi_offset 14, -4
 563              		.loc 1 396 0
 564 0002 4E1E     		subs	r6, r1, #1
 565 0004 856A     		ldr	r5, [r0, #40]
 566 0006 F618     		adds	r6, r6, r3
 567 0008 AE42     		cmp	r6, r5
ARM GAS  C:\Users\Elis\AppData\Local\Temp\ccwn0TXn.s 			page 11


 568              		.loc 1 390 0
 569 000a 0446     		mov	r4, r0
 570              		.loc 1 396 0
 571 000c 05D9     		bls	.L42
 572              		.loc 1 397 0
 573 000e 406B     		ldr	r0, [r0, #52]
 574              	.LVL45:
 575 0010 40F08001 		orr	r1, r0, #128
 576              	.LVL46:
 577 0014 6163     		str	r1, [r4, #52]
 578              		.loc 1 398 0
 579 0016 0120     		movs	r0, #1
 580 0018 70BD     		pop	{r4, r5, r6, pc}
 581              	.LVL47:
 582              	.L42:
 583              	.LBB17:
 584              	.LBB18:
 585              		.loc 1 402 0
 586 001a 0625     		movs	r5, #6
 587 001c 0571     		strb	r5, [r0, #4]
 588              		.loc 1 404 0
 589 001e FFF7FEFF 		bl	sdc_lld_read
 590              	.LVL48:
 591              		.loc 1 407 0
 592 0022 0523     		movs	r3, #5
 593 0024 2371     		strb	r3, [r4, #4]
 594              	.LBE18:
 595              	.LBE17:
 596              		.loc 1 409 0
 597 0026 70BD     		pop	{r4, r5, r6, pc}
 598              		.cfi_endproc
 599              	.LFE125:
 600              		.size	sdcRead, .-sdcRead
 601 0028 AFF30080 		.section	.text._sdc_wait_for_transfer_state,"ax",%progbits
 601      AFF30080 
 602              		.align	2
 603              		.p2align 4,,15
 604              		.global	_sdc_wait_for_transfer_state
 605              		.thumb
 606              		.thumb_func
 607              		.type	_sdc_wait_for_transfer_state, %function
 608              	_sdc_wait_for_transfer_state:
 609              	.LFB118:
 610              		.loc 1 82 0
 611              		.cfi_startproc
 612              		@ args = 0, pretend = 0, frame = 8
 613              		@ frame_needed = 0, uses_anonymous_args = 0
 614              	.LVL49:
 615 0000 10B5     		push	{r4, lr}
 616              	.LCFI5:
 617              		.cfi_def_cfa_offset 8
 618              		.cfi_offset 4, -8
 619              		.cfi_offset 14, -4
 620 0002 0446     		mov	r4, r0
 621 0004 82B0     		sub	sp, sp, #8
 622              	.LCFI6:
 623              		.cfi_def_cfa_offset 16
ARM GAS  C:\Users\Elis\AppData\Local\Temp\ccwn0TXn.s 			page 12


 624              	.LVL50:
 625              	.L48:
 626              		.loc 1 86 0
 627 0006 01AB     		add	r3, sp, #4
 628 0008 2046     		mov	r0, r4
 629 000a 0D21     		movs	r1, #13
 630 000c A26B     		ldr	r2, [r4, #56]
 631 000e FFF7FEFF 		bl	sdc_lld_send_cmd_short_crc
 632              	.LVL51:
 633              		.loc 1 88 0
 634 0012 4EF20803 		movw	r3, #57352
 635 0016 CFF6FF53 		movt	r3, 65023
 636              		.loc 1 86 0
 637 001a 38B9     		cbnz	r0, .L51
 638              		.loc 1 88 0
 639 001c 019A     		ldr	r2, [sp, #4]
 640 001e 1340     		ands	r3, r3, r2
 641              		.loc 1 90 0
 642 0020 C2F34321 		ubfx	r1, r2, #9, #4
 643              		.loc 1 87 0
 644 0024 13B9     		cbnz	r3, .L51
 645              		.loc 1 90 0
 646 0026 0429     		cmp	r1, #4
 647 0028 09D0     		beq	.L46
 648 002a 02D2     		bcs	.L53
 649              	.L51:
 650              		.loc 1 103 0
 651 002c 0120     		movs	r0, #1
 652              	.L45:
 653              		.loc 1 108 0
 654 002e 02B0     		add	sp, sp, #8
 655 0030 10BD     		pop	{r4, pc}
 656              	.L53:
 657              		.loc 1 90 0
 658 0032 0729     		cmp	r1, #7
 659 0034 FAD8     		bhi	.L51
 660              		.loc 1 97 0
 661 0036 0120     		movs	r0, #1
 662 0038 FFF7FEFF 		bl	chThdSleep
 663              	.LVL52:
 664              		.loc 1 105 0
 665 003c E3E7     		b	.L48
 666              	.L46:
 667              		.loc 1 92 0
 668 003e 1846     		mov	r0, r3
 669 0040 F5E7     		b	.L45
 670              		.cfi_endproc
 671              	.LFE118:
 672              		.size	_sdc_wait_for_transfer_state, .-_sdc_wait_for_transfer_state
 673 0042 00BFAFF3 		.section	.text.sdcDisconnect,"ax",%progbits
 673      0080AFF3 
 673      0080AFF3 
 673      0080
 674              		.align	2
 675              		.p2align 4,,15
 676              		.global	sdcDisconnect
 677              		.thumb
ARM GAS  C:\Users\Elis\AppData\Local\Temp\ccwn0TXn.s 			page 13


 678              		.thumb_func
 679              		.type	sdcDisconnect, %function
 680              	sdcDisconnect:
 681              	.LFB124:
 682              		.loc 1 346 0
 683              		.cfi_startproc
 684              		@ args = 0, pretend = 0, frame = 0
 685              		@ frame_needed = 0, uses_anonymous_args = 0
 686              	.LVL53:
 687 0000 38B5     		push	{r3, r4, r5, lr}
 688              	.LCFI7:
 689              		.cfi_def_cfa_offset 16
 690              		.cfi_offset 3, -16
 691              		.cfi_offset 4, -12
 692              		.cfi_offset 5, -8
 693              		.cfi_offset 14, -4
 694              		.loc 1 346 0
 695 0002 0446     		mov	r4, r0
 696              	.LBB26:
 697              		.loc 1 350 0
 698 0004 2023     		movs	r3, #32
 699              	.LVL54:
 700              	@ 350 "../../chibios/os/hal/src/sdc.c" 1
 701 0006 83F31188 		msr     BASEPRI, r3
 702              	@ 0 "" 2
 703              	.LVL55:
 704              		.thumb
 705              	.LBE26:
 706 000a FFF7FEFF 		bl	dbg_check_lock
 707              	.LVL56:
 708              		.loc 1 353 0
 709 000e 2379     		ldrb	r3, [r4, #4]	@ zero_extendqisi2
 710 0010 022B     		cmp	r3, #2
 711 0012 18D0     		beq	.L58
 712              		.loc 1 357 0
 713 0014 0420     		movs	r0, #4
 714 0016 2071     		strb	r0, [r4, #4]
 715              		.loc 1 358 0
 716 0018 FFF7FEFF 		bl	dbg_check_unlock
 717              	.LVL57:
 718              	.LBB27:
 719 001c 0023     		movs	r3, #0
 720              	.LVL58:
 721              	@ 358 "../../chibios/os/hal/src/sdc.c" 1
 722 001e 83F31188 		msr     BASEPRI, r3
 723              	@ 0 "" 2
 724              	.LVL59:
 725              		.thumb
 726              	.LBE27:
 727              		.loc 1 361 0
 728 0022 2046     		mov	r0, r4
 729 0024 FFF7FEFF 		bl	_sdc_wait_for_transfer_state
 730              	.LVL60:
 731 0028 0546     		mov	r5, r0
 732              		.loc 1 362 0
 733 002a 2046     		mov	r0, r4
 734              		.loc 1 361 0
ARM GAS  C:\Users\Elis\AppData\Local\Temp\ccwn0TXn.s 			page 14


 735 002c 2DB9     		cbnz	r5, .L59
 736              		.loc 1 368 0
 737 002e FFF7FEFF 		bl	sdc_lld_stop_clk
 738              	.LVL61:
 739              		.loc 1 369 0
 740 0032 0221     		movs	r1, #2
 741 0034 2171     		strb	r1, [r4, #4]
 742              		.loc 1 370 0
 743 0036 2846     		mov	r0, r5
 744              		.loc 1 371 0
 745 0038 38BD     		pop	{r3, r4, r5, pc}
 746              	.LVL62:
 747              	.L59:
 748              		.loc 1 362 0
 749 003a FFF7FEFF 		bl	sdc_lld_stop_clk
 750              	.LVL63:
 751              		.loc 1 363 0
 752 003e 0222     		movs	r2, #2
 753 0040 2271     		strb	r2, [r4, #4]
 754              		.loc 1 364 0
 755 0042 0120     		movs	r0, #1
 756 0044 38BD     		pop	{r3, r4, r5, pc}
 757              	.L58:
 758              	.LBB28:
 759              	.LBB29:
 760              		.loc 1 354 0
 761 0046 FFF7FEFF 		bl	dbg_check_unlock
 762              	.LVL64:
 763              	.LBB30:
 764 004a 0023     		movs	r3, #0
 765              	.LVL65:
 766              	@ 354 "../../chibios/os/hal/src/sdc.c" 1
 767 004c 83F31188 		msr     BASEPRI, r3
 768              	@ 0 "" 2
 769              	.LVL66:
 770              		.thumb
 771 0050 1846     		mov	r0, r3
 772 0052 38BD     		pop	{r3, r4, r5, pc}
 773              	.LBE30:
 774              	.LBE29:
 775              	.LBE28:
 776              		.cfi_endproc
 777              	.LFE124:
 778              		.size	sdcDisconnect, .-sdcDisconnect
 779 0054 AFF30080 		.section	.text.sdcInit,"ax",%progbits
 779      AFF30080 
 779      AFF30080 
 780              		.align	2
 781              		.p2align 4,,15
 782              		.global	sdcInit
 783              		.thumb
 784              		.thumb_func
 785              		.type	sdcInit, %function
 786              	sdcInit:
 787              	.LFB119:
 788              		.loc 1 121 0
 789              		.cfi_startproc
ARM GAS  C:\Users\Elis\AppData\Local\Temp\ccwn0TXn.s 			page 15


 790              		@ args = 0, pretend = 0, frame = 0
 791              		@ frame_needed = 0, uses_anonymous_args = 0
 792              		@ link register save eliminated.
 793              		.loc 1 124 0
 794              		.loc 1 123 0
 795 0000 FFF7FEBF 		b	sdc_lld_init
 796              	.LVL67:
 797              		.cfi_endproc
 798              	.LFE119:
 799              		.size	sdcInit, .-sdcInit
 800 0004 AFF30080 		.section	.text.sdcObjectInit,"ax",%progbits
 800      AFF30080 
 800      AFF30080 
 801              		.align	2
 802              		.p2align 4,,15
 803              		.global	sdcObjectInit
 804              		.thumb
 805              		.thumb_func
 806              		.type	sdcObjectInit, %function
 807              	sdcObjectInit:
 808              	.LFB120:
 809              		.loc 1 133 0
 810              		.cfi_startproc
 811              		@ args = 0, pretend = 0, frame = 0
 812              		@ frame_needed = 0, uses_anonymous_args = 0
 813              		@ link register save eliminated.
 814              	.LVL68:
 815              		.loc 1 135 0
 816 0000 40F20002 		movw	r2, #:lower16:.LANCHOR0
 817              		.loc 1 137 0
 818 0004 0023     		movs	r3, #0
 819              		.loc 1 135 0
 820 0006 C0F20002 		movt	r2, #:upper16:.LANCHOR0
 821              		.loc 1 136 0
 822 000a 0121     		movs	r1, #1
 823              		.loc 1 135 0
 824 000c 0260     		str	r2, [r0, #0]
 825              		.loc 1 136 0
 826 000e 0171     		strb	r1, [r0, #4]
 827              		.loc 1 137 0
 828 0010 4363     		str	r3, [r0, #52]
 829              		.loc 1 138 0
 830 0012 C362     		str	r3, [r0, #44]
 831              		.loc 1 139 0
 832 0014 8362     		str	r3, [r0, #40]
 833 0016 7047     		bx	lr
 834              		.cfi_endproc
 835              	.LFE120:
 836              		.size	sdcObjectInit, .-sdcObjectInit
 837 0018 AFF30080 		.section	.text.sdcStart,"ax",%progbits
 837      AFF30080 
 838              		.align	2
 839              		.p2align 4,,15
 840              		.global	sdcStart
 841              		.thumb
 842              		.thumb_func
 843              		.type	sdcStart, %function
ARM GAS  C:\Users\Elis\AppData\Local\Temp\ccwn0TXn.s 			page 16


 844              	sdcStart:
 845              	.LFB121:
 846              		.loc 1 152 0
 847              		.cfi_startproc
 848              		@ args = 0, pretend = 0, frame = 0
 849              		@ frame_needed = 0, uses_anonymous_args = 0
 850              	.LVL69:
 851 0000 38B5     		push	{r3, r4, r5, lr}
 852              	.LCFI8:
 853              		.cfi_def_cfa_offset 16
 854              		.cfi_offset 3, -16
 855              		.cfi_offset 4, -12
 856              		.cfi_offset 5, -8
 857              		.cfi_offset 14, -4
 858              		.loc 1 152 0
 859 0002 0446     		mov	r4, r0
 860 0004 0D46     		mov	r5, r1
 861              	.LBB31:
 862              		.loc 1 156 0
 863 0006 2023     		movs	r3, #32
 864              	.LVL70:
 865              	@ 156 "../../chibios/os/hal/src/sdc.c" 1
 866 0008 83F31188 		msr     BASEPRI, r3
 867              	@ 0 "" 2
 868              	.LVL71:
 869              		.thumb
 870              	.LBE31:
 871 000c FFF7FEFF 		bl	dbg_check_lock
 872              	.LVL72:
 873              		.loc 1 160 0
 874 0010 2046     		mov	r0, r4
 875              		.loc 1 159 0
 876 0012 E562     		str	r5, [r4, #44]
 877              		.loc 1 160 0
 878 0014 FFF7FEFF 		bl	sdc_lld_start
 879              	.LVL73:
 880              		.loc 1 161 0
 881 0018 0223     		movs	r3, #2
 882 001a 2371     		strb	r3, [r4, #4]
 883              		.loc 1 162 0
 884 001c FFF7FEFF 		bl	dbg_check_unlock
 885              	.LVL74:
 886              	.LBB32:
 887 0020 0023     		movs	r3, #0
 888              	.LVL75:
 889              	@ 162 "../../chibios/os/hal/src/sdc.c" 1
 890 0022 83F31188 		msr     BASEPRI, r3
 891              	@ 0 "" 2
 892              	.LVL76:
 893              		.thumb
 894 0026 38BD     		pop	{r3, r4, r5, pc}
 895              	.LBE32:
 896              		.cfi_endproc
 897              	.LFE121:
 898              		.size	sdcStart, .-sdcStart
 899 0028 AFF30080 		.section	.text.sdcStop,"ax",%progbits
 899      AFF30080 
ARM GAS  C:\Users\Elis\AppData\Local\Temp\ccwn0TXn.s 			page 17


 900              		.align	2
 901              		.p2align 4,,15
 902              		.global	sdcStop
 903              		.thumb
 904              		.thumb_func
 905              		.type	sdcStop, %function
 906              	sdcStop:
 907              	.LFB122:
 908              		.loc 1 172 0
 909              		.cfi_startproc
 910              		@ args = 0, pretend = 0, frame = 0
 911              		@ frame_needed = 0, uses_anonymous_args = 0
 912              	.LVL77:
 913 0000 10B5     		push	{r4, lr}
 914              	.LCFI9:
 915              		.cfi_def_cfa_offset 8
 916              		.cfi_offset 4, -8
 917              		.cfi_offset 14, -4
 918              	.LBB33:
 919              		.loc 1 176 0
 920 0002 2023     		movs	r3, #32
 921              	.LVL78:
 922              	.LBE33:
 923              		.loc 1 172 0
 924 0004 0446     		mov	r4, r0
 925              	.LBB34:
 926              		.loc 1 176 0
 927              	@ 176 "../../chibios/os/hal/src/sdc.c" 1
 928 0006 83F31188 		msr     BASEPRI, r3
 929              	@ 0 "" 2
 930              	.LVL79:
 931              		.thumb
 932              	.LBE34:
 933 000a FFF7FEFF 		bl	dbg_check_lock
 934              	.LVL80:
 935              		.loc 1 179 0
 936 000e 2046     		mov	r0, r4
 937 0010 FFF7FEFF 		bl	sdc_lld_stop
 938              	.LVL81:
 939              		.loc 1 180 0
 940 0014 0123     		movs	r3, #1
 941 0016 2371     		strb	r3, [r4, #4]
 942              		.loc 1 181 0
 943 0018 FFF7FEFF 		bl	dbg_check_unlock
 944              	.LVL82:
 945              	.LBB35:
 946 001c 0023     		movs	r3, #0
 947              	.LVL83:
 948              	@ 181 "../../chibios/os/hal/src/sdc.c" 1
 949 001e 83F31188 		msr     BASEPRI, r3
 950              	@ 0 "" 2
 951              	.LVL84:
 952              		.thumb
 953 0022 10BD     		pop	{r4, pc}
 954              	.LBE35:
 955              		.cfi_endproc
 956              	.LFE122:
ARM GAS  C:\Users\Elis\AppData\Local\Temp\ccwn0TXn.s 			page 18


 957              		.size	sdcStop, .-sdcStop
 958 0024 AFF30080 		.section	.text.sdcGetAndClearErrors,"ax",%progbits
 958      AFF30080 
 958      AFF30080 
 959              		.align	2
 960              		.p2align 4,,15
 961              		.global	sdcGetAndClearErrors
 962              		.thumb
 963              		.thumb_func
 964              		.type	sdcGetAndClearErrors, %function
 965              	sdcGetAndClearErrors:
 966              	.LFB127:
 967              		.loc 1 457 0
 968              		.cfi_startproc
 969              		@ args = 0, pretend = 0, frame = 0
 970              		@ frame_needed = 0, uses_anonymous_args = 0
 971              	.LVL85:
 972 0000 70B5     		push	{r4, r5, r6, lr}
 973              	.LCFI10:
 974              		.cfi_def_cfa_offset 16
 975              		.cfi_offset 4, -16
 976              		.cfi_offset 5, -12
 977              		.cfi_offset 6, -8
 978              		.cfi_offset 14, -4
 979              	.LBB36:
 980              		.loc 1 464 0
 981 0002 2023     		movs	r3, #32
 982              	.LVL86:
 983              	.LBE36:
 984              		.loc 1 457 0
 985 0004 0546     		mov	r5, r0
 986              	.LBB37:
 987              		.loc 1 464 0
 988              	@ 464 "../../chibios/os/hal/src/sdc.c" 1
 989 0006 83F31188 		msr     BASEPRI, r3
 990              	@ 0 "" 2
 991              	.LVL87:
 992              		.thumb
 993              	.LBE37:
 994              		.loc 1 466 0
 995 000a 0024     		movs	r4, #0
 996              		.loc 1 464 0
 997 000c FFF7FEFF 		bl	dbg_check_lock
 998              	.LVL88:
 999              		.loc 1 465 0
 1000 0010 6E6B     		ldr	r6, [r5, #52]
 1001              	.LVL89:
 1002              		.loc 1 466 0
 1003 0012 6C63     		str	r4, [r5, #52]
 1004              		.loc 1 467 0
 1005 0014 FFF7FEFF 		bl	dbg_check_unlock
 1006              	.LVL90:
 1007              	.LBB38:
 1008 0018 2346     		mov	r3, r4
 1009              	.LVL91:
 1010              	@ 467 "../../chibios/os/hal/src/sdc.c" 1
 1011 001a 83F31188 		msr     BASEPRI, r3
ARM GAS  C:\Users\Elis\AppData\Local\Temp\ccwn0TXn.s 			page 19


 1012              	@ 0 "" 2
 1013              	.LVL92:
 1014              		.thumb
 1015              	.LBE38:
 1016              		.loc 1 469 0
 1017 001e 3046     		mov	r0, r6
 1018 0020 70BD     		pop	{r4, r5, r6, pc}
 1019              		.cfi_endproc
 1020              	.LFE127:
 1021              		.size	sdcGetAndClearErrors, .-sdcGetAndClearErrors
 1022 0022 00BFAFF3 		.section	.text.sdcErase,"ax",%progbits
 1022      0080AFF3 
 1022      0080AFF3 
 1022      0080
 1023              		.align	2
 1024              		.p2align 4,,15
 1025              		.global	sdcErase
 1026              		.thumb
 1027              		.thumb_func
 1028              		.type	sdcErase, %function
 1029              	sdcErase:
 1030              	.LFB130:
 1031              		.loc 1 539 0
 1032              		.cfi_startproc
 1033              		@ args = 0, pretend = 0, frame = 8
 1034              		@ frame_needed = 0, uses_anonymous_args = 0
 1035              	.LVL93:
 1036 0000 70B5     		push	{r4, r5, r6, lr}
 1037              	.LCFI11:
 1038              		.cfi_def_cfa_offset 16
 1039              		.cfi_offset 4, -16
 1040              		.cfi_offset 5, -12
 1041              		.cfi_offset 6, -8
 1042              		.cfi_offset 14, -4
 1043              		.loc 1 549 0
 1044 0002 036B     		ldr	r3, [r0, #48]
 1045              		.loc 1 539 0
 1046 0004 0446     		mov	r4, r0
 1047              		.loc 1 546 0
 1048 0006 0720     		movs	r0, #7
 1049              	.LVL94:
 1050              		.loc 1 549 0
 1051 0008 DB06     		lsls	r3, r3, #27
 1052              		.loc 1 539 0
 1053 000a 82B0     		sub	sp, sp, #8
 1054              	.LCFI12:
 1055              		.cfi_def_cfa_offset 24
 1056              		.loc 1 546 0
 1057 000c 2071     		strb	r0, [r4, #4]
 1058              		.loc 1 539 0
 1059 000e 0D46     		mov	r5, r1
 1060 0010 1646     		mov	r6, r2
 1061              		.loc 1 549 0
 1062 0012 01D4     		bmi	.L66
 1063              		.loc 1 550 0
 1064 0014 4D02     		lsls	r5, r1, #9
 1065              	.LVL95:
ARM GAS  C:\Users\Elis\AppData\Local\Temp\ccwn0TXn.s 			page 20


 1066              		.loc 1 551 0
 1067 0016 5602     		lsls	r6, r2, #9
 1068              	.LVL96:
 1069              	.L66:
 1070              		.loc 1 554 0
 1071 0018 2046     		mov	r0, r4
 1072 001a FFF7FEFF 		bl	_sdc_wait_for_transfer_state
 1073              	.LVL97:
 1074              		.loc 1 556 0
 1075 001e 2046     		mov	r0, r4
 1076 0020 2021     		movs	r1, #32
 1077 0022 2A46     		mov	r2, r5
 1078 0024 01AB     		add	r3, sp, #4
 1079 0026 FFF7FEFF 		bl	sdc_lld_send_cmd_short_crc
 1080              	.LVL98:
 1081 002a 30B9     		cbnz	r0, .L67
 1082              		.loc 1 558 0
 1083 002c 4EF20801 		movw	r1, #57352
 1084 0030 019A     		ldr	r2, [sp, #4]
 1085 0032 CFF6FF51 		movt	r1, 65023
 1086 0036 1140     		ands	r1, r1, r2
 1087              		.loc 1 557 0
 1088 0038 21B1     		cbz	r1, .L69
 1089              	.LVL99:
 1090              	.L67:
 1091              	.LDL2:
 1092              		.loc 1 581 0
 1093 003a 0522     		movs	r2, #5
 1094 003c 2271     		strb	r2, [r4, #4]
 1095              		.loc 1 582 0
 1096 003e 0120     		movs	r0, #1
 1097              	.L68:
 1098              		.loc 1 583 0
 1099 0040 02B0     		add	sp, sp, #8
 1100 0042 70BD     		pop	{r4, r5, r6, pc}
 1101              	.LVL100:
 1102              	.L69:
 1103              		.loc 1 561 0
 1104 0044 2046     		mov	r0, r4
 1105 0046 2121     		movs	r1, #33
 1106 0048 3246     		mov	r2, r6
 1107 004a 01AB     		add	r3, sp, #4
 1108 004c FFF7FEFF 		bl	sdc_lld_send_cmd_short_crc
 1109              	.LVL101:
 1110 0050 0028     		cmp	r0, #0
 1111 0052 F2D1     		bne	.L67
 1112              		.loc 1 563 0
 1113 0054 4EF20802 		movw	r2, #57352
 1114 0058 019B     		ldr	r3, [sp, #4]
 1115 005a CFF6FF52 		movt	r2, 65023
 1116 005e 1A40     		ands	r2, r2, r3
 1117              		.loc 1 562 0
 1118 0060 002A     		cmp	r2, #0
 1119 0062 EAD1     		bne	.L67
 1120              		.loc 1 566 0
 1121 0064 2046     		mov	r0, r4
 1122 0066 2621     		movs	r1, #38
ARM GAS  C:\Users\Elis\AppData\Local\Temp\ccwn0TXn.s 			page 21


 1123 0068 01AB     		add	r3, sp, #4
 1124 006a FFF7FEFF 		bl	sdc_lld_send_cmd_short_crc
 1125              	.LVL102:
 1126 006e 0028     		cmp	r0, #0
 1127 0070 E3D1     		bne	.L67
 1128              		.loc 1 568 0
 1129 0072 4EF20805 		movw	r5, #57352
 1130              	.LVL103:
 1131 0076 0198     		ldr	r0, [sp, #4]
 1132 0078 CFF6FF55 		movt	r5, 65023
 1133 007c 0540     		ands	r5, r5, r0
 1134              		.loc 1 567 0
 1135 007e 002D     		cmp	r5, #0
 1136 0080 DBD1     		bne	.L67
 1137              		.loc 1 575 0
 1138 0082 2046     		mov	r0, r4
 1139 0084 FFF7FEFF 		bl	_sdc_wait_for_transfer_state
 1140              	.LVL104:
 1141              		.loc 1 577 0
 1142 0088 0521     		movs	r1, #5
 1143 008a 2171     		strb	r1, [r4, #4]
 1144              		.loc 1 578 0
 1145 008c 2846     		mov	r0, r5
 1146 008e D7E7     		b	.L68
 1147              		.cfi_endproc
 1148              	.LFE130:
 1149              		.size	sdcErase, .-sdcErase
 1150              		.section	.rodata.sdc_vmt,"a",%progbits
 1151              		.align	2
 1152              		.set	.LANCHOR0,. + 0
 1153              		.type	sdc_vmt, %object
 1154              		.size	sdc_vmt, 32
 1155              	sdc_vmt:
 1156 0000 00000000 		.word	sdc_lld_is_card_inserted
 1157 0004 00000000 		.word	sdc_lld_is_write_protected
 1158 0008 00000000 		.word	sdcConnect
 1159 000c 00000000 		.word	sdcDisconnect
 1160 0010 00000000 		.word	sdcRead
 1161 0014 00000000 		.word	sdcWrite
 1162 0018 00000000 		.word	sdcSync
 1163 001c 00000000 		.word	sdcGetInfo
 1164              		.text
 1165              	.Letext0:
 1166              		.file 2 "c:\\chibistudio\\tools\\gnu tools arm embedded\\4.7 2014q2\\bin\\../lib/gcc/arm-none-eabi
 1167              		.file 3 "../../chibios/os/ports/GCC/ARMCMx/chtypes.h"
 1168              		.file 4 "../../chibios/os/kernel/include/chlists.h"
 1169              		.file 5 "../../chibios/os/kernel/include/chthreads.h"
 1170              		.file 6 "../../chibios/os/ports/GCC/ARMCMx/chcore_v7m.h"
 1171              		.file 7 "../../chibios/os/kernel/include/chmtx.h"
 1172              		.file 8 "../../chibios/os/hal/platforms/STM32F4xx/stm32f4xx.h"
 1173              		.file 9 "../../chibios/os/hal/platforms/STM32F4xx/stm32_dma.h"
 1174              		.file 10 "../../chibios/os/hal/include/io_block.h"
 1175              		.file 11 "../../chibios/os/hal/platforms/STM32/sdc_lld.h"
 1176              		.file 12 "../../chibios/os/hal/include/mmcsd.h"
 1177              		.file 13 "../../chibios/os/kernel/include/chdebug.h"
 1178              		.file 14 "../../chibios/os/ports/common/ARMCMx/CMSIS/include/core_cm4.h"