ARM GAS  C:\Users\Elis\AppData\Local\Temp\cc5W0xkr.s 			page 1


   1              		.syntax unified
   2              		.cpu cortex-m4
   3              		.fpu softvfp
   4              		.eabi_attribute 20, 1
   5              		.eabi_attribute 21, 1
   6              		.eabi_attribute 23, 3
   7              		.eabi_attribute 24, 1
   8              		.eabi_attribute 25, 1
   9              		.eabi_attribute 26, 1
  10              		.eabi_attribute 30, 2
  11              		.eabi_attribute 34, 1
  12              		.eabi_attribute 18, 4
  13              		.thumb
  14              		.file	"sdc_lld.c"
  15              		.text
  16              	.Ltext0:
  17              		.cfi_sections	.debug_frame
  18              		.section	.text.sdc_lld_collect_errors,"ax",%progbits
  19              		.align	2
  20              		.p2align 4,,15
  21              		.thumb
  22              		.thumb_func
  23              		.type	sdc_lld_collect_errors, %function
  24              	sdc_lld_collect_errors:
  25              	.LFB121:
  26              		.file 1 "../../chibios/os/hal/platforms/STM32/sdc_lld.c"
  27              		.loc 1 215 0
  28              		.cfi_startproc
  29              		@ args = 0, pretend = 0, frame = 0
  30              		@ frame_needed = 0, uses_anonymous_args = 0
  31              		@ link register save eliminated.
  32              	.LVL0:
  33              		.loc 1 218 0
  34 0000 01F00103 		and	r3, r1, #1
  35              	.LVL1:
  36              		.loc 1 220 0
  37 0004 8A07     		lsls	r2, r1, #30
  38              		.loc 1 221 0
  39 0006 48BF     		it	mi
  40 0008 43F00203 		orrmi	r3, r3, #2
  41              	.LVL2:
  42              		.loc 1 222 0
  43 000c 4A07     		lsls	r2, r1, #29
  44              		.loc 1 223 0
  45 000e 48BF     		it	mi
  46 0010 43F00803 		orrmi	r3, r3, #8
  47              	.LVL3:
  48              		.loc 1 224 0
  49 0014 0A07     		lsls	r2, r1, #28
  50              		.loc 1 225 0
  51 0016 48BF     		it	mi
  52 0018 43F00403 		orrmi	r3, r3, #4
  53              	.LVL4:
  54              		.loc 1 226 0
  55 001c CA06     		lsls	r2, r1, #27
  56              		.loc 1 227 0
  57 001e 48BF     		it	mi
ARM GAS  C:\Users\Elis\AppData\Local\Temp\cc5W0xkr.s 			page 2


  58 0020 43F01003 		orrmi	r3, r3, #16
  59              	.LVL5:
  60              		.loc 1 228 0
  61 0024 8A06     		lsls	r2, r1, #26
  62              		.loc 1 229 0
  63 0026 48BF     		it	mi
  64 0028 43F02003 		orrmi	r3, r3, #32
  65              	.LVL6:
  66              		.loc 1 230 0
  67 002c 8A05     		lsls	r2, r1, #22
  68              		.loc 1 233 0
  69 002e 426B     		ldr	r2, [r0, #52]
  70              		.loc 1 231 0
  71 0030 48BF     		it	mi
  72 0032 43F04003 		orrmi	r3, r3, #64
  73              	.LVL7:
  74              		.loc 1 233 0
  75 0036 42EA0301 		orr	r1, r2, r3
  76              	.LVL8:
  77 003a 4163     		str	r1, [r0, #52]
  78 003c 7047     		bx	lr
  79              		.cfi_endproc
  80              	.LFE121:
  81              		.size	sdc_lld_collect_errors, .-sdc_lld_collect_errors
  82 003e 00BF     		.section	.text.Vector104,"ax",%progbits
  83              		.align	2
  84              		.p2align 4,,15
  85              		.global	Vector104
  86              		.thumb
  87              		.thumb_func
  88              		.type	Vector104, %function
  89              	Vector104:
  90              	.LFB123:
  91              		.loc 1 274 0
  92              		.cfi_startproc
  93              		@ args = 0, pretend = 0, frame = 0
  94              		@ frame_needed = 0, uses_anonymous_args = 0
  95 0000 38B5     		push	{r3, r4, r5, lr}
  96              	.LCFI0:
  97              		.cfi_def_cfa_offset 16
  98              		.cfi_offset 3, -16
  99              		.cfi_offset 4, -12
 100              		.cfi_offset 5, -8
 101              		.cfi_offset 14, -4
 102              		.loc 1 276 0
 103 0002 FFF7FEFF 		bl	dbg_check_enter_isr
 104              	.LVL9:
 105              	.LBB5:
 106              		.loc 1 278 0
 107 0006 2023     		movs	r3, #32
 108              	.LVL10:
 109              	@ 278 "../../chibios/os/hal/platforms/STM32/sdc_lld.c" 1
 110 0008 83F31188 		msr     BASEPRI, r3
 111              	@ 0 "" 2
 112              	.LVL11:
 113              		.thumb
 114              	.LBE5:
ARM GAS  C:\Users\Elis\AppData\Local\Temp\cc5W0xkr.s 			page 3


 115              		.loc 1 284 0
 116 000c 0C4C     		ldr	r4, .L32
 117              		.loc 1 278 0
 118 000e FFF7FEFF 		bl	dbg_check_lock_from_isr
 119              	.LVL12:
 120              		.loc 1 282 0
 121 0012 4FF43053 		mov	r3, #11264
 122 0016 C4F20103 		movt	r3, 16385
 123              		.loc 1 284 0
 124 001a E06B     		ldr	r0, [r4, #60]
 125              		.loc 1 282 0
 126 001c 0025     		movs	r5, #0
 127 001e DD63     		str	r5, [r3, #60]
 128              		.loc 1 284 0
 129 0020 10B1     		cbz	r0, .L27
 130              		.loc 1 285 0
 131 0022 FFF7FEFF 		bl	chSchReadyI
 132              	.LVL13:
 133              		.loc 1 286 0
 134 0026 E563     		str	r5, [r4, #60]
 135              	.L27:
 136              		.loc 1 289 0
 137 0028 FFF7FEFF 		bl	dbg_check_unlock_from_isr
 138              	.LVL14:
 139              	.LBB6:
 140 002c 0023     		movs	r3, #0
 141              	.LVL15:
 142              	@ 289 "../../chibios/os/hal/platforms/STM32/sdc_lld.c" 1
 143 002e 83F31188 		msr     BASEPRI, r3
 144              	@ 0 "" 2
 145              	.LVL16:
 146              		.thumb
 147              	.LBE6:
 148              		.loc 1 291 0
 149 0032 FFF7FEFF 		bl	dbg_check_leave_isr
 150              	.LVL17:
 151              		.loc 1 292 0
 152 0036 BDE83840 		pop	{r3, r4, r5, lr}
 153              		.loc 1 291 0
 154 003a FFF7FEBF 		b	_port_irq_epilogue
 155              	.LVL18:
 156              	.L33:
 157 003e 00BF     		.align	2
 158              	.L32:
 159 0040 00000000 		.word	.LANCHOR0
 160              		.cfi_endproc
 161              	.LFE123:
 162              		.size	Vector104, .-Vector104
 163 0044 AFF30080 		.section	.text.sdc_lld_init,"ax",%progbits
 163      AFF30080 
 163      AFF30080 
 164              		.align	2
 165              		.p2align 4,,15
 166              		.global	sdc_lld_init
 167              		.thumb
 168              		.thumb_func
 169              		.type	sdc_lld_init, %function
ARM GAS  C:\Users\Elis\AppData\Local\Temp\cc5W0xkr.s 			page 4


 170              	sdc_lld_init:
 171              	.LFB124:
 172              		.loc 1 303 0
 173              		.cfi_startproc
 174              		@ args = 0, pretend = 0, frame = 0
 175              		@ frame_needed = 0, uses_anonymous_args = 0
 176 0000 10B5     		push	{r4, lr}
 177              	.LCFI1:
 178              		.cfi_def_cfa_offset 8
 179              		.cfi_offset 4, -8
 180              		.cfi_offset 14, -4
 181              		.loc 1 305 0
 182 0002 40F20004 		movw	r4, #:lower16:.LANCHOR0
 183 0006 C0F20004 		movt	r4, #:upper16:.LANCHOR0
 184 000a 2046     		mov	r0, r4
 185 000c FFF7FEFF 		bl	sdcObjectInit
 186              	.LVL19:
 187              		.loc 1 307 0
 188 0010 0248     		ldr	r0, .L35
 189              		.loc 1 306 0
 190 0012 0023     		movs	r3, #0
 191 0014 E363     		str	r3, [r4, #60]
 192              		.loc 1 307 0
 193 0016 6064     		str	r0, [r4, #68]
 194 0018 10BD     		pop	{r4, pc}
 195              	.L36:
 196 001a 00BF     		.align	2
 197              	.L35:
 198 001c 84000000 		.word	_stm32_dma_streams+132
 199              		.cfi_endproc
 200              	.LFE124:
 201              		.size	sdc_lld_init, .-sdc_lld_init
 202              		.section	.text.sdc_lld_start,"ax",%progbits
 203              		.align	2
 204              		.p2align 4,,15
 205              		.global	sdc_lld_start
 206              		.thumb
 207              		.thumb_func
 208              		.type	sdc_lld_start, %function
 209              	sdc_lld_start:
 210              	.LFB125:
 211              		.loc 1 320 0
 212              		.cfi_startproc
 213              		@ args = 0, pretend = 0, frame = 0
 214              		@ frame_needed = 0, uses_anonymous_args = 0
 215              	.LVL20:
 216              		.loc 1 334 0
 217 0000 0279     		ldrb	r2, [r0, #4]	@ zero_extendqisi2
 218              		.loc 1 329 0
 219 0002 45F22043 		movw	r3, #21536
 220 0006 C0F6A303 		movt	r3, 2211
 221              		.loc 1 334 0
 222 000a 012A     		cmp	r2, #1
 223              		.loc 1 320 0
 224 000c 10B5     		push	{r4, lr}
 225              	.LCFI2:
 226              		.cfi_def_cfa_offset 8
ARM GAS  C:\Users\Elis\AppData\Local\Temp\cc5W0xkr.s 			page 5


 227              		.cfi_offset 4, -8
 228              		.cfi_offset 14, -4
 229              		.loc 1 320 0
 230 000e 0446     		mov	r4, r0
 231              		.loc 1 329 0
 232 0010 0364     		str	r3, [r0, #64]
 233              		.loc 1 334 0
 234 0012 09D0     		beq	.L39
 235              	.LVL21:
 236              	.L38:
 237              		.loc 1 349 0
 238 0014 4FF43050 		mov	r0, #11264
 239 0018 C4F20100 		movt	r0, 16385
 240 001c 0022     		movs	r2, #0
 241 001e 0260     		str	r2, [r0, #0]
 242              		.loc 1 350 0
 243 0020 4260     		str	r2, [r0, #4]
 244              		.loc 1 351 0
 245 0022 C262     		str	r2, [r0, #44]
 246              		.loc 1 352 0
 247 0024 4262     		str	r2, [r0, #36]
 248 0026 10BD     		pop	{r4, pc}
 249              	.LVL22:
 250              	.L39:
 251              	.LBB7:
 252              		.loc 1 337 0
 253 0028 0022     		movs	r2, #0
 254 002a 1346     		mov	r3, r2
 255 002c 0921     		movs	r1, #9
 256 002e 406C     		ldr	r0, [r0, #68]
 257              	.LVL23:
 258 0030 FFF7FEFF 		bl	dmaStreamAllocate
 259              	.LVL24:
 260              		.loc 1 339 0
 261 0034 606C     		ldr	r0, [r4, #68]
 262 0036 4FF43251 		mov	r1, #11392
 263 003a 0368     		ldr	r3, [r0, #0]
 264 003c C4F20101 		movt	r1, 16385
 265              		.loc 1 341 0
 266 0040 0722     		movs	r2, #7
 267              		.loc 1 339 0
 268 0042 9960     		str	r1, [r3, #8]
 269              		.loc 1 343 0
 270 0044 3120     		movs	r0, #49
 271              		.loc 1 341 0
 272 0046 5A61     		str	r2, [r3, #20]
 273              		.loc 1 343 0
 274 0048 9021     		movs	r1, #144
 275 004a FFF7FEFF 		bl	nvicEnableVector
 276              	.LVL25:
 277              		.loc 1 345 0
 278 004e 4FF46050 		mov	r0, #14336
 279 0052 C4F20200 		movt	r0, 16386
 280 0056 416C     		ldr	r1, [r0, #68]
 281 0058 41F40063 		orr	r3, r1, #2048
 282 005c 4364     		str	r3, [r0, #68]
 283 005e D9E7     		b	.L38
ARM GAS  C:\Users\Elis\AppData\Local\Temp\cc5W0xkr.s 			page 6


 284              	.LBE7:
 285              		.cfi_endproc
 286              	.LFE125:
 287              		.size	sdc_lld_start, .-sdc_lld_start
 288              		.section	.text.sdc_lld_stop,"ax",%progbits
 289              		.align	2
 290              		.p2align 4,,15
 291              		.global	sdc_lld_stop
 292              		.thumb
 293              		.thumb_func
 294              		.type	sdc_lld_stop, %function
 295              	sdc_lld_stop:
 296              	.LFB126:
 297              		.loc 1 362 0
 298              		.cfi_startproc
 299              		@ args = 0, pretend = 0, frame = 0
 300              		@ frame_needed = 0, uses_anonymous_args = 0
 301              	.LVL26:
 302              		.loc 1 364 0
 303 0000 0379     		ldrb	r3, [r0, #4]	@ zero_extendqisi2
 304 0002 012B     		cmp	r3, #1
 305              		.loc 1 362 0
 306 0004 10B5     		push	{r4, lr}
 307              	.LCFI3:
 308              		.cfi_def_cfa_offset 8
 309              		.cfi_offset 4, -8
 310              		.cfi_offset 14, -4
 311              		.loc 1 362 0
 312 0006 0446     		mov	r4, r0
 313              		.loc 1 364 0
 314 0008 16D0     		beq	.L40
 315              		.loc 1 367 0
 316 000a 4FF43051 		mov	r1, #11264
 317 000e C4F20101 		movt	r1, 16385
 318 0012 0022     		movs	r2, #0
 319 0014 0A60     		str	r2, [r1, #0]
 320              		.loc 1 373 0
 321 0016 3120     		movs	r0, #49
 322              	.LVL27:
 323              		.loc 1 368 0
 324 0018 4A60     		str	r2, [r1, #4]
 325              		.loc 1 369 0
 326 001a CA62     		str	r2, [r1, #44]
 327              		.loc 1 370 0
 328 001c 4A62     		str	r2, [r1, #36]
 329              		.loc 1 373 0
 330 001e FFF7FEFF 		bl	nvicDisableVector
 331              	.LVL28:
 332              		.loc 1 374 0
 333 0022 606C     		ldr	r0, [r4, #68]
 334 0024 FFF7FEFF 		bl	dmaStreamRelease
 335              	.LVL29:
 336              		.loc 1 375 0
 337 0028 4FF46050 		mov	r0, #14336
 338 002c C4F20200 		movt	r0, 16386
 339 0030 436C     		ldr	r3, [r0, #68]
 340 0032 23F40061 		bic	r1, r3, #2048
ARM GAS  C:\Users\Elis\AppData\Local\Temp\cc5W0xkr.s 			page 7


 341 0036 4164     		str	r1, [r0, #68]
 342              	.L40:
 343 0038 10BD     		pop	{r4, pc}
 344              		.cfi_endproc
 345              	.LFE126:
 346              		.size	sdc_lld_stop, .-sdc_lld_stop
 347 003a 00BFAFF3 		.section	.text.sdc_lld_start_clk,"ax",%progbits
 347      0080
 348              		.align	2
 349              		.p2align 4,,15
 350              		.global	sdc_lld_start_clk
 351              		.thumb
 352              		.thumb_func
 353              		.type	sdc_lld_start_clk, %function
 354              	sdc_lld_start_clk:
 355              	.LFB127:
 356              		.loc 1 386 0
 357              		.cfi_startproc
 358              		@ args = 0, pretend = 0, frame = 0
 359              		@ frame_needed = 0, uses_anonymous_args = 0
 360              		@ link register save eliminated.
 361              	.LVL30:
 362              		.loc 1 391 0
 363 0000 4FF43053 		mov	r3, #11264
 364 0004 C4F20103 		movt	r3, 16385
 365 0008 7822     		movs	r2, #120
 366 000a 5A60     		str	r2, [r3, #4]
 367              		.loc 1 392 0
 368 000c 1868     		ldr	r0, [r3, #0]
 369              	.LVL31:
 370 000e 40F00301 		orr	r1, r0, #3
 371 0012 1960     		str	r1, [r3, #0]
 372              		.loc 1 393 0
 373 0014 5A68     		ldr	r2, [r3, #4]
 374 0016 42F48070 		orr	r0, r2, #256
 375 001a 5860     		str	r0, [r3, #4]
 376              		.loc 1 396 0
 377 001c 0A20     		movs	r0, #10
 378              		.loc 1 397 0
 379              		.loc 1 396 0
 380 001e FFF7FEBF 		b	chThdSleep
 381              	.LVL32:
 382              		.cfi_endproc
 383              	.LFE127:
 384              		.size	sdc_lld_start_clk, .-sdc_lld_start_clk
 385 0022 00BFAFF3 		.section	.text.sdc_lld_set_data_clk,"ax",%progbits
 385      0080AFF3 
 385      0080AFF3 
 385      0080
 386              		.align	2
 387              		.p2align 4,,15
 388              		.global	sdc_lld_set_data_clk
 389              		.thumb
 390              		.thumb_func
 391              		.type	sdc_lld_set_data_clk, %function
 392              	sdc_lld_set_data_clk:
 393              	.LFB128:
ARM GAS  C:\Users\Elis\AppData\Local\Temp\cc5W0xkr.s 			page 8


 394              		.loc 1 406 0
 395              		.cfi_startproc
 396              		@ args = 0, pretend = 0, frame = 0
 397              		@ frame_needed = 0, uses_anonymous_args = 0
 398              		@ link register save eliminated.
 399              	.LVL33:
 400              		.loc 1 410 0
 401 0000 4FF43053 		mov	r3, #11264
 402 0004 C4F20103 		movt	r3, 16385
 403 0008 5A68     		ldr	r2, [r3, #4]
 404 000a 22F0FF00 		bic	r0, r2, #255
 405              	.LVL34:
 406 000e 5860     		str	r0, [r3, #4]
 407 0010 7047     		bx	lr
 408              		.cfi_endproc
 409              	.LFE128:
 410              		.size	sdc_lld_set_data_clk, .-sdc_lld_set_data_clk
 411 0012 00BFAFF3 		.section	.text.sdc_lld_stop_clk,"ax",%progbits
 411      0080AFF3 
 411      0080AFF3 
 411      0080
 412              		.align	2
 413              		.p2align 4,,15
 414              		.global	sdc_lld_stop_clk
 415              		.thumb
 416              		.thumb_func
 417              		.type	sdc_lld_stop_clk, %function
 418              	sdc_lld_stop_clk:
 419              	.LFB129:
 420              		.loc 1 420 0
 421              		.cfi_startproc
 422              		@ args = 0, pretend = 0, frame = 0
 423              		@ frame_needed = 0, uses_anonymous_args = 0
 424              		@ link register save eliminated.
 425              	.LVL35:
 426              		.loc 1 424 0
 427 0000 4FF43053 		mov	r3, #11264
 428 0004 C4F20103 		movt	r3, 16385
 429 0008 0022     		movs	r2, #0
 430 000a 5A60     		str	r2, [r3, #4]
 431              		.loc 1 425 0
 432 000c 1A60     		str	r2, [r3, #0]
 433 000e 7047     		bx	lr
 434              		.cfi_endproc
 435              	.LFE129:
 436              		.size	sdc_lld_stop_clk, .-sdc_lld_stop_clk
 437              		.section	.text.sdc_lld_set_bus_mode,"ax",%progbits
 438              		.align	2
 439              		.p2align 4,,15
 440              		.global	sdc_lld_set_bus_mode
 441              		.thumb
 442              		.thumb_func
 443              		.type	sdc_lld_set_bus_mode, %function
 444              	sdc_lld_set_bus_mode:
 445              	.LFB130:
 446              		.loc 1 436 0
 447              		.cfi_startproc
ARM GAS  C:\Users\Elis\AppData\Local\Temp\cc5W0xkr.s 			page 9


 448              		@ args = 0, pretend = 0, frame = 0
 449              		@ frame_needed = 0, uses_anonymous_args = 0
 450              		@ link register save eliminated.
 451              	.LVL36:
 452              		.loc 1 437 0
 453 0000 4FF43053 		mov	r3, #11264
 454 0004 C4F20103 		movt	r3, 16385
 455              		.loc 1 441 0
 456 0008 0129     		cmp	r1, #1
 457              		.loc 1 437 0
 458 000a 5A68     		ldr	r2, [r3, #4]
 459 000c 22F4C050 		bic	r0, r2, #6144
 460              	.LVL37:
 461              		.loc 1 441 0
 462 0010 07D0     		beq	.L51
 463 0012 01D2     		bcs	.L54
 464              	.LVL38:
 465              	.L53:
 466              		.loc 1 449 0
 467 0014 5860     		str	r0, [r3, #4]
 468              	.L48:
 469 0016 7047     		bx	lr
 470              	.LVL39:
 471              	.L54:
 472              		.loc 1 441 0
 473 0018 0229     		cmp	r1, #2
 474 001a FCD1     		bne	.L48
 475              		.loc 1 449 0
 476 001c 40F48050 		orr	r0, r0, #4096
 477              	.LVL40:
 478 0020 F8E7     		b	.L53
 479              	.LVL41:
 480              	.L51:
 481              		.loc 1 446 0
 482 0022 40F40061 		orr	r1, r0, #2048
 483              	.LVL42:
 484 0026 5960     		str	r1, [r3, #4]
 485              		.loc 1 447 0
 486 0028 7047     		bx	lr
 487              		.cfi_endproc
 488              	.LFE130:
 489              		.size	sdc_lld_set_bus_mode, .-sdc_lld_set_bus_mode
 490 002a 00BFAFF3 		.section	.text.sdc_lld_send_cmd_none,"ax",%progbits
 490      0080
 491              		.align	2
 492              		.p2align 4,,15
 493              		.global	sdc_lld_send_cmd_none
 494              		.thumb
 495              		.thumb_func
 496              		.type	sdc_lld_send_cmd_none, %function
 497              	sdc_lld_send_cmd_none:
 498              	.LFB131:
 499              		.loc 1 463 0
 500              		.cfi_startproc
 501              		@ args = 0, pretend = 0, frame = 0
 502              		@ frame_needed = 0, uses_anonymous_args = 0
 503              		@ link register save eliminated.
ARM GAS  C:\Users\Elis\AppData\Local\Temp\cc5W0xkr.s 			page 10


 504              	.LVL43:
 505              		.loc 1 467 0
 506 0000 4FF43053 		mov	r3, #11264
 507 0004 C4F20103 		movt	r3, 16385
 508              		.loc 1 468 0
 509 0008 41F48061 		orr	r1, r1, #1024
 510              	.LVL44:
 511              		.loc 1 467 0
 512 000c 9A60     		str	r2, [r3, #8]
 513              		.loc 1 469 0
 514 000e 1846     		mov	r0, r3
 515              	.LVL45:
 516              		.loc 1 468 0
 517 0010 D960     		str	r1, [r3, #12]
 518              	.LVL46:
 519              	.L56:
 520              		.loc 1 469 0 discriminator 1
 521 0012 426B     		ldr	r2, [r0, #52]
 522 0014 4FF43053 		mov	r3, #11264
 523 0018 1206     		lsls	r2, r2, #24
 524 001a C4F20103 		movt	r3, 16385
 525 001e F8D5     		bpl	.L56
 526              		.loc 1 471 0
 527 0020 8021     		movs	r1, #128
 528 0022 9963     		str	r1, [r3, #56]
 529 0024 7047     		bx	lr
 530              		.cfi_endproc
 531              	.LFE131:
 532              		.size	sdc_lld_send_cmd_none, .-sdc_lld_send_cmd_none
 533 0026 00BFAFF3 		.section	.text.sdc_lld_send_cmd_short,"ax",%progbits
 533      0080AFF3 
 533      0080
 534              		.align	2
 535              		.p2align 4,,15
 536              		.global	sdc_lld_send_cmd_short
 537              		.thumb
 538              		.thumb_func
 539              		.type	sdc_lld_send_cmd_short, %function
 540              	sdc_lld_send_cmd_short:
 541              	.LFB132:
 542              		.loc 1 490 0
 543              		.cfi_startproc
 544              		@ args = 0, pretend = 0, frame = 0
 545              		@ frame_needed = 0, uses_anonymous_args = 0
 546              	.LVL47:
 547 0000 38B5     		push	{r3, r4, r5, lr}
 548              	.LCFI4:
 549              		.cfi_def_cfa_offset 16
 550              		.cfi_offset 3, -16
 551              		.cfi_offset 4, -12
 552              		.cfi_offset 5, -8
 553              		.cfi_offset 14, -4
 554              		.loc 1 495 0
 555 0002 4FF43055 		mov	r5, #11264
 556 0006 C4F20105 		movt	r5, 16385
 557              		.loc 1 496 0
 558 000a 41F48861 		orr	r1, r1, #1088
ARM GAS  C:\Users\Elis\AppData\Local\Temp\cc5W0xkr.s 			page 11


 559              	.LVL48:
 560              		.loc 1 495 0
 561 000e AA60     		str	r2, [r5, #8]
 562              		.loc 1 496 0
 563 0010 E960     		str	r1, [r5, #12]
 564              	.LVL49:
 565              	.L62:
 566              		.loc 1 497 0 discriminator 1
 567 0012 696B     		ldr	r1, [r5, #52]
 568              	.LVL50:
 569 0014 4FF43052 		mov	r2, #11264
 570 0018 11F04504 		ands	r4, r1, #69
 571 001c C4F20102 		movt	r2, 16385
 572 0020 F7D0     		beq	.L62
 573              		.loc 1 500 0
 574 0022 9463     		str	r4, [r2, #56]
 575              		.loc 1 501 0
 576 0024 11F00404 		ands	r4, r1, #4
 577 0028 03D1     		bne	.L69
 578              		.loc 1 505 0
 579 002a 5169     		ldr	r1, [r2, #20]
 580              	.LVL51:
 581              		.loc 1 506 0
 582 002c 2046     		mov	r0, r4
 583              	.LVL52:
 584              		.loc 1 505 0
 585 002e 1960     		str	r1, [r3, #0]
 586              		.loc 1 507 0
 587 0030 38BD     		pop	{r3, r4, r5, pc}
 588              	.LVL53:
 589              	.L69:
 590              		.loc 1 502 0
 591 0032 FFF7FEFF 		bl	sdc_lld_collect_errors
 592              	.LVL54:
 593              		.loc 1 503 0
 594 0036 0120     		movs	r0, #1
 595 0038 38BD     		pop	{r3, r4, r5, pc}
 596              		.cfi_endproc
 597              	.LFE132:
 598              		.size	sdc_lld_send_cmd_short, .-sdc_lld_send_cmd_short
 599 003a 00BFAFF3 		.section	.text.sdc_lld_send_cmd_short_crc,"ax",%progbits
 599      0080
 600              		.align	2
 601              		.p2align 4,,15
 602              		.global	sdc_lld_send_cmd_short_crc
 603              		.thumb
 604              		.thumb_func
 605              		.type	sdc_lld_send_cmd_short_crc, %function
 606              	sdc_lld_send_cmd_short_crc:
 607              	.LFB133:
 608              		.loc 1 524 0
 609              		.cfi_startproc
 610              		@ args = 0, pretend = 0, frame = 0
 611              		@ frame_needed = 0, uses_anonymous_args = 0
 612              	.LVL55:
 613 0000 38B5     		push	{r3, r4, r5, lr}
 614              	.LCFI5:
ARM GAS  C:\Users\Elis\AppData\Local\Temp\cc5W0xkr.s 			page 12


 615              		.cfi_def_cfa_offset 16
 616              		.cfi_offset 3, -16
 617              		.cfi_offset 4, -12
 618              		.cfi_offset 5, -8
 619              		.cfi_offset 14, -4
 620              		.loc 1 529 0
 621 0002 4FF43055 		mov	r5, #11264
 622 0006 C4F20105 		movt	r5, 16385
 623              		.loc 1 530 0
 624 000a 41F48861 		orr	r1, r1, #1088
 625              	.LVL56:
 626              		.loc 1 529 0
 627 000e AA60     		str	r2, [r5, #8]
 628              		.loc 1 530 0
 629 0010 E960     		str	r1, [r5, #12]
 630              	.LVL57:
 631              	.L71:
 632              		.loc 1 531 0 discriminator 1
 633 0012 696B     		ldr	r1, [r5, #52]
 634              	.LVL58:
 635 0014 4FF43052 		mov	r2, #11264
 636 0018 11F04504 		ands	r4, r1, #69
 637 001c C4F20102 		movt	r2, 16385
 638 0020 F7D0     		beq	.L71
 639              		.loc 1 534 0
 640 0022 9463     		str	r4, [r2, #56]
 641              		.loc 1 535 0
 642 0024 11F00504 		ands	r4, r1, #5
 643 0028 03D1     		bne	.L78
 644              		.loc 1 539 0
 645 002a 5169     		ldr	r1, [r2, #20]
 646              	.LVL59:
 647              		.loc 1 540 0
 648 002c 2046     		mov	r0, r4
 649              	.LVL60:
 650              		.loc 1 539 0
 651 002e 1960     		str	r1, [r3, #0]
 652              		.loc 1 541 0
 653 0030 38BD     		pop	{r3, r4, r5, pc}
 654              	.LVL61:
 655              	.L78:
 656              		.loc 1 536 0
 657 0032 FFF7FEFF 		bl	sdc_lld_collect_errors
 658              	.LVL62:
 659              		.loc 1 537 0
 660 0036 0120     		movs	r0, #1
 661 0038 38BD     		pop	{r3, r4, r5, pc}
 662              		.cfi_endproc
 663              	.LFE133:
 664              		.size	sdc_lld_send_cmd_short_crc, .-sdc_lld_send_cmd_short_crc
 665 003a 00BFAFF3 		.section	.text.sdc_lld_wait_transaction_end,"ax",%progbits
 665      0080
 666              		.align	2
 667              		.p2align 4,,15
 668              		.thumb
 669              		.thumb_func
 670              		.type	sdc_lld_wait_transaction_end, %function
ARM GAS  C:\Users\Elis\AppData\Local\Temp\cc5W0xkr.s 			page 13


 671              	sdc_lld_wait_transaction_end:
 672              	.LFB120:
 673              		.loc 1 157 0
 674              		.cfi_startproc
 675              		@ args = 0, pretend = 0, frame = 0
 676              		@ frame_needed = 0, uses_anonymous_args = 0
 677              	.LVL63:
 678 0000 2DE9F047 		push	{r4, r5, r6, r7, r8, r9, sl, lr}
 679              	.LCFI6:
 680              		.cfi_def_cfa_offset 32
 681              		.cfi_offset 4, -32
 682              		.cfi_offset 5, -28
 683              		.cfi_offset 6, -24
 684              		.cfi_offset 7, -20
 685              		.cfi_offset 8, -16
 686              		.cfi_offset 9, -12
 687              		.cfi_offset 10, -8
 688              		.cfi_offset 14, -4
 689              	.LBB16:
 690              		.loc 1 161 0
 691 0004 2023     		movs	r3, #32
 692              	.LVL64:
 693              	.LBE16:
 694              		.loc 1 157 0
 695 0006 0746     		mov	r7, r0
 696 0008 8846     		mov	r8, r1
 697 000a 9146     		mov	r9, r2
 698              	.LBB17:
 699              		.loc 1 161 0
 700              	@ 161 "../../chibios/os/hal/platforms/STM32/sdc_lld.c" 1
 701 000c 83F31188 		msr     BASEPRI, r3
 702              	@ 0 "" 2
 703              	.LVL65:
 704              		.thumb
 705              	.LBE17:
 706 0010 FFF7FEFF 		bl	dbg_check_lock
 707              	.LVL66:
 708              		.loc 1 162 0
 709 0014 4FF43053 		mov	r3, #11264
 710 0018 C4F20103 		movt	r3, 16385
 711 001c D86B     		ldr	r0, [r3, #60]
 712 001e 0028     		cmp	r0, #0
 713 0020 30D1     		bne	.L89
 714              	.L80:
 715              		.loc 1 170 0
 716 0022 4FF43054 		mov	r4, #11264
 717 0026 C4F20104 		movt	r4, 16385
 718 002a 636B     		ldr	r3, [r4, #52]
 719 002c 13F48074 		ands	r4, r3, #256
 720 0030 2FD0     		beq	.L90
 721 0032 7E6C     		ldr	r6, [r7, #68]
 722 0034 3568     		ldr	r5, [r6, #0]
 723              	.L83:
 724              		.loc 1 177 0 discriminator 1
 725 0036 2868     		ldr	r0, [r5, #0]
 726 0038 10F00104 		ands	r4, r0, #1
 727 003c FBD1     		bne	.L83
ARM GAS  C:\Users\Elis\AppData\Local\Temp\cc5W0xkr.s 			page 14


 728              		.loc 1 181 0
 729 003e 317A     		ldrb	r1, [r6, #8]	@ zero_extendqisi2
 730 0040 7268     		ldr	r2, [r6, #4]
 731              		.loc 1 183 0
 732 0042 4FF43055 		mov	r5, #11264
 733 0046 C4F20105 		movt	r5, 16385
 734              		.loc 1 181 0
 735 004a 3D20     		movs	r0, #61
 736              		.loc 1 183 0
 737 004c 40F2FF73 		movw	r3, #2047
 738              		.loc 1 181 0
 739 0050 00FA01F1 		lsl	r1, r0, r1
 740              		.loc 1 183 0
 741 0054 C0F2C003 		movt	r3, 192
 742              		.loc 1 181 0
 743 0058 1160     		str	r1, [r2, #0]
 744              		.loc 1 183 0
 745 005a AB63     		str	r3, [r5, #56]
 746              		.loc 1 184 0
 747 005c EC62     		str	r4, [r5, #44]
 748              		.loc 1 185 0
 749 005e FFF7FEFF 		bl	dbg_check_unlock
 750              	.LVL67:
 751              	.LBB18:
 752 0062 2346     		mov	r3, r4
 753              	.LVL68:
 754              	@ 185 "../../chibios/os/hal/platforms/STM32/sdc_lld.c" 1
 755 0064 83F31188 		msr     BASEPRI, r3
 756              	@ 0 "" 2
 757              	.LVL69:
 758              		.thumb
 759              	.LBE18:
 760              		.loc 1 201 0
 761 0068 B8F1010F 		cmp	r8, #1
 762 006c 07D9     		bls	.L84
 763              	.LVL70:
 764              	.LBB19:
 765              	.LBB20:
 766              		.loc 1 202 0
 767 006e 3846     		mov	r0, r7
 768 0070 0C21     		movs	r1, #12
 769 0072 2246     		mov	r2, r4
 770 0074 4B46     		mov	r3, r9
 771              	.LVL71:
 772              	.LBE20:
 773              	.LBE19:
 774              		.loc 1 205 0
 775 0076 BDE8F047 		pop	{r4, r5, r6, r7, r8, r9, sl, lr}
 776              	.LBB22:
 777              	.LBB21:
 778              		.loc 1 202 0
 779 007a FFF7FEBF 		b	sdc_lld_send_cmd_short_crc
 780              	.LVL72:
 781              	.L84:
 782              	.LBE21:
 783              	.LBE22:
 784              		.loc 1 204 0
ARM GAS  C:\Users\Elis\AppData\Local\Temp\cc5W0xkr.s 			page 15


 785 007e 2046     		mov	r0, r4
 786              		.loc 1 205 0
 787 0080 BDE8F087 		pop	{r4, r5, r6, r7, r8, r9, sl, pc}
 788              	.LVL73:
 789              	.L89:
 790              		.loc 1 165 0
 791 0084 0749     		ldr	r1, .L91
 792 0086 8A69     		ldr	r2, [r1, #24]
 793              		.loc 1 166 0
 794 0088 0220     		movs	r0, #2
 795              		.loc 1 165 0
 796 008a FA63     		str	r2, [r7, #60]
 797              		.loc 1 166 0
 798 008c FFF7FEFF 		bl	chSchGoSleepS
 799              	.LVL74:
 800 0090 C7E7     		b	.L80
 801              	.L90:
 802              		.loc 1 171 0
 803 0092 FFF7FEFF 		bl	dbg_check_unlock
 804              	.LVL75:
 805              	.LBB23:
 806 0096 2346     		mov	r3, r4
 807              	.LVL76:
 808              	@ 171 "../../chibios/os/hal/platforms/STM32/sdc_lld.c" 1
 809 0098 83F31188 		msr     BASEPRI, r3
 810              	@ 0 "" 2
 811              	.LVL77:
 812              		.thumb
 813              	.LBE23:
 814              		.loc 1 172 0
 815 009c 0120     		movs	r0, #1
 816 009e BDE8F087 		pop	{r4, r5, r6, r7, r8, r9, sl, pc}
 817              	.L92:
 818 00a2 00BF     		.align	2
 819              	.L91:
 820 00a4 00000000 		.word	rlist
 821              		.cfi_endproc
 822              	.LFE120:
 823              		.size	sdc_lld_wait_transaction_end, .-sdc_lld_wait_transaction_end
 824 00a8 AFF30080 		.section	.text.sdc_lld_error_cleanup,"ax",%progbits
 824      AFF30080 
 825              		.align	2
 826              		.p2align 4,,15
 827              		.thumb
 828              		.thumb_func
 829              		.type	sdc_lld_error_cleanup, %function
 830              	sdc_lld_error_cleanup:
 831              	.LFB122:
 832              		.loc 1 247 0
 833              		.cfi_startproc
 834              		@ args = 0, pretend = 0, frame = 0
 835              		@ frame_needed = 0, uses_anonymous_args = 0
 836              	.LVL78:
 837 0000 2DE9F047 		push	{r4, r5, r6, r7, r8, r9, sl, lr}
 838              	.LCFI7:
 839              		.cfi_def_cfa_offset 32
 840              		.cfi_offset 4, -32
ARM GAS  C:\Users\Elis\AppData\Local\Temp\cc5W0xkr.s 			page 16


 841              		.cfi_offset 5, -28
 842              		.cfi_offset 6, -24
 843              		.cfi_offset 7, -20
 844              		.cfi_offset 8, -16
 845              		.cfi_offset 9, -12
 846              		.cfi_offset 10, -8
 847              		.cfi_offset 14, -4
 848              		.loc 1 250 0
 849 0004 466C     		ldr	r6, [r0, #68]
 850              		.loc 1 248 0
 851 0006 4FF43053 		mov	r3, #11264
 852              		.loc 1 250 0
 853 000a 347A     		ldrb	r4, [r6, #8]	@ zero_extendqisi2
 854              		.loc 1 251 0
 855 000c 3568     		ldr	r5, [r6, #0]
 856              		.loc 1 248 0
 857 000e C4F20103 		movt	r3, 16385
 858              		.loc 1 247 0
 859 0012 0746     		mov	r7, r0
 860              		.loc 1 250 0
 861 0014 4FF03D0E 		mov	lr, #61
 862 0018 7068     		ldr	r0, [r6, #4]
 863              	.LVL79:
 864              		.loc 1 248 0
 865 001a D3F834C0 		ldr	ip, [r3, #52]
 866              	.LVL80:
 867              		.loc 1 250 0
 868 001e 0EFA04F4 		lsl	r4, lr, r4
 869 0022 0460     		str	r4, [r0, #0]
 870              		.loc 1 251 0
 871 0024 2B68     		ldr	r3, [r5, #0]
 872 0026 23F01F04 		bic	r4, r3, #31
 873              		.loc 1 247 0
 874 002a 8946     		mov	r9, r1
 875 002c 9046     		mov	r8, r2
 876              		.loc 1 251 0
 877 002e 2C60     		str	r4, [r5, #0]
 878              	.LVL81:
 879              	.L94:
 880              		.loc 1 251 0 is_stmt 0 discriminator 1
 881 0030 2968     		ldr	r1, [r5, #0]
 882 0032 11F00104 		ands	r4, r1, #1
 883 0036 FBD1     		bne	.L94
 884              		.loc 1 251 0 discriminator 2
 885 0038 327A     		ldrb	r2, [r6, #8]	@ zero_extendqisi2
 886              	.LVL82:
 887              		.loc 1 252 0 is_stmt 1 discriminator 2
 888 003a 4FF43055 		mov	r5, #11264
 889 003e C4F20105 		movt	r5, 16385
 890              		.loc 1 251 0 discriminator 2
 891 0042 3D21     		movs	r1, #61
 892              		.loc 1 252 0 discriminator 2
 893 0044 40F2FF73 		movw	r3, #2047
 894              		.loc 1 251 0 discriminator 2
 895 0048 01FA02F2 		lsl	r2, r1, r2
 896              		.loc 1 252 0 discriminator 2
 897 004c C0F2C003 		movt	r3, 192
ARM GAS  C:\Users\Elis\AppData\Local\Temp\cc5W0xkr.s 			page 17


 898              		.loc 1 251 0 discriminator 2
 899 0050 0260     		str	r2, [r0, #0]
 900              		.loc 1 255 0 discriminator 2
 901 0052 6146     		mov	r1, ip
 902              		.loc 1 252 0 discriminator 2
 903 0054 AB63     		str	r3, [r5, #56]
 904              		.loc 1 255 0 discriminator 2
 905 0056 3846     		mov	r0, r7
 906              		.loc 1 253 0 discriminator 2
 907 0058 EC63     		str	r4, [r5, #60]
 908              		.loc 1 254 0 discriminator 2
 909 005a EC62     		str	r4, [r5, #44]
 910              		.loc 1 255 0 discriminator 2
 911 005c FFF7FEFF 		bl	sdc_lld_collect_errors
 912              	.LVL83:
 913              		.loc 1 256 0 discriminator 2
 914 0060 B9F1010F 		cmp	r9, #1
 915 0064 07D9     		bls	.L93
 916              	.LVL84:
 917              	.LBB26:
 918              	.LBB27:
 919              		.loc 1 257 0
 920 0066 3846     		mov	r0, r7
 921 0068 0C21     		movs	r1, #12
 922 006a 2246     		mov	r2, r4
 923 006c 4346     		mov	r3, r8
 924              	.LBE27:
 925              	.LBE26:
 926              		.loc 1 258 0
 927 006e BDE8F047 		pop	{r4, r5, r6, r7, r8, r9, sl, lr}
 928              	.LBB29:
 929              	.LBB28:
 930              		.loc 1 257 0
 931 0072 FFF7FEBF 		b	sdc_lld_send_cmd_short_crc
 932              	.LVL85:
 933              	.L93:
 934 0076 BDE8F087 		pop	{r4, r5, r6, r7, r8, r9, sl, pc}
 935              	.LBE28:
 936              	.LBE29:
 937              		.cfi_endproc
 938              	.LFE122:
 939              		.size	sdc_lld_error_cleanup, .-sdc_lld_error_cleanup
 940 007a 00BFAFF3 		.section	.text.sdc_lld_send_cmd_long_crc,"ax",%progbits
 940      0080
 941              		.align	2
 942              		.p2align 4,,15
 943              		.global	sdc_lld_send_cmd_long_crc
 944              		.thumb
 945              		.thumb_func
 946              		.type	sdc_lld_send_cmd_long_crc, %function
 947              	sdc_lld_send_cmd_long_crc:
 948              	.LFB134:
 949              		.loc 1 558 0
 950              		.cfi_startproc
 951              		@ args = 0, pretend = 0, frame = 0
 952              		@ frame_needed = 0, uses_anonymous_args = 0
 953              	.LVL86:
ARM GAS  C:\Users\Elis\AppData\Local\Temp\cc5W0xkr.s 			page 18


 954 0000 38B5     		push	{r3, r4, r5, lr}
 955              	.LCFI8:
 956              		.cfi_def_cfa_offset 16
 957              		.cfi_offset 3, -16
 958              		.cfi_offset 4, -12
 959              		.cfi_offset 5, -8
 960              		.cfi_offset 14, -4
 961              		.loc 1 563 0
 962 0002 4FF43055 		mov	r5, #11264
 963 0006 C4F20105 		movt	r5, 16385
 964              		.loc 1 564 0
 965 000a 41F49861 		orr	r1, r1, #1216
 966              	.LVL87:
 967              		.loc 1 563 0
 968 000e AA60     		str	r2, [r5, #8]
 969              		.loc 1 564 0
 970 0010 E960     		str	r1, [r5, #12]
 971              	.LVL88:
 972              	.L98:
 973              		.loc 1 566 0 discriminator 1
 974 0012 696B     		ldr	r1, [r5, #52]
 975              	.LVL89:
 976 0014 4FF43052 		mov	r2, #11264
 977 0018 11F04504 		ands	r4, r1, #69
 978 001c C4F20102 		movt	r2, 16385
 979 0020 F7D0     		beq	.L98
 980              		.loc 1 569 0
 981 0022 9463     		str	r4, [r2, #56]
 982              		.loc 1 570 0
 983 0024 11F03F04 		ands	r4, r1, #63
 984 0028 09D1     		bne	.L105
 985              		.loc 1 575 0
 986 002a 106A     		ldr	r0, [r2, #32]
 987              	.LVL90:
 988 002c 1860     		str	r0, [r3, #0]
 989              	.LVL91:
 990              		.loc 1 576 0
 991 002e D169     		ldr	r1, [r2, #28]
 992              	.LVL92:
 993 0030 5960     		str	r1, [r3, #4]
 994              	.LVL93:
 995              		.loc 1 577 0
 996 0032 9069     		ldr	r0, [r2, #24]
 997 0034 9860     		str	r0, [r3, #8]
 998              	.LVL94:
 999              		.loc 1 578 0
 1000 0036 5269     		ldr	r2, [r2, #20]
 1001              		.loc 1 579 0
 1002 0038 2046     		mov	r0, r4
 1003              		.loc 1 578 0
 1004 003a DA60     		str	r2, [r3, #12]
 1005              		.loc 1 580 0
 1006 003c 38BD     		pop	{r3, r4, r5, pc}
 1007              	.LVL95:
 1008              	.L105:
 1009              		.loc 1 571 0
 1010 003e FFF7FEFF 		bl	sdc_lld_collect_errors
ARM GAS  C:\Users\Elis\AppData\Local\Temp\cc5W0xkr.s 			page 19


 1011              	.LVL96:
 1012              		.loc 1 572 0
 1013 0042 0120     		movs	r0, #1
 1014 0044 38BD     		pop	{r3, r4, r5, pc}
 1015              		.cfi_endproc
 1016              	.LFE134:
 1017              		.size	sdc_lld_send_cmd_long_crc, .-sdc_lld_send_cmd_long_crc
 1018 0046 00BFAFF3 		.section	.text.sdc_lld_read_aligned,"ax",%progbits
 1018      0080AFF3 
 1018      0080
 1019              		.align	2
 1020              		.p2align 4,,15
 1021              		.global	sdc_lld_read_aligned
 1022              		.thumb
 1023              		.thumb_func
 1024              		.type	sdc_lld_read_aligned, %function
 1025              	sdc_lld_read_aligned:
 1026              	.LFB135:
 1027              		.loc 1 597 0
 1028              		.cfi_startproc
 1029              		@ args = 0, pretend = 0, frame = 8
 1030              		@ frame_needed = 0, uses_anonymous_args = 0
 1031              	.LVL97:
 1032 0000 2DE9F041 		push	{r4, r5, r6, r7, r8, lr}
 1033              	.LCFI9:
 1034              		.cfi_def_cfa_offset 24
 1035              		.cfi_offset 4, -24
 1036              		.cfi_offset 5, -20
 1037              		.cfi_offset 6, -16
 1038              		.cfi_offset 7, -12
 1039              		.cfi_offset 8, -8
 1040              		.cfi_offset 14, -4
 1041              		.loc 1 602 0
 1042 0004 4FF43054 		mov	r4, #11264
 1043 0008 C4F20104 		movt	r4, 16385
 1044 000c 4FF41F55 		mov	r5, #10176
 1045 0010 C0F20905 		movt	r5, 9
 1046              		.loc 1 597 0
 1047 0014 82B0     		sub	sp, sp, #8
 1048              	.LCFI10:
 1049              		.cfi_def_cfa_offset 32
 1050              		.loc 1 602 0
 1051 0016 6562     		str	r5, [r4, #36]
 1052              		.loc 1 597 0
 1053 0018 0F46     		mov	r7, r1
 1054 001a 0546     		mov	r5, r0
 1055 001c 9046     		mov	r8, r2
 1056 001e 1E46     		mov	r6, r3
 1057              		.loc 1 605 0
 1058 0020 FFF7FEFF 		bl	_sdc_wait_for_transfer_state
 1059              	.LVL98:
 1060 0024 18B1     		cbz	r0, .L117
 1061              		.loc 1 606 0
 1062 0026 0120     		movs	r0, #1
 1063              	.LVL99:
 1064              	.L115:
 1065              		.loc 1 642 0
ARM GAS  C:\Users\Elis\AppData\Local\Temp\cc5W0xkr.s 			page 20


 1066 0028 02B0     		add	sp, sp, #8
 1067 002a BDE8F081 		pop	{r4, r5, r6, r7, r8, pc}
 1068              	.LVL100:
 1069              	.L117:
 1070              	.LBB34:
 1071              	.LBB35:
 1072              		.loc 1 609 0
 1073 002e 6B6C     		ldr	r3, [r5, #68]
 1074              		.loc 1 612 0
 1075 0030 2A6C     		ldr	r2, [r5, #64]
 1076              		.loc 1 609 0
 1077 0032 1868     		ldr	r0, [r3, #0]
 1078              		.loc 1 610 0
 1079 0034 7302     		lsls	r3, r6, #9
 1080 0036 9908     		lsrs	r1, r3, #2
 1081              		.loc 1 609 0
 1082 0038 C0F80C80 		str	r8, [r0, #12]
 1083              		.loc 1 610 0
 1084 003c 4160     		str	r1, [r0, #4]
 1085              		.loc 1 612 0
 1086 003e 0260     		str	r2, [r0, #0]
 1087              		.loc 1 613 0
 1088 0040 0168     		ldr	r1, [r0, #0]
 1089              		.loc 1 616 0
 1090 0042 40F2FF72 		movw	r2, #2047
 1091              		.loc 1 613 0
 1092 0046 41F00101 		orr	r1, r1, #1
 1093 004a 0160     		str	r1, [r0, #0]
 1094              		.loc 1 616 0
 1095 004c C0F2C002 		movt	r2, 192
 1096              		.loc 1 617 0
 1097 0050 40F22A30 		movw	r0, #810
 1098              		.loc 1 616 0
 1099 0054 A263     		str	r2, [r4, #56]
 1100              		.loc 1 617 0
 1101 0056 E063     		str	r0, [r4, #60]
 1102              		.loc 1 622 0
 1103 0058 A362     		str	r3, [r4, #40]
 1104              		.loc 1 625 0
 1105 005a 9B23     		movs	r3, #155
 1106 005c E362     		str	r3, [r4, #44]
 1107              	.LVL101:
 1108              	.LBB36:
 1109              	.LBB37:
 1110              		.loc 1 88 0
 1111 005e 2C6B     		ldr	r4, [r5, #48]
 1112 0060 E306     		lsls	r3, r4, #27
 1113              		.loc 1 89 0
 1114 0062 58BF     		it	pl
 1115 0064 7F02     		lslpl	r7, r7, #9
 1116              	.LVL102:
 1117              		.loc 1 91 0
 1118 0066 012E     		cmp	r6, #1
 1119              		.loc 1 632 0
 1120 0068 01AC     		add	r4, sp, #4
 1121              	.LVL103:
 1122              		.loc 1 93 0
ARM GAS  C:\Users\Elis\AppData\Local\Temp\cc5W0xkr.s 			page 21


 1123 006a 2846     		mov	r0, r5
 1124              		.loc 1 91 0
 1125 006c 1AD9     		bls	.L109
 1126              	.LVL104:
 1127              		.loc 1 93 0
 1128 006e 1221     		movs	r1, #18
 1129 0070 3A46     		mov	r2, r7
 1130 0072 2346     		mov	r3, r4
 1131 0074 FFF7FEFF 		bl	sdc_lld_send_cmd_short_crc
 1132              	.LVL105:
 1133 0078 68B9     		cbnz	r0, .L112
 1134              	.L116:
 1135              		.loc 1 100 0
 1136 007a 4EF20801 		movw	r1, #57352
 1137 007e 019A     		ldr	r2, [sp, #4]
 1138 0080 CFF6FF51 		movt	r1, 65023
 1139 0084 1140     		ands	r1, r1, r2
 1140 0086 31B9     		cbnz	r1, .L112
 1141              	.LBE37:
 1142              	.LBE36:
 1143              		.loc 1 634 0
 1144 0088 2846     		mov	r0, r5
 1145 008a 3146     		mov	r1, r6
 1146 008c 2246     		mov	r2, r4
 1147 008e FFF7FEFF 		bl	sdc_lld_wait_transaction_end
 1148              	.LVL106:
 1149 0092 0028     		cmp	r0, #0
 1150 0094 C8D0     		beq	.L115
 1151              	.L112:
 1152              		.loc 1 640 0
 1153 0096 2846     		mov	r0, r5
 1154 0098 3146     		mov	r1, r6
 1155 009a 2246     		mov	r2, r4
 1156 009c FFF7FEFF 		bl	sdc_lld_error_cleanup
 1157              	.LVL107:
 1158              		.loc 1 641 0
 1159 00a0 0120     		movs	r0, #1
 1160 00a2 C1E7     		b	.L115
 1161              	.LVL108:
 1162              	.L109:
 1163              	.LBB39:
 1164              	.LBB38:
 1165              		.loc 1 99 0
 1166 00a4 1121     		movs	r1, #17
 1167 00a6 3A46     		mov	r2, r7
 1168 00a8 2346     		mov	r3, r4
 1169 00aa FFF7FEFF 		bl	sdc_lld_send_cmd_short_crc
 1170              	.LVL109:
 1171 00ae 0028     		cmp	r0, #0
 1172 00b0 E3D0     		beq	.L116
 1173 00b2 F0E7     		b	.L112
 1174              	.LBE38:
 1175              	.LBE39:
 1176              	.LBE35:
 1177              	.LBE34:
 1178              		.cfi_endproc
 1179              	.LFE135:
ARM GAS  C:\Users\Elis\AppData\Local\Temp\cc5W0xkr.s 			page 22


 1180              		.size	sdc_lld_read_aligned, .-sdc_lld_read_aligned
 1181 00b4 AFF30080 		.section	.text.sdc_lld_write_aligned,"ax",%progbits
 1181      AFF30080 
 1181      AFF30080 
 1182              		.align	2
 1183              		.p2align 4,,15
 1184              		.global	sdc_lld_write_aligned
 1185              		.thumb
 1186              		.thumb_func
 1187              		.type	sdc_lld_write_aligned, %function
 1188              	sdc_lld_write_aligned:
 1189              	.LFB136:
 1190              		.loc 1 659 0
 1191              		.cfi_startproc
 1192              		@ args = 0, pretend = 0, frame = 8
 1193              		@ frame_needed = 0, uses_anonymous_args = 0
 1194              	.LVL110:
 1195 0000 2DE9F041 		push	{r4, r5, r6, r7, r8, lr}
 1196              	.LCFI11:
 1197              		.cfi_def_cfa_offset 24
 1198              		.cfi_offset 4, -24
 1199              		.cfi_offset 5, -20
 1200              		.cfi_offset 6, -16
 1201              		.cfi_offset 7, -12
 1202              		.cfi_offset 8, -8
 1203              		.cfi_offset 14, -4
 1204              		.loc 1 664 0
 1205 0004 4FF43054 		mov	r4, #11264
 1206 0008 C4F20104 		movt	r4, 16385
 1207 000c 48F68055 		movw	r5, #36224
 1208 0010 C0F25B05 		movt	r5, 91
 1209              		.loc 1 659 0
 1210 0014 82B0     		sub	sp, sp, #8
 1211              	.LCFI12:
 1212              		.cfi_def_cfa_offset 32
 1213              		.loc 1 664 0
 1214 0016 6562     		str	r5, [r4, #36]
 1215              		.loc 1 659 0
 1216 0018 0F46     		mov	r7, r1
 1217 001a 0546     		mov	r5, r0
 1218 001c 9046     		mov	r8, r2
 1219 001e 1E46     		mov	r6, r3
 1220              		.loc 1 667 0
 1221 0020 FFF7FEFF 		bl	_sdc_wait_for_transfer_state
 1222              	.LVL111:
 1223 0024 18B1     		cbz	r0, .L129
 1224              		.loc 1 668 0
 1225 0026 0120     		movs	r0, #1
 1226              	.LVL112:
 1227              	.L127:
 1228              		.loc 1 703 0
 1229 0028 02B0     		add	sp, sp, #8
 1230 002a BDE8F081 		pop	{r4, r5, r6, r7, r8, pc}
 1231              	.LVL113:
 1232              	.L129:
 1233              	.LBB44:
 1234              	.LBB45:
ARM GAS  C:\Users\Elis\AppData\Local\Temp\cc5W0xkr.s 			page 23


 1235              		.loc 1 671 0
 1236 002e 6B6C     		ldr	r3, [r5, #68]
 1237              		.loc 1 674 0
 1238 0030 2A6C     		ldr	r2, [r5, #64]
 1239              		.loc 1 671 0
 1240 0032 1868     		ldr	r0, [r3, #0]
 1241              		.loc 1 672 0
 1242 0034 7302     		lsls	r3, r6, #9
 1243 0036 9908     		lsrs	r1, r3, #2
 1244              		.loc 1 674 0
 1245 0038 42F04002 		orr	r2, r2, #64
 1246              		.loc 1 671 0
 1247 003c C0F80C80 		str	r8, [r0, #12]
 1248              		.loc 1 672 0
 1249 0040 4160     		str	r1, [r0, #4]
 1250              		.loc 1 674 0
 1251 0042 0260     		str	r2, [r0, #0]
 1252              		.loc 1 675 0
 1253 0044 0168     		ldr	r1, [r0, #0]
 1254              		.loc 1 678 0
 1255 0046 40F2FF72 		movw	r2, #2047
 1256              		.loc 1 675 0
 1257 004a 41F00101 		orr	r1, r1, #1
 1258 004e 0160     		str	r1, [r0, #0]
 1259              		.loc 1 678 0
 1260 0050 C0F2C002 		movt	r2, 192
 1261              		.loc 1 679 0
 1262 0054 40F21A30 		movw	r0, #794
 1263              		.loc 1 678 0
 1264 0058 A263     		str	r2, [r4, #56]
 1265              		.loc 1 679 0
 1266 005a E063     		str	r0, [r4, #60]
 1267              		.loc 1 684 0
 1268 005c A362     		str	r3, [r4, #40]
 1269              	.LVL114:
 1270              	.LBB46:
 1271              	.LBB47:
 1272              		.loc 1 126 0
 1273 005e 2C6B     		ldr	r4, [r5, #48]
 1274 0060 E306     		lsls	r3, r4, #27
 1275              		.loc 1 127 0
 1276 0062 58BF     		it	pl
 1277 0064 7F02     		lslpl	r7, r7, #9
 1278              	.LVL115:
 1279              		.loc 1 129 0
 1280 0066 012E     		cmp	r6, #1
 1281              		.loc 1 687 0
 1282 0068 01AC     		add	r4, sp, #4
 1283              	.LVL116:
 1284              		.loc 1 131 0
 1285 006a 2846     		mov	r0, r5
 1286              		.loc 1 129 0
 1287 006c 20D9     		bls	.L121
 1288              	.LVL117:
 1289              		.loc 1 131 0
 1290 006e 1921     		movs	r1, #25
 1291 0070 3A46     		mov	r2, r7
ARM GAS  C:\Users\Elis\AppData\Local\Temp\cc5W0xkr.s 			page 24


 1292 0072 2346     		mov	r3, r4
 1293 0074 FFF7FEFF 		bl	sdc_lld_send_cmd_short_crc
 1294              	.LVL118:
 1295 0078 98B9     		cbnz	r0, .L124
 1296              	.L128:
 1297              		.loc 1 138 0
 1298 007a 4EF20803 		movw	r3, #57352
 1299 007e 019A     		ldr	r2, [sp, #4]
 1300 0080 CFF6FF53 		movt	r3, 65023
 1301 0084 1340     		ands	r3, r3, r2
 1302 0086 63B9     		cbnz	r3, .L124
 1303              	.LBE47:
 1304              	.LBE46:
 1305              		.loc 1 691 0
 1306 0088 4FF43051 		mov	r1, #11264
 1307 008c C4F20101 		movt	r1, 16385
 1308 0090 9920     		movs	r0, #153
 1309 0092 C862     		str	r0, [r1, #44]
 1310              		.loc 1 695 0
 1311 0094 2246     		mov	r2, r4
 1312 0096 2846     		mov	r0, r5
 1313 0098 3146     		mov	r1, r6
 1314 009a FFF7FEFF 		bl	sdc_lld_wait_transaction_end
 1315              	.LVL119:
 1316 009e 0028     		cmp	r0, #0
 1317 00a0 C2D0     		beq	.L127
 1318              	.L124:
 1319              		.loc 1 701 0
 1320 00a2 2846     		mov	r0, r5
 1321 00a4 3146     		mov	r1, r6
 1322 00a6 2246     		mov	r2, r4
 1323 00a8 FFF7FEFF 		bl	sdc_lld_error_cleanup
 1324              	.LVL120:
 1325              		.loc 1 702 0
 1326 00ac 0120     		movs	r0, #1
 1327 00ae BBE7     		b	.L127
 1328              	.LVL121:
 1329              	.L121:
 1330              	.LBB49:
 1331              	.LBB48:
 1332              		.loc 1 137 0
 1333 00b0 1821     		movs	r1, #24
 1334 00b2 3A46     		mov	r2, r7
 1335 00b4 2346     		mov	r3, r4
 1336 00b6 FFF7FEFF 		bl	sdc_lld_send_cmd_short_crc
 1337              	.LVL122:
 1338 00ba 0028     		cmp	r0, #0
 1339 00bc DDD0     		beq	.L128
 1340 00be F0E7     		b	.L124
 1341              	.LBE48:
 1342              	.LBE49:
 1343              	.LBE45:
 1344              	.LBE44:
 1345              		.cfi_endproc
 1346              	.LFE136:
 1347              		.size	sdc_lld_write_aligned, .-sdc_lld_write_aligned
 1348              		.section	.text.sdc_lld_read,"ax",%progbits
ARM GAS  C:\Users\Elis\AppData\Local\Temp\cc5W0xkr.s 			page 25


 1349              		.align	2
 1350              		.p2align 4,,15
 1351              		.global	sdc_lld_read
 1352              		.thumb
 1353              		.thumb_func
 1354              		.type	sdc_lld_read, %function
 1355              	sdc_lld_read:
 1356              	.LFB137:
 1357              		.loc 1 720 0
 1358              		.cfi_startproc
 1359              		@ args = 0, pretend = 0, frame = 0
 1360              		@ frame_needed = 0, uses_anonymous_args = 0
 1361              	.LVL123:
 1362              		.loc 1 723 0
 1363 0000 12F0030F 		tst	r2, #3
 1364              		.loc 1 720 0
 1365 0004 2DE9F047 		push	{r4, r5, r6, r7, r8, r9, sl, lr}
 1366              	.LCFI13:
 1367              		.cfi_def_cfa_offset 32
 1368              		.cfi_offset 4, -32
 1369              		.cfi_offset 5, -28
 1370              		.cfi_offset 6, -24
 1371              		.cfi_offset 7, -20
 1372              		.cfi_offset 8, -16
 1373              		.cfi_offset 9, -12
 1374              		.cfi_offset 10, -8
 1375              		.cfi_offset 14, -4
 1376              		.loc 1 720 0
 1377 0008 1546     		mov	r5, r2
 1378 000a 8046     		mov	r8, r0
 1379 000c 0C46     		mov	r4, r1
 1380 000e 1E46     		mov	r6, r3
 1381              		.loc 1 723 0
 1382 0010 52D0     		beq	.L131
 1383              	.LVL124:
 1384              	.LBB50:
 1385              		.loc 1 725 0 discriminator 1
 1386 0012 002B     		cmp	r3, #0
 1387 0014 4DD0     		beq	.L135
 1388              		.loc 1 719 0
 1389 0016 03EB0109 		add	r9, r3, r1
 1390 001a CE43     		mvns	r6, r1
 1391 001c 4E44     		add	r6, r6, r9
 1392              		.loc 1 726 0
 1393 001e 0123     		movs	r3, #1
 1394              	.LVL125:
 1395 0020 274A     		ldr	r2, .L147
 1396              	.LVL126:
 1397 0022 1E40     		ands	r6, r6, r3
 1398 0024 FFF7FEFF 		bl	sdc_lld_read_aligned
 1399              	.LVL127:
 1400 0028 0028     		cmp	r0, #0
 1401 002a 3FD1     		bne	.L136
 1402              		.loc 1 728 0
 1403 002c 2846     		mov	r0, r5
 1404 002e 2449     		ldr	r1, .L147
 1405 0030 4FF40072 		mov	r2, #512
ARM GAS  C:\Users\Elis\AppData\Local\Temp\cc5W0xkr.s 			page 26


 1406              		.loc 1 730 0
 1407 0034 0134     		adds	r4, r4, #1
 1408              	.LVL128:
 1409              		.loc 1 728 0
 1410 0036 FFF7FEFF 		bl	memcpy
 1411              	.LVL129:
 1412              		.loc 1 725 0
 1413 003a 4C45     		cmp	r4, r9
 1414              		.loc 1 729 0
 1415 003c 05F50075 		add	r5, r5, #512
 1416              	.LVL130:
 1417              		.loc 1 725 0
 1418 0040 37D0     		beq	.L135
 1419 0042 2EB3     		cbz	r6, .L134
 1420              		.loc 1 726 0
 1421 0044 4046     		mov	r0, r8
 1422 0046 2146     		mov	r1, r4
 1423 0048 1D4A     		ldr	r2, .L147
 1424 004a 0123     		movs	r3, #1
 1425 004c FFF7FEFF 		bl	sdc_lld_read_aligned
 1426              	.LVL131:
 1427 0050 60BB     		cbnz	r0, .L136
 1428              		.loc 1 728 0
 1429 0052 2846     		mov	r0, r5
 1430 0054 1A49     		ldr	r1, .L147
 1431 0056 4FF40072 		mov	r2, #512
 1432              		.loc 1 730 0
 1433 005a 0134     		adds	r4, r4, #1
 1434              	.LVL132:
 1435              		.loc 1 728 0
 1436 005c FFF7FEFF 		bl	memcpy
 1437              	.LVL133:
 1438              		.loc 1 725 0
 1439 0060 4C45     		cmp	r4, r9
 1440              		.loc 1 729 0
 1441 0062 05F50075 		add	r5, r5, #512
 1442              	.LVL134:
 1443              		.loc 1 725 0
 1444 0066 13D1     		bne	.L134
 1445 0068 23E0     		b	.L135
 1446              	.L146:
 1447              		.loc 1 728 0
 1448 006a 2846     		mov	r0, r5
 1449 006c FFF7FEFF 		bl	memcpy
 1450              	.LVL135:
 1451              		.loc 1 726 0
 1452 0070 3146     		mov	r1, r6
 1453 0072 134A     		ldr	r2, .L147
 1454 0074 0123     		movs	r3, #1
 1455 0076 4046     		mov	r0, r8
 1456 0078 FFF7FEFF 		bl	sdc_lld_read_aligned
 1457              	.LVL136:
 1458              		.loc 1 728 0
 1459 007c 4FF40072 		mov	r2, #512
 1460 0080 0F49     		ldr	r1, .L147
 1461              		.loc 1 729 0
 1462 0082 BD18     		adds	r5, r7, r2
ARM GAS  C:\Users\Elis\AppData\Local\Temp\cc5W0xkr.s 			page 27


 1463              		.loc 1 726 0
 1464 0084 90B9     		cbnz	r0, .L136
 1465              		.loc 1 728 0
 1466 0086 3846     		mov	r0, r7
 1467 0088 FFF7FEFF 		bl	memcpy
 1468              	.LVL137:
 1469              		.loc 1 725 0
 1470 008c 4C45     		cmp	r4, r9
 1471 008e 10D0     		beq	.L135
 1472              	.L134:
 1473              		.loc 1 726 0
 1474 0090 2146     		mov	r1, r4
 1475 0092 0123     		movs	r3, #1
 1476 0094 0A4A     		ldr	r2, .L147
 1477              		.loc 1 730 0
 1478 0096 661C     		adds	r6, r4, #1
 1479              		.loc 1 726 0
 1480 0098 4046     		mov	r0, r8
 1481              		.loc 1 730 0
 1482 009a F418     		adds	r4, r6, r3
 1483              		.loc 1 726 0
 1484 009c FFF7FEFF 		bl	sdc_lld_read_aligned
 1485              	.LVL138:
 1486              		.loc 1 728 0
 1487 00a0 4FF40072 		mov	r2, #512
 1488 00a4 0649     		ldr	r1, .L147
 1489              		.loc 1 729 0
 1490 00a6 AF18     		adds	r7, r5, r2
 1491              		.loc 1 726 0
 1492 00a8 0028     		cmp	r0, #0
 1493 00aa DED0     		beq	.L146
 1494              	.L136:
 1495              		.loc 1 727 0
 1496 00ac 0120     		movs	r0, #1
 1497              	.LBE50:
 1498              		.loc 1 736 0
 1499 00ae BDE8F087 		pop	{r4, r5, r6, r7, r8, r9, sl, pc}
 1500              	.L135:
 1501              	.LBB51:
 1502              		.loc 1 732 0
 1503 00b2 0020     		movs	r0, #0
 1504 00b4 BDE8F087 		pop	{r4, r5, r6, r7, r8, r9, sl, pc}
 1505              	.LVL139:
 1506              	.L131:
 1507              	.LBE51:
 1508              		.loc 1 736 0
 1509 00b8 BDE8F047 		pop	{r4, r5, r6, r7, r8, r9, sl, lr}
 1510              		.loc 1 735 0
 1511 00bc FFF7FEBF 		b	sdc_lld_read_aligned
 1512              	.LVL140:
 1513              	.L148:
 1514              		.align	2
 1515              	.L147:
 1516 00c0 00000000 		.word	.LANCHOR1
 1517              		.cfi_endproc
 1518              	.LFE137:
 1519              		.size	sdc_lld_read, .-sdc_lld_read
ARM GAS  C:\Users\Elis\AppData\Local\Temp\cc5W0xkr.s 			page 28


 1520 00c4 AFF30080 		.section	.text.sdc_lld_write,"ax",%progbits
 1520      AFF30080 
 1520      AFF30080 
 1521              		.align	2
 1522              		.p2align 4,,15
 1523              		.global	sdc_lld_write
 1524              		.thumb
 1525              		.thumb_func
 1526              		.type	sdc_lld_write, %function
 1527              	sdc_lld_write:
 1528              	.LFB138:
 1529              		.loc 1 753 0
 1530              		.cfi_startproc
 1531              		@ args = 0, pretend = 0, frame = 0
 1532              		@ frame_needed = 0, uses_anonymous_args = 0
 1533              	.LVL141:
 1534              		.loc 1 756 0
 1535 0000 12F0030F 		tst	r2, #3
 1536              		.loc 1 753 0
 1537 0004 2DE9F041 		push	{r4, r5, r6, r7, r8, lr}
 1538              	.LCFI14:
 1539              		.cfi_def_cfa_offset 24
 1540              		.cfi_offset 4, -24
 1541              		.cfi_offset 5, -20
 1542              		.cfi_offset 6, -16
 1543              		.cfi_offset 7, -12
 1544              		.cfi_offset 8, -8
 1545              		.cfi_offset 14, -4
 1546              		.loc 1 753 0
 1547 0008 1546     		mov	r5, r2
 1548 000a 0746     		mov	r7, r0
 1549 000c 0C46     		mov	r4, r1
 1550 000e 1E46     		mov	r6, r3
 1551              		.loc 1 756 0
 1552 0010 57D0     		beq	.L150
 1553              	.LVL142:
 1554              	.LBB52:
 1555              		.loc 1 758 0 discriminator 1
 1556 0012 002B     		cmp	r3, #0
 1557 0014 52D0     		beq	.L154
 1558              		.loc 1 752 0
 1559 0016 03EB0108 		add	r8, r3, r1
 1560              		.loc 1 759 0
 1561 001a 2C48     		ldr	r0, .L166
 1562              	.LVL143:
 1563 001c CB43     		mvns	r3, r1
 1564              	.LVL144:
 1565 001e 1146     		mov	r1, r2
 1566              	.LVL145:
 1567 0020 4FF40072 		mov	r2, #512
 1568              	.LVL146:
 1569 0024 03EB0806 		add	r6, r3, r8
 1570              	.LVL147:
 1571 0028 FFF7FEFF 		bl	memcpy
 1572              	.LVL148:
 1573              		.loc 1 761 0
 1574 002c 3846     		mov	r0, r7
ARM GAS  C:\Users\Elis\AppData\Local\Temp\cc5W0xkr.s 			page 29


 1575 002e 2146     		mov	r1, r4
 1576 0030 264A     		ldr	r2, .L166
 1577 0032 0123     		movs	r3, #1
 1578 0034 06F00106 		and	r6, r6, #1
 1579              		.loc 1 760 0
 1580 0038 05F50075 		add	r5, r5, #512
 1581              	.LVL149:
 1582              		.loc 1 761 0
 1583 003c FFF7FEFF 		bl	sdc_lld_write_aligned
 1584              	.LVL150:
 1585 0040 0028     		cmp	r0, #0
 1586 0042 38D1     		bne	.L155
 1587              		.loc 1 763 0
 1588 0044 0134     		adds	r4, r4, #1
 1589              	.LVL151:
 1590              		.loc 1 758 0
 1591 0046 4445     		cmp	r4, r8
 1592 0048 38D0     		beq	.L154
 1593 004a F6B1     		cbz	r6, .L153
 1594              		.loc 1 759 0
 1595 004c 2946     		mov	r1, r5
 1596 004e 4FF40072 		mov	r2, #512
 1597 0052 1E48     		ldr	r0, .L166
 1598 0054 FFF7FEFF 		bl	memcpy
 1599              	.LVL152:
 1600              		.loc 1 761 0
 1601 0058 3846     		mov	r0, r7
 1602 005a 2146     		mov	r1, r4
 1603 005c 1B4A     		ldr	r2, .L166
 1604 005e 0123     		movs	r3, #1
 1605              		.loc 1 760 0
 1606 0060 05F50075 		add	r5, r5, #512
 1607              		.loc 1 761 0
 1608 0064 FFF7FEFF 		bl	sdc_lld_write_aligned
 1609              	.LVL153:
 1610 0068 28BB     		cbnz	r0, .L155
 1611              		.loc 1 763 0
 1612 006a 0134     		adds	r4, r4, #1
 1613              	.LVL154:
 1614              		.loc 1 758 0
 1615 006c 4445     		cmp	r4, r8
 1616 006e 0CD1     		bne	.L153
 1617 0070 24E0     		b	.L154
 1618              	.L165:
 1619              		.loc 1 759 0
 1620 0072 1648     		ldr	r0, .L166
 1621 0074 FFF7FEFF 		bl	memcpy
 1622              	.LVL155:
 1623              		.loc 1 761 0
 1624 0078 3846     		mov	r0, r7
 1625 007a 3146     		mov	r1, r6
 1626 007c 134A     		ldr	r2, .L166
 1627 007e 0123     		movs	r3, #1
 1628 0080 FFF7FEFF 		bl	sdc_lld_write_aligned
 1629              	.LVL156:
 1630 0084 B8B9     		cbnz	r0, .L155
 1631              		.loc 1 758 0
ARM GAS  C:\Users\Elis\AppData\Local\Temp\cc5W0xkr.s 			page 30


 1632 0086 4445     		cmp	r4, r8
 1633 0088 18D0     		beq	.L154
 1634              	.L153:
 1635              		.loc 1 759 0
 1636 008a 2946     		mov	r1, r5
 1637 008c 4FF40072 		mov	r2, #512
 1638 0090 0E48     		ldr	r0, .L166
 1639 0092 FFF7FEFF 		bl	memcpy
 1640              	.LVL157:
 1641              		.loc 1 763 0
 1642 0096 661C     		adds	r6, r4, #1
 1643              		.loc 1 761 0
 1644 0098 2146     		mov	r1, r4
 1645 009a 0123     		movs	r3, #1
 1646 009c 0B4A     		ldr	r2, .L166
 1647 009e 3846     		mov	r0, r7
 1648              		.loc 1 763 0
 1649 00a0 F418     		adds	r4, r6, r3
 1650              		.loc 1 761 0
 1651 00a2 FFF7FEFF 		bl	sdc_lld_write_aligned
 1652              	.LVL158:
 1653              		.loc 1 760 0
 1654 00a6 05F50075 		add	r5, r5, #512
 1655              		.loc 1 759 0
 1656 00aa 4FF40072 		mov	r2, #512
 1657 00ae 2946     		mov	r1, r5
 1658              		.loc 1 760 0
 1659 00b0 AD18     		adds	r5, r5, r2
 1660              		.loc 1 761 0
 1661 00b2 0028     		cmp	r0, #0
 1662 00b4 DDD0     		beq	.L165
 1663              	.L155:
 1664              		.loc 1 762 0
 1665 00b6 0120     		movs	r0, #1
 1666              	.LBE52:
 1667              		.loc 1 769 0
 1668 00b8 BDE8F081 		pop	{r4, r5, r6, r7, r8, pc}
 1669              	.L154:
 1670              	.LBB53:
 1671              		.loc 1 765 0
 1672 00bc 0020     		movs	r0, #0
 1673 00be BDE8F081 		pop	{r4, r5, r6, r7, r8, pc}
 1674              	.LVL159:
 1675              	.L150:
 1676              	.LBE53:
 1677              		.loc 1 769 0
 1678 00c2 BDE8F041 		pop	{r4, r5, r6, r7, r8, lr}
 1679              		.loc 1 768 0
 1680 00c6 FFF7FEBF 		b	sdc_lld_write_aligned
 1681              	.LVL160:
 1682              	.L167:
 1683 00ca 00BF     		.align	2
 1684              	.L166:
 1685 00cc 00000000 		.word	.LANCHOR1
 1686              		.cfi_endproc
 1687              	.LFE138:
 1688              		.size	sdc_lld_write, .-sdc_lld_write
ARM GAS  C:\Users\Elis\AppData\Local\Temp\cc5W0xkr.s 			page 31


 1689              		.section	.text.sdc_lld_sync,"ax",%progbits
 1690              		.align	2
 1691              		.p2align 4,,15
 1692              		.global	sdc_lld_sync
 1693              		.thumb
 1694              		.thumb_func
 1695              		.type	sdc_lld_sync, %function
 1696              	sdc_lld_sync:
 1697              	.LFB139:
 1698              		.loc 1 782 0
 1699              		.cfi_startproc
 1700              		@ args = 0, pretend = 0, frame = 0
 1701              		@ frame_needed = 0, uses_anonymous_args = 0
 1702              		@ link register save eliminated.
 1703              	.LVL161:
 1704              		.loc 1 787 0
 1705 0000 0020     		movs	r0, #0
 1706              	.LVL162:
 1707 0002 7047     		bx	lr
 1708              		.cfi_endproc
 1709              	.LFE139:
 1710              		.size	sdc_lld_sync, .-sdc_lld_sync
 1711              		.global	SDCD1
 1712 0004 AFF30080 		.section	.bss.SDCD1,"aw",%nobits
 1712      AFF30080 
 1712      AFF30080 
 1713              		.align	2
 1714              		.set	.LANCHOR0,. + 0
 1715              		.type	SDCD1, %object
 1716              		.size	SDCD1, 72
 1717              	SDCD1:
 1718 0000 00000000 		.space	72
 1718      00000000 
 1718      00000000 
 1718      00000000 
 1718      00000000 
 1719              		.section	.bss.u,"aw",%nobits
 1720              		.align	2
 1721              		.set	.LANCHOR1,. + 0
 1722              		.type	u, %object
 1723              		.size	u, 512
 1724              	u:
 1725 0000 00000000 		.space	512
 1725      00000000 
 1725      00000000 
 1725      00000000 
 1725      00000000 
 1726              		.text
 1727              	.Letext0:
 1728              		.file 2 "c:\\chibistudio\\tools\\gnu tools arm embedded\\4.7 2014q2\\bin\\../lib/gcc/arm-none-eabi
 1729              		.file 3 "../../chibios/os/ports/GCC/ARMCMx/chtypes.h"
 1730              		.file 4 "../../chibios/os/kernel/include/chlists.h"
 1731              		.file 5 "../../chibios/os/kernel/include/chthreads.h"
 1732              		.file 6 "../../chibios/os/ports/GCC/ARMCMx/chcore_v7m.h"
 1733              		.file 7 "../../chibios/os/kernel/include/chschd.h"
 1734              		.file 8 "../../chibios/os/kernel/include/chmtx.h"
 1735              		.file 9 "../../chibios/os/hal/platforms/STM32F4xx/stm32f4xx.h"
ARM GAS  C:\Users\Elis\AppData\Local\Temp\cc5W0xkr.s 			page 32


 1736              		.file 10 "../../chibios/os/hal/platforms/STM32F4xx/stm32_dma.h"
 1737              		.file 11 "../../chibios/os/hal/include/io_block.h"
 1738              		.file 12 "../../chibios/os/hal/platforms/STM32/sdc_lld.h"
 1739              		.file 13 "../../chibios/os/ports/common/ARMCMx/CMSIS/include/core_cm4.h"
 1740              		.file 14 "../../chibios/os/kernel/include/chdebug.h"
 1741              		.file 15 "../../chibios/os/hal/include/sdc.h"
 1742              		.file 16 "../../chibios/os/ports/common/ARMCMx/nvic.h"