ARM GAS  C:\Users\Elis\AppData\Local\Temp\cc7fAkOb.s 			page 1


   1              		.syntax unified
   2              		.cpu cortex-m4
   3              		.fpu softvfp
   4              		.eabi_attribute 20, 1
   5              		.eabi_attribute 21, 1
   6              		.eabi_attribute 23, 3
   7              		.eabi_attribute 24, 1
   8              		.eabi_attribute 25, 1
   9              		.eabi_attribute 26, 1
  10              		.eabi_attribute 30, 2
  11              		.eabi_attribute 34, 1
  12              		.eabi_attribute 18, 4
  13              		.thumb
  14              		.file	"serial_lld.c"
  15              		.text
  16              	.Ltext0:
  17              		.cfi_sections	.debug_frame
  18              		.section	.text.notify2,"ax",%progbits
  19              		.align	2
  20              		.p2align 4,,15
  21              		.thumb
  22              		.thumb_func
  23              		.type	notify2, %function
  24              	notify2:
  25              	.LFB122:
  26              		.file 1 "../../chibios/os/hal/platforms/STM32/USARTv1/serial_lld.c"
  27              		.loc 1 212 0
  28              		.cfi_startproc
  29              		@ args = 0, pretend = 0, frame = 0
  30              		@ frame_needed = 0, uses_anonymous_args = 0
  31              		@ link register save eliminated.
  32              	.LVL0:
  33              		.loc 1 215 0
  34 0000 4FF48843 		mov	r3, #17408
  35 0004 C4F20003 		movt	r3, 16384
  36 0008 9A89     		ldrh	r2, [r3, #12]
  37 000a 90B2     		uxth	r0, r2
  38              	.LVL1:
  39 000c 40F08001 		orr	r1, r0, #128
  40 0010 9981     		strh	r1, [r3, #12]	@ movhi
  41 0012 7047     		bx	lr
  42              		.cfi_endproc
  43              	.LFE122:
  44              		.size	notify2, .-notify2
  45 0014 AFF30080 		.section	.text.VectorD8,"ax",%progbits
  45      AFF30080 
  45      AFF30080 
  46              		.align	2
  47              		.p2align 4,,15
  48              		.global	VectorD8
  49              		.thumb
  50              		.thumb_func
  51              		.type	VectorD8, %function
  52              	VectorD8:
  53              	.LFB123:
  54              		.loc 1 283 0
  55              		.cfi_startproc
ARM GAS  C:\Users\Elis\AppData\Local\Temp\cc7fAkOb.s 			page 2


  56              		@ args = 0, pretend = 0, frame = 0
  57              		@ frame_needed = 0, uses_anonymous_args = 0
  58 0000 F8B5     		push	{r3, r4, r5, r6, r7, lr}
  59              	.LCFI0:
  60              		.cfi_def_cfa_offset 24
  61              		.cfi_offset 3, -24
  62              		.cfi_offset 4, -20
  63              		.cfi_offset 5, -16
  64              		.cfi_offset 6, -12
  65              		.cfi_offset 7, -8
  66              		.cfi_offset 14, -4
  67              	.LBB26:
  68              	.LBB27:
  69              		.loc 1 155 0
  70 0002 534E     		ldr	r6, .L53
  71              	.LBE27:
  72              	.LBE26:
  73              		.loc 1 285 0
  74 0004 FFF7FEFF 		bl	dbg_check_enter_isr
  75              	.LVL2:
  76              	.LBB42:
  77              	.LBB40:
  78              		.loc 1 155 0
  79 0008 D6F85C52 		ldr	r5, [r6, #604]
  80              	.LVL3:
  81              		.loc 1 156 0
  82 000c AF89     		ldrh	r7, [r5, #12]
  83              		.loc 1 157 0
  84 000e 2C88     		ldrh	r4, [r5, #0]
  85 0010 A4B2     		uxth	r4, r4
  86              		.loc 1 160 0
  87 0012 04F48073 		and	r3, r4, #256
  88 0016 98B2     		uxth	r0, r3
  89              		.loc 1 156 0
  90 0018 BFB2     		uxth	r7, r7
  91              	.LVL4:
  92              		.loc 1 160 0
  93 001a 0028     		cmp	r0, #0
  94 001c 61D1     		bne	.L48
  95              	.LVL5:
  96              	.L3:
  97              	.LBB28:
  98              		.loc 1 168 0
  99 001e 2023     		movs	r3, #32
 100              	.LVL6:
 101              	@ 168 "../../chibios/os/hal/platforms/STM32/USARTv1/serial_lld.c" 1
 102 0020 83F31188 		msr     BASEPRI, r3
 103              	@ 0 "" 2
 104              	.LVL7:
 105              		.thumb
 106              	.LBE28:
 107 0024 FFF7FEFF 		bl	dbg_check_lock_from_isr
 108              	.LVL8:
 109              		.loc 1 169 0
 110 0028 04F02002 		and	r2, r4, #32
 111 002c 93B2     		uxth	r3, r2
 112 002e 5BB9     		cbnz	r3, .L36
ARM GAS  C:\Users\Elis\AppData\Local\Temp\cc7fAkOb.s 			page 3


 113 0030 28E0     		b	.L4
 114              	.LVL9:
 115              	.L5:
 116              		.loc 1 173 0
 117 0032 A988     		ldrh	r1, [r5, #4]
 118 0034 4648     		ldr	r0, .L53
 119 0036 C9B2     		uxtb	r1, r1
 120 0038 FFF7FEFF 		bl	sdIncomingDataI
 121              	.LVL10:
 122              		.loc 1 174 0
 123 003c 2888     		ldrh	r0, [r5, #0]
 124 003e 84B2     		uxth	r4, r0
 125              	.LVL11:
 126              		.loc 1 169 0
 127 0040 04F02003 		and	r3, r4, #32
 128 0044 9AB2     		uxth	r2, r3
 129 0046 EAB1     		cbz	r2, .L4
 130              	.LVL12:
 131              	.L36:
 132              		.loc 1 171 0
 133 0048 2307     		lsls	r3, r4, #28
 134 004a F2D0     		beq	.L5
 135              	.LVL13:
 136              	.LBB29:
 137              	.LBB30:
 138              		.loc 1 138 0
 139 004c 04F00800 		and	r0, r4, #8
 140              		.loc 1 142 0
 141 0050 04F00202 		and	r2, r4, #2
 142              		.loc 1 138 0
 143 0054 81B2     		uxth	r1, r0
 144              		.loc 1 139 0
 145 0056 0029     		cmp	r1, #0
 146 0058 14BF     		ite	ne
 147 005a 8021     		movne	r1, #128
 148 005c 0021     		moveq	r1, #0
 149              	.LVL14:
 150              		.loc 1 142 0
 151 005e 93B2     		uxth	r3, r2
 152              		.loc 1 140 0
 153 0060 14F0010F 		tst	r4, #1
 154              		.loc 1 144 0
 155 0064 04F00404 		and	r4, r4, #4
 156              	.LVL15:
 157              		.loc 1 146 0
 158 0068 3A48     		ldr	r0, .L53+4
 159              		.loc 1 141 0
 160 006a 18BF     		it	ne
 161 006c 41F02001 		orrne	r1, r1, #32
 162              	.LVL16:
 163              		.loc 1 144 0
 164 0070 A2B2     		uxth	r2, r4
 165              		.loc 1 142 0
 166 0072 0BB1     		cbz	r3, .L8
 167              		.loc 1 143 0
 168 0074 41F04001 		orr	r1, r1, #64
 169              	.LVL17:
ARM GAS  C:\Users\Elis\AppData\Local\Temp\cc7fAkOb.s 			page 4


 170              	.L8:
 171              		.loc 1 144 0
 172 0078 0AB1     		cbz	r2, .L9
 173              		.loc 1 145 0
 174 007a 41F48071 		orr	r1, r1, #256
 175              	.LVL18:
 176              	.L9:
 177              		.loc 1 146 0
 178 007e FFF7FEFF 		bl	chEvtBroadcastFlagsI
 179              	.LVL19:
 180 0082 D6E7     		b	.L5
 181              	.LVL20:
 182              	.L4:
 183              	.LBE30:
 184              	.LBE29:
 185              		.loc 1 176 0
 186 0084 FFF7FEFF 		bl	dbg_check_unlock_from_isr
 187              	.LVL21:
 188              	.LBB31:
 189 0088 0023     		movs	r3, #0
 190              	.LVL22:
 191              	@ 176 "../../chibios/os/hal/platforms/STM32/USARTv1/serial_lld.c" 1
 192 008a 83F31188 		msr     BASEPRI, r3
 193              	@ 0 "" 2
 194              	.LVL23:
 195              		.thumb
 196              	.LBE31:
 197              		.loc 1 179 0
 198 008e 07F08001 		and	r1, r7, #128
 199 0092 88B2     		uxth	r0, r1
 200 0094 20B1     		cbz	r0, .L11
 201 0096 04F08003 		and	r3, r4, #128
 202              	.LVL24:
 203 009a 9AB2     		uxth	r2, r3
 204 009c 002A     		cmp	r2, #0
 205 009e 33D1     		bne	.L49
 206              	.LVL25:
 207              	.L11:
 208              		.loc 1 193 0
 209 00a0 04F04004 		and	r4, r4, #64
 210 00a4 A4B2     		uxth	r4, r4
 211 00a6 2CB9     		cbnz	r4, .L50
 212              	.LVL26:
 213              	.L14:
 214              	.LBE40:
 215              	.LBE42:
 216              		.loc 1 289 0
 217 00a8 FFF7FEFF 		bl	dbg_check_leave_isr
 218              	.LVL27:
 219              		.loc 1 290 0
 220 00ac BDE8F840 		pop	{r3, r4, r5, r6, r7, lr}
 221              		.loc 1 289 0
 222 00b0 FFF7FEBF 		b	_port_irq_epilogue
 223              	.LVL28:
 224              	.L50:
 225              	.LBB43:
 226              	.LBB41:
ARM GAS  C:\Users\Elis\AppData\Local\Temp\cc7fAkOb.s 			page 5


 227              	.LBB32:
 228              		.loc 1 194 0
 229 00b4 2023     		movs	r3, #32
 230              	.LVL29:
 231              	@ 194 "../../chibios/os/hal/platforms/STM32/USARTv1/serial_lld.c" 1
 232 00b6 83F31188 		msr     BASEPRI, r3
 233              	@ 0 "" 2
 234              	.LVL30:
 235              		.thumb
 236              	.LBE32:
 237 00ba FFF7FEFF 		bl	dbg_check_lock_from_isr
 238              	.LVL31:
 239              		.loc 1 195 0
 240 00be 726C     		ldr	r2, [r6, #68]
 241 00c0 B16C     		ldr	r1, [r6, #72]
 242 00c2 2348     		ldr	r0, .L53
 243 00c4 8A42     		cmp	r2, r1
 244 00c6 31D0     		beq	.L51
 245              	.L15:
 246              		.loc 1 197 0
 247 00c8 4FF6BF72 		movw	r2, #65471
 248 00cc 3A40     		ands	r2, r2, r7
 249              		.loc 1 198 0
 250 00ce 4FF6BF71 		movw	r1, #65471
 251              		.loc 1 197 0
 252 00d2 AA81     		strh	r2, [r5, #12]	@ movhi
 253              		.loc 1 198 0
 254 00d4 2980     		strh	r1, [r5, #0]	@ movhi
 255              		.loc 1 199 0
 256 00d6 FFF7FEFF 		bl	dbg_check_unlock_from_isr
 257              	.LVL32:
 258              	.LBB33:
 259 00da 0023     		movs	r3, #0
 260              	@ 199 "../../chibios/os/hal/platforms/STM32/USARTv1/serial_lld.c" 1
 261 00dc 83F31188 		msr     BASEPRI, r3
 262              	@ 0 "" 2
 263              	.LVL33:
 264              		.thumb
 265 00e0 E2E7     		b	.L14
 266              	.LVL34:
 267              	.L48:
 268              	.LBE33:
 269              	.LBB34:
 270              		.loc 1 161 0
 271 00e2 2023     		movs	r3, #32
 272              	.LVL35:
 273              	@ 161 "../../chibios/os/hal/platforms/STM32/USARTv1/serial_lld.c" 1
 274 00e4 83F31188 		msr     BASEPRI, r3
 275              	@ 0 "" 2
 276              	.LVL36:
 277              		.thumb
 278              	.LBE34:
 279 00e8 FFF7FEFF 		bl	dbg_check_lock_from_isr
 280              	.LVL37:
 281              		.loc 1 162 0
 282 00ec 301D     		adds	r0, r6, #4
 283 00ee 4FF40071 		mov	r1, #512
ARM GAS  C:\Users\Elis\AppData\Local\Temp\cc7fAkOb.s 			page 6


 284 00f2 FFF7FEFF 		bl	chEvtBroadcastFlagsI
 285              	.LVL38:
 286              		.loc 1 163 0
 287 00f6 FFF7FEFF 		bl	dbg_check_unlock_from_isr
 288              	.LVL39:
 289              	.LBB35:
 290 00fa 0023     		movs	r3, #0
 291              	@ 163 "../../chibios/os/hal/platforms/STM32/USARTv1/serial_lld.c" 1
 292 00fc 83F31188 		msr     BASEPRI, r3
 293              	@ 0 "" 2
 294              	.LVL40:
 295              		.thumb
 296              	.LBE35:
 297              		.loc 1 164 0
 298 0100 4FF6FF61 		movw	r1, #65279
 299 0104 2980     		strh	r1, [r5, #0]	@ movhi
 300 0106 8AE7     		b	.L3
 301              	.LVL41:
 302              	.L49:
 303              	.LBB36:
 304              	.LBB37:
 305              		.loc 1 181 0
 306 0108 2023     		movs	r3, #32
 307              	.LVL42:
 308              	@ 181 "../../chibios/os/hal/platforms/STM32/USARTv1/serial_lld.c" 1
 309 010a 83F31188 		msr     BASEPRI, r3
 310              	@ 0 "" 2
 311              	.LVL43:
 312              		.thumb
 313              	.LBE37:
 314 010e FFF7FEFF 		bl	dbg_check_lock_from_isr
 315              	.LVL44:
 316              		.loc 1 182 0
 317 0112 1148     		ldr	r0, .L53+8
 318 0114 FFF7FEFF 		bl	chOQGetI
 319              	.LVL45:
 320              		.loc 1 183 0
 321 0118 0028     		cmp	r0, #0
 322 011a 0FDB     		blt	.L52
 323              		.loc 1 188 0
 324 011c 81B2     		uxth	r1, r0
 325 011e A980     		strh	r1, [r5, #4]	@ movhi
 326              	.LVL46:
 327              	.L13:
 328              		.loc 1 189 0
 329 0120 FFF7FEFF 		bl	dbg_check_unlock_from_isr
 330              	.LVL47:
 331              	.LBB38:
 332 0124 0023     		movs	r3, #0
 333              	@ 189 "../../chibios/os/hal/platforms/STM32/USARTv1/serial_lld.c" 1
 334 0126 83F31188 		msr     BASEPRI, r3
 335              	@ 0 "" 2
 336              	.LVL48:
 337              		.thumb
 338 012a B9E7     		b	.L11
 339              	.LVL49:
 340              	.L51:
ARM GAS  C:\Users\Elis\AppData\Local\Temp\cc7fAkOb.s 			page 7


 341              	.LBE38:
 342              	.LBE36:
 343              		.loc 1 195 0
 344 012c 836B     		ldr	r3, [r0, #56]
 345 012e 002B     		cmp	r3, #0
 346 0130 CAD0     		beq	.L15
 347              		.loc 1 196 0
 348 0132 0430     		adds	r0, r0, #4
 349 0134 1021     		movs	r1, #16
 350 0136 FFF7FEFF 		bl	chEvtBroadcastFlagsI
 351              	.LVL50:
 352 013a C5E7     		b	.L15
 353              	.LVL51:
 354              	.L52:
 355              	.LBB39:
 356              		.loc 1 184 0
 357 013c 0548     		ldr	r0, .L53+4
 358              	.LVL52:
 359 013e 0821     		movs	r1, #8
 360 0140 FFF7FEFF 		bl	chEvtBroadcastFlagsI
 361              	.LVL53:
 362              		.loc 1 185 0
 363 0144 27F0C000 		bic	r0, r7, #192
 364 0148 40F04003 		orr	r3, r0, #64
 365 014c AB81     		strh	r3, [r5, #12]	@ movhi
 366 014e E7E7     		b	.L13
 367              	.L54:
 368              		.align	2
 369              	.L53:
 370 0150 00000000 		.word	.LANCHOR0
 371 0154 04000000 		.word	.LANCHOR0+4
 372 0158 30000000 		.word	.LANCHOR0+48
 373              	.LBE39:
 374              	.LBE41:
 375              	.LBE43:
 376              		.cfi_endproc
 377              	.LFE123:
 378              		.size	VectorD8, .-VectorD8
 379 015c AFF30080 		.section	.text.sd_lld_init,"ax",%progbits
 380              		.align	2
 381              		.p2align 4,,15
 382              		.global	sd_lld_init
 383              		.thumb
 384              		.thumb_func
 385              		.type	sd_lld_init, %function
 386              	sd_lld_init:
 387              	.LFB124:
 388              		.loc 1 378 0
 389              		.cfi_startproc
 390              		@ args = 0, pretend = 0, frame = 0
 391              		@ frame_needed = 0, uses_anonymous_args = 0
 392 0000 10B5     		push	{r4, lr}
 393              	.LCFI1:
 394              		.cfi_def_cfa_offset 8
 395              		.cfi_offset 4, -8
 396              		.cfi_offset 14, -4
 397              		.loc 1 386 0
ARM GAS  C:\Users\Elis\AppData\Local\Temp\cc7fAkOb.s 			page 8


 398 0002 40F20004 		movw	r4, #:lower16:.LANCHOR0
 399 0006 C0F20004 		movt	r4, #:upper16:.LANCHOR0
 400 000a 40F20002 		movw	r2, #:lower16:notify2
 401 000e 2046     		mov	r0, r4
 402 0010 0021     		movs	r1, #0
 403 0012 C0F20002 		movt	r2, #:upper16:notify2
 404 0016 FFF7FEFF 		bl	sdObjectInit
 405              	.LVL54:
 406              		.loc 1 387 0
 407 001a 4FF48843 		mov	r3, #17408
 408 001e C4F20003 		movt	r3, 16384
 409 0022 C4F85C32 		str	r3, [r4, #604]
 410 0026 10BD     		pop	{r4, pc}
 411              		.cfi_endproc
 412              	.LFE124:
 413              		.size	sd_lld_init, .-sd_lld_init
 414 0028 AFF30080 		.section	.text.sd_lld_start,"ax",%progbits
 414      AFF30080 
 415              		.align	2
 416              		.p2align 4,,15
 417              		.global	sd_lld_start
 418              		.thumb
 419              		.thumb_func
 420              		.type	sd_lld_start, %function
 421              	sd_lld_start:
 422              	.LFB125:
 423              		.loc 1 421 0
 424              		.cfi_startproc
 425              		@ args = 0, pretend = 0, frame = 0
 426              		@ frame_needed = 0, uses_anonymous_args = 0
 427              	.LVL55:
 428 0000 38B5     		push	{r3, r4, r5, lr}
 429              	.LCFI2:
 430              		.cfi_def_cfa_offset 16
 431              		.cfi_offset 3, -16
 432              		.cfi_offset 4, -12
 433              		.cfi_offset 5, -8
 434              		.cfi_offset 14, -4
 435              		.loc 1 426 0
 436 0002 037A     		ldrb	r3, [r0, #8]	@ zero_extendqisi2
 437              		.loc 1 424 0
 438 0004 264C     		ldr	r4, .L64
 439 0006 0029     		cmp	r1, #0
 440 0008 18BF     		it	ne
 441 000a 0C46     		movne	r4, r1
 442              		.loc 1 426 0
 443 000c 012B     		cmp	r3, #1
 444              		.loc 1 421 0
 445 000e 0546     		mov	r5, r0
 446              		.loc 1 426 0
 447 0010 2CD0     		beq	.L63
 448              	.LVL56:
 449              	.L58:
 450              	.LBB46:
 451              	.LBB47:
 452              		.loc 1 97 0
 453 0012 4FF48050 		mov	r0, #4096
ARM GAS  C:\Users\Elis\AppData\Local\Temp\cc7fAkOb.s 			page 9


 454              		.loc 1 93 0
 455 0016 D5F85C32 		ldr	r3, [r5, #604]
 456              	.LVL57:
 457              		.loc 1 101 0
 458 001a 2168     		ldr	r1, [r4, #0]
 459              		.loc 1 97 0
 460 001c C4F20100 		movt	r0, 16385
 461 0020 8342     		cmp	r3, r0
 462 0022 33D0     		beq	.L59
 463 0024 4FF4A052 		mov	r2, #5120
 464 0028 C4F20102 		movt	r2, 16385
 465 002c 9342     		cmp	r3, r2
 466 002e 2DD0     		beq	.L59
 467              		.loc 1 103 0
 468 0030 4DF68060 		movw	r0, #56960
 469 0034 C0F28020 		movt	r0, 640
 470 0038 B0FBF1F1 		udiv	r1, r0, r1
 471 003c 8AB2     		uxth	r2, r1
 472 003e 1A81     		strh	r2, [r3, #8]	@ movhi
 473              	.L61:
 474              		.loc 1 108 0
 475 0040 A288     		ldrh	r2, [r4, #4]
 476              		.loc 1 106 0
 477 0042 E088     		ldrh	r0, [r4, #6]
 478              		.loc 1 107 0
 479 0044 2189     		ldrh	r1, [r4, #8]
 480              		.loc 1 108 0
 481 0046 42F40452 		orr	r2, r2, #8448
 482              		.loc 1 106 0
 483 004a 40F04000 		orr	r0, r0, #64
 484 004e 80B2     		uxth	r0, r0
 485              		.loc 1 107 0
 486 0050 41F00101 		orr	r1, r1, #1
 487              		.loc 1 108 0
 488 0054 42F02C02 		orr	r2, r2, #44
 489              		.loc 1 106 0
 490 0058 1882     		strh	r0, [r3, #16]	@ movhi
 491              		.loc 1 108 0
 492 005a 92B2     		uxth	r2, r2
 493              		.loc 1 107 0
 494 005c 89B2     		uxth	r1, r1
 495              		.loc 1 111 0
 496 005e 0020     		movs	r0, #0
 497              		.loc 1 107 0
 498 0060 9982     		strh	r1, [r3, #20]	@ movhi
 499              		.loc 1 108 0
 500 0062 9A81     		strh	r2, [r3, #12]	@ movhi
 501              		.loc 1 111 0
 502 0064 1880     		strh	r0, [r3, #0]	@ movhi
 503              		.loc 1 112 0
 504 0066 1A88     		ldrh	r2, [r3, #0]
 505              		.loc 1 113 0
 506 0068 9B88     		ldrh	r3, [r3, #4]
 507              	.LVL58:
 508 006a 38BD     		pop	{r3, r4, r5, pc}
 509              	.LVL59:
 510              	.L63:
ARM GAS  C:\Users\Elis\AppData\Local\Temp\cc7fAkOb.s 			page 10


 511              	.LBE47:
 512              	.LBE46:
 513              		.loc 1 435 0
 514 006c 0D48     		ldr	r0, .L64+4
 515              	.LVL60:
 516 006e 8542     		cmp	r5, r0
 517 0070 CFD1     		bne	.L58
 518              		.loc 1 436 0
 519 0072 4FF46051 		mov	r1, #14336
 520              	.LVL61:
 521 0076 C4F20201 		movt	r1, 16386
 522              		.loc 1 437 0
 523 007a 2620     		movs	r0, #38
 524              		.loc 1 436 0
 525 007c 0A6C     		ldr	r2, [r1, #64]
 526 007e 42F40033 		orr	r3, r2, #131072
 527 0082 0B64     		str	r3, [r1, #64]
 528              		.loc 1 437 0
 529 0084 C021     		movs	r1, #192
 530 0086 FFF7FEFF 		bl	nvicEnableVector
 531              	.LVL62:
 532 008a C2E7     		b	.L58
 533              	.LVL63:
 534              	.L59:
 535              	.LBB49:
 536              	.LBB48:
 537              		.loc 1 101 0
 538 008c 4FF43D40 		mov	r0, #48384
 539 0090 C0F20150 		movt	r0, 1281
 540 0094 B0FBF1F1 		udiv	r1, r0, r1
 541 0098 8AB2     		uxth	r2, r1
 542 009a 1A81     		strh	r2, [r3, #8]	@ movhi
 543 009c D0E7     		b	.L61
 544              	.L65:
 545 009e 00BF     		.align	2
 546              	.L64:
 547 00a0 00000000 		.word	.LANCHOR1
 548 00a4 00000000 		.word	.LANCHOR0
 549              	.LBE48:
 550              	.LBE49:
 551              		.cfi_endproc
 552              	.LFE125:
 553              		.size	sd_lld_start, .-sd_lld_start
 554 00a8 AFF30080 		.section	.text.sd_lld_stop,"ax",%progbits
 554      AFF30080 
 555              		.align	2
 556              		.p2align 4,,15
 557              		.global	sd_lld_stop
 558              		.thumb
 559              		.thumb_func
 560              		.type	sd_lld_stop, %function
 561              	sd_lld_stop:
 562              	.LFB126:
 563              		.loc 1 482 0
 564              		.cfi_startproc
 565              		@ args = 0, pretend = 0, frame = 0
 566              		@ frame_needed = 0, uses_anonymous_args = 0
ARM GAS  C:\Users\Elis\AppData\Local\Temp\cc7fAkOb.s 			page 11


 567              		@ link register save eliminated.
 568              	.LVL64:
 569              		.loc 1 484 0
 570 0000 037A     		ldrb	r3, [r0, #8]	@ zero_extendqisi2
 571 0002 022B     		cmp	r3, #2
 572 0004 00D0     		beq	.L70
 573              	.L66:
 574 0006 7047     		bx	lr
 575              	.L70:
 576              		.loc 1 494 0
 577 0008 094B     		ldr	r3, .L71
 578              		.loc 1 485 0
 579 000a D0F85C12 		ldr	r1, [r0, #604]
 580              	.LVL65:
 581              	.LBB50:
 582              	.LBB51:
 583              		.loc 1 124 0
 584 000e 0022     		movs	r2, #0
 585              	.LBE51:
 586              	.LBE50:
 587              		.loc 1 494 0
 588 0010 9842     		cmp	r0, r3
 589              	.LBB53:
 590              	.LBB52:
 591              		.loc 1 124 0
 592 0012 8A81     		strh	r2, [r1, #12]	@ movhi
 593              		.loc 1 125 0
 594 0014 0A82     		strh	r2, [r1, #16]	@ movhi
 595              		.loc 1 126 0
 596 0016 8A82     		strh	r2, [r1, #20]	@ movhi
 597              	.LBE52:
 598              	.LBE53:
 599              		.loc 1 494 0
 600 0018 F5D1     		bne	.L66
 601              		.loc 1 495 0
 602 001a 4FF46051 		mov	r1, #14336
 603              	.LVL66:
 604 001e C4F20201 		movt	r1, 16386
 605              		.loc 1 496 0
 606 0022 2620     		movs	r0, #38
 607              	.LVL67:
 608              		.loc 1 495 0
 609 0024 0A6C     		ldr	r2, [r1, #64]
 610 0026 22F40033 		bic	r3, r2, #131072
 611 002a 0B64     		str	r3, [r1, #64]
 612              		.loc 1 529 0
 613              		.loc 1 496 0
 614 002c FFF7FEBF 		b	nvicDisableVector
 615              	.LVL68:
 616              	.L72:
 617              		.align	2
 618              	.L71:
 619 0030 00000000 		.word	.LANCHOR0
 620              		.cfi_endproc
 621              	.LFE126:
 622              		.size	sd_lld_stop, .-sd_lld_stop
 623              		.global	SD2
ARM GAS  C:\Users\Elis\AppData\Local\Temp\cc7fAkOb.s 			page 12


 624 0034 AFF30080 		.section	.rodata.default_config,"a",%progbits
 624      AFF30080 
 624      AFF30080 
 625              		.align	2
 626              		.set	.LANCHOR1,. + 0
 627              		.type	default_config, %object
 628              		.size	default_config, 12
 629              	default_config:
 630 0000 00960000 		.word	38400
 631 0004 0000     		.short	0
 632 0006 0040     		.short	16384
 633 0008 0000     		.short	0
 634 000a 0000     		.space	2
 635              		.section	.bss.SD2,"aw",%nobits
 636              		.align	2
 637              		.set	.LANCHOR0,. + 0
 638              		.type	SD2, %object
 639              		.size	SD2, 608
 640              	SD2:
 641 0000 00000000 		.space	608
 641      00000000 
 641      00000000 
 641      00000000 
 641      00000000 
 642              		.text
 643              	.Letext0:
 644              		.file 2 "c:\\chibistudio\\tools\\gnu tools arm embedded\\4.7 2014q2\\bin\\../lib/gcc/arm-none-eabi
 645              		.file 3 "c:\\chibistudio\\tools\\gnu tools arm embedded\\4.7 2014q2\\bin\\../lib/gcc/arm-none-eabi
 646              		.file 4 "../../chibios/os/ports/GCC/ARMCMx/chtypes.h"
 647              		.file 5 "../../chibios/os/kernel/include/chlists.h"
 648              		.file 6 "../../chibios/os/kernel/include/chthreads.h"
 649              		.file 7 "../../chibios/os/ports/GCC/ARMCMx/chcore_v7m.h"
 650              		.file 8 "../../chibios/os/kernel/include/chmtx.h"
 651              		.file 9 "../../chibios/os/kernel/include/chevents.h"
 652              		.file 10 "../../chibios/os/kernel/include/chqueues.h"
 653              		.file 11 "../../chibios/os/hal/platforms/STM32F4xx/stm32f4xx.h"
 654              		.file 12 "../../chibios/os/hal/include/serial.h"
 655              		.file 13 "../../chibios/os/hal/platforms/STM32/USARTv1/serial_lld.h"
 656              		.file 14 "../../chibios/os/kernel/include/chdebug.h"
 657              		.file 15 "../../chibios/os/ports/common/ARMCMx/nvic.h"
 658              		.file 16 "../../chibios/os/ports/common/ARMCMx/CMSIS/include/core_cm4.h"