ARM GAS  C:\Users\Elis\AppData\Local\Temp\ccgV89Xp.s 			page 1


   1              		.syntax unified
   2              		.cpu cortex-m4
   3              		.fpu softvfp
   4              		.eabi_attribute 20, 1
   5              		.eabi_attribute 21, 1
   6              		.eabi_attribute 23, 3
   7              		.eabi_attribute 24, 1
   8              		.eabi_attribute 25, 1
   9              		.eabi_attribute 26, 1
  10              		.eabi_attribute 30, 2
  11              		.eabi_attribute 34, 1
  12              		.eabi_attribute 18, 4
  13              		.thumb
  14              		.file	"serial.c"
  15              		.text
  16              	.Ltext0:
  17              		.cfi_sections	.debug_frame
  18              		.section	.text.readt,"ax",%progbits
  19              		.align	2
  20              		.p2align 4,,15
  21              		.thumb
  22              		.thumb_func
  23              		.type	readt, %function
  24              	readt:
  25              	.LFB125:
  26              		.file 1 "../../chibios/os/hal/src/serial.c"
  27              		.loc 1 99 0
  28              		.cfi_startproc
  29              		@ args = 0, pretend = 0, frame = 0
  30              		@ frame_needed = 0, uses_anonymous_args = 0
  31              		@ link register save eliminated.
  32              	.LVL0:
  33              		.loc 1 101 0
  34 0000 0C30     		adds	r0, r0, #12
  35              	.LVL1:
  36              		.loc 1 102 0
  37              		.loc 1 101 0
  38 0002 FFF7FEBF 		b	chIQReadTimeout
  39              	.LVL2:
  40              		.cfi_endproc
  41              	.LFE125:
  42              		.size	readt, .-readt
  43 0006 00BFAFF3 		.section	.text.read,"ax",%progbits
  43      0080AFF3 
  43      0080
  44              		.align	2
  45              		.p2align 4,,15
  46              		.thumb
  47              		.thumb_func
  48              		.type	read, %function
  49              	read:
  50              	.LFB119:
  51              		.loc 1 68 0
  52              		.cfi_startproc
  53              		@ args = 0, pretend = 0, frame = 0
  54              		@ frame_needed = 0, uses_anonymous_args = 0
  55              		@ link register save eliminated.
ARM GAS  C:\Users\Elis\AppData\Local\Temp\ccgV89Xp.s 			page 2


  56              	.LVL3:
  57              		.loc 1 70 0
  58 0000 0C30     		adds	r0, r0, #12
  59              	.LVL4:
  60 0002 4FF0FF33 		mov	r3, #-1
  61              		.loc 1 72 0
  62              		.loc 1 70 0
  63 0006 FFF7FEBF 		b	chIQReadTimeout
  64              	.LVL5:
  65              		.cfi_endproc
  66              	.LFE119:
  67              		.size	read, .-read
  68 000a 00BFAFF3 		.section	.text.writet,"ax",%progbits
  68      0080
  69              		.align	2
  70              		.p2align 4,,15
  71              		.thumb
  72              		.thumb_func
  73              		.type	writet, %function
  74              	writet:
  75              	.LFB124:
  76              		.loc 1 94 0
  77              		.cfi_startproc
  78              		@ args = 0, pretend = 0, frame = 0
  79              		@ frame_needed = 0, uses_anonymous_args = 0
  80              		@ link register save eliminated.
  81              	.LVL6:
  82              		.loc 1 96 0
  83 0000 3030     		adds	r0, r0, #48
  84              	.LVL7:
  85              		.loc 1 97 0
  86              		.loc 1 96 0
  87 0002 FFF7FEBF 		b	chOQWriteTimeout
  88              	.LVL8:
  89              		.cfi_endproc
  90              	.LFE124:
  91              		.size	writet, .-writet
  92 0006 00BFAFF3 		.section	.text.write,"ax",%progbits
  92      0080AFF3 
  92      0080
  93              		.align	2
  94              		.p2align 4,,15
  95              		.thumb
  96              		.thumb_func
  97              		.type	write, %function
  98              	write:
  99              	.LFB118:
 100              		.loc 1 62 0
 101              		.cfi_startproc
 102              		@ args = 0, pretend = 0, frame = 0
 103              		@ frame_needed = 0, uses_anonymous_args = 0
 104              		@ link register save eliminated.
 105              	.LVL9:
 106              		.loc 1 64 0
 107 0000 3030     		adds	r0, r0, #48
 108              	.LVL10:
 109 0002 4FF0FF33 		mov	r3, #-1
ARM GAS  C:\Users\Elis\AppData\Local\Temp\ccgV89Xp.s 			page 3


 110              		.loc 1 66 0
 111              		.loc 1 64 0
 112 0006 FFF7FEBF 		b	chOQWriteTimeout
 113              	.LVL11:
 114              		.cfi_endproc
 115              	.LFE118:
 116              		.size	write, .-write
 117 000a 00BFAFF3 		.section	.text.gett,"ax",%progbits
 117      0080
 118              		.align	2
 119              		.p2align 4,,15
 120              		.thumb
 121              		.thumb_func
 122              		.type	gett, %function
 123              	gett:
 124              	.LFB123:
 125              		.loc 1 89 0
 126              		.cfi_startproc
 127              		@ args = 0, pretend = 0, frame = 0
 128              		@ frame_needed = 0, uses_anonymous_args = 0
 129              		@ link register save eliminated.
 130              	.LVL12:
 131              		.loc 1 91 0
 132 0000 0C30     		adds	r0, r0, #12
 133              	.LVL13:
 134              		.loc 1 92 0
 135              		.loc 1 91 0
 136 0002 FFF7FEBF 		b	chIQGetTimeout
 137              	.LVL14:
 138              		.cfi_endproc
 139              	.LFE123:
 140              		.size	gett, .-gett
 141 0006 00BFAFF3 		.section	.text.get,"ax",%progbits
 141      0080AFF3 
 141      0080
 142              		.align	2
 143              		.p2align 4,,15
 144              		.thumb
 145              		.thumb_func
 146              		.type	get, %function
 147              	get:
 148              	.LFB121:
 149              		.loc 1 79 0
 150              		.cfi_startproc
 151              		@ args = 0, pretend = 0, frame = 0
 152              		@ frame_needed = 0, uses_anonymous_args = 0
 153              		@ link register save eliminated.
 154              	.LVL15:
 155              		.loc 1 81 0
 156 0000 0C30     		adds	r0, r0, #12
 157              	.LVL16:
 158 0002 4FF0FF31 		mov	r1, #-1
 159              		.loc 1 82 0
 160              		.loc 1 81 0
 161 0006 FFF7FEBF 		b	chIQGetTimeout
 162              	.LVL17:
 163              		.cfi_endproc
ARM GAS  C:\Users\Elis\AppData\Local\Temp\ccgV89Xp.s 			page 4


 164              	.LFE121:
 165              		.size	get, .-get
 166 000a 00BFAFF3 		.section	.text.putt,"ax",%progbits
 166      0080
 167              		.align	2
 168              		.p2align 4,,15
 169              		.thumb
 170              		.thumb_func
 171              		.type	putt, %function
 172              	putt:
 173              	.LFB122:
 174              		.loc 1 84 0
 175              		.cfi_startproc
 176              		@ args = 0, pretend = 0, frame = 0
 177              		@ frame_needed = 0, uses_anonymous_args = 0
 178              		@ link register save eliminated.
 179              	.LVL18:
 180              		.loc 1 86 0
 181 0000 3030     		adds	r0, r0, #48
 182              	.LVL19:
 183              		.loc 1 87 0
 184              		.loc 1 86 0
 185 0002 FFF7FEBF 		b	chOQPutTimeout
 186              	.LVL20:
 187              		.cfi_endproc
 188              	.LFE122:
 189              		.size	putt, .-putt
 190 0006 00BFAFF3 		.section	.text.put,"ax",%progbits
 190      0080AFF3 
 190      0080
 191              		.align	2
 192              		.p2align 4,,15
 193              		.thumb
 194              		.thumb_func
 195              		.type	put, %function
 196              	put:
 197              	.LFB120:
 198              		.loc 1 74 0
 199              		.cfi_startproc
 200              		@ args = 0, pretend = 0, frame = 0
 201              		@ frame_needed = 0, uses_anonymous_args = 0
 202              		@ link register save eliminated.
 203              	.LVL21:
 204              		.loc 1 76 0
 205 0000 3030     		adds	r0, r0, #48
 206              	.LVL22:
 207 0002 4FF0FF32 		mov	r2, #-1
 208              		.loc 1 77 0
 209              		.loc 1 76 0
 210 0006 FFF7FEBF 		b	chOQPutTimeout
 211              	.LVL23:
 212              		.cfi_endproc
 213              	.LFE120:
 214              		.size	put, .-put
 215 000a 00BFAFF3 		.section	.text.sdInit,"ax",%progbits
 215      0080
 216              		.align	2
ARM GAS  C:\Users\Elis\AppData\Local\Temp\ccgV89Xp.s 			page 5


 217              		.p2align 4,,15
 218              		.global	sdInit
 219              		.thumb
 220              		.thumb_func
 221              		.type	sdInit, %function
 222              	sdInit:
 223              	.LFB126:
 224              		.loc 1 120 0
 225              		.cfi_startproc
 226              		@ args = 0, pretend = 0, frame = 0
 227              		@ frame_needed = 0, uses_anonymous_args = 0
 228              		@ link register save eliminated.
 229              		.loc 1 123 0
 230              		.loc 1 122 0
 231 0000 FFF7FEBF 		b	sd_lld_init
 232              	.LVL24:
 233              		.cfi_endproc
 234              	.LFE126:
 235              		.size	sdInit, .-sdInit
 236 0004 AFF30080 		.section	.text.sdObjectInit,"ax",%progbits
 236      AFF30080 
 236      AFF30080 
 237              		.align	2
 238              		.p2align 4,,15
 239              		.global	sdObjectInit
 240              		.thumb
 241              		.thumb_func
 242              		.type	sdObjectInit, %function
 243              	sdObjectInit:
 244              	.LFB127:
 245              		.loc 1 140 0
 246              		.cfi_startproc
 247              		@ args = 0, pretend = 0, frame = 0
 248              		@ frame_needed = 0, uses_anonymous_args = 0
 249              	.LVL25:
 250 0000 70B5     		push	{r4, r5, r6, lr}
 251              	.LCFI0:
 252              		.cfi_def_cfa_offset 16
 253              		.cfi_offset 4, -16
 254              		.cfi_offset 5, -12
 255              		.cfi_offset 6, -8
 256              		.cfi_offset 14, -4
 257              		.loc 1 142 0
 258 0002 40F20003 		movw	r3, #:lower16:.LANCHOR0
 259 0006 0546     		mov	r5, r0
 260 0008 C0F20003 		movt	r3, #:upper16:.LANCHOR0
 261              		.loc 1 140 0
 262 000c 0446     		mov	r4, r0
 263              		.loc 1 142 0
 264 000e 45F8043B 		str	r3, [r5], #4
 265              		.loc 1 140 0
 266 0012 82B0     		sub	sp, sp, #8
 267              	.LCFI1:
 268              		.cfi_def_cfa_offset 24
 269              		.loc 1 143 0
 270 0014 6560     		str	r5, [r4, #4]
 271              		.loc 1 144 0
ARM GAS  C:\Users\Elis\AppData\Local\Temp\ccgV89Xp.s 			page 6


 272 0016 0125     		movs	r5, #1
 273              		.loc 1 140 0
 274 0018 0B46     		mov	r3, r1
 275 001a 1646     		mov	r6, r2
 276              		.loc 1 145 0
 277 001c 04F15401 		add	r1, r4, #84
 278              	.LVL26:
 279              		.loc 1 144 0
 280 0020 2572     		strb	r5, [r4, #8]
 281              		.loc 1 145 0
 282 0022 00F10C00 		add	r0, r0, #12
 283              	.LVL27:
 284 0026 4FF48272 		mov	r2, #260
 285              	.LVL28:
 286 002a 0094     		str	r4, [sp, #0]
 287 002c FFF7FEFF 		bl	chIQInit
 288              	.LVL29:
 289              		.loc 1 146 0
 290 0030 0094     		str	r4, [sp, #0]
 291 0032 04F13000 		add	r0, r4, #48
 292 0036 04F5AC71 		add	r1, r4, #344
 293 003a 4FF48272 		mov	r2, #260
 294 003e 3346     		mov	r3, r6
 295 0040 FFF7FEFF 		bl	chOQInit
 296              	.LVL30:
 297              		.loc 1 147 0
 298 0044 02B0     		add	sp, sp, #8
 299 0046 70BD     		pop	{r4, r5, r6, pc}
 300              		.cfi_endproc
 301              	.LFE127:
 302              		.size	sdObjectInit, .-sdObjectInit
 303 0048 AFF30080 		.section	.text.sdStart,"ax",%progbits
 303      AFF30080 
 304              		.align	2
 305              		.p2align 4,,15
 306              		.global	sdStart
 307              		.thumb
 308              		.thumb_func
 309              		.type	sdStart, %function
 310              	sdStart:
 311              	.LFB128:
 312              		.loc 1 159 0
 313              		.cfi_startproc
 314              		@ args = 0, pretend = 0, frame = 0
 315              		@ frame_needed = 0, uses_anonymous_args = 0
 316              	.LVL31:
 317 0000 38B5     		push	{r3, r4, r5, lr}
 318              	.LCFI2:
 319              		.cfi_def_cfa_offset 16
 320              		.cfi_offset 3, -16
 321              		.cfi_offset 4, -12
 322              		.cfi_offset 5, -8
 323              		.cfi_offset 14, -4
 324              		.loc 1 159 0
 325 0002 0446     		mov	r4, r0
 326 0004 0D46     		mov	r5, r1
 327              	.LBB2:
ARM GAS  C:\Users\Elis\AppData\Local\Temp\ccgV89Xp.s 			page 7


 328              		.loc 1 163 0
 329 0006 2023     		movs	r3, #32
 330              	.LVL32:
 331              	@ 163 "../../chibios/os/hal/src/serial.c" 1
 332 0008 83F31188 		msr     BASEPRI, r3
 333              	@ 0 "" 2
 334              	.LVL33:
 335              		.thumb
 336              	.LBE2:
 337 000c FFF7FEFF 		bl	dbg_check_lock
 338              	.LVL34:
 339              		.loc 1 167 0
 340 0010 2046     		mov	r0, r4
 341 0012 2946     		mov	r1, r5
 342 0014 FFF7FEFF 		bl	sd_lld_start
 343              	.LVL35:
 344              		.loc 1 168 0
 345 0018 0223     		movs	r3, #2
 346 001a 2372     		strb	r3, [r4, #8]
 347              		.loc 1 169 0
 348 001c FFF7FEFF 		bl	dbg_check_unlock
 349              	.LVL36:
 350              	.LBB3:
 351 0020 0023     		movs	r3, #0
 352              	.LVL37:
 353              	@ 169 "../../chibios/os/hal/src/serial.c" 1
 354 0022 83F31188 		msr     BASEPRI, r3
 355              	@ 0 "" 2
 356              	.LVL38:
 357              		.thumb
 358 0026 38BD     		pop	{r3, r4, r5, pc}
 359              	.LBE3:
 360              		.cfi_endproc
 361              	.LFE128:
 362              		.size	sdStart, .-sdStart
 363 0028 AFF30080 		.section	.text.sdStop,"ax",%progbits
 363      AFF30080 
 364              		.align	2
 365              		.p2align 4,,15
 366              		.global	sdStop
 367              		.thumb
 368              		.thumb_func
 369              		.type	sdStop, %function
 370              	sdStop:
 371              	.LFB129:
 372              		.loc 1 181 0
 373              		.cfi_startproc
 374              		@ args = 0, pretend = 0, frame = 0
 375              		@ frame_needed = 0, uses_anonymous_args = 0
 376              	.LVL39:
 377 0000 10B5     		push	{r4, lr}
 378              	.LCFI3:
 379              		.cfi_def_cfa_offset 8
 380              		.cfi_offset 4, -8
 381              		.cfi_offset 14, -4
 382              	.LBB4:
 383              		.loc 1 185 0
ARM GAS  C:\Users\Elis\AppData\Local\Temp\ccgV89Xp.s 			page 8


 384 0002 2023     		movs	r3, #32
 385              	.LVL40:
 386              	.LBE4:
 387              		.loc 1 181 0
 388 0004 0446     		mov	r4, r0
 389              	.LBB5:
 390              		.loc 1 185 0
 391              	@ 185 "../../chibios/os/hal/src/serial.c" 1
 392 0006 83F31188 		msr     BASEPRI, r3
 393              	@ 0 "" 2
 394              	.LVL41:
 395              		.thumb
 396              	.LBE5:
 397 000a FFF7FEFF 		bl	dbg_check_lock
 398              	.LVL42:
 399              		.loc 1 189 0
 400 000e 2046     		mov	r0, r4
 401 0010 FFF7FEFF 		bl	sd_lld_stop
 402              	.LVL43:
 403              		.loc 1 190 0
 404 0014 0123     		movs	r3, #1
 405 0016 2372     		strb	r3, [r4, #8]
 406              		.loc 1 191 0
 407 0018 04F13000 		add	r0, r4, #48
 408 001c FFF7FEFF 		bl	chOQResetI
 409              	.LVL44:
 410              		.loc 1 192 0
 411 0020 04F10C00 		add	r0, r4, #12
 412 0024 FFF7FEFF 		bl	chIQResetI
 413              	.LVL45:
 414              		.loc 1 193 0
 415 0028 FFF7FEFF 		bl	chSchRescheduleS
 416              	.LVL46:
 417              		.loc 1 194 0
 418 002c FFF7FEFF 		bl	dbg_check_unlock
 419              	.LVL47:
 420              	.LBB6:
 421 0030 0023     		movs	r3, #0
 422              	.LVL48:
 423              	@ 194 "../../chibios/os/hal/src/serial.c" 1
 424 0032 83F31188 		msr     BASEPRI, r3
 425              	@ 0 "" 2
 426              	.LVL49:
 427              		.thumb
 428 0036 10BD     		pop	{r4, pc}
 429              	.LBE6:
 430              		.cfi_endproc
 431              	.LFE129:
 432              		.size	sdStop, .-sdStop
 433 0038 AFF30080 		.section	.text.sdIncomingDataI,"ax",%progbits
 433      AFF30080 
 434              		.align	2
 435              		.p2align 4,,15
 436              		.global	sdIncomingDataI
 437              		.thumb
 438              		.thumb_func
 439              		.type	sdIncomingDataI, %function
ARM GAS  C:\Users\Elis\AppData\Local\Temp\ccgV89Xp.s 			page 9


 440              	sdIncomingDataI:
 441              	.LFB130:
 442              		.loc 1 213 0
 443              		.cfi_startproc
 444              		@ args = 0, pretend = 0, frame = 0
 445              		@ frame_needed = 0, uses_anonymous_args = 0
 446              	.LVL50:
 447 0000 38B5     		push	{r3, r4, r5, lr}
 448              	.LCFI4:
 449              		.cfi_def_cfa_offset 16
 450              		.cfi_offset 3, -16
 451              		.cfi_offset 4, -12
 452              		.cfi_offset 5, -8
 453              		.cfi_offset 14, -4
 454              		.loc 1 213 0
 455 0002 0446     		mov	r4, r0
 456 0004 0D46     		mov	r5, r1
 457              		.loc 1 215 0
 458 0006 FFF7FEFF 		bl	chDbgCheckClassI
 459              	.LVL51:
 460              		.loc 1 218 0
 461 000a 6369     		ldr	r3, [r4, #20]
 462 000c 3BB1     		cbz	r3, .L17
 463              		.loc 1 220 0
 464 000e 04F10C00 		add	r0, r4, #12
 465 0012 2946     		mov	r1, r5
 466 0014 FFF7FEFF 		bl	chIQPutI
 467              	.LVL52:
 468 0018 0028     		cmp	r0, #0
 469 001a 0BDB     		blt	.L18
 470              	.L13:
 471 001c 38BD     		pop	{r3, r4, r5, pc}
 472              	.L17:
 473              		.loc 1 219 0
 474 001e 201D     		adds	r0, r4, #4
 475 0020 0421     		movs	r1, #4
 476 0022 FFF7FEFF 		bl	chEvtBroadcastFlagsI
 477              	.LVL53:
 478              		.loc 1 220 0
 479 0026 04F10C00 		add	r0, r4, #12
 480 002a 2946     		mov	r1, r5
 481 002c FFF7FEFF 		bl	chIQPutI
 482              	.LVL54:
 483 0030 0028     		cmp	r0, #0
 484 0032 F3DA     		bge	.L13
 485              	.L18:
 486              		.loc 1 221 0
 487 0034 201D     		adds	r0, r4, #4
 488 0036 8021     		movs	r1, #128
 489              		.loc 1 222 0
 490 0038 BDE83840 		pop	{r3, r4, r5, lr}
 491              		.loc 1 221 0
 492 003c FFF7FEBF 		b	chEvtBroadcastFlagsI
 493              	.LVL55:
 494              		.cfi_endproc
 495              	.LFE130:
 496              		.size	sdIncomingDataI, .-sdIncomingDataI
ARM GAS  C:\Users\Elis\AppData\Local\Temp\ccgV89Xp.s 			page 10


 497              		.section	.text.sdRequestDataI,"ax",%progbits
 498              		.align	2
 499              		.p2align 4,,15
 500              		.global	sdRequestDataI
 501              		.thumb
 502              		.thumb_func
 503              		.type	sdRequestDataI, %function
 504              	sdRequestDataI:
 505              	.LFB131:
 506              		.loc 1 239 0
 507              		.cfi_startproc
 508              		@ args = 0, pretend = 0, frame = 0
 509              		@ frame_needed = 0, uses_anonymous_args = 0
 510              	.LVL56:
 511 0000 38B5     		push	{r3, r4, r5, lr}
 512              	.LCFI5:
 513              		.cfi_def_cfa_offset 16
 514              		.cfi_offset 3, -16
 515              		.cfi_offset 4, -12
 516              		.cfi_offset 5, -8
 517              		.cfi_offset 14, -4
 518              		.loc 1 239 0
 519 0002 0446     		mov	r4, r0
 520              		.loc 1 242 0
 521 0004 FFF7FEFF 		bl	chDbgCheckClassI
 522              	.LVL57:
 523              		.loc 1 245 0
 524 0008 04F13000 		add	r0, r4, #48
 525 000c FFF7FEFF 		bl	chOQGetI
 526              	.LVL58:
 527              		.loc 1 246 0
 528 0010 051E     		subs	r5, r0, #0
 529 0012 01DB     		blt	.L21
 530              		.loc 1 249 0
 531 0014 2846     		mov	r0, r5
 532 0016 38BD     		pop	{r3, r4, r5, pc}
 533              	.L21:
 534              		.loc 1 247 0
 535 0018 201D     		adds	r0, r4, #4
 536 001a 0821     		movs	r1, #8
 537 001c FFF7FEFF 		bl	chEvtBroadcastFlagsI
 538              	.LVL59:
 539              		.loc 1 249 0
 540 0020 2846     		mov	r0, r5
 541 0022 38BD     		pop	{r3, r4, r5, pc}
 542              		.cfi_endproc
 543              	.LFE131:
 544              		.size	sdRequestDataI, .-sdRequestDataI
 545 0024 AFF30080 		.section	.rodata.vmt,"a",%progbits
 545      AFF30080 
 545      AFF30080 
 546              		.align	2
 547              		.set	.LANCHOR0,. + 0
 548              		.type	vmt, %object
 549              		.size	vmt, 32
 550              	vmt:
 551 0000 00000000 		.word	write
ARM GAS  C:\Users\Elis\AppData\Local\Temp\ccgV89Xp.s 			page 11


 552 0004 00000000 		.word	read
 553 0008 00000000 		.word	put
 554 000c 00000000 		.word	get
 555 0010 00000000 		.word	putt
 556 0014 00000000 		.word	gett
 557 0018 00000000 		.word	writet
 558 001c 00000000 		.word	readt
 559              		.text
 560              	.Letext0:
 561              		.file 2 "c:\\chibistudio\\tools\\gnu tools arm embedded\\4.7 2014q2\\bin\\../lib/gcc/arm-none-eabi
 562              		.file 3 "c:\\chibistudio\\tools\\gnu tools arm embedded\\4.7 2014q2\\bin\\../lib/gcc/arm-none-eabi
 563              		.file 4 "../../chibios/os/ports/GCC/ARMCMx/chtypes.h"
 564              		.file 5 "../../chibios/os/kernel/include/chlists.h"
 565              		.file 6 "../../chibios/os/kernel/include/chthreads.h"
 566              		.file 7 "../../chibios/os/ports/GCC/ARMCMx/chcore_v7m.h"
 567              		.file 8 "../../chibios/os/kernel/include/chmtx.h"
 568              		.file 9 "../../chibios/os/kernel/include/chevents.h"
 569              		.file 10 "../../chibios/os/kernel/include/chqueues.h"
 570              		.file 11 "../../chibios/os/hal/platforms/STM32F4xx/stm32f4xx.h"
 571              		.file 12 "../../chibios/os/hal/include/serial.h"
 572              		.file 13 "../../chibios/os/hal/platforms/STM32/USARTv1/serial_lld.h"
 573              		.file 14 "../../chibios/os/kernel/include/chdebug.h"
 574              		.file 15 "../../chibios/os/kernel/include/chschd.h"
 575              		.file 16 "../../chibios/os/ports/common/ARMCMx/CMSIS/include/core_cm4.h"