ARM GAS  C:\Users\Elis\AppData\Local\Temp\ccRy7ydC.s 			page 1


   1              		.syntax unified
   2              		.cpu cortex-m4
   3              		.fpu softvfp
   4              		.eabi_attribute 20, 1
   5              		.eabi_attribute 21, 1
   6              		.eabi_attribute 23, 3
   7              		.eabi_attribute 24, 1
   8              		.eabi_attribute 25, 1
   9              		.eabi_attribute 26, 1
  10              		.eabi_attribute 30, 2
  11              		.eabi_attribute 34, 1
  12              		.eabi_attribute 18, 4
  13              		.thumb
  14              		.file	"slre.c"
  15              		.text
  16              	.Ltext0:
  17              		.cfi_sections	.debug_frame
  18              		.section	.text.match_op,"ax",%progbits
  19              		.align	2
  20              		.p2align 4,,15
  21              		.thumb
  22              		.thumb_func
  23              		.type	match_op, %function
  24              	match_op:
  25              	.LFB7:
  26              		.file 1 "../../workspace26/Mobile_phone/regex/slre.c"
  27              		.loc 1 112 0
  28              		.cfi_startproc
  29              		@ args = 0, pretend = 0, frame = 0
  30              		@ frame_needed = 0, uses_anonymous_args = 0
  31              		@ link register save eliminated.
  32              	.LVL0:
  33 0000 30B4     		push	{r4, r5}
  34              	.LCFI0:
  35              		.cfi_def_cfa_offset 8
  36              		.cfi_offset 4, -8
  37              		.cfi_offset 5, -4
  38              		.loc 1 114 0
  39 0002 0378     		ldrb	r3, [r0, #0]	@ zero_extendqisi2
  40 0004 2E2B     		cmp	r3, #46
  41 0006 10D0     		beq	.L20
  42 0008 12D9     		bls	.L48
  43 000a 5C2B     		cmp	r3, #92
  44 000c 2DD0     		beq	.L5
  45 000e 7C2B     		cmp	r3, #124
  46 0010 10D1     		bne	.L2
  47              		.loc 1 142 0
  48 0012 6FF00300 		mvn	r0, #3
  49              	.LVL1:
  50 0016 09E0     		b	.L3
  51              	.LVL2:
  52              	.L9:
  53              		.loc 1 118 0
  54 0018 754A     		ldr	r2, .L50
  55 001a 0878     		ldrb	r0, [r1, #0]	@ zero_extendqisi2
  56              	.LVL3:
  57 001c 1468     		ldr	r4, [r2, #0]
ARM GAS  C:\Users\Elis\AppData\Local\Temp\ccRy7ydC.s 			page 2


  58 001e 2318     		adds	r3, r4, r0
  59 0020 5978     		ldrb	r1, [r3, #1]	@ zero_extendqisi2
  60              	.LVL4:
  61 0022 01F00800 		and	r0, r1, #8
  62 0026 C2B2     		uxtb	r2, r0
  63 0028 E2B9     		cbnz	r2, .L46
  64              	.L20:
  65              		.loc 1 156 0
  66 002a 0120     		movs	r0, #1
  67              	.L3:
  68              		.loc 1 157 0
  69 002c 30BC     		pop	{r4, r5}
  70 002e 7047     		bx	lr
  71              	.LVL5:
  72              	.L48:
  73              		.loc 1 114 0
  74 0030 242B     		cmp	r3, #36
  75 0032 17D0     		beq	.L46
  76              	.L2:
  77              		.loc 1 147 0
  78 0034 D2F87029 		ldr	r2, [r2, #2416]
  79              	.LVL6:
  80 0038 D207     		lsls	r2, r2, #31
  81 003a 6BD5     		bpl	.L29
  82              	.LVL7:
  83              	.LBB37:
  84              		.loc 1 148 0
  85 003c 6C4A     		ldr	r2, .L50
  86 003e 1068     		ldr	r0, [r2, #0]
  87              	.LVL8:
  88 0040 C218     		adds	r2, r0, r3
  89 0042 5278     		ldrb	r2, [r2, #1]	@ zero_extendqisi2
  90 0044 02F00302 		and	r2, r2, #3
  91 0048 012A     		cmp	r2, #1
  92              	.LBE37:
  93              	.LBB38:
  94 004a 0A78     		ldrb	r2, [r1, #0]	@ zero_extendqisi2
  95              	.LVL9:
  96 004c 00EB0201 		add	r1, r0, r2
  97              	.LVL10:
  98              	.LBE38:
  99              	.LBB39:
 100 0050 08BF     		it	eq
 101 0052 2033     		addeq	r3, r3, #32
 102              	.LVL11:
 103              	.LBE39:
 104              	.LBB40:
 105 0054 4878     		ldrb	r0, [r1, #1]	@ zero_extendqisi2
 106 0056 00F00301 		and	r1, r0, #3
 107 005a 0129     		cmp	r1, #1
 108 005c 08BF     		it	eq
 109 005e 2032     		addeq	r2, r2, #32
 110              	.LBE40:
 111 0060 9342     		cmp	r3, r2
 112 0062 E2D0     		beq	.L20
 113              	.LVL12:
 114              	.L46:
ARM GAS  C:\Users\Elis\AppData\Local\Temp\ccRy7ydC.s 			page 3


 115              		.loc 1 118 0
 116 0064 4FF0FF30 		mov	r0, #-1
 117 0068 E0E7     		b	.L3
 118              	.LVL13:
 119              	.L5:
 120              		.loc 1 117 0
 121 006a 4278     		ldrb	r2, [r0, #1]	@ zero_extendqisi2
 122              	.LVL14:
 123 006c A2F15303 		sub	r3, r2, #83
 124 0070 252B     		cmp	r3, #37
 125 0072 7DD8     		bhi	.L8
 126 0074 01A4     		adr	r4, .L19
 127 0076 54F823F0 		ldr	pc, [r4, r3, lsl #2]
 128 007a 00BF     		.align	2
 129              	.L19:
 130 007c 19000000 		.word	.L9+1
 131 0080 71010000 		.word	.L8+1
 132 0084 71010000 		.word	.L8+1
 133 0088 71010000 		.word	.L8+1
 134 008c 71010000 		.word	.L8+1
 135 0090 71010000 		.word	.L8+1
 136 0094 71010000 		.word	.L8+1
 137 0098 71010000 		.word	.L8+1
 138 009c 71010000 		.word	.L8+1
 139 00a0 71010000 		.word	.L8+1
 140 00a4 71010000 		.word	.L8+1
 141 00a8 71010000 		.word	.L8+1
 142 00ac 71010000 		.word	.L8+1
 143 00b0 71010000 		.word	.L8+1
 144 00b4 71010000 		.word	.L8+1
 145 00b8 7B010000 		.word	.L10+1
 146 00bc 71010000 		.word	.L8+1
 147 00c0 85010000 		.word	.L11+1
 148 00c4 71010000 		.word	.L8+1
 149 00c8 9D010000 		.word	.L12+1
 150 00cc 71010000 		.word	.L8+1
 151 00d0 71010000 		.word	.L8+1
 152 00d4 71010000 		.word	.L8+1
 153 00d8 71010000 		.word	.L8+1
 154 00dc 71010000 		.word	.L8+1
 155 00e0 71010000 		.word	.L8+1
 156 00e4 71010000 		.word	.L8+1
 157 00e8 A7010000 		.word	.L13+1
 158 00ec 71010000 		.word	.L8+1
 159 00f0 71010000 		.word	.L8+1
 160 00f4 71010000 		.word	.L8+1
 161 00f8 B1010000 		.word	.L14+1
 162 00fc BB010000 		.word	.L15+1
 163 0100 D3010000 		.word	.L16+1
 164 0104 71010000 		.word	.L8+1
 165 0108 DD010000 		.word	.L17+1
 166 010c 71010000 		.word	.L8+1
 167 0110 1D010000 		.word	.L18+1
 168              	.L29:
 169              		.loc 1 150 0
 170 0114 0878     		ldrb	r0, [r1, #0]	@ zero_extendqisi2
 171              	.LVL15:
ARM GAS  C:\Users\Elis\AppData\Local\Temp\ccRy7ydC.s 			page 4


 172 0116 9842     		cmp	r0, r3
 173 0118 87D0     		beq	.L20
 174 011a A3E7     		b	.L46
 175              	.LVL16:
 176              	.L18:
 177              	.LBB41:
 178              	.LBB42:
 179              	.LBB43:
 180              		.loc 1 108 0
 181 011c 344C     		ldr	r4, .L50
 182 011e 8578     		ldrb	r5, [r0, #2]	@ zero_extendqisi2
 183              	.LVL17:
 184 0120 2368     		ldr	r3, [r4, #0]
 185 0122 5A19     		adds	r2, r3, r5
 186              	.LBE43:
 187              	.LBE42:
 188 0124 5478     		ldrb	r4, [r2, #1]	@ zero_extendqisi2
 189              	.LBB57:
 190              	.LBB44:
 191 0126 04F00302 		and	r2, r4, #3
 192 012a 012A     		cmp	r2, #1
 193 012c 08BF     		it	eq
 194 012e 2035     		addeq	r5, r5, #32
 195              	.LVL18:
 196              	.LBE44:
 197              	.LBB45:
 198              	.LBB46:
 199              		.loc 1 104 0
 200 0130 5C19     		adds	r4, r3, r5
 201              	.LBE46:
 202 0132 6278     		ldrb	r2, [r4, #1]	@ zero_extendqisi2
 203              	.LBB47:
 204 0134 02F00404 		and	r4, r2, #4
 205 0138 E2B2     		uxtb	r2, r4
 206 013a 002A     		cmp	r2, #0
 207 013c 53D0     		beq	.L23
 208 013e A5F13005 		sub	r5, r5, #48
 209              	.LVL19:
 210              	.L24:
 211              	.LBE47:
 212              	.LBE45:
 213              	.LBB49:
 214              		.loc 1 108 0
 215 0142 C278     		ldrb	r2, [r0, #3]	@ zero_extendqisi2
 216              	.LVL20:
 217 0144 9C18     		adds	r4, r3, r2
 218              	.LBE49:
 219 0146 2801     		lsls	r0, r5, #4
 220              	.LVL21:
 221              	.LBE57:
 222 0148 6478     		ldrb	r4, [r4, #1]	@ zero_extendqisi2
 223              	.LBB58:
 224              	.LBB50:
 225 014a 04F00304 		and	r4, r4, #3
 226 014e 012C     		cmp	r4, #1
 227 0150 08BF     		it	eq
 228 0152 2032     		addeq	r2, r2, #32
ARM GAS  C:\Users\Elis\AppData\Local\Temp\ccRy7ydC.s 			page 5


 229              	.LVL22:
 230              	.LBE50:
 231              	.LBB51:
 232              	.LBB52:
 233              		.loc 1 104 0
 234 0154 9B18     		adds	r3, r3, r2
 235              	.LVL23:
 236              	.LBE52:
 237 0156 5B78     		ldrb	r3, [r3, #1]	@ zero_extendqisi2
 238              	.LBB53:
 239 0158 03F00403 		and	r3, r3, #4
 240 015c DBB2     		uxtb	r3, r3
 241 015e 002B     		cmp	r3, #0
 242 0160 44D1     		bne	.L49
 243 0162 573A     		subs	r2, r2, #87
 244              	.LVL24:
 245              	.L28:
 246              	.LBE53:
 247              	.LBE51:
 248              	.LBE58:
 249              	.LBE41:
 250              		.loc 1 130 0
 251 0164 0978     		ldrb	r1, [r1, #0]	@ zero_extendqisi2
 252              	.LVL25:
 253              	.LBB61:
 254              	.LBB59:
 255              		.loc 1 108 0
 256 0166 0243     		orrs	r2, r2, r0
 257              	.LBE59:
 258              	.LBE61:
 259              		.loc 1 130 0
 260 0168 9142     		cmp	r1, r2
 261 016a 3FF45EAF 		beq	.L20
 262 016e 79E7     		b	.L46
 263              	.LVL26:
 264              	.L8:
 265              		.loc 1 136 0
 266 0170 0C78     		ldrb	r4, [r1, #0]	@ zero_extendqisi2
 267 0172 9442     		cmp	r4, r2
 268 0174 3FF459AF 		beq	.L20
 269 0178 74E7     		b	.L46
 270              	.L10:
 271              		.loc 1 121 0
 272 017a 0978     		ldrb	r1, [r1, #0]	@ zero_extendqisi2
 273              	.LVL27:
 274 017c 0829     		cmp	r1, #8
 275 017e 3FF454AF 		beq	.L20
 276 0182 6FE7     		b	.L46
 277              	.LVL28:
 278              	.L11:
 279              		.loc 1 120 0
 280 0184 1A4B     		ldr	r3, .L50
 281 0186 0C78     		ldrb	r4, [r1, #0]	@ zero_extendqisi2
 282 0188 1968     		ldr	r1, [r3, #0]
 283              	.LVL29:
 284 018a 0A19     		adds	r2, r1, r4
 285 018c 5078     		ldrb	r0, [r2, #1]	@ zero_extendqisi2
ARM GAS  C:\Users\Elis\AppData\Local\Temp\ccRy7ydC.s 			page 6


 286              	.LVL30:
 287 018e 00F00404 		and	r4, r0, #4
 288 0192 E3B2     		uxtb	r3, r4
 289 0194 002B     		cmp	r3, #0
 290 0196 7FF448AF 		bne	.L20
 291 019a 63E7     		b	.L46
 292              	.LVL31:
 293              	.L12:
 294              		.loc 1 122 0
 295 019c 0878     		ldrb	r0, [r1, #0]	@ zero_extendqisi2
 296              	.LVL32:
 297 019e 0C28     		cmp	r0, #12
 298 01a0 3FF443AF 		beq	.L20
 299 01a4 5EE7     		b	.L46
 300              	.LVL33:
 301              	.L13:
 302              		.loc 1 123 0
 303 01a6 0A78     		ldrb	r2, [r1, #0]	@ zero_extendqisi2
 304 01a8 0A2A     		cmp	r2, #10
 305 01aa 3FF43EAF 		beq	.L20
 306 01ae 59E7     		b	.L46
 307              	.L14:
 308              		.loc 1 124 0
 309 01b0 0978     		ldrb	r1, [r1, #0]	@ zero_extendqisi2
 310              	.LVL34:
 311 01b2 0D29     		cmp	r1, #13
 312 01b4 3FF439AF 		beq	.L20
 313 01b8 54E7     		b	.L46
 314              	.LVL35:
 315              	.L15:
 316              		.loc 1 119 0
 317 01ba 0D4B     		ldr	r3, .L50
 318 01bc 0C78     		ldrb	r4, [r1, #0]	@ zero_extendqisi2
 319 01be 1968     		ldr	r1, [r3, #0]
 320              	.LVL36:
 321 01c0 0A19     		adds	r2, r1, r4
 322 01c2 5078     		ldrb	r0, [r2, #1]	@ zero_extendqisi2
 323              	.LVL37:
 324 01c4 00F00804 		and	r4, r0, #8
 325 01c8 E3B2     		uxtb	r3, r4
 326 01ca 002B     		cmp	r3, #0
 327 01cc 7FF42DAF 		bne	.L20
 328 01d0 48E7     		b	.L46
 329              	.LVL38:
 330              	.L16:
 331              		.loc 1 125 0
 332 01d2 0878     		ldrb	r0, [r1, #0]	@ zero_extendqisi2
 333              	.LVL39:
 334 01d4 0928     		cmp	r0, #9
 335 01d6 3FF428AF 		beq	.L20
 336 01da 43E7     		b	.L46
 337              	.LVL40:
 338              	.L17:
 339              		.loc 1 126 0
 340 01dc 0A78     		ldrb	r2, [r1, #0]	@ zero_extendqisi2
 341 01de 0B2A     		cmp	r2, #11
 342 01e0 3FF423AF 		beq	.L20
ARM GAS  C:\Users\Elis\AppData\Local\Temp\ccRy7ydC.s 			page 7


 343 01e4 3EE7     		b	.L46
 344              	.LVL41:
 345              	.L23:
 346              	.LBB62:
 347              	.LBB60:
 348              	.LBB55:
 349              	.LBB48:
 350              		.loc 1 104 0
 351 01e6 A5F15705 		sub	r5, r5, #87
 352              	.LVL42:
 353 01ea AAE7     		b	.L24
 354              	.LVL43:
 355              	.L49:
 356              	.LBE48:
 357              	.LBE55:
 358              	.LBB56:
 359              	.LBB54:
 360 01ec 303A     		subs	r2, r2, #48
 361              	.LVL44:
 362 01ee B9E7     		b	.L28
 363              	.L51:
 364              		.align	2
 365              	.L50:
 366 01f0 00000000 		.word	__ctype_ptr__
 367              	.LBE54:
 368              	.LBE56:
 369              	.LBE60:
 370              	.LBE62:
 371              		.cfi_endproc
 372              	.LFE7:
 373              		.size	match_op, .-match_op
 374 01f4 AFF30080 		.section	.text.get_op_len,"ax",%progbits
 374      AFF30080 
 374      AFF30080 
 375              		.align	2
 376              		.p2align 4,,15
 377              		.thumb
 378              		.thumb_func
 379              		.type	get_op_len, %function
 380              	get_op_len:
 381              	.LFB3:
 382              		.loc 1 95 0
 383              		.cfi_startproc
 384              		@ args = 0, pretend = 0, frame = 0
 385              		@ frame_needed = 0, uses_anonymous_args = 0
 386              		@ link register save eliminated.
 387              	.LVL45:
 388 0000 10B4     		push	{r4}
 389              	.LCFI1:
 390              		.cfi_def_cfa_offset 4
 391              		.cfi_offset 4, -4
 392              		.loc 1 96 0
 393 0002 0378     		ldrb	r3, [r0, #0]	@ zero_extendqisi2
 394 0004 5B2B     		cmp	r3, #91
 395 0006 0AD0     		beq	.L71
 396              	.LVL46:
 397              	.LBB73:
ARM GAS  C:\Users\Elis\AppData\Local\Temp\ccRy7ydC.s 			page 8


 398              	.LBB74:
 399              		.loc 1 82 0
 400 0008 5C2B     		cmp	r3, #92
 401 000a 02D0     		beq	.L72
 402 000c 0120     		movs	r0, #1
 403              	.LVL47:
 404              	.L69:
 405              	.LBE74:
 406              	.LBE73:
 407              		.loc 1 97 0
 408 000e 10BC     		pop	{r4}
 409 0010 7047     		bx	lr
 410              	.LVL48:
 411              	.L72:
 412              	.LBB76:
 413              	.LBB75:
 414              		.loc 1 82 0
 415 0012 4078     		ldrb	r0, [r0, #1]	@ zero_extendqisi2
 416              	.LVL49:
 417 0014 7828     		cmp	r0, #120
 418 0016 14BF     		ite	ne
 419 0018 0220     		movne	r0, #2
 420 001a 0420     		moveq	r0, #4
 421 001c F7E7     		b	.L69
 422              	.LVL50:
 423              	.L71:
 424              	.LBE75:
 425              	.LBE76:
 426              	.LBB77:
 427              	.LBB78:
 428              		.loc 1 96 0
 429 001e 0139     		subs	r1, r1, #1
 430              	.LVL51:
 431 0020 421C     		adds	r2, r0, #1
 432              	.LVL52:
 433              	.LBB79:
 434              	.LBB80:
 435              		.loc 1 88 0
 436 0022 0029     		cmp	r1, #0
 437 0024 18DD     		ble	.L61
 438 0026 4378     		ldrb	r3, [r0, #1]	@ zero_extendqisi2
 439 0028 5D2B     		cmp	r3, #93
 440 002a 1AD0     		beq	.L62
 441 002c 1446     		mov	r4, r2
 442 002e 0020     		movs	r0, #0
 443              	.LVL53:
 444 0030 08E0     		b	.L57
 445              	.LVL54:
 446              	.L63:
 447              	.LBB81:
 448              	.LBB82:
 449              		.loc 1 82 0
 450 0032 0123     		movs	r3, #1
 451              	.LVL55:
 452              	.L56:
 453              	.LBE82:
 454              	.LBE81:
ARM GAS  C:\Users\Elis\AppData\Local\Temp\ccRy7ydC.s 			page 9


 455              		.loc 1 89 0
 456 0034 C018     		adds	r0, r0, r3
 457              	.LVL56:
 458              		.loc 1 88 0
 459 0036 8142     		cmp	r1, r0
 460 0038 02EB0004 		add	r4, r2, r0
 461 003c 0DDD     		ble	.L54
 462 003e 135C     		ldrb	r3, [r2, r0]	@ zero_extendqisi2
 463 0040 5D2B     		cmp	r3, #93
 464 0042 07D0     		beq	.L70
 465              	.LVL57:
 466              	.L57:
 467              	.LBB84:
 468              	.LBB83:
 469              		.loc 1 82 0
 470 0044 5C2B     		cmp	r3, #92
 471 0046 F4D1     		bne	.L63
 472 0048 6478     		ldrb	r4, [r4, #1]	@ zero_extendqisi2
 473              	.LVL58:
 474 004a 782C     		cmp	r4, #120
 475 004c 14BF     		ite	ne
 476 004e 0223     		movne	r3, #2
 477 0050 0423     		moveq	r3, #4
 478 0052 EFE7     		b	.L56
 479              	.L70:
 480 0054 0230     		adds	r0, r0, #2
 481 0056 DAE7     		b	.L69
 482              	.LVL59:
 483              	.L61:
 484              	.LBE83:
 485              	.LBE84:
 486              		.loc 1 86 0
 487 0058 0020     		movs	r0, #0
 488              	.LVL60:
 489              	.L54:
 490              		.loc 1 92 0
 491 005a 8842     		cmp	r0, r1
 492 005c FADD     		ble	.L70
 493 005e 0020     		movs	r0, #0
 494 0060 D5E7     		b	.L69
 495              	.LVL61:
 496              	.L62:
 497              		.loc 1 88 0
 498 0062 0220     		movs	r0, #2
 499              	.LVL62:
 500 0064 D3E7     		b	.L69
 501              	.LBE80:
 502              	.LBE79:
 503              	.LBE78:
 504              	.LBE77:
 505              		.cfi_endproc
 506              	.LFE3:
 507              		.size	get_op_len, .-get_op_len
 508 0066 00BFAFF3 		.section	.text.bar,"ax",%progbits
 508      0080AFF3 
 508      0080
 509              		.align	2
ARM GAS  C:\Users\Elis\AppData\Local\Temp\ccRy7ydC.s 			page 10


 510              		.p2align 4,,15
 511              		.thumb
 512              		.thumb_func
 513              		.type	bar, %function
 514              	bar:
 515              	.LFB9:
 516              		.loc 1 184 0
 517              		.cfi_startproc
 518              		@ args = 8, pretend = 0, frame = 40
 519              		@ frame_needed = 0, uses_anonymous_args = 0
 520              	.LVL63:
 521 0000 2DE9F04F 		push	{r4, r5, r6, r7, r8, r9, sl, fp, lr}
 522              	.LCFI2:
 523              		.cfi_def_cfa_offset 36
 524              		.cfi_offset 4, -36
 525              		.cfi_offset 5, -32
 526              		.cfi_offset 6, -28
 527              		.cfi_offset 7, -24
 528              		.cfi_offset 8, -20
 529              		.cfi_offset 9, -16
 530              		.cfi_offset 10, -12
 531              		.cfi_offset 11, -8
 532              		.cfi_offset 14, -4
 533 0004 8DB0     		sub	sp, sp, #52
 534              	.LCFI3:
 535              		.cfi_def_cfa_offset 88
 536              		.loc 1 188 0
 537 0006 0029     		cmp	r1, #0
 538              		.loc 1 184 0
 539 0008 0790     		str	r0, [sp, #28]
 540 000a 0692     		str	r2, [sp, #24]
 541 000c 0393     		str	r3, [sp, #12]
 542 000e DDF85890 		ldr	r9, [sp, #88]
 543              		.loc 1 188 0
 544 0012 0591     		str	r1, [sp, #20]
 545 0014 40F3AD82 		ble	.L135
 546 0018 002B     		cmp	r3, #0
 547 001a C0F2AA82 		blt	.L135
 548 001e 4FF0000A 		mov	sl, #0
 549 0022 5546     		mov	r5, sl
 550 0024 4F46     		mov	r7, r9
 551 0026 3CE0     		b	.L199
 552              	.LVL64:
 553              	.L219:
 554              		.loc 1 191 0 discriminator 1
 555 0028 1798     		ldr	r0, [sp, #92]
 556 002a 07EB0011 		add	r1, r7, r0, lsl #4
 557 002e 4A69     		ldr	r2, [r1, #20]
 558 0030 941C     		adds	r4, r2, #2
 559              	.LVL65:
 560              	.L77:
 561              		.loc 1 198 0
 562 0032 002C     		cmp	r4, #0
 563 0034 40F39A82 		ble	.L214
 564              		.loc 1 200 0
 565 0038 059B     		ldr	r3, [sp, #20]
 566 003a 05EB040B 		add	fp, r5, r4
ARM GAS  C:\Users\Elis\AppData\Local\Temp\ccRy7ydC.s 			page 11


 567 003e 5B45     		cmp	r3, fp
 568 0040 CDF810B0 		str	fp, [sp, #16]
 569 0044 06DD     		ble	.L78
 570              		.loc 1 433 0 discriminator 1
 571 0046 305D     		ldrb	r0, [r6, r4]	@ zero_extendqisi2
 572              	.LBB100:
 573              	.LBB101:
 574              		.loc 1 100 0 discriminator 1
 575 0048 A0F12A01 		sub	r1, r0, #42
 576 004c 0129     		cmp	r1, #1
 577 004e 45D9     		bls	.L79
 578              		.loc 1 100 0 is_stmt 0
 579 0050 3F28     		cmp	r0, #63
 580 0052 43D0     		beq	.L79
 581              	.L78:
 582              	.LBE101:
 583              	.LBE100:
 584              		.loc 1 252 0 is_stmt 1
 585 0054 B8F15B0F 		cmp	r8, #91
 586 0058 00F01E81 		beq	.L215
 587              		.loc 1 257 0
 588 005c B8F1280F 		cmp	r8, #40
 589 0060 50D0     		beq	.L216
 590              		.loc 1 283 0
 591 0062 B8F15E0F 		cmp	r8, #94
 592 0066 00F00C81 		beq	.L217
 593              		.loc 1 285 0
 594 006a B8F1240F 		cmp	r8, #36
 595 006e 00F08181 		beq	.L218
 596              		.loc 1 288 0
 597 0072 039D     		ldr	r5, [sp, #12]
 598 0074 5545     		cmp	r5, sl
 599 0076 40F38081 		ble	.L95
 600              		.loc 1 289 0
 601 007a DDF818B0 		ldr	fp, [sp, #24]
 602 007e 3046     		mov	r0, r6
 603 0080 0BEB0A01 		add	r1, fp, sl
 604 0084 3A46     		mov	r2, r7
 605 0086 FFF7FEFF 		bl	match_op
 606              	.LVL66:
 607              		.loc 1 290 0
 608 008a 0028     		cmp	r0, #0
 609 008c 40F37382 		ble	.L152
 610              		.loc 1 200 0
 611 0090 049D     		ldr	r5, [sp, #16]
 612              		.loc 1 291 0
 613 0092 8244     		add	sl, sl, r0
 614              	.LVL67:
 615              	.L80:
 616              		.loc 1 188 0
 617 0094 059C     		ldr	r4, [sp, #20]
 618 0096 AC42     		cmp	r4, r5
 619 0098 32DD     		ble	.L212
 620              		.loc 1 188 0 is_stmt 0 discriminator 2
 621 009a DDF80CB0 		ldr	fp, [sp, #12]
 622 009e DA45     		cmp	sl, fp
 623 00a0 2EDC     		bgt	.L212
ARM GAS  C:\Users\Elis\AppData\Local\Temp\ccRy7ydC.s 			page 12


 624              	.LVL68:
 625              	.L199:
 626              		.loc 1 191 0 is_stmt 1
 627 00a2 079C     		ldr	r4, [sp, #28]
 628 00a4 14F80580 		ldrb	r8, [r4, r5]	@ zero_extendqisi2
 629 00a8 B8F1280F 		cmp	r8, #40
 630 00ac 04EB0506 		add	r6, r4, r5
 631 00b0 BAD0     		beq	.L219
 632              		.loc 1 191 0 is_stmt 0 discriminator 2
 633 00b2 DDF814B0 		ldr	fp, [sp, #20]
 634 00b6 3046     		mov	r0, r6
 635 00b8 C5EB0B01 		rsb	r1, r5, fp
 636 00bc FFF7FEFF 		bl	get_op_len
 637              	.LVL69:
 638              	.LBB102:
 639              	.LBB103:
 640              		.loc 1 100 0 is_stmt 1 discriminator 2
 641 00c0 A8F12A03 		sub	r3, r8, #42
 642 00c4 012B     		cmp	r3, #1
 643              	.LBE103:
 644              	.LBE102:
 645              		.loc 1 191 0 discriminator 2
 646 00c6 0446     		mov	r4, r0
 647              	.LVL70:
 648              	.LBB105:
 649              	.LBB104:
 650              		.loc 1 100 0 discriminator 2
 651 00c8 02D9     		bls	.L138
 652              		.loc 1 100 0 is_stmt 0
 653 00ca B8F13F0F 		cmp	r8, #63
 654 00ce B0D1     		bne	.L77
 655              	.L138:
 656              		.loc 1 197 0 is_stmt 1
 657 00d0 6FF00105 		mvn	r5, #1
 658              	.LVL71:
 659              	.L166:
 660              	.LBE104:
 661              	.LBE105:
 662              		.loc 1 296 0
 663 00d4 2846     		mov	r0, r5
 664 00d6 0DB0     		add	sp, sp, #52
 665 00d8 BDE8F08F 		pop	{r4, r5, r6, r7, r8, r9, sl, fp, pc}
 666              	.LVL72:
 667              	.L79:
 668              		.loc 1 203 0
 669 00dc 0798     		ldr	r0, [sp, #28]
 670 00de DDF810B0 		ldr	fp, [sp, #16]
 671 00e2 10F80B20 		ldrb	r2, [r0, fp]	@ zero_extendqisi2
 672 00e6 3F2A     		cmp	r2, #63
 673 00e8 8344     		add	fp, r0, fp
 674 00ea 00F0E181 		beq	.L220
 675              		.loc 1 207 0
 676 00ee 2A3A     		subs	r2, r2, #42
 677 00f0 012A     		cmp	r2, #1
 678 00f2 40F26A81 		bls	.L221
 679              		.loc 1 188 0
 680 00f6 DDF80CB0 		ldr	fp, [sp, #12]
ARM GAS  C:\Users\Elis\AppData\Local\Temp\ccRy7ydC.s 			page 13


 681              		.loc 1 207 0
 682 00fa 049D     		ldr	r5, [sp, #16]
 683              		.loc 1 188 0
 684 00fc DA45     		cmp	sl, fp
 685 00fe D0DD     		ble	.L199
 686              	.LVL73:
 687              	.L212:
 688 0100 5546     		mov	r5, sl
 689 0102 E7E7     		b	.L166
 690              	.LVL74:
 691              	.L216:
 692              		.loc 1 259 0
 693 0104 179C     		ldr	r4, [sp, #92]
 694              	.LVL75:
 695              		.loc 1 260 0
 696 0106 D7F84036 		ldr	r3, [r7, #1600]
 697              		.loc 1 259 0
 698 010a 0134     		adds	r4, r4, #1
 699              		.loc 1 260 0
 700 010c 9C42     		cmp	r4, r3
 701              		.loc 1 259 0
 702 010e 1794     		str	r4, [sp, #92]
 703              	.LVL76:
 704              		.loc 1 260 0
 705 0110 80F23382 		bge	.L150
 706              		.loc 1 264 0
 707 0114 0598     		ldr	r0, [sp, #20]
 708 0116 049C     		ldr	r4, [sp, #16]
 709              	.LVL77:
 710 0118 C4EB000B 		rsb	fp, r4, r0
 711 011c BBF1000F 		cmp	fp, #0
 712 0120 40F3F781 		ble	.L120
 713              	.LVL78:
 714              	.LBB106:
 715              		.loc 1 269 0 discriminator 1
 716 0124 039E     		ldr	r6, [sp, #12]
 717 0126 B6EB0A06 		subs	r6, r6, sl
 718 012a 00F12681 		bmi	.L95
 719 012e 0699     		ldr	r1, [sp, #24]
 720              		.loc 1 271 0
 721 0130 049D     		ldr	r5, [sp, #16]
 722 0132 079C     		ldr	r4, [sp, #28]
 723              		.loc 1 270 0
 724 0134 179B     		ldr	r3, [sp, #92]
 725 0136 01EB0A09 		add	r9, r1, sl
 726              		.loc 1 271 0
 727 013a 6419     		adds	r4, r4, r5
 728              		.loc 1 270 0
 729 013c 4846     		mov	r0, r9
 730 013e 3146     		mov	r1, r6
 731 0140 3A46     		mov	r2, r7
 732              		.loc 1 271 0
 733 0142 0894     		str	r4, [sp, #32]
 734              		.loc 1 270 0
 735 0144 FFF7FEFF 		bl	doh
 736              	.LVL79:
 737 0148 051E     		subs	r5, r0, #0
ARM GAS  C:\Users\Elis\AppData\Local\Temp\ccRy7ydC.s 			page 14


 738 014a 06F00108 		and	r8, r6, #1
 739 014e 10DB     		blt	.L202
 740              		.loc 1 271 0
 741 0150 179A     		ldr	r2, [sp, #92]
 742 0152 069B     		ldr	r3, [sp, #24]
 743 0154 DDF80CE0 		ldr	lr, [sp, #12]
 744 0158 0192     		str	r2, [sp, #4]
 745              		.loc 1 272 0
 746 015a 0AEB0504 		add	r4, sl, r5
 747              		.loc 1 271 0
 748 015e 1A19     		adds	r2, r3, r4
 749 0160 0097     		str	r7, [sp, #0]
 750 0162 0898     		ldr	r0, [sp, #32]
 751              	.LVL80:
 752 0164 5946     		mov	r1, fp
 753 0166 C4EB0E03 		rsb	r3, r4, lr
 754 016a FFF749FF 		bl	bar
 755              	.LVL81:
 756              		.loc 1 270 0
 757 016e 0028     		cmp	r0, #0
 758 0170 7ADA     		bge	.L125
 759              	.L202:
 760              		.loc 1 269 0
 761 0172 4FF0010C 		mov	ip, #1
 762              	.LVL82:
 763 0176 B445     		cmp	ip, r6
 764 0178 71DC     		bgt	.L122
 765 017a B8F1000F 		cmp	r8, #0
 766 017e 22D0     		beq	.L209
 767              		.loc 1 270 0
 768 0180 711E     		subs	r1, r6, #1
 769 0182 4846     		mov	r0, r9
 770 0184 3A46     		mov	r2, r7
 771 0186 179B     		ldr	r3, [sp, #92]
 772 0188 CDF808C0 		str	ip, [sp, #8]
 773 018c FFF7FEFF 		bl	doh
 774              	.LVL83:
 775 0190 051E     		subs	r5, r0, #0
 776 0192 DDF808C0 		ldr	ip, [sp, #8]
 777 0196 12DB     		blt	.L206
 778              		.loc 1 271 0
 779 0198 1798     		ldr	r0, [sp, #92]
 780              	.LVL84:
 781 019a DDF80CC0 		ldr	ip, [sp, #12]
 782 019e 069A     		ldr	r2, [sp, #24]
 783 01a0 0190     		str	r0, [sp, #4]
 784              		.loc 1 272 0
 785 01a2 0AEB0504 		add	r4, sl, r5
 786              		.loc 1 271 0
 787 01a6 C4EB0C03 		rsb	r3, r4, ip
 788 01aa 0097     		str	r7, [sp, #0]
 789 01ac 0898     		ldr	r0, [sp, #32]
 790 01ae 5946     		mov	r1, fp
 791 01b0 1219     		adds	r2, r2, r4
 792 01b2 FFF725FF 		bl	bar
 793              	.LVL85:
 794              		.loc 1 270 0
ARM GAS  C:\Users\Elis\AppData\Local\Temp\ccRy7ydC.s 			page 15


 795 01b6 0028     		cmp	r0, #0
 796 01b8 DDF808C0 		ldr	ip, [sp, #8]
 797 01bc 54DA     		bge	.L125
 798              	.L206:
 799              		.loc 1 269 0
 800 01be 0CF1010C 		add	ip, ip, #1
 801              	.LVL86:
 802 01c2 B445     		cmp	ip, r6
 803 01c4 4BDC     		bgt	.L122
 804              	.L209:
 805 01c6 179D     		ldr	r5, [sp, #92]
 806 01c8 CDF824B0 		str	fp, [sp, #36]
 807 01cc 6146     		mov	r1, ip
 808              	.L124:
 809              		.loc 1 270 0
 810 01ce 3A46     		mov	r2, r7
 811 01d0 2B46     		mov	r3, r5
 812              		.loc 1 269 0
 813 01d2 01F10108 		add	r8, r1, #1
 814              		.loc 1 270 0
 815 01d6 4846     		mov	r0, r9
 816 01d8 711A     		subs	r1, r6, r1
 817 01da FFF7FEFF 		bl	doh
 818              	.LVL87:
 819              		.loc 1 271 0
 820 01de DDF818B0 		ldr	fp, [sp, #24]
 821 01e2 0999     		ldr	r1, [sp, #36]
 822              		.loc 1 270 0
 823 01e4 B0F1000C 		subs	ip, r0, #0
 824              		.loc 1 272 0
 825 01e8 0AEB0C04 		add	r4, sl, ip
 826              		.loc 1 271 0
 827 01ec 0BEB0402 		add	r2, fp, r4
 828 01f0 DDF80CB0 		ldr	fp, [sp, #12]
 829 01f4 0898     		ldr	r0, [sp, #32]
 830              	.LVL88:
 831 01f6 C4EB0B03 		rsb	r3, r4, fp
 832              		.loc 1 270 0
 833 01fa 0ADB     		blt	.L126
 834              		.loc 1 271 0 discriminator 1
 835 01fc 0097     		str	r7, [sp, #0]
 836 01fe 0195     		str	r5, [sp, #4]
 837 0200 CDF808C0 		str	ip, [sp, #8]
 838 0204 FFF7FCFE 		bl	bar
 839              	.LVL89:
 840              		.loc 1 270 0 discriminator 1
 841 0208 0028     		cmp	r0, #0
 842 020a DDF808C0 		ldr	ip, [sp, #8]
 843 020e 80F24D81 		bge	.L210
 844              	.L126:
 845              		.loc 1 270 0 is_stmt 0
 846 0212 C8EB0601 		rsb	r1, r8, r6
 847 0216 3A46     		mov	r2, r7
 848 0218 2B46     		mov	r3, r5
 849 021a 4846     		mov	r0, r9
 850 021c FFF7FEFF 		bl	doh
 851              	.LVL90:
ARM GAS  C:\Users\Elis\AppData\Local\Temp\ccRy7ydC.s 			page 16


 852              		.loc 1 271 0 is_stmt 1
 853 0220 DDF818B0 		ldr	fp, [sp, #24]
 854 0224 0999     		ldr	r1, [sp, #36]
 855              		.loc 1 270 0
 856 0226 B0F1000C 		subs	ip, r0, #0
 857              		.loc 1 272 0
 858 022a 0AEB0C04 		add	r4, sl, ip
 859              		.loc 1 271 0
 860 022e 0BEB0402 		add	r2, fp, r4
 861 0232 DDF80CB0 		ldr	fp, [sp, #12]
 862 0236 0898     		ldr	r0, [sp, #32]
 863              	.LVL91:
 864 0238 C4EB0B03 		rsb	r3, r4, fp
 865              		.loc 1 270 0
 866 023c 0ADB     		blt	.L203
 867              		.loc 1 271 0
 868 023e 0097     		str	r7, [sp, #0]
 869 0240 0195     		str	r5, [sp, #4]
 870 0242 CDF808C0 		str	ip, [sp, #8]
 871 0246 FFF7DBFE 		bl	bar
 872              	.LVL92:
 873              		.loc 1 270 0
 874 024a 0028     		cmp	r0, #0
 875 024c DDF808C0 		ldr	ip, [sp, #8]
 876 0250 80F22C81 		bge	.L210
 877              	.L203:
 878              		.loc 1 269 0
 879 0254 08F10101 		add	r1, r8, #1
 880 0258 B142     		cmp	r1, r6
 881 025a B8DD     		ble	.L124
 882 025c 6546     		mov	r5, ip
 883              	.L122:
 884              	.LVL93:
 885              	.LBE106:
 886              		.loc 1 277 0
 887 025e 002D     		cmp	r5, #0
 888 0260 FFF638AF 		blt	.L166
 889 0264 05EB0A04 		add	r4, r5, sl
 890              	.LVL94:
 891              	.L125:
 892              		.loc 1 278 0
 893 0268 D7F86839 		ldr	r3, [r7, #2408]
 894 026c 33B1     		cbz	r3, .L127
 895              		.loc 1 279 0
 896 026e 1798     		ldr	r0, [sp, #92]
 897 0270 421E     		subs	r2, r0, #1
 898 0272 03EBC201 		add	r1, r3, r2, lsl #3
 899 0276 43F83290 		str	r9, [r3, r2, lsl #3]
 900              		.loc 1 280 0
 901 027a 4D60     		str	r5, [r1, #4]
 902              	.L127:
 903              	.LVL95:
 904              		.loc 1 200 0
 905 027c 049D     		ldr	r5, [sp, #16]
 906              		.loc 1 282 0
 907 027e A246     		mov	sl, r4
 908 0280 08E7     		b	.L80
ARM GAS  C:\Users\Elis\AppData\Local\Temp\ccRy7ydC.s 			page 17


 909              	.LVL96:
 910              	.L217:
 911              		.loc 1 284 0
 912 0282 BAF1000F 		cmp	sl, #0
 913 0286 78D1     		bne	.L95
 914              	.LVL97:
 915              	.L129:
 916              		.loc 1 188 0
 917 0288 059A     		ldr	r2, [sp, #20]
 918 028a DDF810B0 		ldr	fp, [sp, #16]
 919 028e 5A45     		cmp	r2, fp
 920 0290 7FF736AF 		ble	.L212
 921 0294 049D     		ldr	r5, [sp, #16]
 922 0296 04E7     		b	.L199
 923              	.LVL98:
 924              	.L215:
 925              		.loc 1 253 0
 926 0298 6E1C     		adds	r6, r5, #1
 927              	.LBB107:
 928              	.LBB108:
 929              		.loc 1 161 0
 930 029a DDF81CB0 		ldr	fp, [sp, #28]
 931              	.LBE108:
 932              	.LBE107:
 933              		.loc 1 253 0
 934 029e 0699     		ldr	r1, [sp, #24]
 935              	.LBB137:
 936              	.LBB125:
 937              		.loc 1 161 0
 938 02a0 1BF80640 		ldrb	r4, [fp, r6]	@ zero_extendqisi2
 939              	.LVL99:
 940              	.LBE125:
 941              	.LBE137:
 942              		.loc 1 253 0
 943 02a4 4FF6FE78 		movw	r8, #65534
 944              	.LBB138:
 945              	.LBB126:
 946              		.loc 1 161 0
 947 02a8 B4F15E00 		subs	r0, r4, #94
 948              	.LBE126:
 949              	.LBE138:
 950              		.loc 1 253 0
 951 02ac CFF6FF78 		movt	r8, 65535
 952              	.LBB139:
 953              	.LBB127:
 954              		.loc 1 161 0
 955 02b0 4342     		rsbs	r3, r0, #0
 956              	.LBE127:
 957              	.LBE139:
 958              		.loc 1 253 0
 959 02b2 059C     		ldr	r4, [sp, #20]
 960 02b4 C5EB0805 		rsb	r5, r5, r8
 961              	.LBB140:
 962              	.LBB128:
 963              		.loc 1 161 0
 964 02b8 53EB0002 		adcs	r2, r3, r0
 965              	.LBE128:
ARM GAS  C:\Users\Elis\AppData\Local\Temp\ccRy7ydC.s 			page 18


 966              	.LBE140:
 967              		.loc 1 253 0
 968 02bc 5E44     		add	r6, fp, r6
 969              	.LBB141:
 970              	.LBB129:
 971              		.loc 1 161 0
 972 02be 0892     		str	r2, [sp, #32]
 973              	.LBE129:
 974              	.LBE141:
 975              		.loc 1 253 0
 976 02c0 05EB0408 		add	r8, r5, r4
 977 02c4 01EB0A0B 		add	fp, r1, sl
 978              	.LVL100:
 979              	.LBB142:
 980              	.LBB130:
 981              		.loc 1 163 0
 982 02c8 002A     		cmp	r2, #0
 983 02ca 59D1     		bne	.L222
 984              	.L97:
 985              		.loc 1 165 0
 986 02cc B8F1000F 		cmp	r8, #0
 987 02d0 C0F25B81 		blt	.L98
 988 02d4 3578     		ldrb	r5, [r6, #0]	@ zero_extendqisi2
 989 02d6 5D2D     		cmp	r5, #93
 990 02d8 00F05781 		beq	.L98
 991              	.LBB109:
 992              		.loc 1 171 0
 993 02dc 40F20000 		movw	r0, #:lower16:__ctype_ptr__
 994 02e0 C0F20000 		movt	r0, #:upper16:__ctype_ptr__
 995 02e4 0024     		movs	r4, #0
 996 02e6 0368     		ldr	r3, [r0, #0]
 997 02e8 B146     		mov	r9, r6
 998 02ea 0993     		str	r3, [sp, #36]
 999              		.loc 1 165 0
 1000 02ec 2346     		mov	r3, r4
 1001 02ee 17E0     		b	.L115
 1002              	.LVL101:
 1003              	.L226:
 1004              	.LBE109:
 1005              		.loc 1 167 0
 1006 02f0 F118     		adds	r1, r6, r3
 1007 02f2 4878     		ldrb	r0, [r1, #1]	@ zero_extendqisi2
 1008 02f4 2D28     		cmp	r0, #45
 1009 02f6 23D0     		beq	.L223
 1010              	.L100:
 1011              		.loc 1 174 0
 1012 02f8 4846     		mov	r0, r9
 1013 02fa 5946     		mov	r1, fp
 1014 02fc 3A46     		mov	r2, r7
 1015 02fe FFF7FEFF 		bl	match_op
 1016              	.LVL102:
 1017              	.LBB110:
 1018              	.LBB111:
 1019              		.loc 1 82 0
 1020 0302 5C2D     		cmp	r5, #92
 1021 0304 15D0     		beq	.L224
 1022 0306 0122     		movs	r2, #1
ARM GAS  C:\Users\Elis\AppData\Local\Temp\ccRy7ydC.s 			page 19


 1023              	.LVL103:
 1024              	.L113:
 1025              	.LBE111:
 1026              	.LBE110:
 1027              		.loc 1 175 0
 1028 0308 A418     		adds	r4, r4, r2
 1029              	.LVL104:
 1030              		.loc 1 165 0
 1031 030a 4445     		cmp	r4, r8
 1032 030c 2ADC     		bgt	.L114
 1033              	.L227:
 1034 030e 355D     		ldrb	r5, [r6, r4]	@ zero_extendqisi2
 1035 0310 5D2D     		cmp	r5, #93
 1036 0312 2346     		mov	r3, r4
 1037 0314 06EB0409 		add	r9, r6, r4
 1038 0318 24D0     		beq	.L114
 1039              	.LVL105:
 1040 031a 0028     		cmp	r0, #0
 1041 031c 00F33081 		bgt	.L225
 1042              	.LVL106:
 1043              	.L115:
 1044              		.loc 1 167 0
 1045 0320 2D2D     		cmp	r5, #45
 1046 0322 E5D1     		bne	.L226
 1047              		.loc 1 174 0
 1048 0324 3A46     		mov	r2, r7
 1049 0326 4846     		mov	r0, r9
 1050 0328 5946     		mov	r1, fp
 1051 032a FFF7FEFF 		bl	match_op
 1052              	.LVL107:
 1053              		.loc 1 82 0
 1054 032e 0122     		movs	r2, #1
 1055 0330 EAE7     		b	.L113
 1056              	.L224:
 1057              	.LBB113:
 1058              	.LBB112:
 1059 0332 99F80150 		ldrb	r5, [r9, #1]	@ zero_extendqisi2
 1060 0336 782D     		cmp	r5, #120
 1061 0338 14BF     		ite	ne
 1062 033a 0222     		movne	r2, #2
 1063 033c 0422     		moveq	r2, #4
 1064 033e E3E7     		b	.L113
 1065              	.LVL108:
 1066              	.L223:
 1067              	.LBE112:
 1068              	.LBE113:
 1069              		.loc 1 167 0
 1070 0340 8B78     		ldrb	r3, [r1, #2]	@ zero_extendqisi2
 1071 0342 5D2B     		cmp	r3, #93
 1072 0344 D8D0     		beq	.L100
 1073 0346 002B     		cmp	r3, #0
 1074 0348 D6D0     		beq	.L100
 1075              		.loc 1 170 0
 1076 034a D7F87029 		ldr	r2, [r7, #2416]
 1077 034e DAB1     		cbz	r2, .L101
 1078 0350 9BF80020 		ldrb	r2, [fp, #0]	@ zero_extendqisi2
 1079 0354 9542     		cmp	r5, r2
ARM GAS  C:\Users\Elis\AppData\Local\Temp\ccRy7ydC.s 			page 20


 1080 0356 30D8     		bhi	.L145
 1081 0358 9342     		cmp	r3, r2
 1082 035a 2ED3     		bcc	.L145
 1083 035c 0120     		movs	r0, #1
 1084              	.L102:
 1085              	.LVL109:
 1086              		.loc 1 172 0
 1087 035e 0334     		adds	r4, r4, #3
 1088              	.LVL110:
 1089              	.L230:
 1090              		.loc 1 165 0
 1091 0360 4445     		cmp	r4, r8
 1092 0362 D4DD     		ble	.L227
 1093              	.L114:
 1094              		.loc 1 178 0
 1095 0364 0899     		ldr	r1, [sp, #32]
 1096 0366 59B3     		cbz	r1, .L228
 1097 0368 0028     		cmp	r0, #0
 1098 036a 06DC     		bgt	.L95
 1099              	.LVL111:
 1100              	.L118:
 1101              	.LBE130:
 1102              	.LBE142:
 1103              		.loc 1 256 0
 1104 036c 0AF1010A 		add	sl, sl, #1
 1105              	.LVL112:
 1106              		.loc 1 200 0
 1107 0370 049D     		ldr	r5, [sp, #16]
 1108 0372 8FE6     		b	.L80
 1109              	.LVL113:
 1110              	.L218:
 1111              		.loc 1 286 0
 1112 0374 039C     		ldr	r4, [sp, #12]
 1113              	.LVL114:
 1114 0376 A245     		cmp	sl, r4
 1115 0378 86D0     		beq	.L129
 1116              	.L95:
 1117              		.loc 1 240 0
 1118 037a 4FF0FF35 		mov	r5, #-1
 1119 037e A9E6     		b	.L166
 1120              	.LVL115:
 1121              	.L222:
 1122              	.LBB143:
 1123              	.LBB131:
 1124              		.loc 1 163 0
 1125 0380 0136     		adds	r6, r6, #1
 1126              	.LVL116:
 1127 0382 08F1FF38 		add	r8, r8, #-1
 1128              	.LVL117:
 1129 0386 A1E7     		b	.L97
 1130              	.LVL118:
 1131              	.L101:
 1132              	.LBB114:
 1133              		.loc 1 171 0
 1134 0388 9BF80020 		ldrb	r2, [fp, #0]	@ zero_extendqisi2
 1135              	.LVL119:
 1136 038c 0999     		ldr	r1, [sp, #36]
ARM GAS  C:\Users\Elis\AppData\Local\Temp\ccRy7ydC.s 			page 21


 1137 038e 8818     		adds	r0, r1, r2
 1138              	.LBE114:
 1139              	.LBE131:
 1140 0390 4178     		ldrb	r1, [r0, #1]	@ zero_extendqisi2
 1141              	.LBB132:
 1142              	.LBB115:
 1143 0392 0998     		ldr	r0, [sp, #36]
 1144 0394 00EB0509 		add	r9, r0, r5
 1145              	.LBE115:
 1146              	.LBE132:
 1147 0398 01F00301 		and	r1, r1, #3
 1148 039c 99F80100 		ldrb	r0, [r9, #1]	@ zero_extendqisi2
 1149              	.LBB133:
 1150              	.LBB116:
 1151 03a0 0129     		cmp	r1, #1
 1152              	.LBE116:
 1153              	.LBB117:
 1154 03a2 00F00300 		and	r0, r0, #3
 1155              	.LBE117:
 1156              	.LBB118:
 1157 03a6 0CBF     		ite	eq
 1158 03a8 02F1200C 		addeq	ip, r2, #32
 1159 03ac 9446     		movne	ip, r2
 1160              	.LBE118:
 1161              	.LBB119:
 1162 03ae 0128     		cmp	r0, #1
 1163 03b0 08BF     		it	eq
 1164 03b2 2035     		addeq	r5, r5, #32
 1165              	.LVL120:
 1166              	.LBE119:
 1167 03b4 AC45     		cmp	ip, r5
 1168 03b6 80F29B80 		bge	.L229
 1169              	.LVL121:
 1170              	.L145:
 1171              		.loc 1 170 0
 1172 03ba 0020     		movs	r0, #0
 1173              	.LVL122:
 1174              		.loc 1 172 0
 1175 03bc 0334     		adds	r4, r4, #3
 1176              	.LVL123:
 1177 03be CFE7     		b	.L230
 1178              	.L228:
 1179              		.loc 1 178 0
 1180 03c0 0028     		cmp	r0, #0
 1181 03c2 D3DC     		bgt	.L118
 1182              	.LBE133:
 1183              	.LBE143:
 1184              		.loc 1 240 0
 1185 03c4 4FF0FF35 		mov	r5, #-1
 1186 03c8 84E6     		b	.L166
 1187              	.LVL124:
 1188              	.L221:
 1189 03ca B946     		mov	r9, r7
 1190              	.LVL125:
 1191              	.LBB144:
 1192              		.loc 1 211 0
 1193 03cc 049F     		ldr	r7, [sp, #16]
ARM GAS  C:\Users\Elis\AppData\Local\Temp\ccRy7ydC.s 			page 22


 1194              		.loc 1 212 0
 1195 03ce DDF814E0 		ldr	lr, [sp, #20]
 1196              		.loc 1 211 0
 1197 03d2 7B1C     		adds	r3, r7, #1
 1198              		.loc 1 212 0
 1199 03d4 9E45     		cmp	lr, r3
 1200              		.loc 1 211 0
 1201 03d6 0893     		str	r3, [sp, #32]
 1202              	.LVL126:
 1203              		.loc 1 212 0
 1204 03d8 7FDC     		bgt	.L231
 1205              	.L141:
 1206              		.loc 1 208 0
 1207 03da 0020     		movs	r0, #0
 1208 03dc 0990     		str	r0, [sp, #36]
 1209              	.LVL127:
 1210              	.L82:
 1211              		.loc 1 226 0
 1212 03de 0899     		ldr	r1, [sp, #32]
 1213 03e0 0798     		ldr	r0, [sp, #28]
 1214 03e2 059B     		ldr	r3, [sp, #20]
 1215 03e4 4218     		adds	r2, r0, r1
 1216              		.loc 1 213 0
 1217 03e6 4FF0FF3C 		mov	ip, #-1
 1218              		.loc 1 226 0
 1219 03ea 581A     		subs	r0, r3, r1
 1220 03ec 4946     		mov	r1, r9
 1221 03ee B046     		mov	r8, r6
 1222 03f0 A146     		mov	r9, r4
 1223              		.loc 1 213 0
 1224 03f2 5546     		mov	r5, sl
 1225 03f4 5746     		mov	r7, sl
 1226 03f6 CDF810C0 		str	ip, [sp, #16]
 1227              		.loc 1 226 0
 1228 03fa 0A92     		str	r2, [sp, #40]
 1229 03fc 0B90     		str	r0, [sp, #44]
 1230 03fe 179E     		ldr	r6, [sp, #92]
 1231 0400 0C46     		mov	r4, r1
 1232              	.LVL128:
 1233 0402 08E0     		b	.L90
 1234              	.LVL129:
 1235              	.L142:
 1236              		.loc 1 225 0
 1237 0404 3D46     		mov	r5, r7
 1238              	.LVL130:
 1239              	.L86:
 1240              		.loc 1 231 0
 1241 0406 5545     		cmp	r5, sl
 1242 0408 02DD     		ble	.L87
 1243              		.loc 1 231 0 is_stmt 0 discriminator 1
 1244 040a 099B     		ldr	r3, [sp, #36]
 1245 040c 002B     		cmp	r3, #0
 1246 040e 36D1     		bne	.L211
 1247              	.L87:
 1248              		.loc 1 232 0 is_stmt 1
 1249 0410 BCF1000F 		cmp	ip, #0
 1250 0414 33DD     		ble	.L211
ARM GAS  C:\Users\Elis\AppData\Local\Temp\ccRy7ydC.s 			page 23


 1251              	.L90:
 1252              		.loc 1 218 0
 1253 0416 069A     		ldr	r2, [sp, #24]
 1254 0418 DDF80CE0 		ldr	lr, [sp, #12]
 1255 041c D219     		adds	r2, r2, r7
 1256 041e C7EB0E03 		rsb	r3, r7, lr
 1257 0422 8DE85000 		stmia	sp, {r4, r6}
 1258 0426 4046     		mov	r0, r8
 1259 0428 4946     		mov	r1, r9
 1260 042a FFF7E9FD 		bl	bar
 1261              	.LVL131:
 1262              		.loc 1 221 0
 1263 042e 9BF80030 		ldrb	r3, [fp, #0]	@ zero_extendqisi2
 1264              		.loc 1 218 0
 1265 0432 B0F1000C 		subs	ip, r0, #0
 1266              		.loc 1 219 0
 1267 0436 C8BF     		it	gt
 1268 0438 6744     		addgt	r7, r7, ip
 1269              	.LVL132:
 1270              		.loc 1 221 0
 1271 043a 2B2B     		cmp	r3, #43
 1272 043c 18D0     		beq	.L232
 1273              	.L84:
 1274              		.loc 1 223 0
 1275 043e 0598     		ldr	r0, [sp, #20]
 1276              	.LVL133:
 1277 0440 0899     		ldr	r1, [sp, #32]
 1278 0442 8842     		cmp	r0, r1
 1279 0444 DEDD     		ble	.L142
 1280              		.loc 1 226 0
 1281 0446 069A     		ldr	r2, [sp, #24]
 1282 0448 DDF80CE0 		ldr	lr, [sp, #12]
 1283 044c 0A98     		ldr	r0, [sp, #40]
 1284 044e 0B99     		ldr	r1, [sp, #44]
 1285 0450 CDF808C0 		str	ip, [sp, #8]
 1286 0454 8DE85000 		stmia	sp, {r4, r6}
 1287 0458 D219     		adds	r2, r2, r7
 1288 045a C7EB0E03 		rsb	r3, r7, lr
 1289 045e FFF7CFFD 		bl	bar
 1290              	.LVL134:
 1291 0462 0028     		cmp	r0, #0
 1292 0464 0490     		str	r0, [sp, #16]
 1293 0466 DDF808C0 		ldr	ip, [sp, #8]
 1294 046a CCDB     		blt	.L86
 1295              		.loc 1 229 0
 1296 046c 3D18     		adds	r5, r7, r0
 1297              	.LVL135:
 1298 046e CAE7     		b	.L86
 1299              	.LVL136:
 1300              	.L232:
 1301              		.loc 1 221 0 discriminator 1
 1302 0470 BCF1000F 		cmp	ip, #0
 1303 0474 E3DA     		bge	.L84
 1304              	.LVL137:
 1305              	.L85:
 1306              		.loc 1 240 0 discriminator 1
 1307 0476 5545     		cmp	r5, sl
ARM GAS  C:\Users\Elis\AppData\Local\Temp\ccRy7ydC.s 			page 24


 1308 0478 7FF42CAE 		bne	.L166
 1309 047c 7DE7     		b	.L95
 1310              	.LVL138:
 1311              	.L211:
 1312              		.loc 1 234 0
 1313 047e BCF1000F 		cmp	ip, #0
 1314 0482 E046     		mov	r8, ip
 1315 0484 A146     		mov	r9, r4
 1316              	.LVL139:
 1317 0486 52DB     		blt	.L233
 1318 0488 9BF80030 		ldrb	r3, [fp, #0]	@ zero_extendqisi2
 1319              	.L92:
 1320              		.loc 1 240 0
 1321 048c 2B2B     		cmp	r3, #43
 1322 048e F2D0     		beq	.L85
 1323              		.loc 1 244 0
 1324 0490 5545     		cmp	r5, sl
 1325 0492 7FF41FAE 		bne	.L166
 1326              		.loc 1 244 0 is_stmt 0 discriminator 1
 1327 0496 059C     		ldr	r4, [sp, #20]
 1328 0498 DDF820B0 		ldr	fp, [sp, #32]
 1329 049c 5C45     		cmp	r4, fp
 1330 049e 7FF719AE 		ble	.L166
 1331              		.loc 1 244 0 discriminator 2
 1332 04a2 049C     		ldr	r4, [sp, #16]
 1333 04a4 002C     		cmp	r4, #0
 1334 04a6 BFF615AE 		bge	.L166
 1335 04aa 66E7     		b	.L95
 1336              	.LVL140:
 1337              	.L210:
 1338 04ac 6546     		mov	r5, ip
 1339 04ae DBE6     		b	.L125
 1340              	.LVL141:
 1341              	.L220:
 1342              	.LBE144:
 1343              	.LBB145:
 1344              		.loc 1 204 0 is_stmt 1
 1345 04b0 DDF818B0 		ldr	fp, [sp, #24]
 1346 04b4 1798     		ldr	r0, [sp, #92]
 1347 04b6 0097     		str	r7, [sp, #0]
 1348 04b8 0BEB0A02 		add	r2, fp, sl
 1349 04bc DDF80CB0 		ldr	fp, [sp, #12]
 1350 04c0 0190     		str	r0, [sp, #4]
 1351 04c2 CAEB0B03 		rsb	r3, sl, fp
 1352 04c6 3046     		mov	r0, r6
 1353 04c8 2146     		mov	r1, r4
 1354 04ca FFF799FD 		bl	bar
 1355              	.LVL142:
 1356              		.loc 1 206 0
 1357 04ce 0135     		adds	r5, r5, #1
 1358              		.loc 1 205 0
 1359 04d0 0028     		cmp	r0, #0
 1360 04d2 A8BF     		it	ge
 1361 04d4 8244     		addge	sl, sl, r0
 1362              	.LVL143:
 1363 04d6 2D19     		adds	r5, r5, r4
 1364              	.LVL144:
ARM GAS  C:\Users\Elis\AppData\Local\Temp\ccRy7ydC.s 			page 25


 1365 04d8 DCE5     		b	.L80
 1366              	.LVL145:
 1367              	.L231:
 1368              	.LBE145:
 1369              	.LBB146:
 1370              		.loc 1 212 0 discriminator 1
 1371 04da 0799     		ldr	r1, [sp, #28]
 1372 04dc CD5C     		ldrb	r5, [r1, r3]	@ zero_extendqisi2
 1373 04de 3F2D     		cmp	r5, #63
 1374 04e0 7FF47BAF 		bne	.L141
 1375              	.LVL146:
 1376              		.loc 1 214 0
 1377 04e4 049A     		ldr	r2, [sp, #16]
 1378              		.loc 1 213 0
 1379 04e6 0123     		movs	r3, #1
 1380              	.LVL147:
 1381              		.loc 1 214 0
 1382 04e8 971C     		adds	r7, r2, #2
 1383 04ea 0897     		str	r7, [sp, #32]
 1384              	.LVL148:
 1385              		.loc 1 213 0
 1386 04ec 0993     		str	r3, [sp, #36]
 1387 04ee 76E7     		b	.L82
 1388              	.LVL149:
 1389              	.L229:
 1390              	.LBE146:
 1391              	.LBB147:
 1392              	.LBB134:
 1393              	.LBB120:
 1394              		.loc 1 171 0
 1395 04f0 099D     		ldr	r5, [sp, #36]
 1396              	.LBE120:
 1397              	.LBB121:
 1398 04f2 0129     		cmp	r1, #1
 1399              	.LBE121:
 1400              	.LBB122:
 1401 04f4 05EB0301 		add	r1, r5, r3
 1402              	.LBE122:
 1403              	.LBB123:
 1404 04f8 08BF     		it	eq
 1405 04fa 2032     		addeq	r2, r2, #32
 1406              	.LVL150:
 1407              	.LBE123:
 1408              	.LBE134:
 1409 04fc 4878     		ldrb	r0, [r1, #1]	@ zero_extendqisi2
 1410              	.LBB135:
 1411              	.LBB124:
 1412 04fe 00F00305 		and	r5, r0, #3
 1413 0502 012D     		cmp	r5, #1
 1414 0504 08BF     		it	eq
 1415 0506 2033     		addeq	r3, r3, #32
 1416              	.LVL151:
 1417              	.LBE124:
 1418 0508 9A42     		cmp	r2, r3
 1419 050a 3FF756AF 		bgt	.L145
 1420              		.loc 1 170 0
 1421 050e 0120     		movs	r0, #1
ARM GAS  C:\Users\Elis\AppData\Local\Temp\ccRy7ydC.s 			page 26


 1422 0510 25E7     		b	.L102
 1423              	.LVL152:
 1424              	.L120:
 1425              	.LBE135:
 1426              	.LBE147:
 1427              		.loc 1 266 0
 1428 0512 DDF818B0 		ldr	fp, [sp, #24]
 1429 0516 039C     		ldr	r4, [sp, #12]
 1430 0518 179B     		ldr	r3, [sp, #92]
 1431 051a 0BEB0A09 		add	r9, fp, sl
 1432 051e 4846     		mov	r0, r9
 1433 0520 CAEB0401 		rsb	r1, sl, r4
 1434 0524 3A46     		mov	r2, r7
 1435 0526 FFF7FEFF 		bl	doh
 1436              	.LVL153:
 1437 052a 0546     		mov	r5, r0
 1438              	.LVL154:
 1439 052c 97E6     		b	.L122
 1440              	.LVL155:
 1441              	.L233:
 1442 052e 9BF80030 		ldrb	r3, [fp, #0]	@ zero_extendqisi2
 1443              	.LBB148:
 1444              		.loc 1 234 0
 1445 0532 2A2B     		cmp	r3, #42
 1446 0534 AAD1     		bne	.L92
 1447              		.loc 1 234 0 is_stmt 0 discriminator 1
 1448 0536 0094     		str	r4, [sp, #0]
 1449 0538 179C     		ldr	r4, [sp, #92]
 1450 053a DDF820C0 		ldr	ip, [sp, #32]
 1451 053e 0194     		str	r4, [sp, #4]
 1452 0540 0798     		ldr	r0, [sp, #28]
 1453 0542 0599     		ldr	r1, [sp, #20]
 1454 0544 069A     		ldr	r2, [sp, #24]
 1455 0546 039C     		ldr	r4, [sp, #12]
 1456 0548 6044     		add	r0, r0, ip
 1457 054a CAEB0403 		rsb	r3, sl, r4
 1458 054e CCEB0101 		rsb	r1, ip, r1
 1459 0552 5244     		add	r2, r2, sl
 1460 0554 FFF754FD 		bl	bar
 1461              	.LVL156:
 1462 0558 0028     		cmp	r0, #0
 1463 055a 0490     		str	r0, [sp, #16]
 1464 055c 9BF80030 		ldrb	r3, [fp, #0]	@ zero_extendqisi2
 1465              		.loc 1 236 0 is_stmt 1 discriminator 1
 1466 0560 C4BF     		itt	gt
 1467 0562 DDF810B0 		ldrgt	fp, [sp, #16]
 1468 0566 0BEB0A05 		addgt	r5, fp, sl
 1469              	.LVL157:
 1470 056a 8FE7     		b	.L92
 1471              	.LVL158:
 1472              	.L214:
 1473              	.LBE148:
 1474              		.loc 1 198 0
 1475 056c 6FF00405 		mvn	r5, #4
 1476 0570 B0E5     		b	.L166
 1477              	.LVL159:
 1478              	.L135:
ARM GAS  C:\Users\Elis\AppData\Local\Temp\ccRy7ydC.s 			page 27


 1479              		.loc 1 188 0
 1480 0572 0025     		movs	r5, #0
 1481 0574 AEE5     		b	.L166
 1482              	.LVL160:
 1483              	.L152:
 1484              		.loc 1 289 0
 1485 0576 0546     		mov	r5, r0
 1486 0578 ACE5     		b	.L166
 1487              	.LVL161:
 1488              	.L150:
 1489              		.loc 1 260 0
 1490 057a 6FF00305 		mvn	r5, #3
 1491 057e A9E5     		b	.L166
 1492              	.LVL162:
 1493              	.L225:
 1494              	.LBB149:
 1495              	.LBB136:
 1496              		.loc 1 178 0
 1497 0580 089C     		ldr	r4, [sp, #32]
 1498 0582 002C     		cmp	r4, #0
 1499 0584 3FF4F2AE 		beq	.L118
 1500 0588 F7E6     		b	.L95
 1501              	.LVL163:
 1502              	.L98:
 1503 058a 089D     		ldr	r5, [sp, #32]
 1504 058c 002D     		cmp	r5, #0
 1505 058e 3FF4F4AE 		beq	.L95
 1506 0592 EBE6     		b	.L118
 1507              	.LBE136:
 1508              	.LBE149:
 1509              		.cfi_endproc
 1510              	.LFE9:
 1511              		.size	bar, .-bar
 1512 0594 AFF30080 		.section	.text.doh,"ax",%progbits
 1512      AFF30080 
 1512      AFF30080 
 1513              		.align	2
 1514              		.p2align 4,,15
 1515              		.thumb
 1516              		.thumb_func
 1517              		.type	doh, %function
 1518              	doh:
 1519              	.LFB10:
 1520              		.loc 1 299 0
 1521              		.cfi_startproc
 1522              		@ args = 0, pretend = 0, frame = 0
 1523              		@ frame_needed = 0, uses_anonymous_args = 0
 1524              	.LVL164:
 1525 0000 2DE9F047 		push	{r4, r5, r6, r7, r8, r9, sl, lr}
 1526              	.LCFI4:
 1527              		.cfi_def_cfa_offset 32
 1528              		.cfi_offset 4, -32
 1529              		.cfi_offset 5, -28
 1530              		.cfi_offset 6, -24
 1531              		.cfi_offset 7, -20
 1532              		.cfi_offset 8, -16
 1533              		.cfi_offset 9, -12
ARM GAS  C:\Users\Elis\AppData\Local\Temp\ccRy7ydC.s 			page 28


 1534              		.cfi_offset 10, -8
 1535              		.cfi_offset 14, -4
 1536              		.loc 1 300 0
 1537 0004 02EB0316 		add	r6, r2, r3, lsl #4
 1538              	.LVL165:
 1539              		.loc 1 301 0
 1540 0008 0024     		movs	r4, #0
 1541              	.LVL166:
 1542              		.loc 1 299 0
 1543 000a 82B0     		sub	sp, sp, #8
 1544              	.LCFI5:
 1545              		.cfi_def_cfa_offset 40
 1546              		.loc 1 299 0
 1547 000c 1746     		mov	r7, r2
 1548 000e 9846     		mov	r8, r3
 1549 0010 8246     		mov	sl, r0
 1550 0012 8946     		mov	r9, r1
 1551 0014 F568     		ldr	r5, [r6, #12]
 1552              		.loc 1 305 0
 1553 0016 8CB9     		cbnz	r4, .L235
 1554              	.LVL167:
 1555              	.L245:
 1556              		.loc 1 305 0 is_stmt 0 discriminator 1
 1557 0018 3068     		ldr	r0, [r6, #0]
 1558              	.LVL168:
 1559              		.loc 1 306 0 is_stmt 1 discriminator 1
 1560 001a C5B9     		cbnz	r5, .L237
 1561              	.L246:
 1562 001c 7168     		ldr	r1, [r6, #4]
 1563              	.L238:
 1564              	.LVL169:
 1565              		.loc 1 310 0 discriminator 2
 1566 001e 8DE88001 		stmia	sp, {r7, r8}
 1567 0022 5246     		mov	r2, sl
 1568 0024 4B46     		mov	r3, r9
 1569 0026 FFF7FEFF 		bl	bar
 1570              	.LVL170:
 1571              		.loc 1 312 0 discriminator 2
 1572 002a 0028     		cmp	r0, #0
 1573 002c 19DC     		bgt	.L244
 1574              		.loc 1 312 0 is_stmt 0 discriminator 1
 1575 002e F568     		ldr	r5, [r6, #12]
 1576 0030 621C     		adds	r2, r4, #1
 1577              	.LVL171:
 1578 0032 AC42     		cmp	r4, r5
 1579 0034 15DA     		bge	.L244
 1580              		.loc 1 312 0
 1581 0036 1446     		mov	r4, r2
 1582              		.loc 1 305 0 is_stmt 1
 1583 0038 002C     		cmp	r4, #0
 1584 003a EDD0     		beq	.L245
 1585              	.LVL172:
 1586              	.L235:
 1587              		.loc 1 305 0 is_stmt 0 discriminator 2
 1588 003c B368     		ldr	r3, [r6, #8]
 1589 003e E018     		adds	r0, r4, r3
 1590 0040 07EBC001 		add	r1, r7, r0, lsl #3
ARM GAS  C:\Users\Elis\AppData\Local\Temp\ccRy7ydC.s 			page 29


 1591 0044 D1F84026 		ldr	r2, [r1, #1600]
 1592 0048 501C     		adds	r0, r2, #1
 1593              	.LVL173:
 1594              		.loc 1 306 0 is_stmt 1 discriminator 2
 1595 004a 002D     		cmp	r5, #0
 1596 004c E6D0     		beq	.L246
 1597              	.L237:
 1598              		.loc 1 307 0
 1599 004e AC42     		cmp	r4, r5
 1600 0050 0AD0     		beq	.L247
 1601              		.loc 1 308 0 discriminator 2
 1602 0052 B368     		ldr	r3, [r6, #8]
 1603 0054 E118     		adds	r1, r4, r3
 1604 0056 07EBC102 		add	r2, r7, r1, lsl #3
 1605              		.loc 1 307 0 discriminator 2
 1606 005a D2F84836 		ldr	r3, [r2, #1608]
 1607 005e 191A     		subs	r1, r3, r0
 1608 0060 DDE7     		b	.L238
 1609              	.LVL174:
 1610              	.L244:
 1611              		.loc 1 315 0
 1612 0062 02B0     		add	sp, sp, #8
 1613 0064 BDE8F087 		pop	{r4, r5, r6, r7, r8, r9, sl, pc}
 1614              	.LVL175:
 1615              	.L247:
 1616              		.loc 1 307 0 discriminator 1
 1617 0068 96E80A00 		ldmia	r6, {r1, r3}
 1618 006c C918     		adds	r1, r1, r3
 1619 006e 091A     		subs	r1, r1, r0
 1620 0070 D5E7     		b	.L238
 1621              		.cfi_endproc
 1622              	.LFE10:
 1623              		.size	doh, .-doh
 1624 0072 00BFAFF3 		.section	.text.slre_match,"ax",%progbits
 1624      0080AFF3 
 1624      0080AFF3 
 1624      0080
 1625              		.align	2
 1626              		.p2align 4,,15
 1627              		.global	slre_match
 1628              		.thumb
 1629              		.thumb_func
 1630              		.type	slre_match, %function
 1631              	slre_match:
 1632              	.LFB14:
 1633              		.loc 1 422 0
 1634              		.cfi_startproc
 1635              		@ args = 8, pretend = 0, frame = 2448
 1636              		@ frame_needed = 0, uses_anonymous_args = 0
 1637              	.LVL176:
 1638 0000 2DE9F04F 		push	{r4, r5, r6, r7, r8, r9, sl, fp, lr}
 1639              	.LCFI6:
 1640              		.cfi_def_cfa_offset 36
 1641              		.cfi_offset 4, -36
 1642              		.cfi_offset 5, -32
 1643              		.cfi_offset 6, -28
 1644              		.cfi_offset 7, -24
ARM GAS  C:\Users\Elis\AppData\Local\Temp\ccRy7ydC.s 			page 30


 1645              		.cfi_offset 8, -20
 1646              		.cfi_offset 9, -16
 1647              		.cfi_offset 10, -12
 1648              		.cfi_offset 11, -8
 1649              		.cfi_offset 14, -4
 1650 0004 ADF6941D 		subw	sp, sp, #2452
 1651              	.LCFI7:
 1652              		.cfi_def_cfa_offset 2488
 1653              		.loc 1 426 0
 1654 0008 0DF11C08 		add	r8, sp, #28
 1655              		.loc 1 428 0
 1656 000c DDF8B849 		ldr	r4, [sp, #2488]
 1657              		.loc 1 422 0
 1658 0010 0192     		str	r2, [sp, #4]
 1659              		.loc 1 426 0
 1660 0012 DDF8BC29 		ldr	r2, [sp, #2492]
 1661              	.LVL177:
 1662              		.loc 1 428 0
 1663 0016 C8F86C49 		str	r4, [r8, #2412]
 1664              		.loc 1 427 0
 1665 001a 0024     		movs	r4, #0
 1666              		.loc 1 422 0
 1667 001c 0746     		mov	r7, r0
 1668              		.loc 1 429 0
 1669 001e C8F86839 		str	r3, [r8, #2408]
 1670              		.loc 1 422 0
 1671 0022 0391     		str	r1, [sp, #12]
 1672              		.loc 1 426 0
 1673 0024 C8F87029 		str	r2, [r8, #2416]
 1674              		.loc 1 427 0
 1675 0028 C8F86449 		str	r4, [r8, #2404]
 1676 002c C8F84046 		str	r4, [r8, #1600]
 1677              		.loc 1 432 0
 1678 0030 FFF7FEFF 		bl	strlen
 1679              	.LVL178:
 1680              	.LBB159:
 1681              	.LBB160:
 1682              		.loc 1 368 0
 1683 0034 0123     		movs	r3, #1
 1684              		.loc 1 371 0
 1685 0036 A042     		cmp	r0, r4
 1686              	.LBE160:
 1687              	.LBE159:
 1688              		.loc 1 432 0
 1689 0038 0646     		mov	r6, r0
 1690              	.LVL179:
 1691              	.LBB177:
 1692              	.LBB173:
 1693              		.loc 1 366 0
 1694 003a C8F80070 		str	r7, [r8, #0]
 1695              		.loc 1 367 0
 1696 003e C8F80400 		str	r0, [r8, #4]
 1697              		.loc 1 368 0
 1698 0042 C8F84036 		str	r3, [r8, #1600]
 1699              	.LVL180:
 1700              		.loc 1 371 0
 1701 0046 40F3C181 		ble	.L274
ARM GAS  C:\Users\Elis\AppData\Local\Temp\ccRy7ydC.s 			page 31


 1702              		.loc 1 388 0
 1703 004a C248     		ldr	r0, .L346
 1704              	.LVL181:
 1705              		.loc 1 383 0
 1706 004c 711E     		subs	r1, r6, #1
 1707              		.loc 1 386 0
 1708 004e F51E     		subs	r5, r6, #3
 1709              		.loc 1 363 0
 1710 0050 A146     		mov	r9, r4
 1711              		.loc 1 388 0
 1712 0052 D0F800B0 		ldr	fp, [r0, #0]
 1713              		.loc 1 383 0
 1714 0056 0491     		str	r1, [sp, #16]
 1715              		.loc 1 386 0
 1716 0058 0595     		str	r5, [sp, #20]
 1717 005a 0BE0     		b	.L259
 1718              	.LVL182:
 1719              	.L250:
 1720              		.loc 1 382 0
 1721 005c 5C2B     		cmp	r3, #92
 1722 005e 00F04A81 		beq	.L340
 1723              		.loc 1 394 0
 1724 0062 282B     		cmp	r3, #40
 1725 0064 00F05681 		beq	.L341
 1726              		.loc 1 403 0
 1727 0068 292B     		cmp	r3, #41
 1728 006a 00F07781 		beq	.L342
 1729              	.LVL183:
 1730              	.L253:
 1731              		.loc 1 371 0
 1732 006e 5444     		add	r4, r4, sl
 1733              	.LVL184:
 1734 0070 A642     		cmp	r6, r4
 1735 0072 24DD     		ble	.L343
 1736              	.LVL185:
 1737              	.L259:
 1738              		.loc 1 372 0
 1739 0074 3D19     		adds	r5, r7, r4
 1740 0076 2846     		mov	r0, r5
 1741 0078 311B     		subs	r1, r6, r4
 1742 007a FFF7FEFF 		bl	get_op_len
 1743              	.LVL186:
 1744              		.loc 1 374 0
 1745 007e 3B5D     		ldrb	r3, [r7, r4]	@ zero_extendqisi2
 1746 0080 7C2B     		cmp	r3, #124
 1747              		.loc 1 372 0
 1748 0082 8246     		mov	sl, r0
 1749              	.LVL187:
 1750              		.loc 1 374 0
 1751 0084 EAD1     		bne	.L250
 1752              		.loc 1 375 0
 1753 0086 D8F86439 		ldr	r3, [r8, #2404]
 1754 008a 632B     		cmp	r3, #99
 1755 008c 00F3A681 		bgt	.L275
 1756              		.loc 1 378 0
 1757 0090 D8F84006 		ldr	r0, [r8, #1600]
 1758              	.LVL188:
ARM GAS  C:\Users\Elis\AppData\Local\Temp\ccRy7ydC.s 			page 32


 1759 0094 0138     		subs	r0, r0, #1
 1760 0096 08EB001E 		add	lr, r8, r0, lsl #4
 1761              		.loc 1 377 0
 1762 009a 03F1C801 		add	r1, r3, #200
 1763              		.loc 1 379 0
 1764 009e DEF80420 		ldr	r2, [lr, #4]
 1765              		.loc 1 377 0
 1766 00a2 08EBC101 		add	r1, r8, r1, lsl #3
 1767              		.loc 1 371 0
 1768 00a6 5444     		add	r4, r4, sl
 1769              		.loc 1 379 0
 1770 00a8 B2F1FF3F 		cmp	r2, #-1
 1771 00ac 18BF     		it	ne
 1772 00ae 4846     		movne	r0, r9
 1773              		.loc 1 381 0
 1774 00b0 0133     		adds	r3, r3, #1
 1775              		.loc 1 371 0
 1776 00b2 A642     		cmp	r6, r4
 1777              		.loc 1 377 0
 1778 00b4 4860     		str	r0, [r1, #4]
 1779              		.loc 1 380 0
 1780 00b6 8D60     		str	r5, [r1, #8]
 1781              		.loc 1 381 0
 1782 00b8 C8F86439 		str	r3, [r8, #2404]
 1783              	.LVL189:
 1784              		.loc 1 371 0
 1785 00bc DADC     		bgt	.L259
 1786              	.L343:
 1787              		.loc 1 415 0
 1788 00be B9F1000F 		cmp	r9, #0
 1789 00c2 40F08581 		bne	.L260
 1790 00c6 D8F86429 		ldr	r2, [r8, #2404]
 1791              	.LVL190:
 1792              	.L249:
 1793              		.loc 1 371 0
 1794 00ca 0024     		movs	r4, #0
 1795              	.LVL191:
 1796              	.LBB161:
 1797              	.LBB162:
 1798              		.loc 1 337 0
 1799 00cc 9442     		cmp	r4, r2
 1800 00ce CDF80880 		str	r8, [sp, #8]
 1801              	.LBE162:
 1802              	.LBE161:
 1803              		.loc 1 371 0
 1804 00d2 4546     		mov	r5, r8
 1805              	.LBB165:
 1806              	.LBB163:
 1807              		.loc 1 337 0
 1808 00d4 80F28580 		bge	.L344
 1809              	.LVL192:
 1810              	.L265:
 1811              		.loc 1 338 0
 1812 00d8 04F1010E 		add	lr, r4, #1
 1813              	.LVL193:
 1814 00dc 9645     		cmp	lr, r2
 1815 00de 7BDA     		bge	.L261
ARM GAS  C:\Users\Elis\AppData\Local\Temp\ccRy7ydC.s 			page 33


 1816              		.loc 1 421 0
 1817 00e0 04F1C807 		add	r7, r4, #200
 1818 00e4 08EBC703 		add	r3, r8, r7, lsl #3
 1819 00e8 1E1D     		adds	r6, r3, #4
 1820              		.loc 1 339 0
 1821 00ea D5F84406 		ldr	r0, [r5, #1604]
 1822 00ee B168     		ldr	r1, [r6, #8]
 1823 00f0 6FEA0E07 		mvn	r7, lr
 1824 00f4 BF18     		adds	r7, r7, r2
 1825 00f6 8842     		cmp	r0, r1
 1826 00f8 07F00107 		and	r7, r7, #1
 1827 00fc 40F36181 		ble	.L308
 1828              		.loc 1 341 0
 1829 0100 0C33     		adds	r3, r3, #12
 1830 0102 93E80300 		ldmia	r3, {r0, r1}
 1831              		.loc 1 342 0
 1832 0106 C934     		adds	r4, r4, #201
 1833              	.LVL194:
 1834              		.loc 1 340 0
 1835 0108 D6F800B0 		ldr	fp, [r6, #0]	@ unaligned
 1836 010c D6F804A0 		ldr	sl, [r6, #4]	@ unaligned
 1837              		.loc 1 342 0
 1838 0110 08EBC404 		add	r4, r8, r4, lsl #3
 1839              	.LVL195:
 1840              		.loc 1 341 0
 1841 0114 05F24469 		addw	r9, r5, #1604
 1842 0118 89E80300 		stmia	r9, {r0, r1}
 1843              		.loc 1 342 0
 1844 011c C4F804B0 		str	fp, [r4, #4]	@ unaligned
 1845 0120 C4F808A0 		str	sl, [r4, #8]	@ unaligned
 1846              	.L332:
 1847              		.loc 1 338 0
 1848 0124 0EF10104 		add	r4, lr, #1
 1849 0128 9442     		cmp	r4, r2
 1850 012a 1946     		mov	r1, r3
 1851 012c 52D0     		beq	.L333
 1852 012e DFB1     		cbz	r7, .L263
 1853              		.loc 1 339 0
 1854 0130 9968     		ldr	r1, [r3, #8]
 1855 0132 D5F84406 		ldr	r0, [r5, #1604]
 1856              		.loc 1 341 0
 1857 0136 0833     		adds	r3, r3, #8
 1858              		.loc 1 339 0
 1859 0138 8842     		cmp	r0, r1
 1860 013a 11DD     		ble	.L334
 1861              		.loc 1 341 0
 1862 013c 93E80300 		ldmia	r3, {r0, r1}
 1863              		.loc 1 342 0
 1864 0140 0EF1C907 		add	r7, lr, #201
 1865              		.loc 1 340 0
 1866 0144 D6F800B0 		ldr	fp, [r6, #0]	@ unaligned
 1867 0148 D6F804A0 		ldr	sl, [r6, #4]	@ unaligned
 1868              		.loc 1 342 0
 1869 014c 08EBC707 		add	r7, r8, r7, lsl #3
 1870              		.loc 1 341 0
 1871 0150 05F24469 		addw	r9, r5, #1604
 1872 0154 89E80300 		stmia	r9, {r0, r1}
ARM GAS  C:\Users\Elis\AppData\Local\Temp\ccRy7ydC.s 			page 34


 1873              		.loc 1 342 0
 1874 0158 C7F804B0 		str	fp, [r7, #4]	@ unaligned
 1875 015c C7F808A0 		str	sl, [r7, #8]	@ unaligned
 1876              	.L334:
 1877              		.loc 1 338 0
 1878 0160 0134     		adds	r4, r4, #1
 1879 0162 9442     		cmp	r4, r2
 1880 0164 1946     		mov	r1, r3
 1881 0166 35D0     		beq	.L333
 1882              	.L263:
 1883              		.loc 1 339 0
 1884 0168 D5F84476 		ldr	r7, [r5, #1604]
 1885 016c 8868     		ldr	r0, [r1, #8]
 1886 016e 8742     		cmp	r7, r0
 1887              		.loc 1 341 0
 1888 0170 01F10803 		add	r3, r1, #8
 1889              		.loc 1 342 0
 1890 0174 04F1C807 		add	r7, r4, #200
 1891              		.loc 1 339 0
 1892 0178 0FDD     		ble	.L262
 1893              		.loc 1 341 0
 1894 017a 93E80300 		ldmia	r3, {r0, r1}
 1895              		.loc 1 340 0
 1896 017e D6F800A0 		ldr	sl, [r6, #0]	@ unaligned
 1897              	.LVL196:
 1898 0182 D6F80490 		ldr	r9, [r6, #4]	@ unaligned
 1899              	.LVL197:
 1900              		.loc 1 342 0
 1901 0186 08EBC707 		add	r7, r8, r7, lsl #3
 1902              		.loc 1 341 0
 1903 018a 05F2446B 		addw	fp, r5, #1604
 1904 018e 8BE80300 		stmia	fp, {r0, r1}
 1905              		.loc 1 342 0
 1906 0192 C7F804A0 		str	sl, [r7, #4]	@ unaligned
 1907 0196 C7F80890 		str	r9, [r7, #8]	@ unaligned
 1908              	.LVL198:
 1909              	.L262:
 1910              		.loc 1 339 0
 1911 019a D5F84406 		ldr	r0, [r5, #1604]
 1912 019e 9968     		ldr	r1, [r3, #8]
 1913              		.loc 1 338 0
 1914 01a0 671C     		adds	r7, r4, #1
 1915              		.loc 1 339 0
 1916 01a2 8842     		cmp	r0, r1
 1917 01a4 11DD     		ble	.L325
 1918              		.loc 1 341 0
 1919 01a6 03F10800 		add	r0, r3, #8
 1920 01aa 03C8     		ldmia	r0, {r0, r1}
 1921              		.loc 1 342 0
 1922 01ac C934     		adds	r4, r4, #201
 1923              		.loc 1 340 0
 1924 01ae D6F800B0 		ldr	fp, [r6, #0]	@ unaligned
 1925 01b2 D6F804A0 		ldr	sl, [r6, #4]	@ unaligned
 1926              		.loc 1 342 0
 1927 01b6 08EBC404 		add	r4, r8, r4, lsl #3
 1928              		.loc 1 341 0
 1929 01ba 05F24469 		addw	r9, r5, #1604
ARM GAS  C:\Users\Elis\AppData\Local\Temp\ccRy7ydC.s 			page 35


 1930 01be 89E80300 		stmia	r9, {r0, r1}
 1931              		.loc 1 342 0
 1932 01c2 C4F804B0 		str	fp, [r4, #4]	@ unaligned
 1933 01c6 C4F808A0 		str	sl, [r4, #8]	@ unaligned
 1934              	.L325:
 1935              		.loc 1 338 0
 1936 01ca 7C1C     		adds	r4, r7, #1
 1937 01cc 9442     		cmp	r4, r2
 1938 01ce 03F10801 		add	r1, r3, #8
 1939 01d2 C9D1     		bne	.L263
 1940              	.L333:
 1941 01d4 D8F86429 		ldr	r2, [r8, #2404]
 1942              	.L261:
 1943              	.LBE163:
 1944              	.LBE165:
 1945 01d8 7446     		mov	r4, lr
 1946              	.LVL199:
 1947 01da 0835     		adds	r5, r5, #8
 1948              	.LBB166:
 1949              	.LBB164:
 1950              		.loc 1 337 0
 1951 01dc 9442     		cmp	r4, r2
 1952 01de FFF67BAF 		blt	.L265
 1953              	.LVL200:
 1954              	.L344:
 1955              		.loc 1 351 0
 1956 01e2 D8F84076 		ldr	r7, [r8, #1600]
 1957 01e6 002F     		cmp	r7, #0
 1958 01e8 3BDD     		ble	.L272
 1959 01ea 0023     		movs	r3, #0
 1960              		.loc 1 352 0
 1961 01ec DDF80890 		ldr	r9, [sp, #8]
 1962              		.loc 1 351 0
 1963 01f0 1846     		mov	r0, r3
 1964              		.loc 1 352 0
 1965 01f2 9C46     		mov	ip, r3
 1966              	.LVL201:
 1967              	.L266:
 1968              		.loc 1 354 0
 1969 01f4 9A42     		cmp	r2, r3
 1970              		.loc 1 352 0
 1971 01f6 C9F80CC0 		str	ip, [r9, #12]
 1972              		.loc 1 353 0
 1973 01fa C9F80830 		str	r3, [r9, #8]
 1974              	.LVL202:
 1975              		.loc 1 354 0
 1976 01fe 2BDD     		ble	.L269
 1977 0200 03F1C806 		add	r6, r3, #200
 1978 0204 08EBC604 		add	r4, r8, r6, lsl #3
 1979 0208 6168     		ldr	r1, [r4, #4]
 1980 020a 8842     		cmp	r0, r1
 1981 020c 24D1     		bne	.L269
 1982 020e DD43     		mvns	r5, r3
 1983 0210 AE18     		adds	r6, r5, r2
 1984              		.loc 1 421 0
 1985 0212 211D     		adds	r1, r4, #4
 1986 0214 F607     		lsls	r6, r6, #31
ARM GAS  C:\Users\Elis\AppData\Local\Temp\ccRy7ydC.s 			page 36


 1987 0216 C3F10105 		rsb	r5, r3, #1
 1988 021a 14D5     		bpl	.L271
 1989              		.loc 1 354 0
 1990 021c D4F80CA0 		ldr	sl, [r4, #12]
 1991              		.loc 1 421 0
 1992 0220 EE18     		adds	r6, r5, r3
 1993              		.loc 1 356 0
 1994 0222 0133     		adds	r3, r3, #1
 1995              	.LVL203:
 1996              		.loc 1 354 0
 1997 0224 5045     		cmp	r0, sl
 1998 0226 04F10C01 		add	r1, r4, #12
 1999 022a 0CD0     		beq	.L271
 2000 022c CBE0     		b	.L331
 2001              	.L270:
 2002 022e 8968     		ldr	r1, [r1, #8]
 2003 0230 8842     		cmp	r0, r1
 2004 0232 04F10801 		add	r1, r4, #8
 2005 0236 40F0C680 		bne	.L331
 2006 023a A468     		ldr	r4, [r4, #8]
 2007              		.loc 1 421 0
 2008 023c EE18     		adds	r6, r5, r3
 2009              		.loc 1 356 0
 2010 023e 0133     		adds	r3, r3, #1
 2011              	.LVL204:
 2012              		.loc 1 354 0
 2013 0240 A042     		cmp	r0, r4
 2014 0242 40F0C080 		bne	.L331
 2015              	.L271:
 2016              		.loc 1 421 0
 2017 0246 EE18     		adds	r6, r5, r3
 2018              		.loc 1 356 0
 2019 0248 0133     		adds	r3, r3, #1
 2020              	.LVL205:
 2021              		.loc 1 354 0
 2022 024a 9342     		cmp	r3, r2
 2023 024c 01F10804 		add	r4, r1, #8
 2024 0250 EDD1     		bne	.L270
 2025 0252 C9F80C60 		str	r6, [r9, #12]
 2026              		.loc 1 356 0
 2027 0256 1346     		mov	r3, r2
 2028              	.LVL206:
 2029              	.L269:
 2030              		.loc 1 351 0
 2031 0258 0130     		adds	r0, r0, #1
 2032              	.LVL207:
 2033 025a B842     		cmp	r0, r7
 2034 025c 09F11009 		add	r9, r9, #16
 2035 0260 C8D1     		bne	.L266
 2036              	.LVL208:
 2037              	.L272:
 2038              	.LBE164:
 2039              	.LBE166:
 2040              	.LBB167:
 2041              	.LBB168:
 2042              		.loc 1 320 0
 2043 0262 0199     		ldr	r1, [sp, #4]
ARM GAS  C:\Users\Elis\AppData\Local\Temp\ccRy7ydC.s 			page 37


 2044              		.loc 1 318 0
 2045 0264 D8F80020 		ldr	r2, [r8, #0]
 2046              		.loc 1 320 0
 2047 0268 0029     		cmp	r1, #0
 2048              		.loc 1 318 0
 2049 026a 1678     		ldrb	r6, [r2, #0]	@ zero_extendqisi2
 2050              	.LVL209:
 2051              		.loc 1 320 0
 2052 026c C0F29380 		blt	.L285
 2053 0270 0025     		movs	r5, #0
 2054              		.loc 1 321 0
 2055 0272 0199     		ldr	r1, [sp, #4]
 2056 0274 0398     		ldr	r0, [sp, #12]
 2057 0276 4246     		mov	r2, r8
 2058 0278 2B46     		mov	r3, r5
 2059 027a 01F00107 		and	r7, r1, #1
 2060 027e FFF7FEFF 		bl	doh
 2061              	.LVL210:
 2062              		.loc 1 322 0
 2063 0282 041E     		subs	r4, r0, #0
 2064 0284 30DA     		bge	.L330
 2065              		.loc 1 326 0
 2066 0286 5E2E     		cmp	r6, #94
 2067 0288 2FD0     		beq	.L251
 2068              		.loc 1 320 0
 2069 028a 019B     		ldr	r3, [sp, #4]
 2070 028c 0125     		movs	r5, #1
 2071              	.LVL211:
 2072 028e AB42     		cmp	r3, r5
 2073 0290 2BDB     		blt	.L251
 2074 0292 67B1     		cbz	r7, .L337
 2075              		.loc 1 321 0
 2076 0294 039C     		ldr	r4, [sp, #12]
 2077 0296 591E     		subs	r1, r3, #1
 2078 0298 6019     		adds	r0, r4, r5
 2079 029a 0023     		movs	r3, #0
 2080 029c 4246     		mov	r2, r8
 2081 029e FFF7FEFF 		bl	doh
 2082              	.LVL212:
 2083              		.loc 1 322 0
 2084 02a2 041E     		subs	r4, r0, #0
 2085 02a4 20DA     		bge	.L330
 2086              		.loc 1 320 0
 2087 02a6 0198     		ldr	r0, [sp, #4]
 2088              	.LVL213:
 2089 02a8 0225     		movs	r5, #2
 2090              	.LVL214:
 2091 02aa A842     		cmp	r0, r5
 2092 02ac 1DDB     		blt	.L251
 2093              	.L337:
 2094 02ae DDF80C90 		ldr	r9, [sp, #12]
 2095 02b2 019F     		ldr	r7, [sp, #4]
 2096 02b4 0DE0     		b	.L267
 2097              	.LVL215:
 2098              	.L273:
 2099 02b6 0135     		adds	r5, r5, #1
 2100              	.LVL216:
ARM GAS  C:\Users\Elis\AppData\Local\Temp\ccRy7ydC.s 			page 38


 2101              		.loc 1 326 0
 2102 02b8 5E2E     		cmp	r6, #94
 2103              		.loc 1 321 0
 2104 02ba 09EB0500 		add	r0, r9, r5
 2105 02be C5EB0701 		rsb	r1, r5, r7
 2106              		.loc 1 326 0
 2107 02c2 12D0     		beq	.L251
 2108              		.loc 1 321 0
 2109 02c4 FFF7FEFF 		bl	doh
 2110              	.LVL217:
 2111              		.loc 1 322 0
 2112 02c8 041E     		subs	r4, r0, #0
 2113 02ca 0DDA     		bge	.L330
 2114              		.loc 1 320 0
 2115 02cc 0135     		adds	r5, r5, #1
 2116              	.LVL218:
 2117 02ce AF42     		cmp	r7, r5
 2118 02d0 0BDB     		blt	.L251
 2119              	.L267:
 2120              		.loc 1 321 0
 2121 02d2 0023     		movs	r3, #0
 2122 02d4 4246     		mov	r2, r8
 2123 02d6 791B     		subs	r1, r7, r5
 2124 02d8 09EB0500 		add	r0, r9, r5
 2125 02dc FFF7FEFF 		bl	doh
 2126              	.LVL219:
 2127 02e0 0023     		movs	r3, #0
 2128              		.loc 1 322 0
 2129 02e2 041E     		subs	r4, r0, #0
 2130              		.loc 1 321 0
 2131 02e4 4246     		mov	r2, r8
 2132              		.loc 1 322 0
 2133 02e6 E6DB     		blt	.L273
 2134              	.LVL220:
 2135              	.L330:
 2136              		.loc 1 323 0
 2137 02e8 6419     		adds	r4, r4, r5
 2138              	.LVL221:
 2139              	.L251:
 2140              	.LBE168:
 2141              	.LBE167:
 2142              	.LBE173:
 2143              	.LBE177:
 2144              		.loc 1 433 0
 2145 02ea 2046     		mov	r0, r4
 2146 02ec 65B0     		add	sp, sp, #404
 2147 02ee 0DF5006D 		add	sp, sp, #2048
 2148 02f2 BDE8F08F 		pop	{r4, r5, r6, r7, r8, r9, sl, fp, pc}
 2149              	.LVL222:
 2150              	.L340:
 2151              	.LBB178:
 2152              	.LBB174:
 2153              		.loc 1 383 0
 2154 02f6 049B     		ldr	r3, [sp, #16]
 2155 02f8 A342     		cmp	r3, r4
 2156 02fa 08DD     		ble	.L281
 2157              		.loc 1 384 0
ARM GAS  C:\Users\Elis\AppData\Local\Temp\ccRy7ydC.s 			page 39


 2158 02fc 6978     		ldrb	r1, [r5, #1]	@ zero_extendqisi2
 2159 02fe 7829     		cmp	r1, #120
 2160 0300 4CD0     		beq	.L345
 2161              	.LBB169:
 2162              	.LBB170:
 2163              		.loc 1 78 0
 2164 0302 1548     		ldr	r0, .L346+4
 2165              	.LVL223:
 2166 0304 FFF7FEFF 		bl	strchr
 2167              	.LVL224:
 2168              	.LBE170:
 2169              	.LBE169:
 2170              		.loc 1 391 0
 2171 0308 0028     		cmp	r0, #0
 2172 030a 7FF4B0AE 		bne	.L253
 2173              	.L281:
 2174              		.loc 1 383 0
 2175 030e 6FF00504 		mvn	r4, #5
 2176 0312 EAE7     		b	.L251
 2177              	.LVL225:
 2178              	.L341:
 2179              		.loc 1 395 0
 2180 0314 D8F84036 		ldr	r3, [r8, #1600]
 2181 0318 632B     		cmp	r3, #99
 2182 031a 5CDC     		bgt	.L282
 2183              		.loc 1 398 0
 2184 031c 1901     		lsls	r1, r3, #4
 2185 031e 04F1010C 		add	ip, r4, #1
 2186 0322 07EB0C02 		add	r2, r7, ip
 2187 0326 48F80120 		str	r2, [r8, r1]
 2188              		.loc 1 401 0
 2189 032a DDF8B829 		ldr	r2, [sp, #2488]
 2190              		.loc 1 398 0
 2191 032e 08EB0105 		add	r5, r8, r1
 2192              		.loc 1 400 0
 2193 0332 581C     		adds	r0, r3, #1
 2194              	.LVL226:
 2195              		.loc 1 399 0
 2196 0334 4FF0FF31 		mov	r1, #-1
 2197              		.loc 1 401 0
 2198 0338 002A     		cmp	r2, #0
 2199              		.loc 1 399 0
 2200 033a 6960     		str	r1, [r5, #4]
 2201              		.loc 1 400 0
 2202 033c C8F84006 		str	r0, [r8, #1600]
 2203              		.loc 1 397 0
 2204 0340 09F10109 		add	r9, r9, #1
 2205              	.LVL227:
 2206              		.loc 1 401 0
 2207 0344 7FF793AE 		ble	.L253
 2208 0348 9A42     		cmp	r2, r3
 2209 034a BFF690AE 		bge	.L253
 2210 034e 6FF00604 		mvn	r4, #6
 2211 0352 CAE7     		b	.L251
 2212              	.L347:
 2213              		.align	2
 2214              	.L346:
ARM GAS  C:\Users\Elis\AppData\Local\Temp\ccRy7ydC.s 			page 40


 2215 0354 00000000 		.word	__ctype_ptr__
 2216 0358 00000000 		.word	.LC0
 2217              	.LVL228:
 2218              	.L342:
 2219              	.LBB171:
 2220              		.loc 1 404 0
 2221 035c D8F84026 		ldr	r2, [r8, #1600]
 2222 0360 501E     		subs	r0, r2, #1
 2223              	.LVL229:
 2224 0362 0301     		lsls	r3, r0, #4
 2225 0364 08EB0301 		add	r1, r8, r3
 2226              		.loc 1 405 0
 2227 0368 4A68     		ldr	r2, [r1, #4]
 2228 036a 511C     		adds	r1, r2, #1
 2229 036c 18BF     		it	ne
 2230 036e 4FEA0913 		lslne	r3, r9, #4
 2231              		.loc 1 409 0
 2232 0372 09F1FF39 		add	r9, r9, #-1
 2233              	.LVL230:
 2234              		.loc 1 406 0
 2235 0376 58F80300 		ldr	r0, [r8, r3]
 2236 037a 4344     		add	r3, r8, r3
 2237 037c 291A     		subs	r1, r5, r0
 2238              		.loc 1 410 0
 2239 037e B9F1FF3F 		cmp	r9, #-1
 2240              		.loc 1 406 0
 2241 0382 5960     		str	r1, [r3, #4]
 2242              		.loc 1 410 0
 2243 0384 24D0     		beq	.L260
 2244              		.loc 1 411 0
 2245 0386 002C     		cmp	r4, #0
 2246 0388 7FF771AE 		ble	.L253
 2247 038c 15F8012C 		ldrb	r2, [r5, #-1]	@ zero_extendqisi2
 2248 0390 282A     		cmp	r2, #40
 2249 0392 7FF46CAE 		bne	.L253
 2250              	.LVL231:
 2251              	.L285:
 2252 0396 4FF0FF34 		mov	r4, #-1
 2253 039a A6E7     		b	.L251
 2254              	.LVL232:
 2255              	.L345:
 2256              	.LBE171:
 2257              		.loc 1 386 0
 2258 039c 0598     		ldr	r0, [sp, #20]
 2259              	.LVL233:
 2260 039e A042     		cmp	r0, r4
 2261 03a0 B5DD     		ble	.L281
 2262              		.loc 1 388 0
 2263 03a2 A978     		ldrb	r1, [r5, #2]	@ zero_extendqisi2
 2264 03a4 0BEB0102 		add	r2, fp, r1
 2265              	.LBE174:
 2266 03a8 5378     		ldrb	r3, [r2, #1]	@ zero_extendqisi2
 2267              	.LBB175:
 2268 03aa 13F0440F 		tst	r3, #68
 2269 03ae AED0     		beq	.L281
 2270 03b0 E878     		ldrb	r0, [r5, #3]	@ zero_extendqisi2
 2271 03b2 0BEB0001 		add	r1, fp, r0
ARM GAS  C:\Users\Elis\AppData\Local\Temp\ccRy7ydC.s 			page 41


 2272              	.LBE175:
 2273 03b6 4A78     		ldrb	r2, [r1, #1]	@ zero_extendqisi2
 2274              	.LBB176:
 2275 03b8 12F0440F 		tst	r2, #68
 2276 03bc 7FF457AE 		bne	.L253
 2277 03c0 A5E7     		b	.L281
 2278              	.LVL234:
 2279              	.L308:
 2280 03c2 0C33     		adds	r3, r3, #12
 2281 03c4 AEE6     		b	.L332
 2282              	.LVL235:
 2283              	.L331:
 2284 03c6 C9F80C60 		str	r6, [r9, #12]
 2285 03ca 45E7     		b	.L269
 2286              	.LVL236:
 2287              	.L274:
 2288              		.loc 1 371 0
 2289 03cc 2246     		mov	r2, r4
 2290 03ce 7CE6     		b	.L249
 2291              	.LVL237:
 2292              	.L260:
 2293              	.LBB172:
 2294              		.loc 1 410 0
 2295 03d0 6FF00204 		mvn	r4, #2
 2296 03d4 89E7     		b	.L251
 2297              	.LVL238:
 2298              	.L282:
 2299              	.LBE172:
 2300              		.loc 1 395 0
 2301 03d6 6FF00804 		mvn	r4, #8
 2302 03da 86E7     		b	.L251
 2303              	.L275:
 2304              		.loc 1 375 0
 2305 03dc 6FF00704 		mvn	r4, #7
 2306 03e0 83E7     		b	.L251
 2307              	.LBE176:
 2308              	.LBE178:
 2309              		.cfi_endproc
 2310              	.LFE14:
 2311              		.size	slre_match, .-slre_match
 2312 03e2 00BFAFF3 		.section	.rodata.str1.4,"aMS",%progbits,1
 2312      0080AFF3 
 2312      0080AFF3 
 2312      0080
 2313              		.align	2
 2314              	.LC0:
 2315 0000 5E242829 		.ascii	"^$().[]*+?|\\Ssdbfnrtv\000"
 2315      2E5B5D2A 
 2315      2B3F7C5C 
 2315      53736462 
 2315      666E7274 
 2316 0016 0000     		.text
 2317              	.Letext0:
 2318              		.file 2 "../../workspace26/Mobile_phone/regex/slre.h"
 2319              		.file 3 "c:\\chibistudio\\tools\\gnu tools arm embedded\\4.7 2014q2\\bin\\../lib/gcc/arm-none-eabi
 2320              		.file 4 "c:\\chibistudio\\tools\\gnu tools arm embedded\\4.7 2014q2\\bin\\../lib/gcc/arm-none-eabi
 2321              		.file 5 "c:\\chibistudio\\tools\\gnu tools arm embedded\\4.7 2014q2\\bin\\../lib/gcc/arm-none-eabi
ARM GAS  C:\Users\Elis\AppData\Local\Temp\ccRy7ydC.s 			page 42

