ARM GAS  C:\Users\Elis\AppData\Local\Temp\ccWYCsfD.s 			page 1


   1              		.syntax unified
   2              		.cpu cortex-m4
   3              		.fpu softvfp
   4              		.eabi_attribute 20, 1
   5              		.eabi_attribute 21, 1
   6              		.eabi_attribute 23, 3
   7              		.eabi_attribute 24, 1
   8              		.eabi_attribute 25, 1
   9              		.eabi_attribute 26, 1
  10              		.eabi_attribute 30, 2
  11              		.eabi_attribute 34, 1
  12              		.eabi_attribute 18, 4
  13              		.thumb
  14              		.file	"spi.c"
  15              		.text
  16              	.Ltext0:
  17              		.cfi_sections	.debug_frame
  18              		.section	.text.spiInit,"ax",%progbits
  19              		.align	2
  20              		.p2align 4,,15
  21              		.global	spiInit
  22              		.thumb
  23              		.thumb_func
  24              		.type	spiInit, %function
  25              	spiInit:
  26              	.LFB118:
  27              		.file 1 "../../chibios/os/hal/src/spi.c"
  28              		.loc 1 68 0
  29              		.cfi_startproc
  30              		@ args = 0, pretend = 0, frame = 0
  31              		@ frame_needed = 0, uses_anonymous_args = 0
  32              		@ link register save eliminated.
  33              		.loc 1 71 0
  34              		.loc 1 70 0
  35 0000 FFF7FEBF 		b	spi_lld_init
  36              	.LVL0:
  37              		.cfi_endproc
  38              	.LFE118:
  39              		.size	spiInit, .-spiInit
  40 0004 AFF30080 		.section	.text.spiObjectInit,"ax",%progbits
  40      AFF30080 
  40      AFF30080 
  41              		.align	2
  42              		.p2align 4,,15
  43              		.global	spiObjectInit
  44              		.thumb
  45              		.thumb_func
  46              		.type	spiObjectInit, %function
  47              	spiObjectInit:
  48              	.LFB119:
  49              		.loc 1 80 0
  50              		.cfi_startproc
  51              		@ args = 0, pretend = 0, frame = 0
  52              		@ frame_needed = 0, uses_anonymous_args = 0
  53              		@ link register save eliminated.
  54              	.LVL1:
  55              		.loc 1 83 0
ARM GAS  C:\Users\Elis\AppData\Local\Temp\ccWYCsfD.s 			page 2


  56 0000 0023     		movs	r3, #0
  57              		.loc 1 82 0
  58 0002 0122     		movs	r2, #1
  59 0004 0270     		strb	r2, [r0, #0]
  60              		.loc 1 83 0
  61 0006 4360     		str	r3, [r0, #4]
  62              		.loc 1 85 0
  63 0008 8360     		str	r3, [r0, #8]
  64              		.loc 1 89 0
  65 000a 0C30     		adds	r0, r0, #12
  66              	.LVL2:
  67              		.loc 1 97 0
  68              		.loc 1 89 0
  69 000c FFF7FEBF 		b	chMtxInit
  70              	.LVL3:
  71              		.cfi_endproc
  72              	.LFE119:
  73              		.size	spiObjectInit, .-spiObjectInit
  74              		.section	.text.spiStart,"ax",%progbits
  75              		.align	2
  76              		.p2align 4,,15
  77              		.global	spiStart
  78              		.thumb
  79              		.thumb_func
  80              		.type	spiStart, %function
  81              	spiStart:
  82              	.LFB120:
  83              		.loc 1 107 0
  84              		.cfi_startproc
  85              		@ args = 0, pretend = 0, frame = 0
  86              		@ frame_needed = 0, uses_anonymous_args = 0
  87              	.LVL4:
  88 0000 38B5     		push	{r3, r4, r5, lr}
  89              	.LCFI0:
  90              		.cfi_def_cfa_offset 16
  91              		.cfi_offset 3, -16
  92              		.cfi_offset 4, -12
  93              		.cfi_offset 5, -8
  94              		.cfi_offset 14, -4
  95              		.loc 1 107 0
  96 0002 0446     		mov	r4, r0
  97 0004 0D46     		mov	r5, r1
  98              	.LBB2:
  99              		.loc 1 111 0
 100 0006 2023     		movs	r3, #32
 101              	.LVL5:
 102              	@ 111 "../../chibios/os/hal/src/spi.c" 1
 103 0008 83F31188 		msr     BASEPRI, r3
 104              	@ 0 "" 2
 105              	.LVL6:
 106              		.thumb
 107              	.LBE2:
 108 000c FFF7FEFF 		bl	dbg_check_lock
 109              	.LVL7:
 110              		.loc 1 115 0
 111 0010 2046     		mov	r0, r4
 112              		.loc 1 114 0
ARM GAS  C:\Users\Elis\AppData\Local\Temp\ccWYCsfD.s 			page 3


 113 0012 6560     		str	r5, [r4, #4]
 114              		.loc 1 115 0
 115 0014 FFF7FEFF 		bl	spi_lld_start
 116              	.LVL8:
 117              		.loc 1 116 0
 118 0018 0223     		movs	r3, #2
 119 001a 2370     		strb	r3, [r4, #0]
 120              		.loc 1 117 0
 121 001c FFF7FEFF 		bl	dbg_check_unlock
 122              	.LVL9:
 123              	.LBB3:
 124 0020 0023     		movs	r3, #0
 125              	.LVL10:
 126              	@ 117 "../../chibios/os/hal/src/spi.c" 1
 127 0022 83F31188 		msr     BASEPRI, r3
 128              	@ 0 "" 2
 129              	.LVL11:
 130              		.thumb
 131 0026 38BD     		pop	{r3, r4, r5, pc}
 132              	.LBE3:
 133              		.cfi_endproc
 134              	.LFE120:
 135              		.size	spiStart, .-spiStart
 136 0028 AFF30080 		.section	.text.spiStop,"ax",%progbits
 136      AFF30080 
 137              		.align	2
 138              		.p2align 4,,15
 139              		.global	spiStop
 140              		.thumb
 141              		.thumb_func
 142              		.type	spiStop, %function
 143              	spiStop:
 144              	.LFB121:
 145              		.loc 1 129 0
 146              		.cfi_startproc
 147              		@ args = 0, pretend = 0, frame = 0
 148              		@ frame_needed = 0, uses_anonymous_args = 0
 149              	.LVL12:
 150 0000 10B5     		push	{r4, lr}
 151              	.LCFI1:
 152              		.cfi_def_cfa_offset 8
 153              		.cfi_offset 4, -8
 154              		.cfi_offset 14, -4
 155              	.LBB4:
 156              		.loc 1 133 0
 157 0002 2023     		movs	r3, #32
 158              	.LVL13:
 159              	.LBE4:
 160              		.loc 1 129 0
 161 0004 0446     		mov	r4, r0
 162              	.LBB5:
 163              		.loc 1 133 0
 164              	@ 133 "../../chibios/os/hal/src/spi.c" 1
 165 0006 83F31188 		msr     BASEPRI, r3
 166              	@ 0 "" 2
 167              	.LVL14:
 168              		.thumb
ARM GAS  C:\Users\Elis\AppData\Local\Temp\ccWYCsfD.s 			page 4


 169              	.LBE5:
 170 000a FFF7FEFF 		bl	dbg_check_lock
 171              	.LVL15:
 172              		.loc 1 136 0
 173 000e 2046     		mov	r0, r4
 174 0010 FFF7FEFF 		bl	spi_lld_unselect
 175              	.LVL16:
 176              		.loc 1 137 0
 177 0014 2046     		mov	r0, r4
 178 0016 FFF7FEFF 		bl	spi_lld_stop
 179              	.LVL17:
 180              		.loc 1 138 0
 181 001a 0123     		movs	r3, #1
 182 001c 2370     		strb	r3, [r4, #0]
 183              		.loc 1 139 0
 184 001e FFF7FEFF 		bl	dbg_check_unlock
 185              	.LVL18:
 186              	.LBB6:
 187 0022 0023     		movs	r3, #0
 188              	.LVL19:
 189              	@ 139 "../../chibios/os/hal/src/spi.c" 1
 190 0024 83F31188 		msr     BASEPRI, r3
 191              	@ 0 "" 2
 192              	.LVL20:
 193              		.thumb
 194 0028 10BD     		pop	{r4, pc}
 195              	.LBE6:
 196              		.cfi_endproc
 197              	.LFE121:
 198              		.size	spiStop, .-spiStop
 199 002a 00BFAFF3 		.section	.text.spiSelect,"ax",%progbits
 199      0080
 200              		.align	2
 201              		.p2align 4,,15
 202              		.global	spiSelect
 203              		.thumb
 204              		.thumb_func
 205              		.type	spiSelect, %function
 206              	spiSelect:
 207              	.LFB122:
 208              		.loc 1 149 0
 209              		.cfi_startproc
 210              		@ args = 0, pretend = 0, frame = 0
 211              		@ frame_needed = 0, uses_anonymous_args = 0
 212              	.LVL21:
 213 0000 10B5     		push	{r4, lr}
 214              	.LCFI2:
 215              		.cfi_def_cfa_offset 8
 216              		.cfi_offset 4, -8
 217              		.cfi_offset 14, -4
 218              	.LBB7:
 219              		.loc 1 153 0
 220 0002 2023     		movs	r3, #32
 221              	.LVL22:
 222              	.LBE7:
 223              		.loc 1 149 0
 224 0004 0446     		mov	r4, r0
ARM GAS  C:\Users\Elis\AppData\Local\Temp\ccWYCsfD.s 			page 5


 225              	.LBB8:
 226              		.loc 1 153 0
 227              	@ 153 "../../chibios/os/hal/src/spi.c" 1
 228 0006 83F31188 		msr     BASEPRI, r3
 229              	@ 0 "" 2
 230              	.LVL23:
 231              		.thumb
 232              	.LBE8:
 233 000a FFF7FEFF 		bl	dbg_check_lock
 234              	.LVL24:
 235              		.loc 1 155 0
 236 000e 2046     		mov	r0, r4
 237 0010 FFF7FEFF 		bl	spi_lld_select
 238              	.LVL25:
 239              		.loc 1 156 0
 240 0014 FFF7FEFF 		bl	dbg_check_unlock
 241              	.LVL26:
 242              	.LBB9:
 243 0018 0023     		movs	r3, #0
 244              	.LVL27:
 245              	@ 156 "../../chibios/os/hal/src/spi.c" 1
 246 001a 83F31188 		msr     BASEPRI, r3
 247              	@ 0 "" 2
 248              	.LVL28:
 249              		.thumb
 250 001e 10BD     		pop	{r4, pc}
 251              	.LBE9:
 252              		.cfi_endproc
 253              	.LFE122:
 254              		.size	spiSelect, .-spiSelect
 255              		.section	.text.spiUnselect,"ax",%progbits
 256              		.align	2
 257              		.p2align 4,,15
 258              		.global	spiUnselect
 259              		.thumb
 260              		.thumb_func
 261              		.type	spiUnselect, %function
 262              	spiUnselect:
 263              	.LFB123:
 264              		.loc 1 167 0
 265              		.cfi_startproc
 266              		@ args = 0, pretend = 0, frame = 0
 267              		@ frame_needed = 0, uses_anonymous_args = 0
 268              	.LVL29:
 269 0000 10B5     		push	{r4, lr}
 270              	.LCFI3:
 271              		.cfi_def_cfa_offset 8
 272              		.cfi_offset 4, -8
 273              		.cfi_offset 14, -4
 274              	.LBB10:
 275              		.loc 1 171 0
 276 0002 2023     		movs	r3, #32
 277              	.LVL30:
 278              	.LBE10:
 279              		.loc 1 167 0
 280 0004 0446     		mov	r4, r0
 281              	.LBB11:
ARM GAS  C:\Users\Elis\AppData\Local\Temp\ccWYCsfD.s 			page 6


 282              		.loc 1 171 0
 283              	@ 171 "../../chibios/os/hal/src/spi.c" 1
 284 0006 83F31188 		msr     BASEPRI, r3
 285              	@ 0 "" 2
 286              	.LVL31:
 287              		.thumb
 288              	.LBE11:
 289 000a FFF7FEFF 		bl	dbg_check_lock
 290              	.LVL32:
 291              		.loc 1 173 0
 292 000e 2046     		mov	r0, r4
 293 0010 FFF7FEFF 		bl	spi_lld_unselect
 294              	.LVL33:
 295              		.loc 1 174 0
 296 0014 FFF7FEFF 		bl	dbg_check_unlock
 297              	.LVL34:
 298              	.LBB12:
 299 0018 0023     		movs	r3, #0
 300              	.LVL35:
 301              	@ 174 "../../chibios/os/hal/src/spi.c" 1
 302 001a 83F31188 		msr     BASEPRI, r3
 303              	@ 0 "" 2
 304              	.LVL36:
 305              		.thumb
 306 001e 10BD     		pop	{r4, pc}
 307              	.LBE12:
 308              		.cfi_endproc
 309              	.LFE123:
 310              		.size	spiUnselect, .-spiUnselect
 311              		.section	.text.spiStartIgnore,"ax",%progbits
 312              		.align	2
 313              		.p2align 4,,15
 314              		.global	spiStartIgnore
 315              		.thumb
 316              		.thumb_func
 317              		.type	spiStartIgnore, %function
 318              	spiStartIgnore:
 319              	.LFB124:
 320              		.loc 1 190 0
 321              		.cfi_startproc
 322              		@ args = 0, pretend = 0, frame = 0
 323              		@ frame_needed = 0, uses_anonymous_args = 0
 324              	.LVL37:
 325 0000 38B5     		push	{r3, r4, r5, lr}
 326              	.LCFI4:
 327              		.cfi_def_cfa_offset 16
 328              		.cfi_offset 3, -16
 329              		.cfi_offset 4, -12
 330              		.cfi_offset 5, -8
 331              		.cfi_offset 14, -4
 332              		.loc 1 190 0
 333 0002 0446     		mov	r4, r0
 334 0004 0D46     		mov	r5, r1
 335              	.LBB13:
 336              		.loc 1 194 0
 337 0006 2023     		movs	r3, #32
 338              	.LVL38:
ARM GAS  C:\Users\Elis\AppData\Local\Temp\ccWYCsfD.s 			page 7


 339              	@ 194 "../../chibios/os/hal/src/spi.c" 1
 340 0008 83F31188 		msr     BASEPRI, r3
 341              	@ 0 "" 2
 342              	.LVL39:
 343              		.thumb
 344              	.LBE13:
 345 000c FFF7FEFF 		bl	dbg_check_lock
 346              	.LVL40:
 347              		.loc 1 196 0
 348 0010 0323     		movs	r3, #3
 349 0012 2370     		strb	r3, [r4, #0]
 350 0014 2046     		mov	r0, r4
 351 0016 2946     		mov	r1, r5
 352 0018 FFF7FEFF 		bl	spi_lld_ignore
 353              	.LVL41:
 354              		.loc 1 197 0
 355 001c FFF7FEFF 		bl	dbg_check_unlock
 356              	.LVL42:
 357              	.LBB14:
 358 0020 0023     		movs	r3, #0
 359              	.LVL43:
 360              	@ 197 "../../chibios/os/hal/src/spi.c" 1
 361 0022 83F31188 		msr     BASEPRI, r3
 362              	@ 0 "" 2
 363              	.LVL44:
 364              		.thumb
 365 0026 38BD     		pop	{r3, r4, r5, pc}
 366              	.LBE14:
 367              		.cfi_endproc
 368              	.LFE124:
 369              		.size	spiStartIgnore, .-spiStartIgnore
 370 0028 AFF30080 		.section	.text.spiStartExchange,"ax",%progbits
 370      AFF30080 
 371              		.align	2
 372              		.p2align 4,,15
 373              		.global	spiStartExchange
 374              		.thumb
 375              		.thumb_func
 376              		.type	spiStartExchange, %function
 377              	spiStartExchange:
 378              	.LFB125:
 379              		.loc 1 218 0
 380              		.cfi_startproc
 381              		@ args = 0, pretend = 0, frame = 0
 382              		@ frame_needed = 0, uses_anonymous_args = 0
 383              	.LVL45:
 384 0000 F8B5     		push	{r3, r4, r5, r6, r7, lr}
 385              	.LCFI5:
 386              		.cfi_def_cfa_offset 24
 387              		.cfi_offset 3, -24
 388              		.cfi_offset 4, -20
 389              		.cfi_offset 5, -16
 390              		.cfi_offset 6, -12
 391              		.cfi_offset 7, -8
 392              		.cfi_offset 14, -4
 393              		.loc 1 218 0
 394 0002 1D46     		mov	r5, r3
ARM GAS  C:\Users\Elis\AppData\Local\Temp\ccWYCsfD.s 			page 8


 395 0004 0446     		mov	r4, r0
 396 0006 0F46     		mov	r7, r1
 397 0008 1646     		mov	r6, r2
 398              	.LBB15:
 399              		.loc 1 223 0
 400 000a 2023     		movs	r3, #32
 401              	.LVL46:
 402              	@ 223 "../../chibios/os/hal/src/spi.c" 1
 403 000c 83F31188 		msr     BASEPRI, r3
 404              	@ 0 "" 2
 405              	.LVL47:
 406              		.thumb
 407              	.LBE15:
 408 0010 FFF7FEFF 		bl	dbg_check_lock
 409              	.LVL48:
 410              		.loc 1 225 0
 411 0014 2B46     		mov	r3, r5
 412 0016 0325     		movs	r5, #3
 413              	.LVL49:
 414 0018 2046     		mov	r0, r4
 415 001a 3946     		mov	r1, r7
 416 001c 3246     		mov	r2, r6
 417 001e 2570     		strb	r5, [r4, #0]
 418 0020 FFF7FEFF 		bl	spi_lld_exchange
 419              	.LVL50:
 420              		.loc 1 226 0
 421 0024 FFF7FEFF 		bl	dbg_check_unlock
 422              	.LVL51:
 423              	.LBB16:
 424 0028 0023     		movs	r3, #0
 425              	.LVL52:
 426              	@ 226 "../../chibios/os/hal/src/spi.c" 1
 427 002a 83F31188 		msr     BASEPRI, r3
 428              	@ 0 "" 2
 429              	.LVL53:
 430              		.thumb
 431 002e F8BD     		pop	{r3, r4, r5, r6, r7, pc}
 432              	.LBE16:
 433              		.cfi_endproc
 434              	.LFE125:
 435              		.size	spiStartExchange, .-spiStartExchange
 436              		.section	.text.spiStartSend,"ax",%progbits
 437              		.align	2
 438              		.p2align 4,,15
 439              		.global	spiStartSend
 440              		.thumb
 441              		.thumb_func
 442              		.type	spiStartSend, %function
 443              	spiStartSend:
 444              	.LFB126:
 445              		.loc 1 244 0
 446              		.cfi_startproc
 447              		@ args = 0, pretend = 0, frame = 0
 448              		@ frame_needed = 0, uses_anonymous_args = 0
 449              	.LVL54:
 450 0000 70B5     		push	{r4, r5, r6, lr}
 451              	.LCFI6:
ARM GAS  C:\Users\Elis\AppData\Local\Temp\ccWYCsfD.s 			page 9


 452              		.cfi_def_cfa_offset 16
 453              		.cfi_offset 4, -16
 454              		.cfi_offset 5, -12
 455              		.cfi_offset 6, -8
 456              		.cfi_offset 14, -4
 457              	.LBB17:
 458              		.loc 1 249 0
 459 0002 2023     		movs	r3, #32
 460              	.LVL55:
 461              	.LBE17:
 462              		.loc 1 244 0
 463 0004 0446     		mov	r4, r0
 464 0006 0E46     		mov	r6, r1
 465 0008 1546     		mov	r5, r2
 466              	.LBB18:
 467              		.loc 1 249 0
 468              	@ 249 "../../chibios/os/hal/src/spi.c" 1
 469 000a 83F31188 		msr     BASEPRI, r3
 470              	@ 0 "" 2
 471              	.LVL56:
 472              		.thumb
 473              	.LBE18:
 474 000e FFF7FEFF 		bl	dbg_check_lock
 475              	.LVL57:
 476              		.loc 1 251 0
 477 0012 0323     		movs	r3, #3
 478 0014 2370     		strb	r3, [r4, #0]
 479 0016 2046     		mov	r0, r4
 480 0018 3146     		mov	r1, r6
 481 001a 2A46     		mov	r2, r5
 482 001c FFF7FEFF 		bl	spi_lld_send
 483              	.LVL58:
 484              		.loc 1 252 0
 485 0020 FFF7FEFF 		bl	dbg_check_unlock
 486              	.LVL59:
 487              	.LBB19:
 488 0024 0023     		movs	r3, #0
 489              	.LVL60:
 490              	@ 252 "../../chibios/os/hal/src/spi.c" 1
 491 0026 83F31188 		msr     BASEPRI, r3
 492              	@ 0 "" 2
 493              	.LVL61:
 494              		.thumb
 495 002a 70BD     		pop	{r4, r5, r6, pc}
 496              	.LBE19:
 497              		.cfi_endproc
 498              	.LFE126:
 499              		.size	spiStartSend, .-spiStartSend
 500 002c AFF30080 		.section	.text.spiStartReceive,"ax",%progbits
 501              		.align	2
 502              		.p2align 4,,15
 503              		.global	spiStartReceive
 504              		.thumb
 505              		.thumb_func
 506              		.type	spiStartReceive, %function
 507              	spiStartReceive:
 508              	.LFB127:
ARM GAS  C:\Users\Elis\AppData\Local\Temp\ccWYCsfD.s 			page 10


 509              		.loc 1 270 0
 510              		.cfi_startproc
 511              		@ args = 0, pretend = 0, frame = 0
 512              		@ frame_needed = 0, uses_anonymous_args = 0
 513              	.LVL62:
 514 0000 70B5     		push	{r4, r5, r6, lr}
 515              	.LCFI7:
 516              		.cfi_def_cfa_offset 16
 517              		.cfi_offset 4, -16
 518              		.cfi_offset 5, -12
 519              		.cfi_offset 6, -8
 520              		.cfi_offset 14, -4
 521              	.LBB20:
 522              		.loc 1 275 0
 523 0002 2023     		movs	r3, #32
 524              	.LVL63:
 525              	.LBE20:
 526              		.loc 1 270 0
 527 0004 0446     		mov	r4, r0
 528 0006 0E46     		mov	r6, r1
 529 0008 1546     		mov	r5, r2
 530              	.LBB21:
 531              		.loc 1 275 0
 532              	@ 275 "../../chibios/os/hal/src/spi.c" 1
 533 000a 83F31188 		msr     BASEPRI, r3
 534              	@ 0 "" 2
 535              	.LVL64:
 536              		.thumb
 537              	.LBE21:
 538 000e FFF7FEFF 		bl	dbg_check_lock
 539              	.LVL65:
 540              		.loc 1 277 0
 541 0012 0323     		movs	r3, #3
 542 0014 2370     		strb	r3, [r4, #0]
 543 0016 2046     		mov	r0, r4
 544 0018 3146     		mov	r1, r6
 545 001a 2A46     		mov	r2, r5
 546 001c FFF7FEFF 		bl	spi_lld_receive
 547              	.LVL66:
 548              		.loc 1 278 0
 549 0020 FFF7FEFF 		bl	dbg_check_unlock
 550              	.LVL67:
 551              	.LBB22:
 552 0024 0023     		movs	r3, #0
 553              	.LVL68:
 554              	@ 278 "../../chibios/os/hal/src/spi.c" 1
 555 0026 83F31188 		msr     BASEPRI, r3
 556              	@ 0 "" 2
 557              	.LVL69:
 558              		.thumb
 559 002a 70BD     		pop	{r4, r5, r6, pc}
 560              	.LBE22:
 561              		.cfi_endproc
 562              	.LFE127:
 563              		.size	spiStartReceive, .-spiStartReceive
 564 002c AFF30080 		.section	.text.spiIgnore,"ax",%progbits
 565              		.align	2
ARM GAS  C:\Users\Elis\AppData\Local\Temp\ccWYCsfD.s 			page 11


 566              		.p2align 4,,15
 567              		.global	spiIgnore
 568              		.thumb
 569              		.thumb_func
 570              		.type	spiIgnore, %function
 571              	spiIgnore:
 572              	.LFB128:
 573              		.loc 1 296 0
 574              		.cfi_startproc
 575              		@ args = 0, pretend = 0, frame = 0
 576              		@ frame_needed = 0, uses_anonymous_args = 0
 577              	.LVL70:
 578 0000 38B5     		push	{r3, r4, r5, lr}
 579              	.LCFI8:
 580              		.cfi_def_cfa_offset 16
 581              		.cfi_offset 3, -16
 582              		.cfi_offset 4, -12
 583              		.cfi_offset 5, -8
 584              		.cfi_offset 14, -4
 585              		.loc 1 296 0
 586 0002 0446     		mov	r4, r0
 587 0004 0D46     		mov	r5, r1
 588              	.LBB23:
 589              		.loc 1 300 0
 590 0006 2023     		movs	r3, #32
 591              	.LVL71:
 592              	@ 300 "../../chibios/os/hal/src/spi.c" 1
 593 0008 83F31188 		msr     BASEPRI, r3
 594              	@ 0 "" 2
 595              	.LVL72:
 596              		.thumb
 597              	.LBE23:
 598 000c FFF7FEFF 		bl	dbg_check_lock
 599              	.LVL73:
 600              		.loc 1 303 0
 601 0010 0323     		movs	r3, #3
 602 0012 2370     		strb	r3, [r4, #0]
 603 0014 2946     		mov	r1, r5
 604 0016 2046     		mov	r0, r4
 605 0018 FFF7FEFF 		bl	spi_lld_ignore
 606              	.LVL74:
 607              		.loc 1 304 0
 608 001c 40F20001 		movw	r1, #:lower16:rlist
 609 0020 C0F20001 		movt	r1, #:upper16:rlist
 610 0024 0220     		movs	r0, #2
 611 0026 8A69     		ldr	r2, [r1, #24]
 612 0028 A260     		str	r2, [r4, #8]
 613 002a FFF7FEFF 		bl	chSchGoSleepS
 614              	.LVL75:
 615              		.loc 1 305 0
 616 002e FFF7FEFF 		bl	dbg_check_unlock
 617              	.LVL76:
 618              	.LBB24:
 619 0032 0023     		movs	r3, #0
 620              	.LVL77:
 621              	@ 305 "../../chibios/os/hal/src/spi.c" 1
 622 0034 83F31188 		msr     BASEPRI, r3
ARM GAS  C:\Users\Elis\AppData\Local\Temp\ccWYCsfD.s 			page 12


 623              	@ 0 "" 2
 624              	.LVL78:
 625              		.thumb
 626 0038 38BD     		pop	{r3, r4, r5, pc}
 627              	.LBE24:
 628              		.cfi_endproc
 629              	.LFE128:
 630              		.size	spiIgnore, .-spiIgnore
 631 003a 00BFAFF3 		.section	.text.spiExchange,"ax",%progbits
 631      0080
 632              		.align	2
 633              		.p2align 4,,15
 634              		.global	spiExchange
 635              		.thumb
 636              		.thumb_func
 637              		.type	spiExchange, %function
 638              	spiExchange:
 639              	.LFB129:
 640              		.loc 1 327 0
 641              		.cfi_startproc
 642              		@ args = 0, pretend = 0, frame = 0
 643              		@ frame_needed = 0, uses_anonymous_args = 0
 644              	.LVL79:
 645 0000 F8B5     		push	{r3, r4, r5, r6, r7, lr}
 646              	.LCFI9:
 647              		.cfi_def_cfa_offset 24
 648              		.cfi_offset 3, -24
 649              		.cfi_offset 4, -20
 650              		.cfi_offset 5, -16
 651              		.cfi_offset 6, -12
 652              		.cfi_offset 7, -8
 653              		.cfi_offset 14, -4
 654              		.loc 1 327 0
 655 0002 1D46     		mov	r5, r3
 656 0004 0446     		mov	r4, r0
 657 0006 0F46     		mov	r7, r1
 658 0008 1646     		mov	r6, r2
 659              	.LBB25:
 660              		.loc 1 332 0
 661 000a 2023     		movs	r3, #32
 662              	.LVL80:
 663              	@ 332 "../../chibios/os/hal/src/spi.c" 1
 664 000c 83F31188 		msr     BASEPRI, r3
 665              	@ 0 "" 2
 666              	.LVL81:
 667              		.thumb
 668              	.LBE25:
 669 0010 FFF7FEFF 		bl	dbg_check_lock
 670              	.LVL82:
 671              		.loc 1 336 0
 672 0014 2B46     		mov	r3, r5
 673 0016 0325     		movs	r5, #3
 674              	.LVL83:
 675 0018 3246     		mov	r2, r6
 676 001a 3946     		mov	r1, r7
 677 001c 2046     		mov	r0, r4
 678 001e 2570     		strb	r5, [r4, #0]
ARM GAS  C:\Users\Elis\AppData\Local\Temp\ccWYCsfD.s 			page 13


 679 0020 FFF7FEFF 		bl	spi_lld_exchange
 680              	.LVL84:
 681              		.loc 1 337 0
 682 0024 40F20003 		movw	r3, #:lower16:rlist
 683 0028 C0F20003 		movt	r3, #:upper16:rlist
 684 002c 0220     		movs	r0, #2
 685 002e 9969     		ldr	r1, [r3, #24]
 686 0030 A160     		str	r1, [r4, #8]
 687 0032 FFF7FEFF 		bl	chSchGoSleepS
 688              	.LVL85:
 689              		.loc 1 338 0
 690 0036 FFF7FEFF 		bl	dbg_check_unlock
 691              	.LVL86:
 692              	.LBB26:
 693 003a 0023     		movs	r3, #0
 694              	.LVL87:
 695              	@ 338 "../../chibios/os/hal/src/spi.c" 1
 696 003c 83F31188 		msr     BASEPRI, r3
 697              	@ 0 "" 2
 698              	.LVL88:
 699              		.thumb
 700 0040 F8BD     		pop	{r3, r4, r5, r6, r7, pc}
 701              	.LBE26:
 702              		.cfi_endproc
 703              	.LFE129:
 704              		.size	spiExchange, .-spiExchange
 705 0042 00BFAFF3 		.section	.text.spiSend,"ax",%progbits
 705      0080AFF3 
 705      0080AFF3 
 705      0080
 706              		.align	2
 707              		.p2align 4,,15
 708              		.global	spiSend
 709              		.thumb
 710              		.thumb_func
 711              		.type	spiSend, %function
 712              	spiSend:
 713              	.LFB130:
 714              		.loc 1 357 0
 715              		.cfi_startproc
 716              		@ args = 0, pretend = 0, frame = 0
 717              		@ frame_needed = 0, uses_anonymous_args = 0
 718              	.LVL89:
 719 0000 70B5     		push	{r4, r5, r6, lr}
 720              	.LCFI10:
 721              		.cfi_def_cfa_offset 16
 722              		.cfi_offset 4, -16
 723              		.cfi_offset 5, -12
 724              		.cfi_offset 6, -8
 725              		.cfi_offset 14, -4
 726              	.LBB27:
 727              		.loc 1 361 0
 728 0002 2023     		movs	r3, #32
 729              	.LVL90:
 730              	.LBE27:
 731              		.loc 1 357 0
 732 0004 0446     		mov	r4, r0
ARM GAS  C:\Users\Elis\AppData\Local\Temp\ccWYCsfD.s 			page 14


 733 0006 0E46     		mov	r6, r1
 734 0008 1546     		mov	r5, r2
 735              	.LBB28:
 736              		.loc 1 361 0
 737              	@ 361 "../../chibios/os/hal/src/spi.c" 1
 738 000a 83F31188 		msr     BASEPRI, r3
 739              	@ 0 "" 2
 740              	.LVL91:
 741              		.thumb
 742              	.LBE28:
 743 000e FFF7FEFF 		bl	dbg_check_lock
 744              	.LVL92:
 745              		.loc 1 364 0
 746 0012 0323     		movs	r3, #3
 747 0014 2370     		strb	r3, [r4, #0]
 748 0016 3146     		mov	r1, r6
 749 0018 2A46     		mov	r2, r5
 750 001a 2046     		mov	r0, r4
 751 001c FFF7FEFF 		bl	spi_lld_send
 752              	.LVL93:
 753              		.loc 1 365 0
 754 0020 40F20001 		movw	r1, #:lower16:rlist
 755 0024 C0F20001 		movt	r1, #:upper16:rlist
 756 0028 0220     		movs	r0, #2
 757 002a 8A69     		ldr	r2, [r1, #24]
 758 002c A260     		str	r2, [r4, #8]
 759 002e FFF7FEFF 		bl	chSchGoSleepS
 760              	.LVL94:
 761              		.loc 1 366 0
 762 0032 FFF7FEFF 		bl	dbg_check_unlock
 763              	.LVL95:
 764              	.LBB29:
 765 0036 0023     		movs	r3, #0
 766              	.LVL96:
 767              	@ 366 "../../chibios/os/hal/src/spi.c" 1
 768 0038 83F31188 		msr     BASEPRI, r3
 769              	@ 0 "" 2
 770              	.LVL97:
 771              		.thumb
 772 003c 70BD     		pop	{r4, r5, r6, pc}
 773              	.LBE29:
 774              		.cfi_endproc
 775              	.LFE130:
 776              		.size	spiSend, .-spiSend
 777 003e 00BF     		.section	.text.spiReceive,"ax",%progbits
 778              		.align	2
 779              		.p2align 4,,15
 780              		.global	spiReceive
 781              		.thumb
 782              		.thumb_func
 783              		.type	spiReceive, %function
 784              	spiReceive:
 785              	.LFB131:
 786              		.loc 1 385 0
 787              		.cfi_startproc
 788              		@ args = 0, pretend = 0, frame = 0
 789              		@ frame_needed = 0, uses_anonymous_args = 0
ARM GAS  C:\Users\Elis\AppData\Local\Temp\ccWYCsfD.s 			page 15


 790              	.LVL98:
 791 0000 70B5     		push	{r4, r5, r6, lr}
 792              	.LCFI11:
 793              		.cfi_def_cfa_offset 16
 794              		.cfi_offset 4, -16
 795              		.cfi_offset 5, -12
 796              		.cfi_offset 6, -8
 797              		.cfi_offset 14, -4
 798              	.LBB30:
 799              		.loc 1 390 0
 800 0002 2023     		movs	r3, #32
 801              	.LVL99:
 802              	.LBE30:
 803              		.loc 1 385 0
 804 0004 0446     		mov	r4, r0
 805 0006 0E46     		mov	r6, r1
 806 0008 1546     		mov	r5, r2
 807              	.LBB31:
 808              		.loc 1 390 0
 809              	@ 390 "../../chibios/os/hal/src/spi.c" 1
 810 000a 83F31188 		msr     BASEPRI, r3
 811              	@ 0 "" 2
 812              	.LVL100:
 813              		.thumb
 814              	.LBE31:
 815 000e FFF7FEFF 		bl	dbg_check_lock
 816              	.LVL101:
 817              		.loc 1 394 0
 818 0012 0323     		movs	r3, #3
 819 0014 2370     		strb	r3, [r4, #0]
 820 0016 3146     		mov	r1, r6
 821 0018 2A46     		mov	r2, r5
 822 001a 2046     		mov	r0, r4
 823 001c FFF7FEFF 		bl	spi_lld_receive
 824              	.LVL102:
 825              		.loc 1 395 0
 826 0020 40F20001 		movw	r1, #:lower16:rlist
 827 0024 C0F20001 		movt	r1, #:upper16:rlist
 828 0028 0220     		movs	r0, #2
 829 002a 8A69     		ldr	r2, [r1, #24]
 830 002c A260     		str	r2, [r4, #8]
 831 002e FFF7FEFF 		bl	chSchGoSleepS
 832              	.LVL103:
 833              		.loc 1 396 0
 834 0032 FFF7FEFF 		bl	dbg_check_unlock
 835              	.LVL104:
 836              	.LBB32:
 837 0036 0023     		movs	r3, #0
 838              	.LVL105:
 839              	@ 396 "../../chibios/os/hal/src/spi.c" 1
 840 0038 83F31188 		msr     BASEPRI, r3
 841              	@ 0 "" 2
 842              	.LVL106:
 843              		.thumb
 844 003c 70BD     		pop	{r4, r5, r6, pc}
 845              	.LBE32:
 846              		.cfi_endproc
ARM GAS  C:\Users\Elis\AppData\Local\Temp\ccWYCsfD.s 			page 16


 847              	.LFE131:
 848              		.size	spiReceive, .-spiReceive
 849 003e 00BF     		.section	.text.spiAcquireBus,"ax",%progbits
 850              		.align	2
 851              		.p2align 4,,15
 852              		.global	spiAcquireBus
 853              		.thumb
 854              		.thumb_func
 855              		.type	spiAcquireBus, %function
 856              	spiAcquireBus:
 857              	.LFB132:
 858              		.loc 1 412 0
 859              		.cfi_startproc
 860              		@ args = 0, pretend = 0, frame = 0
 861              		@ frame_needed = 0, uses_anonymous_args = 0
 862              		@ link register save eliminated.
 863              	.LVL107:
 864              		.loc 1 417 0
 865 0000 0C30     		adds	r0, r0, #12
 866              	.LVL108:
 867              		.loc 1 421 0
 868              		.loc 1 417 0
 869 0002 FFF7FEBF 		b	chMtxLock
 870              	.LVL109:
 871              		.cfi_endproc
 872              	.LFE132:
 873              		.size	spiAcquireBus, .-spiAcquireBus
 874 0006 00BFAFF3 		.section	.text.spiReleaseBus,"ax",%progbits
 874      0080AFF3 
 874      0080
 875              		.align	2
 876              		.p2align 4,,15
 877              		.global	spiReleaseBus
 878              		.thumb
 879              		.thumb_func
 880              		.type	spiReleaseBus, %function
 881              	spiReleaseBus:
 882              	.LFB133:
 883              		.loc 1 432 0
 884              		.cfi_startproc
 885              		@ args = 0, pretend = 0, frame = 0
 886              		@ frame_needed = 0, uses_anonymous_args = 0
 887              		@ link register save eliminated.
 888              	.LVL110:
 889              		.loc 1 442 0
 890              		.loc 1 438 0
 891 0000 FFF7FEBF 		b	chMtxUnlock
 892              	.LVL111:
 893              		.cfi_endproc
 894              	.LFE133:
 895              		.size	spiReleaseBus, .-spiReleaseBus
 896 0004 AFF30080 		.text
 896      AFF30080 
 896      AFF30080 
 897              	.Letext0:
 898              		.file 2 "c:\\chibistudio\\tools\\gnu tools arm embedded\\4.7 2014q2\\bin\\../lib/gcc/arm-none-eabi
 899              		.file 3 "c:\\chibistudio\\tools\\gnu tools arm embedded\\4.7 2014q2\\bin\\../lib/gcc/arm-none-eabi
ARM GAS  C:\Users\Elis\AppData\Local\Temp\ccWYCsfD.s 			page 17


 900              		.file 4 "../../chibios/os/ports/GCC/ARMCMx/chtypes.h"
 901              		.file 5 "../../chibios/os/kernel/include/chlists.h"
 902              		.file 6 "../../chibios/os/kernel/include/chthreads.h"
 903              		.file 7 "../../chibios/os/ports/GCC/ARMCMx/chcore_v7m.h"
 904              		.file 8 "../../chibios/os/kernel/include/chschd.h"
 905              		.file 9 "../../chibios/os/kernel/include/chmtx.h"
 906              		.file 10 "../../chibios/os/hal/platforms/STM32F4xx/stm32f4xx.h"
 907              		.file 11 "../../chibios/os/hal/platforms/STM32F4xx/stm32_dma.h"
 908              		.file 12 "../../chibios/os/hal/platforms/STM32/GPIOv2/pal_lld.h"
 909              		.file 13 "../../chibios/os/hal/include/spi.h"
 910              		.file 14 "../../chibios/os/hal/platforms/STM32/SPIv1/spi_lld.h"
 911              		.file 15 "../../chibios/os/ports/common/ARMCMx/CMSIS/include/core_cm4.h"
 912              		.file 16 "../../chibios/os/kernel/include/chdebug.h"