ARM GAS  C:\Users\Elis\AppData\Local\Temp\ccfi1FbR.s 			page 1


   1              		.syntax unified
   2              		.cpu cortex-m4
   3              		.fpu softvfp
   4              		.eabi_attribute 20, 1
   5              		.eabi_attribute 21, 1
   6              		.eabi_attribute 23, 3
   7              		.eabi_attribute 24, 1
   8              		.eabi_attribute 25, 1
   9              		.eabi_attribute 26, 1
  10              		.eabi_attribute 30, 2
  11              		.eabi_attribute 34, 1
  12              		.eabi_attribute 18, 4
  13              		.thumb
  14              		.file	"spi_lld.c"
  15              		.text
  16              	.Ltext0:
  17              		.cfi_sections	.debug_frame
  18              		.section	.text.spi_lld_serve_tx_interrupt,"ax",%progbits
  19              		.align	2
  20              		.p2align 4,,15
  21              		.thumb
  22              		.thumb_func
  23              		.type	spi_lld_serve_tx_interrupt, %function
  24              	spi_lld_serve_tx_interrupt:
  25              	.LFB119:
  26              		.file 1 "../../chibios/os/hal/platforms/STM32/SPIv1/spi_lld.c"
  27              		.loc 1 159 0
  28              		.cfi_startproc
  29              		@ args = 0, pretend = 0, frame = 0
  30              		@ frame_needed = 0, uses_anonymous_args = 0
  31              		@ link register save eliminated.
  32              	.LVL0:
  33              		.loc 1 164 0
  34 0000 11F00C0F 		tst	r1, #12
  35 0004 00D1     		bne	.L4
  36 0006 7047     		bx	lr
  37              	.L4:
  38              		.loc 1 171 0
  39              		.loc 1 165 0
  40 0008 FFF7FEBF 		b	port_halt
  41              	.LVL1:
  42              		.cfi_endproc
  43              	.LFE119:
  44              		.size	spi_lld_serve_tx_interrupt, .-spi_lld_serve_tx_interrupt
  45 000c AFF30080 		.section	.text.spi_lld_serve_rx_interrupt,"ax",%progbits
  46              		.align	2
  47              		.p2align 4,,15
  48              		.thumb
  49              		.thumb_func
  50              		.type	spi_lld_serve_rx_interrupt, %function
  51              	spi_lld_serve_rx_interrupt:
  52              	.LFB118:
  53              		.loc 1 133 0
  54              		.cfi_startproc
  55              		@ args = 0, pretend = 0, frame = 0
  56              		@ frame_needed = 0, uses_anonymous_args = 0
  57              	.LVL2:
ARM GAS  C:\Users\Elis\AppData\Local\Temp\ccfi1FbR.s 			page 2


  58              		.loc 1 137 0
  59 0000 11F00C0F 		tst	r1, #12
  60              		.loc 1 133 0
  61 0004 38B5     		push	{r3, r4, r5, lr}
  62              	.LCFI0:
  63              		.cfi_def_cfa_offset 16
  64              		.cfi_offset 3, -16
  65              		.cfi_offset 4, -12
  66              		.cfi_offset 5, -8
  67              		.cfi_offset 14, -4
  68              		.loc 1 133 0
  69 0006 0446     		mov	r4, r0
  70              		.loc 1 137 0
  71 0008 3DD1     		bne	.L20
  72              	.LVL3:
  73              	.L6:
  74              		.loc 1 145 0
  75 000a 606A     		ldr	r0, [r4, #36]
  76 000c 0268     		ldr	r2, [r0, #0]
  77 000e 1368     		ldr	r3, [r2, #0]
  78 0010 23F01F01 		bic	r1, r3, #31
  79 0014 1160     		str	r1, [r2, #0]
  80              	.L7:
  81              		.loc 1 145 0 is_stmt 0 discriminator 1
  82 0016 1568     		ldr	r5, [r2, #0]
  83 0018 E907     		lsls	r1, r5, #31
  84 001a FCD4     		bmi	.L7
  85              		.loc 1 145 0 discriminator 2
  86 001c 057A     		ldrb	r5, [r0, #8]	@ zero_extendqisi2
  87              		.loc 1 146 0 is_stmt 1 discriminator 2
  88 001e 216A     		ldr	r1, [r4, #32]
  89              		.loc 1 145 0 discriminator 2
  90 0020 4368     		ldr	r3, [r0, #4]
  91              		.loc 1 146 0 discriminator 2
  92 0022 0A68     		ldr	r2, [r1, #0]
  93              		.loc 1 145 0 discriminator 2
  94 0024 3D20     		movs	r0, #61
  95 0026 00FA05F0 		lsl	r0, r0, r5
  96 002a 1860     		str	r0, [r3, #0]
  97              		.loc 1 146 0 discriminator 2
  98 002c 1368     		ldr	r3, [r2, #0]
  99 002e 23F01F00 		bic	r0, r3, #31
 100 0032 1060     		str	r0, [r2, #0]
 101              	.L8:
 102              		.loc 1 146 0 is_stmt 0 discriminator 1
 103 0034 1368     		ldr	r3, [r2, #0]
 104 0036 DB07     		lsls	r3, r3, #31
 105 0038 FCD4     		bmi	.L8
 106              		.loc 1 150 0 is_stmt 1 discriminator 2
 107 003a 6368     		ldr	r3, [r4, #4]
 108              		.loc 1 146 0 discriminator 2
 109 003c 087A     		ldrb	r0, [r1, #8]	@ zero_extendqisi2
 110 003e 4A68     		ldr	r2, [r1, #4]
 111              		.loc 1 150 0 discriminator 2
 112 0040 1B68     		ldr	r3, [r3, #0]
 113              		.loc 1 146 0 discriminator 2
 114 0042 3D21     		movs	r1, #61
ARM GAS  C:\Users\Elis\AppData\Local\Temp\ccfi1FbR.s 			page 3


 115 0044 01FA00F1 		lsl	r1, r1, r0
 116 0048 1160     		str	r1, [r2, #0]
 117              		.loc 1 150 0 discriminator 2
 118 004a CBB1     		cbz	r3, .L9
 119              		.loc 1 150 0 is_stmt 0 discriminator 1
 120 004c 0420     		movs	r0, #4
 121 004e 2070     		strb	r0, [r4, #0]
 122 0050 2046     		mov	r0, r4
 123 0052 9847     		blx	r3
 124              	.LVL4:
 125 0054 2278     		ldrb	r2, [r4, #0]	@ zero_extendqisi2
 126 0056 042A     		cmp	r2, #4
 127 0058 12D0     		beq	.L9
 128              	.L10:
 129              	.LBB2:
 130              		.loc 1 150 0 discriminator 4
 131 005a 2023     		movs	r3, #32
 132              	.LVL5:
 133              	@ 150 "../../chibios/os/hal/platforms/STM32/SPIv1/spi_lld.c" 1
 134 005c 83F31188 		msr     BASEPRI, r3
 135              	@ 0 "" 2
 136              	.LVL6:
 137              		.thumb
 138              	.LBE2:
 139 0060 FFF7FEFF 		bl	dbg_check_lock_from_isr
 140              	.LVL7:
 141 0064 A168     		ldr	r1, [r4, #8]
 142 0066 29B1     		cbz	r1, .L11
 143              	.LVL8:
 144              	.LBB3:
 145              		.loc 1 150 0 discriminator 5
 146 0068 0022     		movs	r2, #0
 147 006a A260     		str	r2, [r4, #8]
 148 006c 0846     		mov	r0, r1
 149 006e 4A62     		str	r2, [r1, #36]
 150 0070 FFF7FEFF 		bl	chSchReadyI
 151              	.LVL9:
 152              	.L11:
 153              	.LBE3:
 154              		.loc 1 150 0 discriminator 6
 155 0074 FFF7FEFF 		bl	dbg_check_unlock_from_isr
 156              	.LVL10:
 157              	.LBB4:
 158 0078 0023     		movs	r3, #0
 159              	.LVL11:
 160              	@ 150 "../../chibios/os/hal/platforms/STM32/SPIv1/spi_lld.c" 1
 161 007a 83F31188 		msr     BASEPRI, r3
 162              	@ 0 "" 2
 163              	.LVL12:
 164              		.thumb
 165 007e 38BD     		pop	{r3, r4, r5, pc}
 166              	.LVL13:
 167              	.L9:
 168              	.LBE4:
 169              		.loc 1 150 0 discriminator 2
 170 0080 0223     		movs	r3, #2
 171 0082 2370     		strb	r3, [r4, #0]
ARM GAS  C:\Users\Elis\AppData\Local\Temp\ccfi1FbR.s 			page 4


 172 0084 E9E7     		b	.L10
 173              	.LVL14:
 174              	.L20:
 175              		.loc 1 138 0 is_stmt 1
 176 0086 FFF7FEFF 		bl	port_halt
 177              	.LVL15:
 178 008a BEE7     		b	.L6
 179              		.cfi_endproc
 180              	.LFE118:
 181              		.size	spi_lld_serve_rx_interrupt, .-spi_lld_serve_rx_interrupt
 182 008c AFF30080 		.section	.text.spi_lld_init,"ax",%progbits
 183              		.align	2
 184              		.p2align 4,,15
 185              		.global	spi_lld_init
 186              		.thumb
 187              		.thumb_func
 188              		.type	spi_lld_init, %function
 189              	spi_lld_init:
 190              	.LFB120:
 191              		.loc 1 186 0
 192              		.cfi_startproc
 193              		@ args = 0, pretend = 0, frame = 0
 194              		@ frame_needed = 0, uses_anonymous_args = 0
 195 0000 38B5     		push	{r3, r4, r5, lr}
 196              	.LCFI1:
 197              		.cfi_def_cfa_offset 16
 198              		.cfi_offset 3, -16
 199              		.cfi_offset 4, -12
 200              		.cfi_offset 5, -8
 201              		.cfi_offset 14, -4
 202              		.loc 1 188 0
 203 0002 40F20003 		movw	r3, #:lower16:.LANCHOR0
 204              		.loc 1 209 0
 205 0006 40F20004 		movw	r4, #:lower16:.LANCHOR1
 206 000a C0F20004 		movt	r4, #:upper16:.LANCHOR1
 207              		.loc 1 188 0
 208 000e C0F20003 		movt	r3, #:upper16:.LANCHOR0
 209 0012 4FF6FF72 		movw	r2, #65535
 210              		.loc 1 209 0
 211 0016 2046     		mov	r0, r4
 212              		.loc 1 188 0
 213 0018 1A80     		strh	r2, [r3, #0]	@ movhi
 214              		.loc 1 209 0
 215 001a FFF7FEFF 		bl	spiObjectInit
 216              	.LVL16:
 217              		.loc 1 211 0
 218 001e 0949     		ldr	r1, .L22
 219              		.loc 1 210 0
 220 0020 4FF46050 		mov	r0, #14336
 221              		.loc 1 213 0
 222 0024 1622     		movs	r2, #22
 223              		.loc 1 219 0
 224 0026 4623     		movs	r3, #70
 225              		.loc 1 210 0
 226 0028 C4F20000 		movt	r0, 16384
 227              		.loc 1 212 0
 228 002c 01F10C05 		add	r5, r1, #12
ARM GAS  C:\Users\Elis\AppData\Local\Temp\ccfi1FbR.s 			page 5


 229              		.loc 1 213 0
 230 0030 C0F20102 		movt	r2, 1
 231              		.loc 1 219 0
 232 0034 C0F20103 		movt	r3, 1
 233              		.loc 1 210 0
 234 0038 E061     		str	r0, [r4, #28]
 235              		.loc 1 211 0
 236 003a 2162     		str	r1, [r4, #32]
 237              		.loc 1 212 0
 238 003c 6562     		str	r5, [r4, #36]
 239              		.loc 1 213 0
 240 003e A262     		str	r2, [r4, #40]
 241              		.loc 1 219 0
 242 0040 E362     		str	r3, [r4, #44]
 243 0042 38BD     		pop	{r3, r4, r5, pc}
 244              	.L23:
 245              		.align	2
 246              	.L22:
 247 0044 24000000 		.word	_stm32_dma_streams+36
 248              		.cfi_endproc
 249              	.LFE120:
 250              		.size	spi_lld_init, .-spi_lld_init
 251 0048 AFF30080 		.section	.text.spi_lld_start,"ax",%progbits
 251      AFF30080 
 252              		.align	2
 253              		.p2align 4,,15
 254              		.global	spi_lld_start
 255              		.thumb
 256              		.thumb_func
 257              		.type	spi_lld_start, %function
 258              	spi_lld_start:
 259              	.LFB121:
 260              		.loc 1 306 0
 261              		.cfi_startproc
 262              		@ args = 0, pretend = 0, frame = 0
 263              		@ frame_needed = 0, uses_anonymous_args = 0
 264              	.LVL17:
 265              		.loc 1 309 0
 266 0000 0378     		ldrb	r3, [r0, #0]	@ zero_extendqisi2
 267 0002 012B     		cmp	r3, #1
 268              		.loc 1 306 0
 269 0004 10B5     		push	{r4, lr}
 270              	.LCFI2:
 271              		.cfi_def_cfa_offset 8
 272              		.cfi_offset 4, -8
 273              		.cfi_offset 14, -4
 274              		.loc 1 306 0
 275 0006 0446     		mov	r4, r0
 276              		.loc 1 309 0
 277 0008 27D0     		beq	.L30
 278 000a C369     		ldr	r3, [r0, #28]
 279              	.LVL18:
 280              	.L25:
 281              		.loc 1 413 0
 282 000c 6068     		ldr	r0, [r4, #4]
 283 000e 4289     		ldrh	r2, [r0, #10]
 284              		.loc 1 416 0
ARM GAS  C:\Users\Elis\AppData\Local\Temp\ccfi1FbR.s 			page 6


 285 0010 A06A     		ldr	r0, [r4, #40]
 286              		.loc 1 413 0
 287 0012 02F40061 		and	r1, r2, #2048
 288 0016 89B2     		uxth	r1, r1
 289 0018 B9B1     		cbz	r1, .L31
 290              		.loc 1 424 0
 291 001a E16A     		ldr	r1, [r4, #44]
 292              		.loc 1 422 0
 293 001c 20F4F040 		bic	r0, r0, #30720
 294              		.loc 1 424 0
 295 0020 21F4F041 		bic	r1, r1, #30720
 296              		.loc 1 423 0
 297 0024 40F42050 		orr	r0, r0, #10240
 298              		.loc 1 425 0
 299 0028 41F42051 		orr	r1, r1, #10240
 300              		.loc 1 422 0
 301 002c A062     		str	r0, [r4, #40]
 302              		.loc 1 424 0
 303 002e E162     		str	r1, [r4, #44]
 304              	.L28:
 305              		.loc 1 429 0
 306 0030 42F44172 		orr	r2, r2, #772
 307              		.loc 1 428 0
 308 0034 0020     		movs	r0, #0
 309              		.loc 1 431 0
 310 0036 0721     		movs	r1, #7
 311              		.loc 1 428 0
 312 0038 1880     		strh	r0, [r3, #0]	@ movhi
 313              		.loc 1 429 0
 314 003a 1A80     		strh	r2, [r3, #0]	@ movhi
 315              		.loc 1 431 0
 316 003c 9980     		strh	r1, [r3, #4]	@ movhi
 317              		.loc 1 432 0
 318 003e 1A88     		ldrh	r2, [r3, #0]
 319 0040 90B2     		uxth	r0, r2
 320 0042 40F04001 		orr	r1, r0, #64
 321 0046 1980     		strh	r1, [r3, #0]	@ movhi
 322 0048 10BD     		pop	{r4, pc}
 323              	.L31:
 324              		.loc 1 418 0
 325 004a E16A     		ldr	r1, [r4, #44]
 326              		.loc 1 416 0
 327 004c 20F4F040 		bic	r0, r0, #30720
 328              		.loc 1 418 0
 329 0050 21F4F041 		bic	r1, r1, #30720
 330              		.loc 1 415 0
 331 0054 A062     		str	r0, [r4, #40]
 332              		.loc 1 417 0
 333 0056 E162     		str	r1, [r4, #44]
 334 0058 EAE7     		b	.L28
 335              	.LVL19:
 336              	.L30:
 337              		.loc 1 327 0
 338 005a 1148     		ldr	r0, .L33
 339              	.LVL20:
 340 005c 8442     		cmp	r4, r0
 341 005e 09D0     		beq	.L32
ARM GAS  C:\Users\Elis\AppData\Local\Temp\ccfi1FbR.s 			page 7


 342              	.L26:
 343              		.loc 1 408 0
 344 0060 206A     		ldr	r0, [r4, #32]
 345              		.loc 1 409 0
 346 0062 616A     		ldr	r1, [r4, #36]
 347              		.loc 1 408 0
 348 0064 E369     		ldr	r3, [r4, #28]
 349 0066 0068     		ldr	r0, [r0, #0]
 350              		.loc 1 409 0
 351 0068 0968     		ldr	r1, [r1, #0]
 352              		.loc 1 408 0
 353 006a 03F10C02 		add	r2, r3, #12
 354 006e 8260     		str	r2, [r0, #8]
 355              		.loc 1 409 0
 356 0070 8A60     		str	r2, [r1, #8]
 357 0072 CBE7     		b	.L25
 358              	.L32:
 359              	.LBB5:
 360              		.loc 1 329 0
 361 0074 0A21     		movs	r1, #10
 362 0076 0B4A     		ldr	r2, .L33+4
 363 0078 206A     		ldr	r0, [r4, #32]
 364 007a 2346     		mov	r3, r4
 365 007c FFF7FEFF 		bl	dmaStreamAllocate
 366              	.LVL21:
 367              		.loc 1 334 0
 368 0080 094A     		ldr	r2, .L33+8
 369 0082 606A     		ldr	r0, [r4, #36]
 370 0084 0A21     		movs	r1, #10
 371 0086 2346     		mov	r3, r4
 372 0088 FFF7FEFF 		bl	dmaStreamAllocate
 373              	.LVL22:
 374              		.loc 1 339 0
 375 008c 4FF46051 		mov	r1, #14336
 376 0090 C4F20201 		movt	r1, 16386
 377 0094 0A6C     		ldr	r2, [r1, #64]
 378 0096 42F48043 		orr	r3, r2, #16384
 379 009a 0B64     		str	r3, [r1, #64]
 380 009c E0E7     		b	.L26
 381              	.L34:
 382 009e 00BF     		.align	2
 383              	.L33:
 384 00a0 00000000 		.word	.LANCHOR1
 385 00a4 00000000 		.word	spi_lld_serve_rx_interrupt
 386 00a8 00000000 		.word	spi_lld_serve_tx_interrupt
 387              	.LBE5:
 388              		.cfi_endproc
 389              	.LFE121:
 390              		.size	spi_lld_start, .-spi_lld_start
 391 00ac AFF30080 		.section	.text.spi_lld_stop,"ax",%progbits
 392              		.align	2
 393              		.p2align 4,,15
 394              		.global	spi_lld_stop
 395              		.thumb
 396              		.thumb_func
 397              		.type	spi_lld_stop, %function
 398              	spi_lld_stop:
ARM GAS  C:\Users\Elis\AppData\Local\Temp\ccfi1FbR.s 			page 8


 399              	.LFB122:
 400              		.loc 1 442 0
 401              		.cfi_startproc
 402              		@ args = 0, pretend = 0, frame = 0
 403              		@ frame_needed = 0, uses_anonymous_args = 0
 404              	.LVL23:
 405              		.loc 1 445 0
 406 0000 0378     		ldrb	r3, [r0, #0]	@ zero_extendqisi2
 407 0002 022B     		cmp	r3, #2
 408              		.loc 1 442 0
 409 0004 10B5     		push	{r4, lr}
 410              	.LCFI3:
 411              		.cfi_def_cfa_offset 8
 412              		.cfi_offset 4, -8
 413              		.cfi_offset 14, -4
 414              		.loc 1 442 0
 415 0006 0446     		mov	r4, r0
 416              		.loc 1 445 0
 417 0008 00D0     		beq	.L39
 418              	.LVL24:
 419              	.L35:
 420 000a 10BD     		pop	{r4, pc}
 421              	.LVL25:
 422              	.L39:
 423              		.loc 1 448 0
 424 000c C169     		ldr	r1, [r0, #28]
 425              		.loc 1 450 0
 426 000e 006A     		ldr	r0, [r0, #32]
 427              	.LVL26:
 428              		.loc 1 448 0
 429 0010 0022     		movs	r2, #0
 430 0012 0A80     		strh	r2, [r1, #0]	@ movhi
 431              		.loc 1 449 0
 432 0014 8A80     		strh	r2, [r1, #4]	@ movhi
 433              		.loc 1 450 0
 434 0016 FFF7FEFF 		bl	dmaStreamRelease
 435              	.LVL27:
 436              		.loc 1 451 0
 437 001a 606A     		ldr	r0, [r4, #36]
 438 001c FFF7FEFF 		bl	dmaStreamRelease
 439              	.LVL28:
 440              		.loc 1 458 0
 441 0020 0548     		ldr	r0, .L40
 442 0022 8442     		cmp	r4, r0
 443 0024 F1D1     		bne	.L35
 444              		.loc 1 459 0
 445 0026 4FF46053 		mov	r3, #14336
 446 002a C4F20203 		movt	r3, 16386
 447 002e 196C     		ldr	r1, [r3, #64]
 448 0030 21F48042 		bic	r2, r1, #16384
 449 0034 1A64     		str	r2, [r3, #64]
 450 0036 E8E7     		b	.L35
 451              	.L41:
 452              		.align	2
 453              	.L40:
 454 0038 00000000 		.word	.LANCHOR1
 455              		.cfi_endproc
ARM GAS  C:\Users\Elis\AppData\Local\Temp\ccfi1FbR.s 			page 9


 456              	.LFE122:
 457              		.size	spi_lld_stop, .-spi_lld_stop
 458 003c AFF30080 		.section	.text.spi_lld_select,"ax",%progbits
 459              		.align	2
 460              		.p2align 4,,15
 461              		.global	spi_lld_select
 462              		.thumb
 463              		.thumb_func
 464              		.type	spi_lld_select, %function
 465              	spi_lld_select:
 466              	.LFB123:
 467              		.loc 1 487 0
 468              		.cfi_startproc
 469              		@ args = 0, pretend = 0, frame = 0
 470              		@ frame_needed = 0, uses_anonymous_args = 0
 471              		@ link register save eliminated.
 472              	.LVL29:
 473              		.loc 1 489 0
 474 0000 4368     		ldr	r3, [r0, #4]
 475 0002 1A89     		ldrh	r2, [r3, #8]
 476 0004 5868     		ldr	r0, [r3, #4]
 477              	.LVL30:
 478 0006 0121     		movs	r1, #1
 479 0008 01FA02F3 		lsl	r3, r1, r2
 480 000c 9AB2     		uxth	r2, r3
 481 000e 4283     		strh	r2, [r0, #26]	@ movhi
 482 0010 7047     		bx	lr
 483              		.cfi_endproc
 484              	.LFE123:
 485              		.size	spi_lld_select, .-spi_lld_select
 486 0012 00BFAFF3 		.section	.text.spi_lld_unselect,"ax",%progbits
 486      0080AFF3 
 486      0080AFF3 
 486      0080
 487              		.align	2
 488              		.p2align 4,,15
 489              		.global	spi_lld_unselect
 490              		.thumb
 491              		.thumb_func
 492              		.type	spi_lld_unselect, %function
 493              	spi_lld_unselect:
 494              	.LFB124:
 495              		.loc 1 500 0
 496              		.cfi_startproc
 497              		@ args = 0, pretend = 0, frame = 0
 498              		@ frame_needed = 0, uses_anonymous_args = 0
 499              		@ link register save eliminated.
 500              	.LVL31:
 501              		.loc 1 502 0
 502 0000 4368     		ldr	r3, [r0, #4]
 503 0002 1A89     		ldrh	r2, [r3, #8]
 504 0004 5868     		ldr	r0, [r3, #4]
 505              	.LVL32:
 506 0006 0121     		movs	r1, #1
 507 0008 01FA02F3 		lsl	r3, r1, r2
 508 000c 9AB2     		uxth	r2, r3
 509 000e 0283     		strh	r2, [r0, #24]	@ movhi
ARM GAS  C:\Users\Elis\AppData\Local\Temp\ccfi1FbR.s 			page 10


 510 0010 7047     		bx	lr
 511              		.cfi_endproc
 512              	.LFE124:
 513              		.size	spi_lld_unselect, .-spi_lld_unselect
 514 0012 00BFAFF3 		.section	.text.spi_lld_ignore,"ax",%progbits
 514      0080AFF3 
 514      0080AFF3 
 514      0080
 515              		.align	2
 516              		.p2align 4,,15
 517              		.global	spi_lld_ignore
 518              		.thumb
 519              		.thumb_func
 520              		.type	spi_lld_ignore, %function
 521              	spi_lld_ignore:
 522              	.LFB125:
 523              		.loc 1 516 0
 524              		.cfi_startproc
 525              		@ args = 0, pretend = 0, frame = 0
 526              		@ frame_needed = 0, uses_anonymous_args = 0
 527              		@ link register save eliminated.
 528              	.LVL33:
 529              		.loc 1 518 0
 530 0000 026A     		ldr	r2, [r0, #32]
 531              		.loc 1 522 0
 532 0002 436A     		ldr	r3, [r0, #36]
 533              		.loc 1 518 0
 534 0004 1268     		ldr	r2, [r2, #0]
 535              		.loc 1 522 0
 536 0006 1B68     		ldr	r3, [r3, #0]
 537              		.loc 1 516 0
 538 0008 70B4     		push	{r4, r5, r6}
 539              	.LCFI4:
 540              		.cfi_def_cfa_offset 12
 541              		.cfi_offset 4, -12
 542              		.cfi_offset 5, -8
 543              		.cfi_offset 6, -4
 544              		.loc 1 520 0
 545 000a 866A     		ldr	r6, [r0, #40]
 546              		.loc 1 524 0
 547 000c C56A     		ldr	r5, [r0, #44]
 548              		.loc 1 518 0
 549 000e 40F20004 		movw	r4, #:lower16:.LANCHOR2
 550              		.loc 1 522 0
 551 0012 40F20000 		movw	r0, #:lower16:.LANCHOR0
 552              	.LVL34:
 553 0016 C0F20000 		movt	r0, #:upper16:.LANCHOR0
 554              		.loc 1 518 0
 555 001a C0F20004 		movt	r4, #:upper16:.LANCHOR2
 556 001e D460     		str	r4, [r2, #12]
 557              		.loc 1 519 0
 558 0020 5160     		str	r1, [r2, #4]
 559              		.loc 1 520 0
 560 0022 1660     		str	r6, [r2, #0]
 561              		.loc 1 522 0
 562 0024 D860     		str	r0, [r3, #12]
 563              		.loc 1 523 0
ARM GAS  C:\Users\Elis\AppData\Local\Temp\ccfi1FbR.s 			page 11


 564 0026 5960     		str	r1, [r3, #4]
 565              		.loc 1 524 0
 566 0028 1D60     		str	r5, [r3, #0]
 567              		.loc 1 526 0
 568 002a 1168     		ldr	r1, [r2, #0]
 569              	.LVL35:
 570 002c 41F00100 		orr	r0, r1, #1
 571 0030 1060     		str	r0, [r2, #0]
 572              		.loc 1 527 0
 573 0032 1A68     		ldr	r2, [r3, #0]
 574              	.LVL36:
 575 0034 42F00101 		orr	r1, r2, #1
 576 0038 1960     		str	r1, [r3, #0]
 577              		.loc 1 528 0
 578 003a 70BC     		pop	{r4, r5, r6}
 579 003c 7047     		bx	lr
 580              		.cfi_endproc
 581              	.LFE125:
 582              		.size	spi_lld_ignore, .-spi_lld_ignore
 583 003e 00BF     		.section	.text.spi_lld_exchange,"ax",%progbits
 584              		.align	2
 585              		.p2align 4,,15
 586              		.global	spi_lld_exchange
 587              		.thumb
 588              		.thumb_func
 589              		.type	spi_lld_exchange, %function
 590              	spi_lld_exchange:
 591              	.LFB126:
 592              		.loc 1 546 0
 593              		.cfi_startproc
 594              		@ args = 0, pretend = 0, frame = 0
 595              		@ frame_needed = 0, uses_anonymous_args = 0
 596              		@ link register save eliminated.
 597              	.LVL37:
 598 0000 F0B4     		push	{r4, r5, r6, r7}
 599              	.LCFI5:
 600              		.cfi_def_cfa_offset 16
 601              		.cfi_offset 4, -16
 602              		.cfi_offset 5, -12
 603              		.cfi_offset 6, -8
 604              		.cfi_offset 7, -4
 605              		.loc 1 548 0
 606 0002 046A     		ldr	r4, [r0, #32]
 607              		.loc 1 552 0
 608 0004 476A     		ldr	r7, [r0, #36]
 609              		.loc 1 550 0
 610 0006 866A     		ldr	r6, [r0, #40]
 611              		.loc 1 554 0
 612 0008 C56A     		ldr	r5, [r0, #44]
 613              		.loc 1 548 0
 614 000a 2468     		ldr	r4, [r4, #0]
 615              		.loc 1 552 0
 616 000c 3868     		ldr	r0, [r7, #0]
 617              	.LVL38:
 618              		.loc 1 548 0
 619 000e E360     		str	r3, [r4, #12]
 620              		.loc 1 550 0
ARM GAS  C:\Users\Elis\AppData\Local\Temp\ccfi1FbR.s 			page 12


 621 0010 46F48066 		orr	r6, r6, #1024
 622              		.loc 1 554 0
 623 0014 45F48065 		orr	r5, r5, #1024
 624              		.loc 1 549 0
 625 0018 6160     		str	r1, [r4, #4]
 626              		.loc 1 550 0
 627 001a 2660     		str	r6, [r4, #0]
 628              		.loc 1 552 0
 629 001c C260     		str	r2, [r0, #12]
 630              		.loc 1 553 0
 631 001e 4160     		str	r1, [r0, #4]
 632              		.loc 1 554 0
 633 0020 0560     		str	r5, [r0, #0]
 634              		.loc 1 556 0
 635 0022 2368     		ldr	r3, [r4, #0]
 636              	.LVL39:
 637 0024 43F00101 		orr	r1, r3, #1
 638              	.LVL40:
 639 0028 2160     		str	r1, [r4, #0]
 640              		.loc 1 557 0
 641 002a 0268     		ldr	r2, [r0, #0]
 642              	.LVL41:
 643 002c 42F00103 		orr	r3, r2, #1
 644 0030 0360     		str	r3, [r0, #0]
 645              		.loc 1 558 0
 646 0032 F0BC     		pop	{r4, r5, r6, r7}
 647 0034 7047     		bx	lr
 648              		.cfi_endproc
 649              	.LFE126:
 650              		.size	spi_lld_exchange, .-spi_lld_exchange
 651 0036 00BFAFF3 		.section	.text.spi_lld_send,"ax",%progbits
 651      0080AFF3 
 651      0080
 652              		.align	2
 653              		.p2align 4,,15
 654              		.global	spi_lld_send
 655              		.thumb
 656              		.thumb_func
 657              		.type	spi_lld_send, %function
 658              	spi_lld_send:
 659              	.LFB127:
 660              		.loc 1 573 0
 661              		.cfi_startproc
 662              		@ args = 0, pretend = 0, frame = 0
 663              		@ frame_needed = 0, uses_anonymous_args = 0
 664              		@ link register save eliminated.
 665              	.LVL42:
 666 0000 F0B4     		push	{r4, r5, r6, r7}
 667              	.LCFI6:
 668              		.cfi_def_cfa_offset 16
 669              		.cfi_offset 4, -16
 670              		.cfi_offset 5, -12
 671              		.cfi_offset 6, -8
 672              		.cfi_offset 7, -4
 673              		.loc 1 575 0
 674 0002 036A     		ldr	r3, [r0, #32]
 675              		.loc 1 579 0
ARM GAS  C:\Users\Elis\AppData\Local\Temp\ccfi1FbR.s 			page 13


 676 0004 476A     		ldr	r7, [r0, #36]
 677              		.loc 1 581 0
 678 0006 C66A     		ldr	r6, [r0, #44]
 679              		.loc 1 575 0
 680 0008 1C68     		ldr	r4, [r3, #0]
 681              		.loc 1 577 0
 682 000a 806A     		ldr	r0, [r0, #40]
 683              	.LVL43:
 684              		.loc 1 579 0
 685 000c 3B68     		ldr	r3, [r7, #0]
 686              		.loc 1 575 0
 687 000e 40F20005 		movw	r5, #:lower16:.LANCHOR2
 688 0012 C0F20005 		movt	r5, #:upper16:.LANCHOR2
 689              		.loc 1 581 0
 690 0016 46F48066 		orr	r6, r6, #1024
 691              		.loc 1 575 0
 692 001a E560     		str	r5, [r4, #12]
 693              		.loc 1 576 0
 694 001c 6160     		str	r1, [r4, #4]
 695              		.loc 1 577 0
 696 001e 2060     		str	r0, [r4, #0]
 697              		.loc 1 579 0
 698 0020 DA60     		str	r2, [r3, #12]
 699              		.loc 1 580 0
 700 0022 5960     		str	r1, [r3, #4]
 701              		.loc 1 581 0
 702 0024 1E60     		str	r6, [r3, #0]
 703              		.loc 1 583 0
 704 0026 2268     		ldr	r2, [r4, #0]
 705              	.LVL44:
 706 0028 42F00101 		orr	r1, r2, #1
 707              	.LVL45:
 708 002c 2160     		str	r1, [r4, #0]
 709              		.loc 1 584 0
 710 002e 1868     		ldr	r0, [r3, #0]
 711 0030 40F00102 		orr	r2, r0, #1
 712 0034 1A60     		str	r2, [r3, #0]
 713              		.loc 1 585 0
 714 0036 F0BC     		pop	{r4, r5, r6, r7}
 715 0038 7047     		bx	lr
 716              		.cfi_endproc
 717              	.LFE127:
 718              		.size	spi_lld_send, .-spi_lld_send
 719 003a 00BFAFF3 		.section	.text.spi_lld_receive,"ax",%progbits
 719      0080
 720              		.align	2
 721              		.p2align 4,,15
 722              		.global	spi_lld_receive
 723              		.thumb
 724              		.thumb_func
 725              		.type	spi_lld_receive, %function
 726              	spi_lld_receive:
 727              	.LFB128:
 728              		.loc 1 600 0
 729              		.cfi_startproc
 730              		@ args = 0, pretend = 0, frame = 0
 731              		@ frame_needed = 0, uses_anonymous_args = 0
ARM GAS  C:\Users\Elis\AppData\Local\Temp\ccfi1FbR.s 			page 14


 732              		@ link register save eliminated.
 733              	.LVL46:
 734 0000 70B4     		push	{r4, r5, r6}
 735              	.LCFI7:
 736              		.cfi_def_cfa_offset 12
 737              		.cfi_offset 4, -12
 738              		.cfi_offset 5, -8
 739              		.cfi_offset 6, -4
 740              		.loc 1 606 0
 741 0002 436A     		ldr	r3, [r0, #36]
 742              		.loc 1 602 0
 743 0004 046A     		ldr	r4, [r0, #32]
 744              		.loc 1 604 0
 745 0006 866A     		ldr	r6, [r0, #40]
 746              		.loc 1 602 0
 747 0008 2468     		ldr	r4, [r4, #0]
 748              		.loc 1 606 0
 749 000a 1B68     		ldr	r3, [r3, #0]
 750              		.loc 1 608 0
 751 000c C06A     		ldr	r0, [r0, #44]
 752              	.LVL47:
 753              		.loc 1 602 0
 754 000e E260     		str	r2, [r4, #12]
 755              		.loc 1 606 0
 756 0010 40F20005 		movw	r5, #:lower16:.LANCHOR0
 757              		.loc 1 604 0
 758 0014 46F48066 		orr	r6, r6, #1024
 759              		.loc 1 606 0
 760 0018 C0F20005 		movt	r5, #:upper16:.LANCHOR0
 761              		.loc 1 603 0
 762 001c 6160     		str	r1, [r4, #4]
 763              		.loc 1 604 0
 764 001e 2660     		str	r6, [r4, #0]
 765              		.loc 1 606 0
 766 0020 DD60     		str	r5, [r3, #12]
 767              		.loc 1 607 0
 768 0022 5960     		str	r1, [r3, #4]
 769              		.loc 1 608 0
 770 0024 1860     		str	r0, [r3, #0]
 771              		.loc 1 610 0
 772 0026 2268     		ldr	r2, [r4, #0]
 773              	.LVL48:
 774 0028 42F00101 		orr	r1, r2, #1
 775              	.LVL49:
 776 002c 2160     		str	r1, [r4, #0]
 777              		.loc 1 611 0
 778 002e 1868     		ldr	r0, [r3, #0]
 779 0030 40F00102 		orr	r2, r0, #1
 780 0034 1A60     		str	r2, [r3, #0]
 781              		.loc 1 612 0
 782 0036 70BC     		pop	{r4, r5, r6}
 783 0038 7047     		bx	lr
 784              		.cfi_endproc
 785              	.LFE128:
 786              		.size	spi_lld_receive, .-spi_lld_receive
 787 003a 00BFAFF3 		.section	.text.spi_lld_polled_exchange,"ax",%progbits
 787      0080
ARM GAS  C:\Users\Elis\AppData\Local\Temp\ccfi1FbR.s 			page 15


 788              		.align	2
 789              		.p2align 4,,15
 790              		.global	spi_lld_polled_exchange
 791              		.thumb
 792              		.thumb_func
 793              		.type	spi_lld_polled_exchange, %function
 794              	spi_lld_polled_exchange:
 795              	.LFB129:
 796              		.loc 1 626 0
 797              		.cfi_startproc
 798              		@ args = 0, pretend = 0, frame = 0
 799              		@ frame_needed = 0, uses_anonymous_args = 0
 800              		@ link register save eliminated.
 801              	.LVL50:
 802              		.loc 1 628 0
 803 0000 C269     		ldr	r2, [r0, #28]
 804 0002 9181     		strh	r1, [r2, #12]	@ movhi
 805              	.L49:
 806              		.loc 1 629 0 discriminator 1
 807 0004 1389     		ldrh	r3, [r2, #8]
 808 0006 DB07     		lsls	r3, r3, #31
 809 0008 FCD5     		bpl	.L49
 810              		.loc 1 631 0
 811 000a 9089     		ldrh	r0, [r2, #12]
 812              	.LVL51:
 813              		.loc 1 632 0
 814 000c 80B2     		uxth	r0, r0
 815 000e 7047     		bx	lr
 816              		.cfi_endproc
 817              	.LFE129:
 818              		.size	spi_lld_polled_exchange, .-spi_lld_polled_exchange
 819              		.global	SPID2
 820              		.section	.bss.dummytx,"aw",%nobits
 821              		.align	1
 822              		.set	.LANCHOR0,. + 0
 823              		.type	dummytx, %object
 824              		.size	dummytx, 2
 825              	dummytx:
 826 0000 0000     		.space	2
 827              		.section	.bss.SPID2,"aw",%nobits
 828              		.align	2
 829              		.set	.LANCHOR1,. + 0
 830              		.type	SPID2, %object
 831              		.size	SPID2, 48
 832              	SPID2:
 833 0000 00000000 		.space	48
 833      00000000 
 833      00000000 
 833      00000000 
 833      00000000 
 834              		.section	.bss.dummyrx,"aw",%nobits
 835              		.align	1
 836              		.set	.LANCHOR2,. + 0
 837              		.type	dummyrx, %object
 838              		.size	dummyrx, 2
 839              	dummyrx:
 840 0000 0000     		.space	2
ARM GAS  C:\Users\Elis\AppData\Local\Temp\ccfi1FbR.s 			page 16


 841              		.text
 842              	.Letext0:
 843              		.file 2 "c:\\chibistudio\\tools\\gnu tools arm embedded\\4.7 2014q2\\bin\\../lib/gcc/arm-none-eabi
 844              		.file 3 "c:\\chibistudio\\tools\\gnu tools arm embedded\\4.7 2014q2\\bin\\../lib/gcc/arm-none-eabi
 845              		.file 4 "../../chibios/os/ports/GCC/ARMCMx/chtypes.h"
 846              		.file 5 "../../chibios/os/kernel/include/chlists.h"
 847              		.file 6 "../../chibios/os/kernel/include/chthreads.h"
 848              		.file 7 "../../chibios/os/ports/GCC/ARMCMx/chcore_v7m.h"
 849              		.file 8 "../../chibios/os/kernel/include/chmtx.h"
 850              		.file 9 "../../chibios/os/hal/platforms/STM32F4xx/stm32f4xx.h"
 851              		.file 10 "../../chibios/os/hal/platforms/STM32F4xx/stm32_dma.h"
 852              		.file 11 "../../chibios/os/hal/platforms/STM32/GPIOv2/pal_lld.h"
 853              		.file 12 "../../chibios/os/hal/include/spi.h"
 854              		.file 13 "../../chibios/os/hal/platforms/STM32/SPIv1/spi_lld.h"
 855              		.file 14 "../../chibios/os/ports/common/ARMCMx/CMSIS/include/core_cm4.h"
 856              		.file 15 "../../chibios/os/kernel/include/chdebug.h"
 857              		.file 16 "../../chibios/os/kernel/include/chschd.h"