ARM GAS  C:\Users\Elis\AppData\Local\Temp\ccwFfIz0.s 			page 1


   1              		.syntax unified
   2              		.cpu cortex-m4
   3              		.fpu softvfp
   4              		.eabi_attribute 20, 1
   5              		.eabi_attribute 21, 1
   6              		.eabi_attribute 23, 3
   7              		.eabi_attribute 24, 1
   8              		.eabi_attribute 25, 1
   9              		.eabi_attribute 26, 1
  10              		.eabi_attribute 30, 2
  11              		.eabi_attribute 34, 1
  12              		.eabi_attribute 18, 4
  13              		.thumb
  14              		.file	"stm32_dma.c"
  15              		.text
  16              	.Ltext0:
  17              		.cfi_sections	.debug_frame
  18              		.section	.text.Vector6C,"ax",%progbits
  19              		.align	2
  20              		.p2align 4,,15
  21              		.global	Vector6C
  22              		.thumb
  23              		.thumb_func
  24              		.type	Vector6C, %function
  25              	Vector6C:
  26              	.LFB118:
  27              		.file 1 "../../chibios/os/hal/platforms/STM32F4xx/stm32_dma.c"
  28              		.loc 1 128 0
  29              		.cfi_startproc
  30              		@ args = 0, pretend = 0, frame = 0
  31              		@ frame_needed = 0, uses_anonymous_args = 0
  32 0000 08B5     		push	{r3, lr}
  33              	.LCFI0:
  34              		.cfi_def_cfa_offset 8
  35              		.cfi_offset 3, -8
  36              		.cfi_offset 14, -4
  37              		.loc 1 131 0
  38 0002 FFF7FEFF 		bl	dbg_check_enter_isr
  39              	.LVL0:
  40              		.loc 1 133 0
  41 0006 4FF4C043 		mov	r3, #24576
  42 000a C4F20203 		movt	r3, 16386
  43              		.loc 1 135 0
  44 000e 0748     		ldr	r0, .L7
  45              		.loc 1 133 0
  46 0010 1968     		ldr	r1, [r3, #0]
  47              		.loc 1 135 0
  48 0012 0268     		ldr	r2, [r0, #0]
  49              		.loc 1 133 0
  50 0014 01F03D01 		and	r1, r1, #61
  51              	.LVL1:
  52              		.loc 1 134 0
  53 0018 9960     		str	r1, [r3, #8]
  54              		.loc 1 135 0
  55 001a 0AB1     		cbz	r2, .L2
  56              		.loc 1 136 0
  57 001c 4068     		ldr	r0, [r0, #4]
ARM GAS  C:\Users\Elis\AppData\Local\Temp\ccwFfIz0.s 			page 2


  58 001e 9047     		blx	r2
  59              	.LVL2:
  60              	.L2:
  61              		.loc 1 138 0
  62 0020 FFF7FEFF 		bl	dbg_check_leave_isr
  63              	.LVL3:
  64              		.loc 1 139 0
  65 0024 BDE80840 		pop	{r3, lr}
  66              		.loc 1 138 0
  67 0028 FFF7FEBF 		b	_port_irq_epilogue
  68              	.LVL4:
  69              	.L8:
  70              		.align	2
  71              	.L7:
  72 002c 00000000 		.word	.LANCHOR0
  73              		.cfi_endproc
  74              	.LFE118:
  75              		.size	Vector6C, .-Vector6C
  76              		.section	.text.Vector70,"ax",%progbits
  77              		.align	2
  78              		.p2align 4,,15
  79              		.global	Vector70
  80              		.thumb
  81              		.thumb_func
  82              		.type	Vector70, %function
  83              	Vector70:
  84              	.LFB119:
  85              		.loc 1 146 0
  86              		.cfi_startproc
  87              		@ args = 0, pretend = 0, frame = 0
  88              		@ frame_needed = 0, uses_anonymous_args = 0
  89 0000 10B5     		push	{r4, lr}
  90              	.LCFI1:
  91              		.cfi_def_cfa_offset 8
  92              		.cfi_offset 4, -8
  93              		.cfi_offset 14, -4
  94              		.loc 1 149 0
  95 0002 FFF7FEFF 		bl	dbg_check_enter_isr
  96              	.LVL5:
  97              		.loc 1 151 0
  98 0006 4FF4C043 		mov	r3, #24576
  99 000a C4F20203 		movt	r3, 16386
 100              		.loc 1 153 0
 101 000e 0848     		ldr	r0, .L14
 102              		.loc 1 151 0
 103 0010 1968     		ldr	r1, [r3, #0]
 104              		.loc 1 153 0
 105 0012 8268     		ldr	r2, [r0, #8]
 106              		.loc 1 151 0
 107 0014 8C09     		lsrs	r4, r1, #6
 108 0016 04F03D01 		and	r1, r4, #61
 109              	.LVL6:
 110              		.loc 1 152 0
 111 001a 8C01     		lsls	r4, r1, #6
 112 001c 9C60     		str	r4, [r3, #8]
 113              		.loc 1 153 0
 114 001e 0AB1     		cbz	r2, .L10
ARM GAS  C:\Users\Elis\AppData\Local\Temp\ccwFfIz0.s 			page 3


 115              		.loc 1 154 0
 116 0020 C068     		ldr	r0, [r0, #12]
 117 0022 9047     		blx	r2
 118              	.LVL7:
 119              	.L10:
 120              		.loc 1 156 0
 121 0024 FFF7FEFF 		bl	dbg_check_leave_isr
 122              	.LVL8:
 123              		.loc 1 157 0
 124 0028 BDE81040 		pop	{r4, lr}
 125              		.loc 1 156 0
 126 002c FFF7FEBF 		b	_port_irq_epilogue
 127              	.LVL9:
 128              	.L15:
 129              		.align	2
 130              	.L14:
 131 0030 00000000 		.word	.LANCHOR0
 132              		.cfi_endproc
 133              	.LFE119:
 134              		.size	Vector70, .-Vector70
 135 0034 AFF30080 		.section	.text.Vector74,"ax",%progbits
 135      AFF30080 
 135      AFF30080 
 136              		.align	2
 137              		.p2align 4,,15
 138              		.global	Vector74
 139              		.thumb
 140              		.thumb_func
 141              		.type	Vector74, %function
 142              	Vector74:
 143              	.LFB120:
 144              		.loc 1 164 0
 145              		.cfi_startproc
 146              		@ args = 0, pretend = 0, frame = 0
 147              		@ frame_needed = 0, uses_anonymous_args = 0
 148 0000 10B5     		push	{r4, lr}
 149              	.LCFI2:
 150              		.cfi_def_cfa_offset 8
 151              		.cfi_offset 4, -8
 152              		.cfi_offset 14, -4
 153              		.loc 1 167 0
 154 0002 FFF7FEFF 		bl	dbg_check_enter_isr
 155              	.LVL10:
 156              		.loc 1 169 0
 157 0006 4FF4C043 		mov	r3, #24576
 158 000a C4F20203 		movt	r3, 16386
 159              		.loc 1 171 0
 160 000e 0848     		ldr	r0, .L21
 161              		.loc 1 169 0
 162 0010 1968     		ldr	r1, [r3, #0]
 163              		.loc 1 171 0
 164 0012 0269     		ldr	r2, [r0, #16]
 165              		.loc 1 169 0
 166 0014 0C0C     		lsrs	r4, r1, #16
 167 0016 04F03D01 		and	r1, r4, #61
 168              	.LVL11:
 169              		.loc 1 170 0
ARM GAS  C:\Users\Elis\AppData\Local\Temp\ccwFfIz0.s 			page 4


 170 001a 0C04     		lsls	r4, r1, #16
 171 001c 9C60     		str	r4, [r3, #8]
 172              		.loc 1 171 0
 173 001e 0AB1     		cbz	r2, .L17
 174              		.loc 1 172 0
 175 0020 4069     		ldr	r0, [r0, #20]
 176 0022 9047     		blx	r2
 177              	.LVL12:
 178              	.L17:
 179              		.loc 1 174 0
 180 0024 FFF7FEFF 		bl	dbg_check_leave_isr
 181              	.LVL13:
 182              		.loc 1 175 0
 183 0028 BDE81040 		pop	{r4, lr}
 184              		.loc 1 174 0
 185 002c FFF7FEBF 		b	_port_irq_epilogue
 186              	.LVL14:
 187              	.L22:
 188              		.align	2
 189              	.L21:
 190 0030 00000000 		.word	.LANCHOR0
 191              		.cfi_endproc
 192              	.LFE120:
 193              		.size	Vector74, .-Vector74
 194 0034 AFF30080 		.section	.text.Vector78,"ax",%progbits
 194      AFF30080 
 194      AFF30080 
 195              		.align	2
 196              		.p2align 4,,15
 197              		.global	Vector78
 198              		.thumb
 199              		.thumb_func
 200              		.type	Vector78, %function
 201              	Vector78:
 202              	.LFB121:
 203              		.loc 1 182 0
 204              		.cfi_startproc
 205              		@ args = 0, pretend = 0, frame = 0
 206              		@ frame_needed = 0, uses_anonymous_args = 0
 207 0000 10B5     		push	{r4, lr}
 208              	.LCFI3:
 209              		.cfi_def_cfa_offset 8
 210              		.cfi_offset 4, -8
 211              		.cfi_offset 14, -4
 212              		.loc 1 185 0
 213 0002 FFF7FEFF 		bl	dbg_check_enter_isr
 214              	.LVL15:
 215              		.loc 1 187 0
 216 0006 4FF4C043 		mov	r3, #24576
 217 000a C4F20203 		movt	r3, 16386
 218              		.loc 1 189 0
 219 000e 0848     		ldr	r0, .L28
 220              		.loc 1 187 0
 221 0010 1968     		ldr	r1, [r3, #0]
 222              		.loc 1 189 0
 223 0012 8269     		ldr	r2, [r0, #24]
 224              		.loc 1 187 0
ARM GAS  C:\Users\Elis\AppData\Local\Temp\ccwFfIz0.s 			page 5


 225 0014 8C0D     		lsrs	r4, r1, #22
 226 0016 04F03D01 		and	r1, r4, #61
 227              	.LVL16:
 228              		.loc 1 188 0
 229 001a 8C05     		lsls	r4, r1, #22
 230 001c 9C60     		str	r4, [r3, #8]
 231              		.loc 1 189 0
 232 001e 0AB1     		cbz	r2, .L24
 233              		.loc 1 190 0
 234 0020 C069     		ldr	r0, [r0, #28]
 235 0022 9047     		blx	r2
 236              	.LVL17:
 237              	.L24:
 238              		.loc 1 192 0
 239 0024 FFF7FEFF 		bl	dbg_check_leave_isr
 240              	.LVL18:
 241              		.loc 1 193 0
 242 0028 BDE81040 		pop	{r4, lr}
 243              		.loc 1 192 0
 244 002c FFF7FEBF 		b	_port_irq_epilogue
 245              	.LVL19:
 246              	.L29:
 247              		.align	2
 248              	.L28:
 249 0030 00000000 		.word	.LANCHOR0
 250              		.cfi_endproc
 251              	.LFE121:
 252              		.size	Vector78, .-Vector78
 253 0034 AFF30080 		.section	.text.Vector7C,"ax",%progbits
 253      AFF30080 
 253      AFF30080 
 254              		.align	2
 255              		.p2align 4,,15
 256              		.global	Vector7C
 257              		.thumb
 258              		.thumb_func
 259              		.type	Vector7C, %function
 260              	Vector7C:
 261              	.LFB122:
 262              		.loc 1 200 0
 263              		.cfi_startproc
 264              		@ args = 0, pretend = 0, frame = 0
 265              		@ frame_needed = 0, uses_anonymous_args = 0
 266 0000 08B5     		push	{r3, lr}
 267              	.LCFI4:
 268              		.cfi_def_cfa_offset 8
 269              		.cfi_offset 3, -8
 270              		.cfi_offset 14, -4
 271              		.loc 1 203 0
 272 0002 FFF7FEFF 		bl	dbg_check_enter_isr
 273              	.LVL20:
 274              		.loc 1 205 0
 275 0006 4FF4C043 		mov	r3, #24576
 276 000a C4F20203 		movt	r3, 16386
 277              		.loc 1 207 0
 278 000e 0748     		ldr	r0, .L35
 279              		.loc 1 205 0
ARM GAS  C:\Users\Elis\AppData\Local\Temp\ccwFfIz0.s 			page 6


 280 0010 5968     		ldr	r1, [r3, #4]
 281              		.loc 1 207 0
 282 0012 026A     		ldr	r2, [r0, #32]
 283              		.loc 1 205 0
 284 0014 01F03D01 		and	r1, r1, #61
 285              	.LVL21:
 286              		.loc 1 206 0
 287 0018 D960     		str	r1, [r3, #12]
 288              		.loc 1 207 0
 289 001a 0AB1     		cbz	r2, .L31
 290              		.loc 1 208 0
 291 001c 406A     		ldr	r0, [r0, #36]
 292 001e 9047     		blx	r2
 293              	.LVL22:
 294              	.L31:
 295              		.loc 1 210 0
 296 0020 FFF7FEFF 		bl	dbg_check_leave_isr
 297              	.LVL23:
 298              		.loc 1 211 0
 299 0024 BDE80840 		pop	{r3, lr}
 300              		.loc 1 210 0
 301 0028 FFF7FEBF 		b	_port_irq_epilogue
 302              	.LVL24:
 303              	.L36:
 304              		.align	2
 305              	.L35:
 306 002c 00000000 		.word	.LANCHOR0
 307              		.cfi_endproc
 308              	.LFE122:
 309              		.size	Vector7C, .-Vector7C
 310              		.section	.text.Vector80,"ax",%progbits
 311              		.align	2
 312              		.p2align 4,,15
 313              		.global	Vector80
 314              		.thumb
 315              		.thumb_func
 316              		.type	Vector80, %function
 317              	Vector80:
 318              	.LFB123:
 319              		.loc 1 218 0
 320              		.cfi_startproc
 321              		@ args = 0, pretend = 0, frame = 0
 322              		@ frame_needed = 0, uses_anonymous_args = 0
 323 0000 10B5     		push	{r4, lr}
 324              	.LCFI5:
 325              		.cfi_def_cfa_offset 8
 326              		.cfi_offset 4, -8
 327              		.cfi_offset 14, -4
 328              		.loc 1 221 0
 329 0002 FFF7FEFF 		bl	dbg_check_enter_isr
 330              	.LVL25:
 331              		.loc 1 223 0
 332 0006 4FF4C043 		mov	r3, #24576
 333 000a C4F20203 		movt	r3, 16386
 334              		.loc 1 225 0
 335 000e 0848     		ldr	r0, .L42
 336              		.loc 1 223 0
ARM GAS  C:\Users\Elis\AppData\Local\Temp\ccwFfIz0.s 			page 7


 337 0010 5968     		ldr	r1, [r3, #4]
 338              		.loc 1 225 0
 339 0012 826A     		ldr	r2, [r0, #40]
 340              		.loc 1 223 0
 341 0014 8C09     		lsrs	r4, r1, #6
 342 0016 04F03D01 		and	r1, r4, #61
 343              	.LVL26:
 344              		.loc 1 224 0
 345 001a 8C01     		lsls	r4, r1, #6
 346 001c DC60     		str	r4, [r3, #12]
 347              		.loc 1 225 0
 348 001e 0AB1     		cbz	r2, .L38
 349              		.loc 1 226 0
 350 0020 C06A     		ldr	r0, [r0, #44]
 351 0022 9047     		blx	r2
 352              	.LVL27:
 353              	.L38:
 354              		.loc 1 228 0
 355 0024 FFF7FEFF 		bl	dbg_check_leave_isr
 356              	.LVL28:
 357              		.loc 1 229 0
 358 0028 BDE81040 		pop	{r4, lr}
 359              		.loc 1 228 0
 360 002c FFF7FEBF 		b	_port_irq_epilogue
 361              	.LVL29:
 362              	.L43:
 363              		.align	2
 364              	.L42:
 365 0030 00000000 		.word	.LANCHOR0
 366              		.cfi_endproc
 367              	.LFE123:
 368              		.size	Vector80, .-Vector80
 369 0034 AFF30080 		.section	.text.Vector84,"ax",%progbits
 369      AFF30080 
 369      AFF30080 
 370              		.align	2
 371              		.p2align 4,,15
 372              		.global	Vector84
 373              		.thumb
 374              		.thumb_func
 375              		.type	Vector84, %function
 376              	Vector84:
 377              	.LFB124:
 378              		.loc 1 236 0
 379              		.cfi_startproc
 380              		@ args = 0, pretend = 0, frame = 0
 381              		@ frame_needed = 0, uses_anonymous_args = 0
 382 0000 10B5     		push	{r4, lr}
 383              	.LCFI6:
 384              		.cfi_def_cfa_offset 8
 385              		.cfi_offset 4, -8
 386              		.cfi_offset 14, -4
 387              		.loc 1 239 0
 388 0002 FFF7FEFF 		bl	dbg_check_enter_isr
 389              	.LVL30:
 390              		.loc 1 241 0
 391 0006 4FF4C043 		mov	r3, #24576
ARM GAS  C:\Users\Elis\AppData\Local\Temp\ccwFfIz0.s 			page 8


 392 000a C4F20203 		movt	r3, 16386
 393              		.loc 1 243 0
 394 000e 0848     		ldr	r0, .L49
 395              		.loc 1 241 0
 396 0010 5968     		ldr	r1, [r3, #4]
 397              		.loc 1 243 0
 398 0012 026B     		ldr	r2, [r0, #48]
 399              		.loc 1 241 0
 400 0014 0C0C     		lsrs	r4, r1, #16
 401 0016 04F03D01 		and	r1, r4, #61
 402              	.LVL31:
 403              		.loc 1 242 0
 404 001a 0C04     		lsls	r4, r1, #16
 405 001c DC60     		str	r4, [r3, #12]
 406              		.loc 1 243 0
 407 001e 0AB1     		cbz	r2, .L45
 408              		.loc 1 244 0
 409 0020 406B     		ldr	r0, [r0, #52]
 410 0022 9047     		blx	r2
 411              	.LVL32:
 412              	.L45:
 413              		.loc 1 246 0
 414 0024 FFF7FEFF 		bl	dbg_check_leave_isr
 415              	.LVL33:
 416              		.loc 1 247 0
 417 0028 BDE81040 		pop	{r4, lr}
 418              		.loc 1 246 0
 419 002c FFF7FEBF 		b	_port_irq_epilogue
 420              	.LVL34:
 421              	.L50:
 422              		.align	2
 423              	.L49:
 424 0030 00000000 		.word	.LANCHOR0
 425              		.cfi_endproc
 426              	.LFE124:
 427              		.size	Vector84, .-Vector84
 428 0034 AFF30080 		.section	.text.VectorFC,"ax",%progbits
 428      AFF30080 
 428      AFF30080 
 429              		.align	2
 430              		.p2align 4,,15
 431              		.global	VectorFC
 432              		.thumb
 433              		.thumb_func
 434              		.type	VectorFC, %function
 435              	VectorFC:
 436              	.LFB125:
 437              		.loc 1 254 0
 438              		.cfi_startproc
 439              		@ args = 0, pretend = 0, frame = 0
 440              		@ frame_needed = 0, uses_anonymous_args = 0
 441 0000 10B5     		push	{r4, lr}
 442              	.LCFI7:
 443              		.cfi_def_cfa_offset 8
 444              		.cfi_offset 4, -8
 445              		.cfi_offset 14, -4
 446              		.loc 1 257 0
ARM GAS  C:\Users\Elis\AppData\Local\Temp\ccwFfIz0.s 			page 9


 447 0002 FFF7FEFF 		bl	dbg_check_enter_isr
 448              	.LVL35:
 449              		.loc 1 259 0
 450 0006 4FF4C043 		mov	r3, #24576
 451 000a C4F20203 		movt	r3, 16386
 452              		.loc 1 261 0
 453 000e 0848     		ldr	r0, .L56
 454              		.loc 1 259 0
 455 0010 5968     		ldr	r1, [r3, #4]
 456              		.loc 1 261 0
 457 0012 826B     		ldr	r2, [r0, #56]
 458              		.loc 1 259 0
 459 0014 8C0D     		lsrs	r4, r1, #22
 460 0016 04F03D01 		and	r1, r4, #61
 461              	.LVL36:
 462              		.loc 1 260 0
 463 001a 8C05     		lsls	r4, r1, #22
 464 001c DC60     		str	r4, [r3, #12]
 465              		.loc 1 261 0
 466 001e 0AB1     		cbz	r2, .L52
 467              		.loc 1 262 0
 468 0020 C06B     		ldr	r0, [r0, #60]
 469 0022 9047     		blx	r2
 470              	.LVL37:
 471              	.L52:
 472              		.loc 1 264 0
 473 0024 FFF7FEFF 		bl	dbg_check_leave_isr
 474              	.LVL38:
 475              		.loc 1 265 0
 476 0028 BDE81040 		pop	{r4, lr}
 477              		.loc 1 264 0
 478 002c FFF7FEBF 		b	_port_irq_epilogue
 479              	.LVL39:
 480              	.L57:
 481              		.align	2
 482              	.L56:
 483 0030 00000000 		.word	.LANCHOR0
 484              		.cfi_endproc
 485              	.LFE125:
 486              		.size	VectorFC, .-VectorFC
 487 0034 AFF30080 		.section	.text.Vector120,"ax",%progbits
 487      AFF30080 
 487      AFF30080 
 488              		.align	2
 489              		.p2align 4,,15
 490              		.global	Vector120
 491              		.thumb
 492              		.thumb_func
 493              		.type	Vector120, %function
 494              	Vector120:
 495              	.LFB126:
 496              		.loc 1 272 0
 497              		.cfi_startproc
 498              		@ args = 0, pretend = 0, frame = 0
 499              		@ frame_needed = 0, uses_anonymous_args = 0
 500 0000 08B5     		push	{r3, lr}
 501              	.LCFI8:
ARM GAS  C:\Users\Elis\AppData\Local\Temp\ccwFfIz0.s 			page 10


 502              		.cfi_def_cfa_offset 8
 503              		.cfi_offset 3, -8
 504              		.cfi_offset 14, -4
 505              		.loc 1 275 0
 506 0002 FFF7FEFF 		bl	dbg_check_enter_isr
 507              	.LVL40:
 508              		.loc 1 277 0
 509 0006 4FF4C843 		mov	r3, #25600
 510 000a C4F20203 		movt	r3, 16386
 511              		.loc 1 279 0
 512 000e 0748     		ldr	r0, .L63
 513              		.loc 1 277 0
 514 0010 1968     		ldr	r1, [r3, #0]
 515              		.loc 1 279 0
 516 0012 026C     		ldr	r2, [r0, #64]
 517              		.loc 1 277 0
 518 0014 01F03D01 		and	r1, r1, #61
 519              	.LVL41:
 520              		.loc 1 278 0
 521 0018 9960     		str	r1, [r3, #8]
 522              		.loc 1 279 0
 523 001a 0AB1     		cbz	r2, .L59
 524              		.loc 1 280 0
 525 001c 406C     		ldr	r0, [r0, #68]
 526 001e 9047     		blx	r2
 527              	.LVL42:
 528              	.L59:
 529              		.loc 1 282 0
 530 0020 FFF7FEFF 		bl	dbg_check_leave_isr
 531              	.LVL43:
 532              		.loc 1 283 0
 533 0024 BDE80840 		pop	{r3, lr}
 534              		.loc 1 282 0
 535 0028 FFF7FEBF 		b	_port_irq_epilogue
 536              	.LVL44:
 537              	.L64:
 538              		.align	2
 539              	.L63:
 540 002c 00000000 		.word	.LANCHOR0
 541              		.cfi_endproc
 542              	.LFE126:
 543              		.size	Vector120, .-Vector120
 544              		.section	.text.Vector124,"ax",%progbits
 545              		.align	2
 546              		.p2align 4,,15
 547              		.global	Vector124
 548              		.thumb
 549              		.thumb_func
 550              		.type	Vector124, %function
 551              	Vector124:
 552              	.LFB127:
 553              		.loc 1 290 0
 554              		.cfi_startproc
 555              		@ args = 0, pretend = 0, frame = 0
 556              		@ frame_needed = 0, uses_anonymous_args = 0
 557 0000 10B5     		push	{r4, lr}
 558              	.LCFI9:
ARM GAS  C:\Users\Elis\AppData\Local\Temp\ccwFfIz0.s 			page 11


 559              		.cfi_def_cfa_offset 8
 560              		.cfi_offset 4, -8
 561              		.cfi_offset 14, -4
 562              		.loc 1 293 0
 563 0002 FFF7FEFF 		bl	dbg_check_enter_isr
 564              	.LVL45:
 565              		.loc 1 295 0
 566 0006 4FF4C843 		mov	r3, #25600
 567 000a C4F20203 		movt	r3, 16386
 568              		.loc 1 297 0
 569 000e 0848     		ldr	r0, .L70
 570              		.loc 1 295 0
 571 0010 1968     		ldr	r1, [r3, #0]
 572              		.loc 1 297 0
 573 0012 826C     		ldr	r2, [r0, #72]
 574              		.loc 1 295 0
 575 0014 8C09     		lsrs	r4, r1, #6
 576 0016 04F03D01 		and	r1, r4, #61
 577              	.LVL46:
 578              		.loc 1 296 0
 579 001a 8C01     		lsls	r4, r1, #6
 580 001c 9C60     		str	r4, [r3, #8]
 581              		.loc 1 297 0
 582 001e 0AB1     		cbz	r2, .L66
 583              		.loc 1 298 0
 584 0020 C06C     		ldr	r0, [r0, #76]
 585 0022 9047     		blx	r2
 586              	.LVL47:
 587              	.L66:
 588              		.loc 1 300 0
 589 0024 FFF7FEFF 		bl	dbg_check_leave_isr
 590              	.LVL48:
 591              		.loc 1 301 0
 592 0028 BDE81040 		pop	{r4, lr}
 593              		.loc 1 300 0
 594 002c FFF7FEBF 		b	_port_irq_epilogue
 595              	.LVL49:
 596              	.L71:
 597              		.align	2
 598              	.L70:
 599 0030 00000000 		.word	.LANCHOR0
 600              		.cfi_endproc
 601              	.LFE127:
 602              		.size	Vector124, .-Vector124
 603 0034 AFF30080 		.section	.text.Vector128,"ax",%progbits
 603      AFF30080 
 603      AFF30080 
 604              		.align	2
 605              		.p2align 4,,15
 606              		.global	Vector128
 607              		.thumb
 608              		.thumb_func
 609              		.type	Vector128, %function
 610              	Vector128:
 611              	.LFB128:
 612              		.loc 1 308 0
 613              		.cfi_startproc
ARM GAS  C:\Users\Elis\AppData\Local\Temp\ccwFfIz0.s 			page 12


 614              		@ args = 0, pretend = 0, frame = 0
 615              		@ frame_needed = 0, uses_anonymous_args = 0
 616 0000 10B5     		push	{r4, lr}
 617              	.LCFI10:
 618              		.cfi_def_cfa_offset 8
 619              		.cfi_offset 4, -8
 620              		.cfi_offset 14, -4
 621              		.loc 1 311 0
 622 0002 FFF7FEFF 		bl	dbg_check_enter_isr
 623              	.LVL50:
 624              		.loc 1 313 0
 625 0006 4FF4C843 		mov	r3, #25600
 626 000a C4F20203 		movt	r3, 16386
 627              		.loc 1 315 0
 628 000e 0848     		ldr	r0, .L77
 629              		.loc 1 313 0
 630 0010 1968     		ldr	r1, [r3, #0]
 631              		.loc 1 315 0
 632 0012 026D     		ldr	r2, [r0, #80]
 633              		.loc 1 313 0
 634 0014 0C0C     		lsrs	r4, r1, #16
 635 0016 04F03D01 		and	r1, r4, #61
 636              	.LVL51:
 637              		.loc 1 314 0
 638 001a 0C04     		lsls	r4, r1, #16
 639 001c 9C60     		str	r4, [r3, #8]
 640              		.loc 1 315 0
 641 001e 0AB1     		cbz	r2, .L73
 642              		.loc 1 316 0
 643 0020 406D     		ldr	r0, [r0, #84]
 644 0022 9047     		blx	r2
 645              	.LVL52:
 646              	.L73:
 647              		.loc 1 318 0
 648 0024 FFF7FEFF 		bl	dbg_check_leave_isr
 649              	.LVL53:
 650              		.loc 1 319 0
 651 0028 BDE81040 		pop	{r4, lr}
 652              		.loc 1 318 0
 653 002c FFF7FEBF 		b	_port_irq_epilogue
 654              	.LVL54:
 655              	.L78:
 656              		.align	2
 657              	.L77:
 658 0030 00000000 		.word	.LANCHOR0
 659              		.cfi_endproc
 660              	.LFE128:
 661              		.size	Vector128, .-Vector128
 662 0034 AFF30080 		.section	.text.Vector12C,"ax",%progbits
 662      AFF30080 
 662      AFF30080 
 663              		.align	2
 664              		.p2align 4,,15
 665              		.global	Vector12C
 666              		.thumb
 667              		.thumb_func
 668              		.type	Vector12C, %function
ARM GAS  C:\Users\Elis\AppData\Local\Temp\ccwFfIz0.s 			page 13


 669              	Vector12C:
 670              	.LFB129:
 671              		.loc 1 326 0
 672              		.cfi_startproc
 673              		@ args = 0, pretend = 0, frame = 0
 674              		@ frame_needed = 0, uses_anonymous_args = 0
 675 0000 10B5     		push	{r4, lr}
 676              	.LCFI11:
 677              		.cfi_def_cfa_offset 8
 678              		.cfi_offset 4, -8
 679              		.cfi_offset 14, -4
 680              		.loc 1 329 0
 681 0002 FFF7FEFF 		bl	dbg_check_enter_isr
 682              	.LVL55:
 683              		.loc 1 331 0
 684 0006 4FF4C843 		mov	r3, #25600
 685 000a C4F20203 		movt	r3, 16386
 686              		.loc 1 333 0
 687 000e 0848     		ldr	r0, .L84
 688              		.loc 1 331 0
 689 0010 1968     		ldr	r1, [r3, #0]
 690              		.loc 1 333 0
 691 0012 826D     		ldr	r2, [r0, #88]
 692              		.loc 1 331 0
 693 0014 8C0D     		lsrs	r4, r1, #22
 694 0016 04F03D01 		and	r1, r4, #61
 695              	.LVL56:
 696              		.loc 1 332 0
 697 001a 8C05     		lsls	r4, r1, #22
 698 001c 9C60     		str	r4, [r3, #8]
 699              		.loc 1 333 0
 700 001e 0AB1     		cbz	r2, .L80
 701              		.loc 1 334 0
 702 0020 C06D     		ldr	r0, [r0, #92]
 703 0022 9047     		blx	r2
 704              	.LVL57:
 705              	.L80:
 706              		.loc 1 336 0
 707 0024 FFF7FEFF 		bl	dbg_check_leave_isr
 708              	.LVL58:
 709              		.loc 1 337 0
 710 0028 BDE81040 		pop	{r4, lr}
 711              		.loc 1 336 0
 712 002c FFF7FEBF 		b	_port_irq_epilogue
 713              	.LVL59:
 714              	.L85:
 715              		.align	2
 716              	.L84:
 717 0030 00000000 		.word	.LANCHOR0
 718              		.cfi_endproc
 719              	.LFE129:
 720              		.size	Vector12C, .-Vector12C
 721 0034 AFF30080 		.section	.text.Vector130,"ax",%progbits
 721      AFF30080 
 721      AFF30080 
 722              		.align	2
 723              		.p2align 4,,15
ARM GAS  C:\Users\Elis\AppData\Local\Temp\ccwFfIz0.s 			page 14


 724              		.global	Vector130
 725              		.thumb
 726              		.thumb_func
 727              		.type	Vector130, %function
 728              	Vector130:
 729              	.LFB130:
 730              		.loc 1 344 0
 731              		.cfi_startproc
 732              		@ args = 0, pretend = 0, frame = 0
 733              		@ frame_needed = 0, uses_anonymous_args = 0
 734 0000 08B5     		push	{r3, lr}
 735              	.LCFI12:
 736              		.cfi_def_cfa_offset 8
 737              		.cfi_offset 3, -8
 738              		.cfi_offset 14, -4
 739              		.loc 1 347 0
 740 0002 FFF7FEFF 		bl	dbg_check_enter_isr
 741              	.LVL60:
 742              		.loc 1 349 0
 743 0006 4FF4C843 		mov	r3, #25600
 744 000a C4F20203 		movt	r3, 16386
 745              		.loc 1 351 0
 746 000e 0748     		ldr	r0, .L91
 747              		.loc 1 349 0
 748 0010 5968     		ldr	r1, [r3, #4]
 749              		.loc 1 351 0
 750 0012 026E     		ldr	r2, [r0, #96]
 751              		.loc 1 349 0
 752 0014 01F03D01 		and	r1, r1, #61
 753              	.LVL61:
 754              		.loc 1 350 0
 755 0018 D960     		str	r1, [r3, #12]
 756              		.loc 1 351 0
 757 001a 0AB1     		cbz	r2, .L87
 758              		.loc 1 352 0
 759 001c 406E     		ldr	r0, [r0, #100]
 760 001e 9047     		blx	r2
 761              	.LVL62:
 762              	.L87:
 763              		.loc 1 354 0
 764 0020 FFF7FEFF 		bl	dbg_check_leave_isr
 765              	.LVL63:
 766              		.loc 1 355 0
 767 0024 BDE80840 		pop	{r3, lr}
 768              		.loc 1 354 0
 769 0028 FFF7FEBF 		b	_port_irq_epilogue
 770              	.LVL64:
 771              	.L92:
 772              		.align	2
 773              	.L91:
 774 002c 00000000 		.word	.LANCHOR0
 775              		.cfi_endproc
 776              	.LFE130:
 777              		.size	Vector130, .-Vector130
 778              		.section	.text.Vector150,"ax",%progbits
 779              		.align	2
 780              		.p2align 4,,15
ARM GAS  C:\Users\Elis\AppData\Local\Temp\ccwFfIz0.s 			page 15


 781              		.global	Vector150
 782              		.thumb
 783              		.thumb_func
 784              		.type	Vector150, %function
 785              	Vector150:
 786              	.LFB131:
 787              		.loc 1 362 0
 788              		.cfi_startproc
 789              		@ args = 0, pretend = 0, frame = 0
 790              		@ frame_needed = 0, uses_anonymous_args = 0
 791 0000 10B5     		push	{r4, lr}
 792              	.LCFI13:
 793              		.cfi_def_cfa_offset 8
 794              		.cfi_offset 4, -8
 795              		.cfi_offset 14, -4
 796              		.loc 1 365 0
 797 0002 FFF7FEFF 		bl	dbg_check_enter_isr
 798              	.LVL65:
 799              		.loc 1 367 0
 800 0006 4FF4C843 		mov	r3, #25600
 801 000a C4F20203 		movt	r3, 16386
 802              		.loc 1 369 0
 803 000e 0848     		ldr	r0, .L98
 804              		.loc 1 367 0
 805 0010 5968     		ldr	r1, [r3, #4]
 806              		.loc 1 369 0
 807 0012 826E     		ldr	r2, [r0, #104]
 808              		.loc 1 367 0
 809 0014 8C09     		lsrs	r4, r1, #6
 810 0016 04F03D01 		and	r1, r4, #61
 811              	.LVL66:
 812              		.loc 1 368 0
 813 001a 8C01     		lsls	r4, r1, #6
 814 001c DC60     		str	r4, [r3, #12]
 815              		.loc 1 369 0
 816 001e 0AB1     		cbz	r2, .L94
 817              		.loc 1 370 0
 818 0020 C06E     		ldr	r0, [r0, #108]
 819 0022 9047     		blx	r2
 820              	.LVL67:
 821              	.L94:
 822              		.loc 1 372 0
 823 0024 FFF7FEFF 		bl	dbg_check_leave_isr
 824              	.LVL68:
 825              		.loc 1 373 0
 826 0028 BDE81040 		pop	{r4, lr}
 827              		.loc 1 372 0
 828 002c FFF7FEBF 		b	_port_irq_epilogue
 829              	.LVL69:
 830              	.L99:
 831              		.align	2
 832              	.L98:
 833 0030 00000000 		.word	.LANCHOR0
 834              		.cfi_endproc
 835              	.LFE131:
 836              		.size	Vector150, .-Vector150
 837 0034 AFF30080 		.section	.text.Vector154,"ax",%progbits
ARM GAS  C:\Users\Elis\AppData\Local\Temp\ccwFfIz0.s 			page 16


 837      AFF30080 
 837      AFF30080 
 838              		.align	2
 839              		.p2align 4,,15
 840              		.global	Vector154
 841              		.thumb
 842              		.thumb_func
 843              		.type	Vector154, %function
 844              	Vector154:
 845              	.LFB132:
 846              		.loc 1 380 0
 847              		.cfi_startproc
 848              		@ args = 0, pretend = 0, frame = 0
 849              		@ frame_needed = 0, uses_anonymous_args = 0
 850 0000 10B5     		push	{r4, lr}
 851              	.LCFI14:
 852              		.cfi_def_cfa_offset 8
 853              		.cfi_offset 4, -8
 854              		.cfi_offset 14, -4
 855              		.loc 1 383 0
 856 0002 FFF7FEFF 		bl	dbg_check_enter_isr
 857              	.LVL70:
 858              		.loc 1 385 0
 859 0006 4FF4C843 		mov	r3, #25600
 860 000a C4F20203 		movt	r3, 16386
 861              		.loc 1 387 0
 862 000e 0848     		ldr	r0, .L105
 863              		.loc 1 385 0
 864 0010 5968     		ldr	r1, [r3, #4]
 865              		.loc 1 387 0
 866 0012 026F     		ldr	r2, [r0, #112]
 867              		.loc 1 385 0
 868 0014 0C0C     		lsrs	r4, r1, #16
 869 0016 04F03D01 		and	r1, r4, #61
 870              	.LVL71:
 871              		.loc 1 386 0
 872 001a 0C04     		lsls	r4, r1, #16
 873 001c DC60     		str	r4, [r3, #12]
 874              		.loc 1 387 0
 875 001e 0AB1     		cbz	r2, .L101
 876              		.loc 1 388 0
 877 0020 406F     		ldr	r0, [r0, #116]
 878 0022 9047     		blx	r2
 879              	.LVL72:
 880              	.L101:
 881              		.loc 1 390 0
 882 0024 FFF7FEFF 		bl	dbg_check_leave_isr
 883              	.LVL73:
 884              		.loc 1 391 0
 885 0028 BDE81040 		pop	{r4, lr}
 886              		.loc 1 390 0
 887 002c FFF7FEBF 		b	_port_irq_epilogue
 888              	.LVL74:
 889              	.L106:
 890              		.align	2
 891              	.L105:
 892 0030 00000000 		.word	.LANCHOR0
ARM GAS  C:\Users\Elis\AppData\Local\Temp\ccwFfIz0.s 			page 17


 893              		.cfi_endproc
 894              	.LFE132:
 895              		.size	Vector154, .-Vector154
 896 0034 AFF30080 		.section	.text.Vector158,"ax",%progbits
 896      AFF30080 
 896      AFF30080 
 897              		.align	2
 898              		.p2align 4,,15
 899              		.global	Vector158
 900              		.thumb
 901              		.thumb_func
 902              		.type	Vector158, %function
 903              	Vector158:
 904              	.LFB133:
 905              		.loc 1 398 0
 906              		.cfi_startproc
 907              		@ args = 0, pretend = 0, frame = 0
 908              		@ frame_needed = 0, uses_anonymous_args = 0
 909 0000 10B5     		push	{r4, lr}
 910              	.LCFI15:
 911              		.cfi_def_cfa_offset 8
 912              		.cfi_offset 4, -8
 913              		.cfi_offset 14, -4
 914              		.loc 1 401 0
 915 0002 FFF7FEFF 		bl	dbg_check_enter_isr
 916              	.LVL75:
 917              		.loc 1 403 0
 918 0006 4FF4C843 		mov	r3, #25600
 919 000a C4F20203 		movt	r3, 16386
 920              		.loc 1 405 0
 921 000e 0848     		ldr	r0, .L112
 922              		.loc 1 403 0
 923 0010 5968     		ldr	r1, [r3, #4]
 924              		.loc 1 405 0
 925 0012 826F     		ldr	r2, [r0, #120]
 926              		.loc 1 403 0
 927 0014 8C0D     		lsrs	r4, r1, #22
 928 0016 04F03D01 		and	r1, r4, #61
 929              	.LVL76:
 930              		.loc 1 404 0
 931 001a 8C05     		lsls	r4, r1, #22
 932 001c DC60     		str	r4, [r3, #12]
 933              		.loc 1 405 0
 934 001e 0AB1     		cbz	r2, .L108
 935              		.loc 1 406 0
 936 0020 C06F     		ldr	r0, [r0, #124]
 937 0022 9047     		blx	r2
 938              	.LVL77:
 939              	.L108:
 940              		.loc 1 408 0
 941 0024 FFF7FEFF 		bl	dbg_check_leave_isr
 942              	.LVL78:
 943              		.loc 1 409 0
 944 0028 BDE81040 		pop	{r4, lr}
 945              		.loc 1 408 0
 946 002c FFF7FEBF 		b	_port_irq_epilogue
 947              	.LVL79:
ARM GAS  C:\Users\Elis\AppData\Local\Temp\ccwFfIz0.s 			page 18


 948              	.L113:
 949              		.align	2
 950              	.L112:
 951 0030 00000000 		.word	.LANCHOR0
 952              		.cfi_endproc
 953              	.LFE133:
 954              		.size	Vector158, .-Vector158
 955 0034 AFF30080 		.section	.text.dmaInit,"ax",%progbits
 955      AFF30080 
 955      AFF30080 
 956              		.align	2
 957              		.p2align 4,,15
 958              		.global	dmaInit
 959              		.thumb
 960              		.thumb_func
 961              		.type	dmaInit, %function
 962              	dmaInit:
 963              	.LFB134:
 964              		.loc 1 420 0
 965              		.cfi_startproc
 966              		@ args = 0, pretend = 0, frame = 40
 967              		@ frame_needed = 0, uses_anonymous_args = 0
 968              		@ link register save eliminated.
 969 0000 2DE9F00F 		push	{r4, r5, r6, r7, r8, r9, sl, fp}
 970              	.LCFI16:
 971              		.cfi_def_cfa_offset 32
 972              		.cfi_offset 4, -32
 973              		.cfi_offset 5, -28
 974              		.cfi_offset 6, -24
 975              		.cfi_offset 7, -20
 976              		.cfi_offset 8, -16
 977              		.cfi_offset 9, -12
 978              		.cfi_offset 10, -8
 979              		.cfi_offset 11, -4
 980              		.loc 1 423 0
 981 0004 40F20005 		movw	r5, #:lower16:.LANCHOR1
 982              		.loc 1 420 0
 983 0008 8AB0     		sub	sp, sp, #40
 984              	.LCFI17:
 985              		.cfi_def_cfa_offset 72
 986              		.loc 1 423 0
 987 000a C0F20005 		movt	r5, #:upper16:.LANCHOR1
 988              		.loc 1 425 0
 989 000e 46F24040 		movw	r0, #25664
 990              		.loc 1 423 0
 991 0012 0295     		str	r5, [sp, #8]
 992              		.loc 1 425 0
 993 0014 7830     		adds	r0, r0, #120
 994 0016 46F21045 		movw	r5, #25616
 995 001a C4F20205 		movt	r5, 16386
 996 001e A0F58060 		sub	r0, r0, #1024
 997 0022 0495     		str	r5, [sp, #16]
 998 0024 C4F20200 		movt	r0, 16386
 999 0028 46F24045 		movw	r5, #25664
 1000 002c 0390     		str	r0, [sp, #12]
 1001 002e C4F20205 		movt	r5, 16386
 1002 0032 46F22840 		movw	r0, #25640
ARM GAS  C:\Users\Elis\AppData\Local\Temp\ccwFfIz0.s 			page 19


 1003 0036 0695     		str	r5, [sp, #24]
 1004 0038 C4F20200 		movt	r0, 16386
 1005 003c 46F27045 		movw	r5, #25712
 1006 0040 0590     		str	r0, [sp, #20]
 1007 0042 C4F20205 		movt	r5, 16386
 1008 0046 46F25840 		movw	r0, #25688
 1009 004a 0195     		str	r5, [sp, #4]
 1010 004c C4F20200 		movt	r0, 16386
 1011 0050 46F2B845 		movw	r5, #25784
 1012 0054 0790     		str	r0, [sp, #28]
 1013 0056 C4F20205 		movt	r5, 16386
 1014 005a 46F28840 		movw	r0, #25736
 1015 005e 0995     		str	r5, [sp, #36]
 1016 0060 C4F20200 		movt	r0, 16386
 1017              		.loc 1 423 0
 1018 0064 029D     		ldr	r5, [sp, #8]
 1019              		.loc 1 425 0
 1020 0066 0890     		str	r0, [sp, #32]
 1021 0068 46F2100B 		movw	fp, #24592
 1022              		.loc 1 423 0
 1023 006c 0020     		movs	r0, #0
 1024              		.loc 1 426 0
 1025 006e 40F20003 		movw	r3, #:lower16:.LANCHOR0
 1026              		.loc 1 425 0
 1027 0072 46F2280A 		movw	sl, #24616
 1028 0076 46F24009 		movw	r9, #24640
 1029 007a 46F25808 		movw	r8, #24664
 1030 007e 46F2700C 		movw	ip, #24688
 1031 0082 46F28807 		movw	r7, #24712
 1032 0086 46F2A006 		movw	r6, #24736
 1033              		.loc 1 426 0
 1034 008a C0F20003 		movt	r3, #:upper16:.LANCHOR0
 1035              		.loc 1 423 0
 1036 008e 2860     		str	r0, [r5, #0]
 1037              	.LVL80:
 1038              		.loc 1 425 0
 1039 0090 C4F2020B 		movt	fp, 16386
 1040 0094 039D     		ldr	r5, [sp, #12]
 1041 0096 CBF80000 		str	r0, [fp, #0]
 1042 009a C4F2020A 		movt	sl, 16386
 1043 009e C4F20209 		movt	r9, 16386
 1044 00a2 C4F20208 		movt	r8, 16386
 1045 00a6 C4F2020C 		movt	ip, 16386
 1046 00aa C4F20207 		movt	r7, 16386
 1047 00ae C4F20206 		movt	r6, 16386
 1048              		.loc 1 426 0
 1049 00b2 1860     		str	r0, [r3, #0]
 1050              	.LVL81:
 1051              		.loc 1 425 0
 1052 00b4 CAF80000 		str	r0, [sl, #0]
 1053              		.loc 1 426 0
 1054 00b8 9860     		str	r0, [r3, #8]
 1055              	.LVL82:
 1056              		.loc 1 425 0
 1057 00ba C9F80000 		str	r0, [r9, #0]
 1058              		.loc 1 426 0
 1059 00be 1861     		str	r0, [r3, #16]
ARM GAS  C:\Users\Elis\AppData\Local\Temp\ccwFfIz0.s 			page 20


 1060              	.LVL83:
 1061              		.loc 1 425 0
 1062 00c0 C8F80000 		str	r0, [r8, #0]
 1063              		.loc 1 426 0
 1064 00c4 9861     		str	r0, [r3, #24]
 1065              	.LVL84:
 1066              		.loc 1 425 0
 1067 00c6 CCF80000 		str	r0, [ip, #0]
 1068              		.loc 1 426 0
 1069 00ca 1862     		str	r0, [r3, #32]
 1070              	.LVL85:
 1071              		.loc 1 425 0
 1072 00cc 3860     		str	r0, [r7, #0]
 1073              		.loc 1 426 0
 1074 00ce 9862     		str	r0, [r3, #40]
 1075              	.LVL86:
 1076              		.loc 1 425 0
 1077 00d0 3060     		str	r0, [r6, #0]
 1078              		.loc 1 426 0
 1079 00d2 1863     		str	r0, [r3, #48]
 1080              	.LVL87:
 1081              		.loc 1 425 0
 1082 00d4 2860     		str	r0, [r5, #0]
 1083 00d6 049D     		ldr	r5, [sp, #16]
 1084              		.loc 1 426 0
 1085 00d8 9863     		str	r0, [r3, #56]
 1086              	.LVL88:
 1087              		.loc 1 425 0
 1088 00da 2860     		str	r0, [r5, #0]
 1089 00dc 059D     		ldr	r5, [sp, #20]
 1090              		.loc 1 426 0
 1091 00de 1864     		str	r0, [r3, #64]
 1092              	.LVL89:
 1093              		.loc 1 425 0
 1094 00e0 2860     		str	r0, [r5, #0]
 1095 00e2 069D     		ldr	r5, [sp, #24]
 1096              		.loc 1 426 0
 1097 00e4 9864     		str	r0, [r3, #72]
 1098              	.LVL90:
 1099              		.loc 1 425 0
 1100 00e6 2860     		str	r0, [r5, #0]
 1101 00e8 079D     		ldr	r5, [sp, #28]
 1102              		.loc 1 426 0
 1103 00ea 1865     		str	r0, [r3, #80]
 1104              	.LVL91:
 1105              		.loc 1 425 0
 1106 00ec 46F21044 		movw	r4, #25616
 1107 00f0 2860     		str	r0, [r5, #0]
 1108 00f2 6034     		adds	r4, r4, #96
 1109 00f4 019D     		ldr	r5, [sp, #4]
 1110              		.loc 1 426 0
 1111 00f6 9865     		str	r0, [r3, #88]
 1112              	.LVL92:
 1113              		.loc 1 425 0
 1114 00f8 3034     		adds	r4, r4, #48
 1115 00fa 2860     		str	r0, [r5, #0]
 1116 00fc C4F20204 		movt	r4, 16386
ARM GAS  C:\Users\Elis\AppData\Local\Temp\ccwFfIz0.s 			page 21


 1117 0100 089D     		ldr	r5, [sp, #32]
 1118              		.loc 1 426 0
 1119 0102 1866     		str	r0, [r3, #96]
 1120              	.LVL93:
 1121              		.loc 1 428 0
 1122 0104 4FF4C041 		mov	r1, #24576
 1123              		.loc 1 430 0
 1124 0108 4FF4C842 		mov	r2, #25600
 1125              		.loc 1 425 0
 1126 010c 2860     		str	r0, [r5, #0]
 1127              		.loc 1 428 0
 1128 010e C4F20201 		movt	r1, 16386
 1129              		.loc 1 426 0
 1130 0112 9866     		str	r0, [r3, #104]
 1131              	.LVL94:
 1132              		.loc 1 430 0
 1133 0114 C4F20202 		movt	r2, 16386
 1134              		.loc 1 425 0
 1135 0118 2060     		str	r0, [r4, #0]
 1136 011a 099C     		ldr	r4, [sp, #36]
 1137              		.loc 1 426 0
 1138 011c 1867     		str	r0, [r3, #112]
 1139              	.LVL95:
 1140              		.loc 1 428 0
 1141 011e 4FF0FF35 		mov	r5, #-1
 1142              		.loc 1 425 0
 1143 0122 2060     		str	r0, [r4, #0]
 1144              		.loc 1 426 0
 1145 0124 9867     		str	r0, [r3, #120]
 1146              	.LVL96:
 1147              		.loc 1 428 0
 1148 0126 8D60     		str	r5, [r1, #8]
 1149              		.loc 1 429 0
 1150 0128 CD60     		str	r5, [r1, #12]
 1151              		.loc 1 430 0
 1152 012a 9560     		str	r5, [r2, #8]
 1153              		.loc 1 431 0
 1154 012c D560     		str	r5, [r2, #12]
 1155              		.loc 1 432 0
 1156 012e 0AB0     		add	sp, sp, #40
 1157 0130 BDE8F00F 		pop	{r4, r5, r6, r7, r8, r9, sl, fp}
 1158 0134 7047     		bx	lr
 1159              		.cfi_endproc
 1160              	.LFE134:
 1161              		.size	dmaInit, .-dmaInit
 1162              		.section	.text.dmaStreamAllocate,"ax",%progbits
 1163              		.align	2
 1164              		.p2align 4,,15
 1165              		.global	dmaStreamAllocate
 1166              		.thumb
 1167              		.thumb_func
 1168              		.type	dmaStreamAllocate, %function
 1169              	dmaStreamAllocate:
 1170              	.LFB135:
 1171              		.loc 1 461 0
 1172              		.cfi_startproc
 1173              		@ args = 0, pretend = 0, frame = 0
ARM GAS  C:\Users\Elis\AppData\Local\Temp\ccwFfIz0.s 			page 22


 1174              		@ frame_needed = 0, uses_anonymous_args = 0
 1175              	.LVL97:
 1176 0000 2DE9F041 		push	{r4, r5, r6, r7, r8, lr}
 1177              	.LCFI18:
 1178              		.cfi_def_cfa_offset 24
 1179              		.cfi_offset 4, -24
 1180              		.cfi_offset 5, -20
 1181              		.cfi_offset 6, -16
 1182              		.cfi_offset 7, -12
 1183              		.cfi_offset 8, -8
 1184              		.cfi_offset 14, -4
 1185              		.loc 1 466 0
 1186 0004 244E     		ldr	r6, .L130
 1187 0006 447A     		ldrb	r4, [r0, #9]	@ zero_extendqisi2
 1188 0008 3768     		ldr	r7, [r6, #0]
 1189 000a 0125     		movs	r5, #1
 1190 000c 05FA04FC 		lsl	ip, r5, r4
 1191 0010 1CEA070F 		tst	ip, r7
 1192 0014 3AD1     		bne	.L120
 1193              		.loc 1 470 0
 1194 0016 214D     		ldr	r5, .L130+4
 1195              		.loc 1 472 0
 1196 0018 4CEA0707 		orr	r7, ip, r7
 1197              		.loc 1 471 0
 1198 001c 05EBC408 		add	r8, r5, r4, lsl #3
 1199              		.loc 1 475 0
 1200 0020 17F0FF0F 		tst	r7, #255
 1201              		.loc 1 470 0
 1202 0024 45F83420 		str	r2, [r5, r4, lsl #3]
 1203              		.loc 1 471 0
 1204 0028 C8F80430 		str	r3, [r8, #4]
 1205              		.loc 1 472 0
 1206 002c 3760     		str	r7, [r6, #0]
 1207              		.loc 1 475 0
 1208 002e 07D0     		beq	.L117
 1209              		.loc 1 476 0
 1210 0030 4FF46053 		mov	r3, #14336
 1211              	.LVL98:
 1212 0034 C4F20203 		movt	r3, 16386
 1213 0038 1C6B     		ldr	r4, [r3, #48]
 1214 003a 44F40016 		orr	r6, r4, #2097152
 1215 003e 1E63     		str	r6, [r3, #48]
 1216              	.L117:
 1217              		.loc 1 477 0
 1218 0040 17F47F4F 		tst	r7, #65280
 1219 0044 19D1     		bne	.L129
 1220              	.L118:
 1221              		.loc 1 481 0
 1222 0046 0468     		ldr	r4, [r0, #0]
 1223 0048 2668     		ldr	r6, [r4, #0]
 1224 004a 26F01F05 		bic	r5, r6, #31
 1225 004e 2560     		str	r5, [r4, #0]
 1226              	.L119:
 1227              		.loc 1 481 0 is_stmt 0 discriminator 1
 1228 0050 2768     		ldr	r7, [r4, #0]
 1229 0052 17F00105 		ands	r5, r7, #1
 1230 0056 FBD1     		bne	.L119
ARM GAS  C:\Users\Elis\AppData\Local\Temp\ccwFfIz0.s 			page 23


 1231              		.loc 1 481 0 discriminator 2
 1232 0058 067A     		ldrb	r6, [r0, #8]	@ zero_extendqisi2
 1233 005a 4368     		ldr	r3, [r0, #4]
 1234 005c 3D27     		movs	r7, #61
 1235 005e 07FA06F6 		lsl	r6, r7, r6
 1236 0062 1E60     		str	r6, [r3, #0]
 1237              		.loc 1 483 0 is_stmt 1 discriminator 2
 1238 0064 2123     		movs	r3, #33
 1239              		.loc 1 482 0 discriminator 2
 1240 0066 2560     		str	r5, [r4, #0]
 1241              		.loc 1 483 0 discriminator 2
 1242 0068 6361     		str	r3, [r4, #20]
 1243              		.loc 1 486 0 discriminator 2
 1244 006a 92B1     		cbz	r2, .L121
 1245              		.loc 1 487 0
 1246 006c 807A     		ldrb	r0, [r0, #10]	@ zero_extendqisi2
 1247              	.LVL99:
 1248 006e 0901     		lsls	r1, r1, #4
 1249              	.LVL100:
 1250 0070 FFF7FEFF 		bl	nvicEnableVector
 1251              	.LVL101:
 1252              		.loc 1 489 0
 1253 0074 2846     		mov	r0, r5
 1254 0076 BDE8F081 		pop	{r4, r5, r6, r7, r8, pc}
 1255              	.LVL102:
 1256              	.L129:
 1257              		.loc 1 478 0
 1258 007a 4FF46055 		mov	r5, #14336
 1259 007e C4F20205 		movt	r5, 16386
 1260 0082 2F6B     		ldr	r7, [r5, #48]
 1261 0084 47F48003 		orr	r3, r7, #4194304
 1262 0088 2B63     		str	r3, [r5, #48]
 1263 008a DCE7     		b	.L118
 1264              	.LVL103:
 1265              	.L120:
 1266              		.loc 1 467 0
 1267 008c 2846     		mov	r0, r5
 1268              	.LVL104:
 1269 008e BDE8F081 		pop	{r4, r5, r6, r7, r8, pc}
 1270              	.LVL105:
 1271              	.L121:
 1272              		.loc 1 489 0
 1273 0092 1046     		mov	r0, r2
 1274              	.LVL106:
 1275              		.loc 1 490 0
 1276 0094 BDE8F081 		pop	{r4, r5, r6, r7, r8, pc}
 1277              	.L131:
 1278              		.align	2
 1279              	.L130:
 1280 0098 00000000 		.word	.LANCHOR1
 1281 009c 00000000 		.word	.LANCHOR0
 1282              		.cfi_endproc
 1283              	.LFE135:
 1284              		.size	dmaStreamAllocate, .-dmaStreamAllocate
 1285              		.section	.text.dmaStreamRelease,"ax",%progbits
 1286              		.align	2
 1287              		.p2align 4,,15
ARM GAS  C:\Users\Elis\AppData\Local\Temp\ccwFfIz0.s 			page 24


 1288              		.global	dmaStreamRelease
 1289              		.thumb
 1290              		.thumb_func
 1291              		.type	dmaStreamRelease, %function
 1292              	dmaStreamRelease:
 1293              	.LFB136:
 1294              		.loc 1 505 0
 1295              		.cfi_startproc
 1296              		@ args = 0, pretend = 0, frame = 0
 1297              		@ frame_needed = 0, uses_anonymous_args = 0
 1298              	.LVL107:
 1299 0000 10B5     		push	{r4, lr}
 1300              	.LCFI19:
 1301              		.cfi_def_cfa_offset 8
 1302              		.cfi_offset 4, -8
 1303              		.cfi_offset 14, -4
 1304              		.loc 1 505 0
 1305 0002 0446     		mov	r4, r0
 1306              		.loc 1 514 0
 1307 0004 807A     		ldrb	r0, [r0, #10]	@ zero_extendqisi2
 1308              	.LVL108:
 1309 0006 FFF7FEFF 		bl	nvicDisableVector
 1310              	.LVL109:
 1311              		.loc 1 517 0
 1312 000a 104A     		ldr	r2, .L135
 1313 000c 637A     		ldrb	r3, [r4, #9]	@ zero_extendqisi2
 1314 000e 1168     		ldr	r1, [r2, #0]
 1315 0010 0120     		movs	r0, #1
 1316 0012 00FA03F3 		lsl	r3, r0, r3
 1317 0016 21EA0300 		bic	r0, r1, r3
 1318              		.loc 1 520 0
 1319 001a 10F0FF0F 		tst	r0, #255
 1320              		.loc 1 517 0
 1321 001e 1060     		str	r0, [r2, #0]
 1322              		.loc 1 520 0
 1323 0020 07D1     		bne	.L133
 1324              		.loc 1 521 0
 1325 0022 4FF46052 		mov	r2, #14336
 1326 0026 C4F20202 		movt	r2, 16386
 1327 002a 116B     		ldr	r1, [r2, #48]
 1328 002c 21F40013 		bic	r3, r1, #2097152
 1329 0030 1363     		str	r3, [r2, #48]
 1330              	.L133:
 1331              		.loc 1 522 0
 1332 0032 10F47F4F 		tst	r0, #65280
 1333 0036 07D1     		bne	.L132
 1334              		.loc 1 523 0
 1335 0038 4FF46050 		mov	r0, #14336
 1336 003c C4F20200 		movt	r0, 16386
 1337 0040 026B     		ldr	r2, [r0, #48]
 1338 0042 22F48001 		bic	r1, r2, #4194304
 1339 0046 0163     		str	r1, [r0, #48]
 1340              	.L132:
 1341 0048 10BD     		pop	{r4, pc}
 1342              	.L136:
 1343 004a 00BF     		.align	2
 1344              	.L135:
ARM GAS  C:\Users\Elis\AppData\Local\Temp\ccwFfIz0.s 			page 25


 1345 004c 00000000 		.word	.LANCHOR1
 1346              		.cfi_endproc
 1347              	.LFE136:
 1348              		.size	dmaStreamRelease, .-dmaStreamRelease
 1349              		.global	_stm32_dma_streams
 1350              		.section	.bss.dma_isr_redir,"aw",%nobits
 1351              		.align	2
 1352              		.set	.LANCHOR0,. + 0
 1353              		.type	dma_isr_redir, %object
 1354              		.size	dma_isr_redir, 128
 1355              	dma_isr_redir:
 1356 0000 00000000 		.space	128
 1356      00000000 
 1356      00000000 
 1356      00000000 
 1356      00000000 
 1357              		.section	.rodata._stm32_dma_streams,"a",%progbits
 1358              		.align	2
 1359              		.type	_stm32_dma_streams, %object
 1360              		.size	_stm32_dma_streams, 192
 1361              	_stm32_dma_streams:
 1362 0000 10600240 		.word	1073897488
 1363 0004 08600240 		.word	1073897480
 1364 0008 00       		.byte	0
 1365 0009 00       		.byte	0
 1366 000a 0B       		.byte	11
 1367 000b 00       		.space	1
 1368 000c 28600240 		.word	1073897512
 1369 0010 08600240 		.word	1073897480
 1370 0014 06       		.byte	6
 1371 0015 01       		.byte	1
 1372 0016 0C       		.byte	12
 1373 0017 00       		.space	1
 1374 0018 40600240 		.word	1073897536
 1375 001c 08600240 		.word	1073897480
 1376 0020 10       		.byte	16
 1377 0021 02       		.byte	2
 1378 0022 0D       		.byte	13
 1379 0023 00       		.space	1
 1380 0024 58600240 		.word	1073897560
 1381 0028 08600240 		.word	1073897480
 1382 002c 16       		.byte	22
 1383 002d 03       		.byte	3
 1384 002e 0E       		.byte	14
 1385 002f 00       		.space	1
 1386 0030 70600240 		.word	1073897584
 1387 0034 0C600240 		.word	1073897484
 1388 0038 00       		.byte	0
 1389 0039 04       		.byte	4
 1390 003a 0F       		.byte	15
 1391 003b 00       		.space	1
 1392 003c 88600240 		.word	1073897608
 1393 0040 0C600240 		.word	1073897484
 1394 0044 06       		.byte	6
 1395 0045 05       		.byte	5
 1396 0046 10       		.byte	16
 1397 0047 00       		.space	1
ARM GAS  C:\Users\Elis\AppData\Local\Temp\ccwFfIz0.s 			page 26


 1398 0048 A0600240 		.word	1073897632
 1399 004c 0C600240 		.word	1073897484
 1400 0050 10       		.byte	16
 1401 0051 06       		.byte	6
 1402 0052 11       		.byte	17
 1403 0053 00       		.space	1
 1404 0054 B8600240 		.word	1073897656
 1405 0058 0C600240 		.word	1073897484
 1406 005c 16       		.byte	22
 1407 005d 07       		.byte	7
 1408 005e 2F       		.byte	47
 1409 005f 00       		.space	1
 1410 0060 10640240 		.word	1073898512
 1411 0064 08640240 		.word	1073898504
 1412 0068 00       		.byte	0
 1413 0069 08       		.byte	8
 1414 006a 38       		.byte	56
 1415 006b 00       		.space	1
 1416 006c 28640240 		.word	1073898536
 1417 0070 08640240 		.word	1073898504
 1418 0074 06       		.byte	6
 1419 0075 09       		.byte	9
 1420 0076 39       		.byte	57
 1421 0077 00       		.space	1
 1422 0078 40640240 		.word	1073898560
 1423 007c 08640240 		.word	1073898504
 1424 0080 10       		.byte	16
 1425 0081 0A       		.byte	10
 1426 0082 3A       		.byte	58
 1427 0083 00       		.space	1
 1428 0084 58640240 		.word	1073898584
 1429 0088 08640240 		.word	1073898504
 1430 008c 16       		.byte	22
 1431 008d 0B       		.byte	11
 1432 008e 3B       		.byte	59
 1433 008f 00       		.space	1
 1434 0090 70640240 		.word	1073898608
 1435 0094 0C640240 		.word	1073898508
 1436 0098 00       		.byte	0
 1437 0099 0C       		.byte	12
 1438 009a 3C       		.byte	60
 1439 009b 00       		.space	1
 1440 009c 88640240 		.word	1073898632
 1441 00a0 0C640240 		.word	1073898508
 1442 00a4 06       		.byte	6
 1443 00a5 0D       		.byte	13
 1444 00a6 44       		.byte	68
 1445 00a7 00       		.space	1
 1446 00a8 A0640240 		.word	1073898656
 1447 00ac 0C640240 		.word	1073898508
 1448 00b0 10       		.byte	16
 1449 00b1 0E       		.byte	14
 1450 00b2 45       		.byte	69
 1451 00b3 00       		.space	1
 1452 00b4 B8640240 		.word	1073898680
 1453 00b8 0C640240 		.word	1073898508
 1454 00bc 16       		.byte	22
ARM GAS  C:\Users\Elis\AppData\Local\Temp\ccwFfIz0.s 			page 27


 1455 00bd 0F       		.byte	15
 1456 00be 46       		.byte	70
 1457 00bf 00       		.space	1
 1458              		.section	.bss.dma_streams_mask,"aw",%nobits
 1459              		.align	2
 1460              		.set	.LANCHOR1,. + 0
 1461              		.type	dma_streams_mask, %object
 1462              		.size	dma_streams_mask, 4
 1463              	dma_streams_mask:
 1464 0000 00000000 		.space	4
 1465              		.text
 1466              	.Letext0:
 1467              		.file 2 "c:\\chibistudio\\tools\\gnu tools arm embedded\\4.7 2014q2\\bin\\../lib/gcc/arm-none-eabi
 1468              		.file 3 "../../chibios/os/ports/GCC/ARMCMx/chtypes.h"
 1469              		.file 4 "../../chibios/os/hal/platforms/STM32F4xx/stm32f4xx.h"
 1470              		.file 5 "../../chibios/os/hal/platforms/STM32F4xx/stm32_dma.h"
 1471              		.file 6 "../../chibios/os/ports/common/ARMCMx/CMSIS/include/core_cm4.h"
 1472              		.file 7 "../../chibios/os/kernel/include/chdebug.h"
 1473              		.file 8 "../../chibios/os/ports/GCC/ARMCMx/chcore_v7m.h"
 1474              		.file 9 "../../chibios/os/ports/common/ARMCMx/nvic.h"