ARM GAS  C:\Users\Elis\AppData\Local\Temp\ccwV5RfI.s 			page 1


   1              		.syntax unified
   2              		.cpu cortex-m4
   3              		.fpu softvfp
   4              		.eabi_attribute 20, 1
   5              		.eabi_attribute 21, 1
   6              		.eabi_attribute 23, 3
   7              		.eabi_attribute 24, 1
   8              		.eabi_attribute 25, 1
   9              		.eabi_attribute 26, 1
  10              		.eabi_attribute 30, 2
  11              		.eabi_attribute 34, 1
  12              		.eabi_attribute 18, 4
  13              		.thumb
  14              		.file	"uart_t.c"
  15              		.text
  16              	.Ltext0:
  17              		.cfi_sections	.debug_frame
  18              		.section	.text.uart_t,"ax",%progbits
  19              		.align	2
  20              		.p2align 4,,15
  21              		.global	uart_t
  22              		.thumb
  23              		.thumb_func
  24              		.type	uart_t, %function
  25              	uart_t:
  26              	.LFB118:
  27              		.file 1 "../../workspace26/Mobile_phone/tasks/uart_t.c"
  28              		.loc 1 3 0
  29              		.cfi_startproc
  30              		@ args = 0, pretend = 0, frame = 128
  31              		@ frame_needed = 0, uses_anonymous_args = 0
  32              	.LVL0:
  33 0000 2DE9F047 		push	{r4, r5, r6, r7, r8, r9, sl, lr}
  34              	.LCFI0:
  35              		.cfi_def_cfa_offset 32
  36              		.cfi_offset 4, -32
  37              		.cfi_offset 5, -28
  38              		.cfi_offset 6, -24
  39              		.cfi_offset 7, -20
  40              		.cfi_offset 8, -16
  41              		.cfi_offset 9, -12
  42              		.cfi_offset 10, -8
  43              		.cfi_offset 14, -4
  44              		.loc 1 25 0
  45 0004 0024     		movs	r4, #0
  46 0006 714E     		ldr	r6, .L24
  47 0008 DFF8F081 		ldr	r8, .L24+48
  48              		.loc 1 3 0
  49 000c A2B0     		sub	sp, sp, #136
  50              	.LCFI1:
  51              		.cfi_def_cfa_offset 168
  52              		.loc 1 21 0
  53 000e 2746     		mov	r7, r4
  54              	.LVL1:
  55              	.L20:
  56              		.loc 1 31 0
  57 0010 0022     		movs	r2, #0
ARM GAS  C:\Users\Elis\AppData\Local\Temp\ccwV5RfI.s 			page 2


  58 0012 6F48     		ldr	r0, .L24+4
  59 0014 40F20511 		movw	r1, #261
  60 0018 FFF7FEFF 		bl	sdReadLine
  61              	.LVL2:
  62 001c 0028     		cmp	r0, #0
  63 001e 61DD     		ble	.L4
  64              		.loc 1 35 0
  65 0020 6B48     		ldr	r0, .L24+4
  66 0022 6C49     		ldr	r1, .L24+8
  67 0024 FFF7FEFF 		bl	strstr
  68              	.LVL3:
  69 0028 0546     		mov	r5, r0
  70 002a 0028     		cmp	r0, #0
  71 002c 5DD0     		beq	.L5
  72              		.loc 1 39 0
  73 002e 0020     		movs	r0, #0
  74 0030 0125     		movs	r5, #1
  75 0032 0190     		str	r0, [sp, #4]
  76 0034 0095     		str	r5, [sp, #0]
  77 0036 6848     		ldr	r0, .L24+12
  78 0038 6549     		ldr	r1, .L24+4
  79 003a 40F20512 		movw	r2, #261
  80 003e 03AB     		add	r3, sp, #12
  81 0040 FFF7FEFF 		bl	slre_match
  82              	.LVL4:
  83 0044 0028     		cmp	r0, #0
  84 0046 4DDD     		ble	.L4
  85              		.loc 1 43 0
  86 0048 002C     		cmp	r4, #0
  87 004a 70D0     		beq	.L22
  88              	.LVL5:
  89              	.L7:
  90              		.loc 1 71 0
  91 004c F768     		ldr	r7, [r6, #12]
  92              	.LVL6:
  93              	.L8:
  94              		.loc 1 153 0
  95 004e F268     		ldr	r2, [r6, #12]
  96 0050 41F26F70 		movw	r0, #5999
  97 0054 D51B     		subs	r5, r2, r7
  98 0056 8542     		cmp	r5, r0
  99 0058 DAD9     		bls	.L20
 100              	.LVL7:
 101              		.loc 1 161 0
 102 005a FFF7FEFF 		bl	hangUp
 103              	.LVL8:
 104              		.loc 1 163 0
 105 005e 9DF88440 		ldrb	r4, [sp, #132]	@ zero_extendqisi2
 106              		.loc 1 171 0
 107 0062 D8F80000 		ldr	r0, [r8, #0]
 108              		.loc 1 165 0
 109 0066 44F00103 		orr	r3, r4, #1
 110              		.loc 1 167 0
 111 006a 03F0FD02 		and	r2, r3, #253
 112 006e 6FF38202 		bfc	r2, #2, #1
 113              		.loc 1 171 0
 114 0072 12A9     		add	r1, sp, #72
ARM GAS  C:\Users\Elis\AppData\Local\Temp\ccwV5RfI.s 			page 3


 115              		.loc 1 167 0
 116 0074 8DF88420 		strb	r2, [sp, #132]
 117              		.loc 1 171 0
 118 0078 FFF7FEFF 		bl	chMsgSend
 119              	.LVL9:
 120              		.loc 1 177 0
 121 007c 9DF84610 		ldrb	r1, [sp, #70]	@ zero_extendqisi2
 122              		.loc 1 181 0
 123 0080 5648     		ldr	r0, .L24+16
 124              		.loc 1 177 0
 125 0082 01F0FD05 		and	r5, r1, #253
 126              		.loc 1 179 0
 127 0086 45F00404 		orr	r4, r5, #4
 128 008a 6FF30004 		bfc	r4, #0, #1
 129              		.loc 1 181 0
 130 008e 05A9     		add	r1, sp, #20
 131 0090 4FF0FF32 		mov	r2, #-1
 132              		.loc 1 179 0
 133 0094 8DF84640 		strb	r4, [sp, #70]
 134              		.loc 1 157 0
 135 0098 0024     		movs	r4, #0
 136              		.loc 1 181 0
 137 009a FFF7FEFF 		bl	chMBPost
 138              	.LVL10:
 139 009e B7E7     		b	.L20
 140              	.LVL11:
 141              	.L9:
 142              		.loc 1 99 0
 143 00a0 4B48     		ldr	r0, .L24+4
 144 00a2 4F49     		ldr	r1, .L24+20
 145 00a4 FFF7FEFF 		bl	strstr
 146              	.LVL12:
 147 00a8 0028     		cmp	r0, #0
 148 00aa 66D0     		beq	.L10
 149              		.loc 1 101 0
 150 00ac 0125     		movs	r5, #1
 151 00ae 8DE82002 		stmia	sp, {r5, r9}
 152 00b2 4C48     		ldr	r0, .L24+24
 153 00b4 4649     		ldr	r1, .L24+4
 154 00b6 40F20512 		movw	r2, #261
 155 00ba 03AB     		add	r3, sp, #12
 156 00bc FFF7FEFF 		bl	slre_match
 157              	.LVL13:
 158 00c0 0028     		cmp	r0, #0
 159 00c2 0FDD     		ble	.L4
 160              		.loc 1 105 0
 161 00c4 9DF84620 		ldrb	r2, [sp, #70]	@ zero_extendqisi2
 162              		.loc 1 113 0
 163 00c8 4148     		ldr	r0, .L24+4
 164              		.loc 1 105 0
 165 00ca 69F34102 		bfi	r2, r9, #1, #1
 166              		.loc 1 107 0
 167 00ce 69F38202 		bfi	r2, r9, #2, #1
 168              		.loc 1 109 0
 169 00d2 D3B2     		uxtb	r3, r2
 170 00d4 2B43     		orrs	r3, r3, r5
 171              		.loc 1 113 0
ARM GAS  C:\Users\Elis\AppData\Local\Temp\ccwV5RfI.s 			page 4


 172 00d6 40F20511 		movw	r1, #261
 173 00da 2A46     		mov	r2, r5
 174              		.loc 1 109 0
 175 00dc 8DF84630 		strb	r3, [sp, #70]
 176              		.loc 1 113 0
 177 00e0 FFF7FEFF 		bl	sdReadLine
 178              	.LVL14:
 179              	.L4:
 180              		.loc 1 151 0
 181 00e4 002C     		cmp	r4, #0
 182 00e6 93D0     		beq	.L20
 183 00e8 B1E7     		b	.L8
 184              	.L5:
 185              		.loc 1 79 0
 186 00ea 3948     		ldr	r0, .L24+4
 187 00ec 3E49     		ldr	r1, .L24+28
 188 00ee FFF7FEFF 		bl	strstr
 189              	.LVL15:
 190 00f2 8146     		mov	r9, r0
 191 00f4 0028     		cmp	r0, #0
 192 00f6 D3D0     		beq	.L9
 193              		.loc 1 81 0
 194 00f8 0123     		movs	r3, #1
 195 00fa 8DE82800 		stmia	sp, {r3, r5}
 196 00fe 3B48     		ldr	r0, .L24+32
 197 0100 3349     		ldr	r1, .L24+4
 198 0102 40F20512 		movw	r2, #261
 199 0106 03AB     		add	r3, sp, #12
 200 0108 FFF7FEFF 		bl	slre_match
 201              	.LVL16:
 202 010c 0028     		cmp	r0, #0
 203 010e E9DD     		ble	.L4
 204              		.loc 1 83 0
 205 0110 0399     		ldr	r1, [sp, #12]
 206 0112 049A     		ldr	r2, [sp, #16]
 207 0114 02A8     		add	r0, sp, #8
 208 0116 FFF7FEFF 		bl	strncpy
 209              	.LVL17:
 210              		.loc 1 87 0
 211 011a 02A8     		add	r0, sp, #8
 212 011c FFF7FEFF 		bl	getSms
 213              	.LVL18:
 214              		.loc 1 91 0
 215 0120 02A8     		add	r0, sp, #8
 216 0122 FFF7FEFF 		bl	deleteSms
 217              	.LVL19:
 218              		.loc 1 151 0
 219 0126 002C     		cmp	r4, #0
 220 0128 3FF472AF 		beq	.L20
 221 012c 8FE7     		b	.L8
 222              	.L22:
 223              		.loc 1 47 0
 224 012e 049F     		ldr	r7, [sp, #16]
 225              	.LVL20:
 226 0130 DDF80CA0 		ldr	sl, [sp, #12]
 227              		.loc 1 49 0
 228 0134 22AB     		add	r3, sp, #136
ARM GAS  C:\Users\Elis\AppData\Local\Temp\ccwV5RfI.s 			page 5


 229 0136 03EB0709 		add	r9, r3, r7
 230              		.loc 1 47 0
 231 013a 3A46     		mov	r2, r7
 232 013c 5146     		mov	r1, sl
 233 013e 13A8     		add	r0, sp, #76
 234 0140 FFF7FEFF 		bl	strncpy
 235              	.LVL21:
 236              		.loc 1 51 0
 237 0144 3A46     		mov	r2, r7
 238 0146 5146     		mov	r1, sl
 239 0148 05A8     		add	r0, sp, #20
 240              		.loc 1 49 0
 241 014a 09F83C4C 		strb	r4, [r9, #-60]
 242              		.loc 1 51 0
 243 014e FFF7FEFF 		bl	strncpy
 244              	.LVL22:
 245              		.loc 1 53 0
 246 0152 09F8744C 		strb	r4, [r9, #-116]
 247              		.loc 1 57 0
 248 0156 9DF84610 		ldrb	r1, [sp, #70]	@ zero_extendqisi2
 249              		.loc 1 63 0
 250 015a 2048     		ldr	r0, .L24+16
 251              		.loc 1 59 0
 252 015c 41F00207 		orr	r7, r1, #2
 253 0160 64F38207 		bfi	r7, r4, #2, #1
 254              		.loc 1 61 0
 255 0164 64F30007 		bfi	r7, r4, #0, #1
 256              		.loc 1 63 0
 257 0168 05A9     		add	r1, sp, #20
 258 016a 4FF0FF32 		mov	r2, #-1
 259              		.loc 1 61 0
 260 016e 8DF84670 		strb	r7, [sp, #70]
 261              		.loc 1 65 0
 262 0172 2C46     		mov	r4, r5
 263              	.LVL23:
 264              		.loc 1 63 0
 265 0174 FFF7FEFF 		bl	chMBPost
 266              	.LVL24:
 267 0178 68E7     		b	.L7
 268              	.LVL25:
 269              	.L10:
 270              		.loc 1 124 0
 271 017a 1548     		ldr	r0, .L24+4
 272 017c 1C49     		ldr	r1, .L24+36
 273 017e FFF7FEFF 		bl	strstr
 274              	.LVL26:
 275 0182 98B1     		cbz	r0, .L23
 276              	.L11:
 277              		.loc 1 130 0
 278 0184 9DF84630 		ldrb	r3, [sp, #70]	@ zero_extendqisi2
 279              		.loc 1 134 0
 280 0188 1448     		ldr	r0, .L24+16
 281              		.loc 1 130 0
 282 018a 03F0FD01 		and	r1, r3, #253
 283              		.loc 1 132 0
 284 018e 41F00405 		orr	r5, r1, #4
 285 0192 6FF30005 		bfc	r5, #0, #1
ARM GAS  C:\Users\Elis\AppData\Local\Temp\ccwV5RfI.s 			page 6


 286              		.loc 1 134 0
 287 0196 05A9     		add	r1, sp, #20
 288 0198 4FF0FF32 		mov	r2, #-1
 289              		.loc 1 132 0
 290 019c 8DF84650 		strb	r5, [sp, #70]
 291              		.loc 1 134 0
 292 01a0 FFF7FEFF 		bl	chMBPost
 293              	.LVL27:
 294              		.loc 1 151 0
 295 01a4 002C     		cmp	r4, #0
 296 01a6 3FF433AF 		beq	.L20
 297 01aa 50E7     		b	.L8
 298              	.L23:
 299              		.loc 1 124 0 discriminator 1
 300 01ac 0848     		ldr	r0, .L24+4
 301 01ae 1149     		ldr	r1, .L24+40
 302 01b0 FFF7FEFF 		bl	strstr
 303              	.LVL28:
 304 01b4 0546     		mov	r5, r0
 305 01b6 0028     		cmp	r0, #0
 306 01b8 E4D1     		bne	.L11
 307              		.loc 1 138 0
 308 01ba 0548     		ldr	r0, .L24+4
 309 01bc 0E49     		ldr	r1, .L24+44
 310 01be FFF7FEFF 		bl	strstr
 311              	.LVL29:
 312 01c2 0028     		cmp	r0, #0
 313 01c4 8ED0     		beq	.L4
 314 01c6 2C46     		mov	r4, r5
 315              	.LVL30:
 316 01c8 22E7     		b	.L20
 317              	.L25:
 318 01ca 00BF     		.align	2
 319              	.L24:
 320 01cc 00000000 		.word	vtlist
 321 01d0 00000000 		.word	.LANCHOR0
 322 01d4 00000000 		.word	.LC0
 323 01d8 08000000 		.word	.LC1
 324 01dc 00000000 		.word	gsmResponse
 325 01e0 2C000000 		.word	.LC4
 326 01e4 34000000 		.word	.LC5
 327 01e8 14000000 		.word	.LC2
 328 01ec 1C000000 		.word	.LC3
 329 01f0 48000000 		.word	.LC6
 330 01f4 54000000 		.word	.LC7
 331 01f8 5C000000 		.word	.LC8
 332 01fc 00000000 		.word	calls_thrd_h
 333              		.cfi_endproc
 334              	.LFE118:
 335              		.size	uart_t, .-uart_t
 336              		.section	.bss.buffer.8409,"aw",%nobits
 337              		.align	2
 338              		.set	.LANCHOR0,. + 0
 339              		.type	buffer.8409, %object
 340              		.size	buffer.8409, 261
 341              	buffer.8409:
 342 0000 00000000 		.space	261
ARM GAS  C:\Users\Elis\AppData\Local\Temp\ccwV5RfI.s 			page 7


 342      00000000 
 342      00000000 
 342      00000000 
 342      00000000 
 343 0105 000000   		.section	.rodata.str1.4,"aMS",%progbits,1
 344              		.align	2
 345              	.LC0:
 346 0000 434C4950 		.ascii	"CLIP\000"
 346      00
 347 0005 000000   		.space	3
 348              	.LC1:
 349 0008 22285B5E 		.ascii	"\"([^\"]*)\"\000"
 349      225D2A29 
 349      2200
 350 0012 0000     		.space	2
 351              	.LC2:
 352 0014 434D5449 		.ascii	"CMTI\000"
 352      00
 353 0019 000000   		.space	3
 354              	.LC3:
 355 001c 285C642B 		.ascii	"(\\d+)[^\\d]*$\000"
 355      295B5E5C 
 355      645D2A24 
 355      00
 356 0029 000000   		.space	3
 357              	.LC4:
 358 002c 434D4752 		.ascii	"CMGR\000"
 358      00
 359 0031 000000   		.space	3
 360              	.LC5:
 361 0034 22282B5B 		.ascii	"\"(+[^/:a-zA-Z\"]*)\"\000"
 361      5E2F3A61 
 361      2D7A412D 
 361      5A225D2A 
 361      292200
 362 0047 00       		.space	1
 363              	.LC6:
 364 0048 4E4F2043 		.ascii	"NO CARRIER\000"
 364      41525249 
 364      455200
 365 0053 00       		.space	1
 366              	.LC7:
 367 0054 42555359 		.ascii	"BUSY\000"
 367      00
 368 0059 000000   		.space	3
 369              	.LC8:
 370 005c 4F4B00   		.ascii	"OK\000"
 371 005f 00       		.text
 372              	.Letext0:
 373              		.file 2 "../../workspace26/Mobile_phone/structures/structures.h"
 374              		.file 3 "c:\\chibistudio\\tools\\gnu tools arm embedded\\4.7 2014q2\\bin\\../lib/gcc/arm-none-eabi
 375              		.file 4 "c:\\chibistudio\\tools\\gnu tools arm embedded\\4.7 2014q2\\bin\\../lib/gcc/arm-none-eabi
 376              		.file 5 "../../chibios/os/ports/GCC/ARMCMx/chtypes.h"
 377              		.file 6 "../../chibios/os/kernel/include/chlists.h"
 378              		.file 7 "../../chibios/os/kernel/include/chthreads.h"
 379              		.file 8 "../../chibios/os/ports/GCC/ARMCMx/chcore_v7m.h"
 380              		.file 9 "../../chibios/os/kernel/include/chvt.h"
ARM GAS  C:\Users\Elis\AppData\Local\Temp\ccwV5RfI.s 			page 8


 381              		.file 10 "../../chibios/os/kernel/include/chsem.h"
 382              		.file 11 "../../chibios/os/kernel/include/chmtx.h"
 383              		.file 12 "../../chibios/os/kernel/include/chmboxes.h"
 384              		.file 13 "../../ugfx/src/gos/gos_chibios.h"
 385              		.file 14 "../../workspace26/Mobile_phone/regex/slre.h"
 386              		.file 15 "../../chibios/os/ports/common/ARMCMx/CMSIS/include/core_cm4.h"
 387              		.file 16 "../../workspace26/Mobile_phone/tasks/uart_t.h"
 388              		.file 17 "../../workspace26/Mobile_phone/gsm/gsm.h"
 389              		.file 18 "c:\\chibistudio\\tools\\gnu tools arm embedded\\4.7 2014q2\\bin\\../lib/gcc/arm-none-eab
 390              		.file 19 "../../chibios/os/kernel/include/chmsg.h"
 391              		.section	.debug_info,"",%progbits
 392              	.Ldebug_info0:
 393 0000 300B0000 		.4byte	0xb30
 394 0004 0200     		.2byte	0x2
 395 0006 00000000 		.4byte	.Ldebug_abbrev0
 396 000a 04       		.byte	0x4
 397 000b 01       		.uleb128 0x1
 398 000c 84020000 		.4byte	.LASF110
 399 0010 01       		.byte	0x1
 400 0011 72000000 		.4byte	.LASF111
 401 0015 F5000000 		.4byte	.LASF112
 402 0019 00000000 		.4byte	.Ldebug_ranges0+0
 403 001d 00000000 		.4byte	0
 404 0021 00000000 		.4byte	0
 405 0025 00000000 		.4byte	.Ldebug_line0
 406 0029 02       		.uleb128 0x2
 407 002a B1040000 		.4byte	.LASF2
 408 002e 32       		.byte	0x32
 409 002f 02       		.byte	0x2
 410 0030 0E       		.byte	0xe
 411 0031 44000000 		.4byte	0x44
 412 0035 03       		.uleb128 0x3
 413 0036 3B020000 		.4byte	.LASF4
 414 003a 02       		.byte	0x2
 415 003b 10       		.byte	0x10
 416 003c 44000000 		.4byte	0x44
 417 0040 02       		.byte	0x2
 418 0041 23       		.byte	0x23
 419 0042 00       		.uleb128 0
 420 0043 00       		.byte	0
 421 0044 04       		.uleb128 0x4
 422 0045 5B000000 		.4byte	0x5b
 423 0049 54000000 		.4byte	0x54
 424 004d 05       		.uleb128 0x5
 425 004e 54000000 		.4byte	0x54
 426 0052 31       		.byte	0x31
 427 0053 00       		.byte	0
 428 0054 06       		.uleb128 0x6
 429 0055 04       		.byte	0x4
 430 0056 07       		.byte	0x7
 431 0057 5A020000 		.4byte	.LASF0
 432 005b 06       		.uleb128 0x6
 433 005c 01       		.byte	0x1
 434 005d 08       		.byte	0x8
 435 005e EB030000 		.4byte	.LASF1
 436 0062 02       		.uleb128 0x2
 437 0063 09040000 		.4byte	.LASF3
ARM GAS  C:\Users\Elis\AppData\Local\Temp\ccwV5RfI.s 			page 9


 438 0067 40       		.byte	0x40
 439 0068 02       		.byte	0x2
 440 0069 14       		.byte	0x14
 441 006a CC000000 		.4byte	0xcc
 442 006e 03       		.uleb128 0x3
 443 006f DE010000 		.4byte	.LASF5
 444 0073 02       		.byte	0x2
 445 0074 18       		.byte	0x18
 446 0075 CC000000 		.4byte	0xcc
 447 0079 02       		.byte	0x2
 448 007a 23       		.byte	0x23
 449 007b 00       		.uleb128 0
 450 007c 03       		.uleb128 0x3
 451 007d 2A020000 		.4byte	.LASF6
 452 0081 02       		.byte	0x2
 453 0082 1C       		.byte	0x1c
 454 0083 29000000 		.4byte	0x29
 455 0087 02       		.byte	0x2
 456 0088 23       		.byte	0x23
 457 0089 04       		.uleb128 0x4
 458 008a 03       		.uleb128 0x3
 459 008b 4E010000 		.4byte	.LASF7
 460 008f 02       		.byte	0x2
 461 0090 20       		.byte	0x20
 462 0091 D8000000 		.4byte	0xd8
 463 0095 02       		.byte	0x2
 464 0096 23       		.byte	0x23
 465 0097 38       		.uleb128 0x38
 466 0098 07       		.uleb128 0x7
 467 0099 41030000 		.4byte	.LASF8
 468 009d 02       		.byte	0x2
 469 009e 24       		.byte	0x24
 470 009f DF000000 		.4byte	0xdf
 471 00a3 04       		.byte	0x4
 472 00a4 01       		.byte	0x1
 473 00a5 1F       		.byte	0x1f
 474 00a6 02       		.byte	0x2
 475 00a7 23       		.byte	0x23
 476 00a8 3C       		.uleb128 0x3c
 477 00a9 07       		.uleb128 0x7
 478 00aa FA030000 		.4byte	.LASF9
 479 00ae 02       		.byte	0x2
 480 00af 26       		.byte	0x26
 481 00b0 DF000000 		.4byte	0xdf
 482 00b4 04       		.byte	0x4
 483 00b5 01       		.byte	0x1
 484 00b6 1E       		.byte	0x1e
 485 00b7 02       		.byte	0x2
 486 00b8 23       		.byte	0x23
 487 00b9 3C       		.uleb128 0x3c
 488 00ba 07       		.uleb128 0x7
 489 00bb 2F020000 		.4byte	.LASF10
 490 00bf 02       		.byte	0x2
 491 00c0 28       		.byte	0x28
 492 00c1 DF000000 		.4byte	0xdf
 493 00c5 04       		.byte	0x4
 494 00c6 01       		.byte	0x1
ARM GAS  C:\Users\Elis\AppData\Local\Temp\ccwV5RfI.s 			page 10


 495 00c7 1D       		.byte	0x1d
 496 00c8 02       		.byte	0x2
 497 00c9 23       		.byte	0x23
 498 00ca 3C       		.uleb128 0x3c
 499 00cb 00       		.byte	0
 500 00cc 08       		.uleb128 0x8
 501 00cd 04       		.byte	0x4
 502 00ce D2000000 		.4byte	0xd2
 503 00d2 08       		.uleb128 0x8
 504 00d3 04       		.byte	0x4
 505 00d4 29000000 		.4byte	0x29
 506 00d8 09       		.uleb128 0x9
 507 00d9 04       		.byte	0x4
 508 00da 05       		.byte	0x5
 509 00db 696E7400 		.ascii	"int\000"
 510 00df 06       		.uleb128 0x6
 511 00e0 04       		.byte	0x4
 512 00e1 07       		.byte	0x7
 513 00e2 9F010000 		.4byte	.LASF11
 514 00e6 08       		.uleb128 0x8
 515 00e7 04       		.byte	0x4
 516 00e8 5B000000 		.4byte	0x5b
 517 00ec 06       		.uleb128 0x6
 518 00ed 01       		.byte	0x1
 519 00ee 08       		.byte	0x8
 520 00ef 24030000 		.4byte	.LASF12
 521 00f3 02       		.uleb128 0x2
 522 00f4 A9000000 		.4byte	.LASF13
 523 00f8 34       		.byte	0x34
 524 00f9 02       		.byte	0x2
 525 00fa 84       		.byte	0x84
 526 00fb 41010000 		.4byte	0x141
 527 00ff 03       		.uleb128 0x3
 528 0100 F8020000 		.4byte	.LASF14
 529 0104 02       		.byte	0x2
 530 0105 88       		.byte	0x88
 531 0106 29000000 		.4byte	0x29
 532 010a 02       		.byte	0x2
 533 010b 23       		.byte	0x23
 534 010c 00       		.uleb128 0
 535 010d 07       		.uleb128 0x7
 536 010e 0D000000 		.4byte	.LASF15
 537 0112 02       		.byte	0x2
 538 0113 8C       		.byte	0x8c
 539 0114 DF000000 		.4byte	0xdf
 540 0118 04       		.byte	0x4
 541 0119 01       		.byte	0x1
 542 011a 0F       		.byte	0xf
 543 011b 02       		.byte	0x2
 544 011c 23       		.byte	0x23
 545 011d 30       		.uleb128 0x30
 546 011e 07       		.uleb128 0x7
 547 011f 72020000 		.4byte	.LASF16
 548 0123 02       		.byte	0x2
 549 0124 8E       		.byte	0x8e
 550 0125 DF000000 		.4byte	0xdf
 551 0129 04       		.byte	0x4
ARM GAS  C:\Users\Elis\AppData\Local\Temp\ccwV5RfI.s 			page 11


 552 012a 01       		.byte	0x1
 553 012b 0E       		.byte	0xe
 554 012c 02       		.byte	0x2
 555 012d 23       		.byte	0x23
 556 012e 30       		.uleb128 0x30
 557 012f 07       		.uleb128 0x7
 558 0130 F0030000 		.4byte	.LASF17
 559 0134 02       		.byte	0x2
 560 0135 90       		.byte	0x90
 561 0136 DF000000 		.4byte	0xdf
 562 013a 04       		.byte	0x4
 563 013b 01       		.byte	0x1
 564 013c 0D       		.byte	0xd
 565 013d 02       		.byte	0x2
 566 013e 23       		.byte	0x23
 567 013f 30       		.uleb128 0x30
 568 0140 00       		.byte	0
 569 0141 0A       		.uleb128 0xa
 570 0142 14000000 		.4byte	.LASF19
 571 0146 03       		.byte	0x3
 572 0147 D5       		.byte	0xd5
 573 0148 DF000000 		.4byte	0xdf
 574 014c 06       		.uleb128 0x6
 575 014d 01       		.byte	0x1
 576 014e 06       		.byte	0x6
 577 014f D2000000 		.4byte	.LASF18
 578 0153 0A       		.uleb128 0xa
 579 0154 76040000 		.4byte	.LASF20
 580 0158 04       		.byte	0x4
 581 0159 2A       		.byte	0x2a
 582 015a EC000000 		.4byte	0xec
 583 015e 06       		.uleb128 0x6
 584 015f 02       		.byte	0x2
 585 0160 05       		.byte	0x5
 586 0161 63030000 		.4byte	.LASF21
 587 0165 06       		.uleb128 0x6
 588 0166 02       		.byte	0x2
 589 0167 07       		.byte	0x7
 590 0168 F1010000 		.4byte	.LASF22
 591 016c 0A       		.uleb128 0xa
 592 016d 1C030000 		.4byte	.LASF23
 593 0171 04       		.byte	0x4
 594 0172 4F       		.byte	0x4f
 595 0173 77010000 		.4byte	0x177
 596 0177 06       		.uleb128 0x6
 597 0178 04       		.byte	0x4
 598 0179 05       		.byte	0x5
 599 017a 27010000 		.4byte	.LASF24
 600 017e 0A       		.uleb128 0xa
 601 017f B7030000 		.4byte	.LASF25
 602 0183 04       		.byte	0x4
 603 0184 50       		.byte	0x50
 604 0185 89010000 		.4byte	0x189
 605 0189 06       		.uleb128 0x6
 606 018a 04       		.byte	0x4
 607 018b 07       		.byte	0x7
 608 018c D9030000 		.4byte	.LASF26
ARM GAS  C:\Users\Elis\AppData\Local\Temp\ccwV5RfI.s 			page 12


 609 0190 06       		.uleb128 0x6
 610 0191 08       		.byte	0x8
 611 0192 05       		.byte	0x5
 612 0193 C4000000 		.4byte	.LASF27
 613 0197 06       		.uleb128 0x6
 614 0198 08       		.byte	0x8
 615 0199 07       		.byte	0x7
 616 019a 52000000 		.4byte	.LASF28
 617 019e 0A       		.uleb128 0xa
 618 019f E6000000 		.4byte	.LASF29
 619 01a3 05       		.byte	0x5
 620 01a4 2B       		.byte	0x2b
 621 01a5 A9010000 		.4byte	0x1a9
 622 01a9 06       		.uleb128 0x6
 623 01aa 01       		.byte	0x1
 624 01ab 02       		.byte	0x2
 625 01ac 16030000 		.4byte	.LASF30
 626 01b0 0A       		.uleb128 0xa
 627 01b1 0A020000 		.4byte	.LASF31
 628 01b5 05       		.byte	0x5
 629 01b6 2C       		.byte	0x2c
 630 01b7 53010000 		.4byte	0x153
 631 01bb 0A       		.uleb128 0xa
 632 01bc 3A010000 		.4byte	.LASF32
 633 01c0 05       		.byte	0x5
 634 01c1 2D       		.byte	0x2d
 635 01c2 53010000 		.4byte	0x153
 636 01c6 0A       		.uleb128 0xa
 637 01c7 FF020000 		.4byte	.LASF33
 638 01cb 05       		.byte	0x5
 639 01cc 2E       		.byte	0x2e
 640 01cd 53010000 		.4byte	0x153
 641 01d1 0A       		.uleb128 0xa
 642 01d2 1D010000 		.4byte	.LASF34
 643 01d6 05       		.byte	0x5
 644 01d7 2F       		.byte	0x2f
 645 01d8 53010000 		.4byte	0x153
 646 01dc 0A       		.uleb128 0xa
 647 01dd 0E030000 		.4byte	.LASF35
 648 01e1 05       		.byte	0x5
 649 01e2 30       		.byte	0x30
 650 01e3 7E010000 		.4byte	0x17e
 651 01e7 0A       		.uleb128 0xa
 652 01e8 04020000 		.4byte	.LASF36
 653 01ec 05       		.byte	0x5
 654 01ed 31       		.byte	0x31
 655 01ee 6C010000 		.4byte	0x16c
 656 01f2 0A       		.uleb128 0xa
 657 01f3 1E020000 		.4byte	.LASF37
 658 01f7 05       		.byte	0x5
 659 01f8 33       		.byte	0x33
 660 01f9 7E010000 		.4byte	0x17e
 661 01fd 0A       		.uleb128 0xa
 662 01fe 16040000 		.4byte	.LASF38
 663 0202 05       		.byte	0x5
 664 0203 35       		.byte	0x35
 665 0204 7E010000 		.4byte	0x17e
ARM GAS  C:\Users\Elis\AppData\Local\Temp\ccwV5RfI.s 			page 13


 666 0208 0A       		.uleb128 0xa
 667 0209 99010000 		.4byte	.LASF39
 668 020d 05       		.byte	0x5
 669 020e 36       		.byte	0x36
 670 020f 6C010000 		.4byte	0x16c
 671 0213 0A       		.uleb128 0xa
 672 0214 9E030000 		.4byte	.LASF40
 673 0218 06       		.byte	0x6
 674 0219 2A       		.byte	0x2a
 675 021a 1E020000 		.4byte	0x21e
 676 021e 02       		.uleb128 0x2
 677 021f 9E030000 		.4byte	.LASF40
 678 0223 48       		.byte	0x48
 679 0224 07       		.byte	0x7
 680 0225 5E       		.byte	0x5e
 681 0226 43030000 		.4byte	0x343
 682 022a 03       		.uleb128 0x3
 683 022b 86030000 		.4byte	.LASF41
 684 022f 07       		.byte	0x7
 685 0230 5F       		.byte	0x5f
 686 0231 68030000 		.4byte	0x368
 687 0235 02       		.byte	0x2
 688 0236 23       		.byte	0x23
 689 0237 00       		.uleb128 0
 690 0238 03       		.uleb128 0x3
 691 0239 07030000 		.4byte	.LASF42
 692 023d 07       		.byte	0x7
 693 023e 61       		.byte	0x61
 694 023f 68030000 		.4byte	0x368
 695 0243 02       		.byte	0x2
 696 0244 23       		.byte	0x23
 697 0245 04       		.uleb128 0x4
 698 0246 03       		.uleb128 0x3
 699 0247 BD000000 		.4byte	.LASF43
 700 024b 07       		.byte	0x7
 701 024c 63       		.byte	0x63
 702 024d DC010000 		.4byte	0x1dc
 703 0251 02       		.byte	0x2
 704 0252 23       		.byte	0x23
 705 0253 08       		.uleb128 0x8
 706 0254 03       		.uleb128 0x3
 707 0255 B6040000 		.4byte	.LASF44
 708 0259 07       		.byte	0x7
 709 025a 64       		.byte	0x64
 710 025b 36040000 		.4byte	0x436
 711 025f 02       		.byte	0x2
 712 0260 23       		.byte	0x23
 713 0261 0C       		.uleb128 0xc
 714 0262 03       		.uleb128 0x3
 715 0263 67010000 		.4byte	.LASF45
 716 0267 07       		.byte	0x7
 717 0268 66       		.byte	0x66
 718 0269 68030000 		.4byte	0x368
 719 026d 02       		.byte	0x2
 720 026e 23       		.byte	0x23
 721 026f 10       		.uleb128 0x10
 722 0270 03       		.uleb128 0x3
ARM GAS  C:\Users\Elis\AppData\Local\Temp\ccwV5RfI.s 			page 14


 723 0271 CD020000 		.4byte	.LASF46
 724 0275 07       		.byte	0x7
 725 0276 67       		.byte	0x67
 726 0277 68030000 		.4byte	0x368
 727 027b 02       		.byte	0x2
 728 027c 23       		.byte	0x23
 729 027d 14       		.uleb128 0x14
 730 027e 03       		.uleb128 0x3
 731 027f 8B040000 		.4byte	.LASF47
 732 0283 07       		.byte	0x7
 733 0284 6E       		.byte	0x6e
 734 0285 4A060000 		.4byte	0x64a
 735 0289 02       		.byte	0x2
 736 028a 23       		.byte	0x23
 737 028b 18       		.uleb128 0x18
 738 028c 03       		.uleb128 0x3
 739 028d 6D030000 		.4byte	.LASF48
 740 0291 07       		.byte	0x7
 741 0292 79       		.byte	0x79
 742 0293 BB010000 		.4byte	0x1bb
 743 0297 02       		.byte	0x2
 744 0298 23       		.byte	0x23
 745 0299 1C       		.uleb128 0x1c
 746 029a 03       		.uleb128 0x3
 747 029b 8D030000 		.4byte	.LASF49
 748 029f 07       		.byte	0x7
 749 02a0 7D       		.byte	0x7d
 750 02a1 B0010000 		.4byte	0x1b0
 751 02a5 02       		.byte	0x2
 752 02a6 23       		.byte	0x23
 753 02a7 1D       		.uleb128 0x1d
 754 02a8 03       		.uleb128 0x3
 755 02a9 6F040000 		.4byte	.LASF50
 756 02ad 07       		.byte	0x7
 757 02ae 82       		.byte	0x82
 758 02af C6010000 		.4byte	0x1c6
 759 02b3 02       		.byte	0x2
 760 02b4 23       		.byte	0x23
 761 02b5 1E       		.uleb128 0x1e
 762 02b6 03       		.uleb128 0x3
 763 02b7 75030000 		.4byte	.LASF51
 764 02bb 07       		.byte	0x7
 765 02bc 88       		.byte	0x88
 766 02bd D1010000 		.4byte	0x1d1
 767 02c1 02       		.byte	0x2
 768 02c2 23       		.byte	0x23
 769 02c3 1F       		.uleb128 0x1f
 770 02c4 03       		.uleb128 0x3
 771 02c5 59010000 		.4byte	.LASF52
 772 02c9 07       		.byte	0x7
 773 02ca 8F       		.byte	0x8f
 774 02cb 1B050000 		.4byte	0x51b
 775 02cf 02       		.byte	0x2
 776 02d0 23       		.byte	0x23
 777 02d1 20       		.uleb128 0x20
 778 02d2 0B       		.uleb128 0xb
 779 02d3 705F7500 		.ascii	"p_u\000"
ARM GAS  C:\Users\Elis\AppData\Local\Temp\ccwV5RfI.s 			page 15


 780 02d7 07       		.byte	0x7
 781 02d8 B4       		.byte	0xb4
 782 02d9 15060000 		.4byte	0x615
 783 02dd 02       		.byte	0x2
 784 02de 23       		.byte	0x23
 785 02df 24       		.uleb128 0x24
 786 02e0 03       		.uleb128 0x3
 787 02e1 50020000 		.4byte	.LASF53
 788 02e5 07       		.byte	0x7
 789 02e6 B9       		.byte	0xb9
 790 02e7 90030000 		.4byte	0x390
 791 02eb 02       		.byte	0x2
 792 02ec 23       		.byte	0x23
 793 02ed 28       		.uleb128 0x28
 794 02ee 03       		.uleb128 0x3
 795 02ef B4010000 		.4byte	.LASF54
 796 02f3 07       		.byte	0x7
 797 02f4 BF       		.byte	0xbf
 798 02f5 6E030000 		.4byte	0x36e
 799 02f9 02       		.byte	0x2
 800 02fa 23       		.byte	0x23
 801 02fb 2C       		.uleb128 0x2c
 802 02fc 03       		.uleb128 0x3
 803 02fd 9C040000 		.4byte	.LASF55
 804 0301 07       		.byte	0x7
 805 0302 C3       		.byte	0xc3
 806 0303 E7010000 		.4byte	0x1e7
 807 0307 02       		.byte	0x2
 808 0308 23       		.byte	0x23
 809 0309 34       		.uleb128 0x34
 810 030a 03       		.uleb128 0x3
 811 030b AC030000 		.4byte	.LASF56
 812 030f 07       		.byte	0x7
 813 0310 C9       		.byte	0xc9
 814 0311 F2010000 		.4byte	0x1f2
 815 0315 02       		.byte	0x2
 816 0316 23       		.byte	0x23
 817 0317 38       		.uleb128 0x38
 818 0318 03       		.uleb128 0x3
 819 0319 59030000 		.4byte	.LASF57
 820 031d 07       		.byte	0x7
 821 031e D0       		.byte	0xd0
 822 031f 55060000 		.4byte	0x655
 823 0323 02       		.byte	0x2
 824 0324 23       		.byte	0x23
 825 0325 3C       		.uleb128 0x3c
 826 0326 03       		.uleb128 0x3
 827 0327 20040000 		.4byte	.LASF58
 828 032b 07       		.byte	0x7
 829 032c D4       		.byte	0xd4
 830 032d DC010000 		.4byte	0x1dc
 831 0331 02       		.byte	0x2
 832 0332 23       		.byte	0x23
 833 0333 40       		.uleb128 0x40
 834 0334 03       		.uleb128 0x3
 835 0335 DE000000 		.4byte	.LASF59
 836 0339 07       		.byte	0x7
ARM GAS  C:\Users\Elis\AppData\Local\Temp\ccwV5RfI.s 			page 16


 837 033a DA       		.byte	0xda
 838 033b A6030000 		.4byte	0x3a6
 839 033f 02       		.byte	0x2
 840 0340 23       		.byte	0x23
 841 0341 44       		.uleb128 0x44
 842 0342 00       		.byte	0
 843 0343 0C       		.uleb128 0xc
 844 0344 08       		.byte	0x8
 845 0345 06       		.byte	0x6
 846 0346 61       		.byte	0x61
 847 0347 68030000 		.4byte	0x368
 848 034b 03       		.uleb128 0x3
 849 034c 86030000 		.4byte	.LASF41
 850 0350 06       		.byte	0x6
 851 0351 62       		.byte	0x62
 852 0352 68030000 		.4byte	0x368
 853 0356 02       		.byte	0x2
 854 0357 23       		.byte	0x23
 855 0358 00       		.uleb128 0
 856 0359 03       		.uleb128 0x3
 857 035a 07030000 		.4byte	.LASF42
 858 035e 06       		.byte	0x6
 859 035f 64       		.byte	0x64
 860 0360 68030000 		.4byte	0x368
 861 0364 02       		.byte	0x2
 862 0365 23       		.byte	0x23
 863 0366 04       		.uleb128 0x4
 864 0367 00       		.byte	0
 865 0368 08       		.uleb128 0x8
 866 0369 04       		.byte	0x4
 867 036a 13020000 		.4byte	0x213
 868 036e 0A       		.uleb128 0xa
 869 036f D5020000 		.4byte	.LASF60
 870 0373 06       		.byte	0x6
 871 0374 66       		.byte	0x66
 872 0375 43030000 		.4byte	0x343
 873 0379 0C       		.uleb128 0xc
 874 037a 04       		.byte	0x4
 875 037b 06       		.byte	0x6
 876 037c 6B       		.byte	0x6b
 877 037d 90030000 		.4byte	0x390
 878 0381 03       		.uleb128 0x3
 879 0382 86030000 		.4byte	.LASF41
 880 0386 06       		.byte	0x6
 881 0387 6D       		.byte	0x6d
 882 0388 68030000 		.4byte	0x368
 883 038c 02       		.byte	0x2
 884 038d 23       		.byte	0x23
 885 038e 00       		.uleb128 0
 886 038f 00       		.byte	0
 887 0390 0A       		.uleb128 0xa
 888 0391 12020000 		.4byte	.LASF61
 889 0395 06       		.byte	0x6
 890 0396 70       		.byte	0x70
 891 0397 79030000 		.4byte	0x379
 892 039b 0A       		.uleb128 0xa
 893 039c 7D010000 		.4byte	.LASF62
ARM GAS  C:\Users\Elis\AppData\Local\Temp\ccwV5RfI.s 			page 17


 894 03a0 08       		.byte	0x8
 895 03a1 E5       		.byte	0xe5
 896 03a2 A6030000 		.4byte	0x3a6
 897 03a6 0D       		.uleb128 0xd
 898 03a7 04       		.byte	0x4
 899 03a8 0E       		.uleb128 0xe
 900 03a9 45040000 		.4byte	.LASF63
 901 03ad 24       		.byte	0x24
 902 03ae 08       		.byte	0x8
 903 03af 0C01     		.2byte	0x10c
 904 03b1 36040000 		.4byte	0x436
 905 03b5 0F       		.uleb128 0xf
 906 03b6 723400   		.ascii	"r4\000"
 907 03b9 08       		.byte	0x8
 908 03ba 1F01     		.2byte	0x11f
 909 03bc 9B030000 		.4byte	0x39b
 910 03c0 02       		.byte	0x2
 911 03c1 23       		.byte	0x23
 912 03c2 00       		.uleb128 0
 913 03c3 0F       		.uleb128 0xf
 914 03c4 723500   		.ascii	"r5\000"
 915 03c7 08       		.byte	0x8
 916 03c8 2001     		.2byte	0x120
 917 03ca 9B030000 		.4byte	0x39b
 918 03ce 02       		.byte	0x2
 919 03cf 23       		.byte	0x23
 920 03d0 04       		.uleb128 0x4
 921 03d1 0F       		.uleb128 0xf
 922 03d2 723600   		.ascii	"r6\000"
 923 03d5 08       		.byte	0x8
 924 03d6 2101     		.2byte	0x121
 925 03d8 9B030000 		.4byte	0x39b
 926 03dc 02       		.byte	0x2
 927 03dd 23       		.byte	0x23
 928 03de 08       		.uleb128 0x8
 929 03df 0F       		.uleb128 0xf
 930 03e0 723700   		.ascii	"r7\000"
 931 03e3 08       		.byte	0x8
 932 03e4 2201     		.2byte	0x122
 933 03e6 9B030000 		.4byte	0x39b
 934 03ea 02       		.byte	0x2
 935 03eb 23       		.byte	0x23
 936 03ec 0C       		.uleb128 0xc
 937 03ed 0F       		.uleb128 0xf
 938 03ee 723800   		.ascii	"r8\000"
 939 03f1 08       		.byte	0x8
 940 03f2 2301     		.2byte	0x123
 941 03f4 9B030000 		.4byte	0x39b
 942 03f8 02       		.byte	0x2
 943 03f9 23       		.byte	0x23
 944 03fa 10       		.uleb128 0x10
 945 03fb 0F       		.uleb128 0xf
 946 03fc 723900   		.ascii	"r9\000"
 947 03ff 08       		.byte	0x8
 948 0400 2401     		.2byte	0x124
 949 0402 9B030000 		.4byte	0x39b
 950 0406 02       		.byte	0x2
ARM GAS  C:\Users\Elis\AppData\Local\Temp\ccwV5RfI.s 			page 18


 951 0407 23       		.byte	0x23
 952 0408 14       		.uleb128 0x14
 953 0409 0F       		.uleb128 0xf
 954 040a 72313000 		.ascii	"r10\000"
 955 040e 08       		.byte	0x8
 956 040f 2501     		.2byte	0x125
 957 0411 9B030000 		.4byte	0x39b
 958 0415 02       		.byte	0x2
 959 0416 23       		.byte	0x23
 960 0417 18       		.uleb128 0x18
 961 0418 0F       		.uleb128 0xf
 962 0419 72313100 		.ascii	"r11\000"
 963 041d 08       		.byte	0x8
 964 041e 2601     		.2byte	0x126
 965 0420 9B030000 		.4byte	0x39b
 966 0424 02       		.byte	0x2
 967 0425 23       		.byte	0x23
 968 0426 1C       		.uleb128 0x1c
 969 0427 0F       		.uleb128 0xf
 970 0428 6C7200   		.ascii	"lr\000"
 971 042b 08       		.byte	0x8
 972 042c 2701     		.2byte	0x127
 973 042e 9B030000 		.4byte	0x39b
 974 0432 02       		.byte	0x2
 975 0433 23       		.byte	0x23
 976 0434 20       		.uleb128 0x20
 977 0435 00       		.byte	0
 978 0436 0E       		.uleb128 0xe
 979 0437 3D040000 		.4byte	.LASF64
 980 043b 04       		.byte	0x4
 981 043c 08       		.byte	0x8
 982 043d 3101     		.2byte	0x131
 983 043f 53040000 		.4byte	0x453
 984 0443 0F       		.uleb128 0xf
 985 0444 72313300 		.ascii	"r13\000"
 986 0448 08       		.byte	0x8
 987 0449 3201     		.2byte	0x132
 988 044b 53040000 		.4byte	0x453
 989 044f 02       		.byte	0x2
 990 0450 23       		.byte	0x23
 991 0451 00       		.uleb128 0
 992 0452 00       		.byte	0
 993 0453 08       		.uleb128 0x8
 994 0454 04       		.byte	0x4
 995 0455 A8030000 		.4byte	0x3a8
 996 0459 0A       		.uleb128 0xa
 997 045a 2B040000 		.4byte	.LASF65
 998 045e 09       		.byte	0x9
 999 045f 58       		.byte	0x58
 1000 0460 64040000 		.4byte	0x464
 1001 0464 08       		.uleb128 0x8
 1002 0465 04       		.byte	0x4
 1003 0466 6A040000 		.4byte	0x46a
 1004 046a 10       		.uleb128 0x10
 1005 046b 01       		.byte	0x1
 1006 046c 76040000 		.4byte	0x476
 1007 0470 11       		.uleb128 0x11
ARM GAS  C:\Users\Elis\AppData\Local\Temp\ccwV5RfI.s 			page 19


 1008 0471 A6030000 		.4byte	0x3a6
 1009 0475 00       		.byte	0
 1010 0476 0A       		.uleb128 0xa
 1011 0477 CB010000 		.4byte	.LASF66
 1012 047b 09       		.byte	0x9
 1013 047c 5D       		.byte	0x5d
 1014 047d 81040000 		.4byte	0x481
 1015 0481 02       		.uleb128 0x2
 1016 0482 CB010000 		.4byte	.LASF66
 1017 0486 14       		.byte	0x14
 1018 0487 09       		.byte	0x9
 1019 0488 64       		.byte	0x64
 1020 0489 D4040000 		.4byte	0x4d4
 1021 048d 03       		.uleb128 0x3
 1022 048e AC010000 		.4byte	.LASF67
 1023 0492 09       		.byte	0x9
 1024 0493 65       		.byte	0x65
 1025 0494 D4040000 		.4byte	0x4d4
 1026 0498 02       		.byte	0x2
 1027 0499 23       		.byte	0x23
 1028 049a 00       		.uleb128 0
 1029 049b 03       		.uleb128 0x3
 1030 049c 86010000 		.4byte	.LASF68
 1031 04a0 09       		.byte	0x9
 1032 04a1 67       		.byte	0x67
 1033 04a2 D4040000 		.4byte	0x4d4
 1034 04a6 02       		.byte	0x2
 1035 04a7 23       		.byte	0x23
 1036 04a8 04       		.uleb128 0x4
 1037 04a9 03       		.uleb128 0x3
 1038 04aa 48020000 		.4byte	.LASF69
 1039 04ae 09       		.byte	0x9
 1040 04af 69       		.byte	0x69
 1041 04b0 FD010000 		.4byte	0x1fd
 1042 04b4 02       		.byte	0x2
 1043 04b5 23       		.byte	0x23
 1044 04b6 08       		.uleb128 0x8
 1045 04b7 03       		.uleb128 0x3
 1046 04b8 BC040000 		.4byte	.LASF70
 1047 04bc 09       		.byte	0x9
 1048 04bd 6A       		.byte	0x6a
 1049 04be 59040000 		.4byte	0x459
 1050 04c2 02       		.byte	0x2
 1051 04c3 23       		.byte	0x23
 1052 04c4 0C       		.uleb128 0xc
 1053 04c5 03       		.uleb128 0x3
 1054 04c6 4C040000 		.4byte	.LASF71
 1055 04ca 09       		.byte	0x9
 1056 04cb 6C       		.byte	0x6c
 1057 04cc A6030000 		.4byte	0x3a6
 1058 04d0 02       		.byte	0x2
 1059 04d1 23       		.byte	0x23
 1060 04d2 10       		.uleb128 0x10
 1061 04d3 00       		.byte	0
 1062 04d4 08       		.uleb128 0x8
 1063 04d5 04       		.byte	0x4
 1064 04d6 76040000 		.4byte	0x476
ARM GAS  C:\Users\Elis\AppData\Local\Temp\ccwV5RfI.s 			page 20


 1065 04da 0C       		.uleb128 0xc
 1066 04db 10       		.byte	0x10
 1067 04dc 09       		.byte	0x9
 1068 04dd 76       		.byte	0x76
 1069 04de 1B050000 		.4byte	0x51b
 1070 04e2 03       		.uleb128 0x3
 1071 04e3 AC010000 		.4byte	.LASF67
 1072 04e7 09       		.byte	0x9
 1073 04e8 77       		.byte	0x77
 1074 04e9 D4040000 		.4byte	0x4d4
 1075 04ed 02       		.byte	0x2
 1076 04ee 23       		.byte	0x23
 1077 04ef 00       		.uleb128 0
 1078 04f0 03       		.uleb128 0x3
 1079 04f1 86010000 		.4byte	.LASF68
 1080 04f5 09       		.byte	0x9
 1081 04f6 79       		.byte	0x79
 1082 04f7 D4040000 		.4byte	0x4d4
 1083 04fb 02       		.byte	0x2
 1084 04fc 23       		.byte	0x23
 1085 04fd 04       		.uleb128 0x4
 1086 04fe 03       		.uleb128 0x3
 1087 04ff 48020000 		.4byte	.LASF69
 1088 0503 09       		.byte	0x9
 1089 0504 7B       		.byte	0x7b
 1090 0505 FD010000 		.4byte	0x1fd
 1091 0509 02       		.byte	0x2
 1092 050a 23       		.byte	0x23
 1093 050b 08       		.uleb128 0x8
 1094 050c 03       		.uleb128 0x3
 1095 050d C0030000 		.4byte	.LASF72
 1096 0511 09       		.byte	0x9
 1097 0512 7C       		.byte	0x7c
 1098 0513 1B050000 		.4byte	0x51b
 1099 0517 02       		.byte	0x2
 1100 0518 23       		.byte	0x23
 1101 0519 0C       		.uleb128 0xc
 1102 051a 00       		.byte	0
 1103 051b 12       		.uleb128 0x12
 1104 051c FD010000 		.4byte	0x1fd
 1105 0520 0A       		.uleb128 0xa
 1106 0521 A2040000 		.4byte	.LASF73
 1107 0525 09       		.byte	0x9
 1108 0526 7D       		.byte	0x7d
 1109 0527 DA040000 		.4byte	0x4da
 1110 052b 02       		.uleb128 0x2
 1111 052c 53040000 		.4byte	.LASF74
 1112 0530 0C       		.byte	0xc
 1113 0531 0A       		.byte	0xa
 1114 0532 2C       		.byte	0x2c
 1115 0533 54050000 		.4byte	0x554
 1116 0537 03       		.uleb128 0x3
 1117 0538 6F010000 		.4byte	.LASF75
 1118 053c 0A       		.byte	0xa
 1119 053d 2D       		.byte	0x2d
 1120 053e 6E030000 		.4byte	0x36e
 1121 0542 02       		.byte	0x2
ARM GAS  C:\Users\Elis\AppData\Local\Temp\ccwV5RfI.s 			page 21


 1122 0543 23       		.byte	0x23
 1123 0544 00       		.uleb128 0
 1124 0545 03       		.uleb128 0x3
 1125 0546 D8010000 		.4byte	.LASF76
 1126 054a 0A       		.byte	0xa
 1127 054b 2F       		.byte	0x2f
 1128 054c 08020000 		.4byte	0x208
 1129 0550 02       		.byte	0x2
 1130 0551 23       		.byte	0x23
 1131 0552 08       		.uleb128 0x8
 1132 0553 00       		.byte	0
 1133 0554 0A       		.uleb128 0xa
 1134 0555 53040000 		.4byte	.LASF74
 1135 0559 0A       		.byte	0xa
 1136 055a 30       		.byte	0x30
 1137 055b 2B050000 		.4byte	0x52b
 1138 055f 02       		.uleb128 0x2
 1139 0560 6C020000 		.4byte	.LASF77
 1140 0564 10       		.byte	0x10
 1141 0565 0B       		.byte	0xb
 1142 0566 2C       		.byte	0x2c
 1143 0567 96050000 		.4byte	0x596
 1144 056b 03       		.uleb128 0x3
 1145 056c ED000000 		.4byte	.LASF78
 1146 0570 0B       		.byte	0xb
 1147 0571 2D       		.byte	0x2d
 1148 0572 6E030000 		.4byte	0x36e
 1149 0576 02       		.byte	0x2
 1150 0577 23       		.byte	0x23
 1151 0578 00       		.uleb128 0
 1152 0579 03       		.uleb128 0x3
 1153 057a A9040000 		.4byte	.LASF79
 1154 057e 0B       		.byte	0xb
 1155 057f 2F       		.byte	0x2f
 1156 0580 68030000 		.4byte	0x368
 1157 0584 02       		.byte	0x2
 1158 0585 23       		.byte	0x23
 1159 0586 08       		.uleb128 0x8
 1160 0587 03       		.uleb128 0x3
 1161 0588 0F040000 		.4byte	.LASF80
 1162 058c 0B       		.byte	0xb
 1163 058d 31       		.byte	0x31
 1164 058e 96050000 		.4byte	0x596
 1165 0592 02       		.byte	0x2
 1166 0593 23       		.byte	0x23
 1167 0594 0C       		.uleb128 0xc
 1168 0595 00       		.byte	0
 1169 0596 08       		.uleb128 0x8
 1170 0597 04       		.byte	0x4
 1171 0598 5F050000 		.4byte	0x55f
 1172 059c 0A       		.uleb128 0xa
 1173 059d 6C020000 		.4byte	.LASF77
 1174 05a1 0B       		.byte	0xb
 1175 05a2 33       		.byte	0x33
 1176 05a3 5F050000 		.4byte	0x55f
 1177 05a7 0C       		.uleb128 0xc
 1178 05a8 28       		.byte	0x28
ARM GAS  C:\Users\Elis\AppData\Local\Temp\ccwV5RfI.s 			page 22


 1179 05a9 0C       		.byte	0xc
 1180 05aa 33       		.byte	0x33
 1181 05ab 04060000 		.4byte	0x604
 1182 05af 03       		.uleb128 0x3
 1183 05b0 E2020000 		.4byte	.LASF81
 1184 05b4 0C       		.byte	0xc
 1185 05b5 34       		.byte	0x34
 1186 05b6 04060000 		.4byte	0x604
 1187 05ba 02       		.byte	0x2
 1188 05bb 23       		.byte	0x23
 1189 05bc 00       		.uleb128 0
 1190 05bd 03       		.uleb128 0x3
 1191 05be B6000000 		.4byte	.LASF82
 1192 05c2 0C       		.byte	0xc
 1193 05c3 36       		.byte	0x36
 1194 05c4 04060000 		.4byte	0x604
 1195 05c8 02       		.byte	0x2
 1196 05c9 23       		.byte	0x23
 1197 05ca 04       		.uleb128 0x4
 1198 05cb 03       		.uleb128 0x3
 1199 05cc A0000000 		.4byte	.LASF83
 1200 05d0 0C       		.byte	0xc
 1201 05d1 38       		.byte	0x38
 1202 05d2 04060000 		.4byte	0x604
 1203 05d6 02       		.byte	0x2
 1204 05d7 23       		.byte	0x23
 1205 05d8 08       		.uleb128 0x8
 1206 05d9 03       		.uleb128 0x3
 1207 05da 63020000 		.4byte	.LASF84
 1208 05de 0C       		.byte	0xc
 1209 05df 39       		.byte	0x39
 1210 05e0 04060000 		.4byte	0x604
 1211 05e4 02       		.byte	0x2
 1212 05e5 23       		.byte	0x23
 1213 05e6 0C       		.uleb128 0xc
 1214 05e7 03       		.uleb128 0x3
 1215 05e8 5D040000 		.4byte	.LASF85
 1216 05ec 0C       		.byte	0xc
 1217 05ed 3A       		.byte	0x3a
 1218 05ee 54050000 		.4byte	0x554
 1219 05f2 02       		.byte	0x2
 1220 05f3 23       		.byte	0x23
 1221 05f4 10       		.uleb128 0x10
 1222 05f5 03       		.uleb128 0x3
 1223 05f6 BF010000 		.4byte	.LASF86
 1224 05fa 0C       		.byte	0xc
 1225 05fb 3C       		.byte	0x3c
 1226 05fc 54050000 		.4byte	0x554
 1227 0600 02       		.byte	0x2
 1228 0601 23       		.byte	0x23
 1229 0602 1C       		.uleb128 0x1c
 1230 0603 00       		.byte	0
 1231 0604 08       		.uleb128 0x8
 1232 0605 04       		.byte	0x4
 1233 0606 E7010000 		.4byte	0x1e7
 1234 060a 0A       		.uleb128 0xa
 1235 060b 4A000000 		.4byte	.LASF87
ARM GAS  C:\Users\Elis\AppData\Local\Temp\ccwV5RfI.s 			page 23


 1236 060f 0C       		.byte	0xc
 1237 0610 3E       		.byte	0x3e
 1238 0611 A7050000 		.4byte	0x5a7
 1239 0615 13       		.uleb128 0x13
 1240 0616 04       		.byte	0x4
 1241 0617 07       		.byte	0x7
 1242 0618 96       		.byte	0x96
 1243 0619 4A060000 		.4byte	0x64a
 1244 061d 14       		.uleb128 0x14
 1245 061e 68040000 		.4byte	.LASF88
 1246 0622 07       		.byte	0x7
 1247 0623 9D       		.byte	0x9d
 1248 0624 E7010000 		.4byte	0x1e7
 1249 0628 14       		.uleb128 0x14
 1250 0629 69000000 		.4byte	.LASF89
 1251 062d 07       		.byte	0x7
 1252 062e A4       		.byte	0xa4
 1253 062f E7010000 		.4byte	0x1e7
 1254 0633 14       		.uleb128 0x14
 1255 0634 84040000 		.4byte	.LASF90
 1256 0638 07       		.byte	0x7
 1257 0639 AB       		.byte	0xab
 1258 063a A6030000 		.4byte	0x3a6
 1259 063e 14       		.uleb128 0x14
 1260 063f 7F030000 		.4byte	.LASF91
 1261 0643 07       		.byte	0x7
 1262 0644 B2       		.byte	0xb2
 1263 0645 F2010000 		.4byte	0x1f2
 1264 0649 00       		.byte	0
 1265 064a 08       		.uleb128 0x8
 1266 064b 04       		.byte	0x4
 1267 064c 50060000 		.4byte	0x650
 1268 0650 15       		.uleb128 0x15
 1269 0651 5B000000 		.4byte	0x5b
 1270 0655 08       		.uleb128 0x8
 1271 0656 04       		.byte	0x4
 1272 0657 9C050000 		.4byte	0x59c
 1273 065b 04       		.uleb128 0x4
 1274 065c 5B000000 		.4byte	0x5b
 1275 0660 6B060000 		.4byte	0x66b
 1276 0664 05       		.uleb128 0x5
 1277 0665 54000000 		.4byte	0x54
 1278 0669 03       		.byte	0x3
 1279 066a 00       		.byte	0
 1280 066b 12       		.uleb128 0x12
 1281 066c 6C010000 		.4byte	0x16c
 1282 0670 0A       		.uleb128 0xa
 1283 0671 32030000 		.4byte	.LASF92
 1284 0675 0D       		.byte	0xd
 1285 0676 31       		.byte	0x31
 1286 0677 E7010000 		.4byte	0x1e7
 1287 067b 02       		.uleb128 0x2
 1288 067c 34040000 		.4byte	.LASF93
 1289 0680 08       		.byte	0x8
 1290 0681 0E       		.byte	0xe
 1291 0682 20       		.byte	0x20
 1292 0683 A4060000 		.4byte	0x6a4
ARM GAS  C:\Users\Elis\AppData\Local\Temp\ccwV5RfI.s 			page 24


 1293 0687 0B       		.uleb128 0xb
 1294 0688 70747200 		.ascii	"ptr\000"
 1295 068c 0E       		.byte	0xe
 1296 068d 21       		.byte	0x21
 1297 068e 4A060000 		.4byte	0x64a
 1298 0692 02       		.byte	0x2
 1299 0693 23       		.byte	0x23
 1300 0694 00       		.uleb128 0
 1301 0695 0B       		.uleb128 0xb
 1302 0696 6C656E00 		.ascii	"len\000"
 1303 069a 0E       		.byte	0xe
 1304 069b 22       		.byte	0x22
 1305 069c D8000000 		.4byte	0xd8
 1306 06a0 02       		.byte	0x2
 1307 06a1 23       		.byte	0x23
 1308 06a2 04       		.uleb128 0x4
 1309 06a3 00       		.byte	0
 1310 06a4 16       		.uleb128 0x16
 1311 06a5 01       		.byte	0x1
 1312 06a6 A5030000 		.4byte	.LASF113
 1313 06aa 01       		.byte	0x1
 1314 06ab 03       		.byte	0x3
 1315 06ac 01       		.byte	0x1
 1316 06ad 70060000 		.4byte	0x670
 1317 06b1 00000000 		.4byte	.LFB118
 1318 06b5 00020000 		.4byte	.LFE118
 1319 06b9 00000000 		.4byte	.LLST0
 1320 06bd 01       		.byte	0x1
 1321 06be E2090000 		.4byte	0x9e2
 1322 06c2 17       		.uleb128 0x17
 1323 06c3 7E020000 		.4byte	.LASF114
 1324 06c7 01       		.byte	0x1
 1325 06c8 03       		.byte	0x3
 1326 06c9 A6030000 		.4byte	0x3a6
 1327 06cd 2D000000 		.4byte	.LLST1
 1328 06d1 18       		.uleb128 0x18
 1329 06d2 7E040000 		.4byte	.LASF94
 1330 06d6 01       		.byte	0x1
 1331 06d7 07       		.byte	0x7
 1332 06d8 62000000 		.4byte	0x62
 1333 06dc 03       		.byte	0x3
 1334 06dd 91       		.byte	0x91
 1335 06de A07F     		.sleb128 -96
 1336 06e0 18       		.uleb128 0x18
 1337 06e1 00000000 		.4byte	.LASF95
 1338 06e5 01       		.byte	0x1
 1339 06e6 09       		.byte	0x9
 1340 06e7 F3000000 		.4byte	0xf3
 1341 06eb 03       		.byte	0x3
 1342 06ec 91       		.byte	0x91
 1343 06ed EC7E     		.sleb128 -148
 1344 06ef 19       		.uleb128 0x19
 1345 06f0 63617000 		.ascii	"cap\000"
 1346 06f4 01       		.byte	0x1
 1347 06f5 0B       		.byte	0xb
 1348 06f6 7B060000 		.4byte	0x67b
 1349 06fa 03       		.byte	0x3
ARM GAS  C:\Users\Elis\AppData\Local\Temp\ccwV5RfI.s 			page 25


 1350 06fb 91       		.byte	0x91
 1351 06fc E47E     		.sleb128 -156
 1352 06fe 18       		.uleb128 0x18
 1353 06ff 60010000 		.4byte	.LASF96
 1354 0703 01       		.byte	0x1
 1355 0704 0D       		.byte	0xd
 1356 0705 E2090000 		.4byte	0x9e2
 1357 0709 05       		.byte	0x5
 1358 070a 03       		.byte	0x3
 1359 070b 00000000 		.4byte	buffer.8409
 1360 070f 18       		.uleb128 0x18
 1361 0710 77010000 		.4byte	.LASF97
 1362 0714 01       		.byte	0x1
 1363 0715 11       		.byte	0x11
 1364 0716 5B060000 		.4byte	0x65b
 1365 071a 03       		.byte	0x3
 1366 071b 91       		.byte	0x91
 1367 071c E07E     		.sleb128 -160
 1368 071e 1A       		.uleb128 0x1a
 1369 071f EC020000 		.4byte	.LASF98
 1370 0723 01       		.byte	0x1
 1371 0724 15       		.byte	0x15
 1372 0725 77010000 		.4byte	0x177
 1373 0729 4E000000 		.4byte	.LLST2
 1374 072d 1A       		.uleb128 0x1a
 1375 072e CB030000 		.4byte	.LASF99
 1376 0732 01       		.byte	0x1
 1377 0733 19       		.byte	0x19
 1378 0734 9E010000 		.4byte	0x19e
 1379 0738 83000000 		.4byte	.LLST3
 1380 073c 1B       		.uleb128 0x1b
 1381 073d 1C000000 		.4byte	.LVL2
 1382 0741 280A0000 		.4byte	0xa28
 1383 0745 5F070000 		.4byte	0x75f
 1384 0749 1C       		.uleb128 0x1c
 1385 074a 01       		.byte	0x1
 1386 074b 52       		.byte	0x52
 1387 074c 01       		.byte	0x1
 1388 074d 30       		.byte	0x30
 1389 074e 1C       		.uleb128 0x1c
 1390 074f 01       		.byte	0x1
 1391 0750 51       		.byte	0x51
 1392 0751 03       		.byte	0x3
 1393 0752 0A       		.byte	0xa
 1394 0753 0501     		.2byte	0x105
 1395 0755 1C       		.uleb128 0x1c
 1396 0756 01       		.byte	0x1
 1397 0757 50       		.byte	0x50
 1398 0758 05       		.byte	0x5
 1399 0759 03       		.byte	0x3
 1400 075a 00000000 		.4byte	.LANCHOR0
 1401 075e 00       		.byte	0
 1402 075f 1B       		.uleb128 0x1b
 1403 0760 28000000 		.4byte	.LVL3
 1404 0764 4A0A0000 		.4byte	0xa4a
 1405 0768 7F070000 		.4byte	0x77f
 1406 076c 1C       		.uleb128 0x1c
ARM GAS  C:\Users\Elis\AppData\Local\Temp\ccwV5RfI.s 			page 26


 1407 076d 01       		.byte	0x1
 1408 076e 51       		.byte	0x51
 1409 076f 05       		.byte	0x5
 1410 0770 03       		.byte	0x3
 1411 0771 00000000 		.4byte	.LC0
 1412 0775 1C       		.uleb128 0x1c
 1413 0776 01       		.byte	0x1
 1414 0777 50       		.byte	0x50
 1415 0778 05       		.byte	0x5
 1416 0779 03       		.byte	0x3
 1417 077a 00000000 		.4byte	.LANCHOR0
 1418 077e 00       		.byte	0
 1419 077f 1B       		.uleb128 0x1b
 1420 0780 44000000 		.4byte	.LVL4
 1421 0784 670A0000 		.4byte	0xa67
 1422 0788 BA070000 		.4byte	0x7ba
 1423 078c 1C       		.uleb128 0x1c
 1424 078d 01       		.byte	0x1
 1425 078e 53       		.byte	0x53
 1426 078f 03       		.byte	0x3
 1427 0790 91       		.byte	0x91
 1428 0791 E47E     		.sleb128 -156
 1429 0793 1C       		.uleb128 0x1c
 1430 0794 01       		.byte	0x1
 1431 0795 52       		.byte	0x52
 1432 0796 03       		.byte	0x3
 1433 0797 0A       		.byte	0xa
 1434 0798 0501     		.2byte	0x105
 1435 079a 1C       		.uleb128 0x1c
 1436 079b 01       		.byte	0x1
 1437 079c 51       		.byte	0x51
 1438 079d 05       		.byte	0x5
 1439 079e 03       		.byte	0x3
 1440 079f 00000000 		.4byte	.LANCHOR0
 1441 07a3 1C       		.uleb128 0x1c
 1442 07a4 01       		.byte	0x1
 1443 07a5 50       		.byte	0x50
 1444 07a6 05       		.byte	0x5
 1445 07a7 03       		.byte	0x3
 1446 07a8 08000000 		.4byte	.LC1
 1447 07ac 1C       		.uleb128 0x1c
 1448 07ad 02       		.byte	0x2
 1449 07ae 7D       		.byte	0x7d
 1450 07af 04       		.sleb128 4
 1451 07b0 01       		.byte	0x1
 1452 07b1 30       		.byte	0x30
 1453 07b2 1C       		.uleb128 0x1c
 1454 07b3 02       		.byte	0x2
 1455 07b4 7D       		.byte	0x7d
 1456 07b5 00       		.sleb128 0
 1457 07b6 02       		.byte	0x2
 1458 07b7 75       		.byte	0x75
 1459 07b8 00       		.sleb128 0
 1460 07b9 00       		.byte	0
 1461 07ba 1D       		.uleb128 0x1d
 1462 07bb 5E000000 		.4byte	.LVL8
 1463 07bf 9E0A0000 		.4byte	0xa9e
ARM GAS  C:\Users\Elis\AppData\Local\Temp\ccwV5RfI.s 			page 27


 1464 07c3 1B       		.uleb128 0x1b
 1465 07c4 7C000000 		.4byte	.LVL9
 1466 07c8 A80A0000 		.4byte	0xaa8
 1467 07cc D8070000 		.4byte	0x7d8
 1468 07d0 1C       		.uleb128 0x1c
 1469 07d1 01       		.byte	0x1
 1470 07d2 51       		.byte	0x51
 1471 07d3 03       		.byte	0x3
 1472 07d4 91       		.byte	0x91
 1473 07d5 A07F     		.sleb128 -96
 1474 07d7 00       		.byte	0
 1475 07d8 1B       		.uleb128 0x1b
 1476 07d9 9E000000 		.4byte	.LVL10
 1477 07dd C50A0000 		.4byte	0xac5
 1478 07e1 F3070000 		.4byte	0x7f3
 1479 07e5 1C       		.uleb128 0x1c
 1480 07e6 01       		.byte	0x1
 1481 07e7 52       		.byte	0x52
 1482 07e8 02       		.byte	0x2
 1483 07e9 09       		.byte	0x9
 1484 07ea FF       		.byte	0xff
 1485 07eb 1C       		.uleb128 0x1c
 1486 07ec 01       		.byte	0x1
 1487 07ed 51       		.byte	0x51
 1488 07ee 03       		.byte	0x3
 1489 07ef 91       		.byte	0x91
 1490 07f0 EC7E     		.sleb128 -148
 1491 07f2 00       		.byte	0
 1492 07f3 1B       		.uleb128 0x1b
 1493 07f4 A8000000 		.4byte	.LVL12
 1494 07f8 4A0A0000 		.4byte	0xa4a
 1495 07fc 13080000 		.4byte	0x813
 1496 0800 1C       		.uleb128 0x1c
 1497 0801 01       		.byte	0x1
 1498 0802 51       		.byte	0x51
 1499 0803 05       		.byte	0x5
 1500 0804 03       		.byte	0x3
 1501 0805 2C000000 		.4byte	.LC4
 1502 0809 1C       		.uleb128 0x1c
 1503 080a 01       		.byte	0x1
 1504 080b 50       		.byte	0x50
 1505 080c 05       		.byte	0x5
 1506 080d 03       		.byte	0x3
 1507 080e 00000000 		.4byte	.LANCHOR0
 1508 0812 00       		.byte	0
 1509 0813 1B       		.uleb128 0x1b
 1510 0814 C0000000 		.4byte	.LVL13
 1511 0818 670A0000 		.4byte	0xa67
 1512 081c 4F080000 		.4byte	0x84f
 1513 0820 1C       		.uleb128 0x1c
 1514 0821 01       		.byte	0x1
 1515 0822 53       		.byte	0x53
 1516 0823 03       		.byte	0x3
 1517 0824 91       		.byte	0x91
 1518 0825 E47E     		.sleb128 -156
 1519 0827 1C       		.uleb128 0x1c
 1520 0828 01       		.byte	0x1
ARM GAS  C:\Users\Elis\AppData\Local\Temp\ccwV5RfI.s 			page 28


 1521 0829 52       		.byte	0x52
 1522 082a 03       		.byte	0x3
 1523 082b 0A       		.byte	0xa
 1524 082c 0501     		.2byte	0x105
 1525 082e 1C       		.uleb128 0x1c
 1526 082f 01       		.byte	0x1
 1527 0830 51       		.byte	0x51
 1528 0831 05       		.byte	0x5
 1529 0832 03       		.byte	0x3
 1530 0833 00000000 		.4byte	.LANCHOR0
 1531 0837 1C       		.uleb128 0x1c
 1532 0838 01       		.byte	0x1
 1533 0839 50       		.byte	0x50
 1534 083a 05       		.byte	0x5
 1535 083b 03       		.byte	0x3
 1536 083c 34000000 		.4byte	.LC5
 1537 0840 1C       		.uleb128 0x1c
 1538 0841 02       		.byte	0x2
 1539 0842 7D       		.byte	0x7d
 1540 0843 04       		.sleb128 4
 1541 0844 02       		.byte	0x2
 1542 0845 79       		.byte	0x79
 1543 0846 00       		.sleb128 0
 1544 0847 1C       		.uleb128 0x1c
 1545 0848 02       		.byte	0x2
 1546 0849 7D       		.byte	0x7d
 1547 084a 00       		.sleb128 0
 1548 084b 02       		.byte	0x2
 1549 084c 75       		.byte	0x75
 1550 084d 00       		.sleb128 0
 1551 084e 00       		.byte	0
 1552 084f 1B       		.uleb128 0x1b
 1553 0850 E4000000 		.4byte	.LVL14
 1554 0854 280A0000 		.4byte	0xa28
 1555 0858 73080000 		.4byte	0x873
 1556 085c 1C       		.uleb128 0x1c
 1557 085d 01       		.byte	0x1
 1558 085e 52       		.byte	0x52
 1559 085f 02       		.byte	0x2
 1560 0860 75       		.byte	0x75
 1561 0861 00       		.sleb128 0
 1562 0862 1C       		.uleb128 0x1c
 1563 0863 01       		.byte	0x1
 1564 0864 51       		.byte	0x51
 1565 0865 03       		.byte	0x3
 1566 0866 0A       		.byte	0xa
 1567 0867 0501     		.2byte	0x105
 1568 0869 1C       		.uleb128 0x1c
 1569 086a 01       		.byte	0x1
 1570 086b 50       		.byte	0x50
 1571 086c 05       		.byte	0x5
 1572 086d 03       		.byte	0x3
 1573 086e 00000000 		.4byte	.LANCHOR0
 1574 0872 00       		.byte	0
 1575 0873 1B       		.uleb128 0x1b
 1576 0874 F2000000 		.4byte	.LVL15
 1577 0878 4A0A0000 		.4byte	0xa4a
ARM GAS  C:\Users\Elis\AppData\Local\Temp\ccwV5RfI.s 			page 29


 1578 087c 93080000 		.4byte	0x893
 1579 0880 1C       		.uleb128 0x1c
 1580 0881 01       		.byte	0x1
 1581 0882 51       		.byte	0x51
 1582 0883 05       		.byte	0x5
 1583 0884 03       		.byte	0x3
 1584 0885 14000000 		.4byte	.LC2
 1585 0889 1C       		.uleb128 0x1c
 1586 088a 01       		.byte	0x1
 1587 088b 50       		.byte	0x50
 1588 088c 05       		.byte	0x5
 1589 088d 03       		.byte	0x3
 1590 088e 00000000 		.4byte	.LANCHOR0
 1591 0892 00       		.byte	0
 1592 0893 1B       		.uleb128 0x1b
 1593 0894 0C010000 		.4byte	.LVL16
 1594 0898 670A0000 		.4byte	0xa67
 1595 089c CE080000 		.4byte	0x8ce
 1596 08a0 1C       		.uleb128 0x1c
 1597 08a1 01       		.byte	0x1
 1598 08a2 53       		.byte	0x53
 1599 08a3 03       		.byte	0x3
 1600 08a4 91       		.byte	0x91
 1601 08a5 E47E     		.sleb128 -156
 1602 08a7 1C       		.uleb128 0x1c
 1603 08a8 01       		.byte	0x1
 1604 08a9 52       		.byte	0x52
 1605 08aa 03       		.byte	0x3
 1606 08ab 0A       		.byte	0xa
 1607 08ac 0501     		.2byte	0x105
 1608 08ae 1C       		.uleb128 0x1c
 1609 08af 01       		.byte	0x1
 1610 08b0 51       		.byte	0x51
 1611 08b1 05       		.byte	0x5
 1612 08b2 03       		.byte	0x3
 1613 08b3 00000000 		.4byte	.LANCHOR0
 1614 08b7 1C       		.uleb128 0x1c
 1615 08b8 01       		.byte	0x1
 1616 08b9 50       		.byte	0x50
 1617 08ba 05       		.byte	0x5
 1618 08bb 03       		.byte	0x3
 1619 08bc 1C000000 		.4byte	.LC3
 1620 08c0 1C       		.uleb128 0x1c
 1621 08c1 02       		.byte	0x2
 1622 08c2 7D       		.byte	0x7d
 1623 08c3 04       		.sleb128 4
 1624 08c4 02       		.byte	0x2
 1625 08c5 75       		.byte	0x75
 1626 08c6 00       		.sleb128 0
 1627 08c7 1C       		.uleb128 0x1c
 1628 08c8 02       		.byte	0x2
 1629 08c9 7D       		.byte	0x7d
 1630 08ca 00       		.sleb128 0
 1631 08cb 01       		.byte	0x1
 1632 08cc 31       		.byte	0x31
 1633 08cd 00       		.byte	0
 1634 08ce 1B       		.uleb128 0x1b
ARM GAS  C:\Users\Elis\AppData\Local\Temp\ccwV5RfI.s 			page 30


 1635 08cf 1A010000 		.4byte	.LVL17
 1636 08d3 ED0A0000 		.4byte	0xaed
 1637 08d7 E3080000 		.4byte	0x8e3
 1638 08db 1C       		.uleb128 0x1c
 1639 08dc 01       		.byte	0x1
 1640 08dd 50       		.byte	0x50
 1641 08de 03       		.byte	0x3
 1642 08df 91       		.byte	0x91
 1643 08e0 E07E     		.sleb128 -160
 1644 08e2 00       		.byte	0
 1645 08e3 1B       		.uleb128 0x1b
 1646 08e4 20010000 		.4byte	.LVL18
 1647 08e8 0F0B0000 		.4byte	0xb0f
 1648 08ec F8080000 		.4byte	0x8f8
 1649 08f0 1C       		.uleb128 0x1c
 1650 08f1 01       		.byte	0x1
 1651 08f2 50       		.byte	0x50
 1652 08f3 03       		.byte	0x3
 1653 08f4 91       		.byte	0x91
 1654 08f5 E07E     		.sleb128 -160
 1655 08f7 00       		.byte	0
 1656 08f8 1B       		.uleb128 0x1b
 1657 08f9 26010000 		.4byte	.LVL19
 1658 08fd 230B0000 		.4byte	0xb23
 1659 0901 0D090000 		.4byte	0x90d
 1660 0905 1C       		.uleb128 0x1c
 1661 0906 01       		.byte	0x1
 1662 0907 50       		.byte	0x50
 1663 0908 03       		.byte	0x3
 1664 0909 91       		.byte	0x91
 1665 090a E07E     		.sleb128 -160
 1666 090c 00       		.byte	0
 1667 090d 1B       		.uleb128 0x1b
 1668 090e 44010000 		.4byte	.LVL21
 1669 0912 ED0A0000 		.4byte	0xaed
 1670 0916 2E090000 		.4byte	0x92e
 1671 091a 1C       		.uleb128 0x1c
 1672 091b 01       		.byte	0x1
 1673 091c 52       		.byte	0x52
 1674 091d 02       		.byte	0x2
 1675 091e 77       		.byte	0x77
 1676 091f 00       		.sleb128 0
 1677 0920 1C       		.uleb128 0x1c
 1678 0921 01       		.byte	0x1
 1679 0922 51       		.byte	0x51
 1680 0923 02       		.byte	0x2
 1681 0924 7A       		.byte	0x7a
 1682 0925 00       		.sleb128 0
 1683 0926 1C       		.uleb128 0x1c
 1684 0927 01       		.byte	0x1
 1685 0928 50       		.byte	0x50
 1686 0929 03       		.byte	0x3
 1687 092a 91       		.byte	0x91
 1688 092b A47F     		.sleb128 -92
 1689 092d 00       		.byte	0
 1690 092e 1B       		.uleb128 0x1b
 1691 092f 52010000 		.4byte	.LVL22
ARM GAS  C:\Users\Elis\AppData\Local\Temp\ccwV5RfI.s 			page 31


 1692 0933 ED0A0000 		.4byte	0xaed
 1693 0937 4F090000 		.4byte	0x94f
 1694 093b 1C       		.uleb128 0x1c
 1695 093c 01       		.byte	0x1
 1696 093d 52       		.byte	0x52
 1697 093e 02       		.byte	0x2
 1698 093f 77       		.byte	0x77
 1699 0940 00       		.sleb128 0
 1700 0941 1C       		.uleb128 0x1c
 1701 0942 01       		.byte	0x1
 1702 0943 51       		.byte	0x51
 1703 0944 02       		.byte	0x2
 1704 0945 7A       		.byte	0x7a
 1705 0946 00       		.sleb128 0
 1706 0947 1C       		.uleb128 0x1c
 1707 0948 01       		.byte	0x1
 1708 0949 50       		.byte	0x50
 1709 094a 03       		.byte	0x3
 1710 094b 91       		.byte	0x91
 1711 094c EC7E     		.sleb128 -148
 1712 094e 00       		.byte	0
 1713 094f 1B       		.uleb128 0x1b
 1714 0950 78010000 		.4byte	.LVL24
 1715 0954 C50A0000 		.4byte	0xac5
 1716 0958 6A090000 		.4byte	0x96a
 1717 095c 1C       		.uleb128 0x1c
 1718 095d 01       		.byte	0x1
 1719 095e 52       		.byte	0x52
 1720 095f 02       		.byte	0x2
 1721 0960 09       		.byte	0x9
 1722 0961 FF       		.byte	0xff
 1723 0962 1C       		.uleb128 0x1c
 1724 0963 01       		.byte	0x1
 1725 0964 51       		.byte	0x51
 1726 0965 03       		.byte	0x3
 1727 0966 91       		.byte	0x91
 1728 0967 EC7E     		.sleb128 -148
 1729 0969 00       		.byte	0
 1730 096a 1B       		.uleb128 0x1b
 1731 096b 82010000 		.4byte	.LVL26
 1732 096f 4A0A0000 		.4byte	0xa4a
 1733 0973 8A090000 		.4byte	0x98a
 1734 0977 1C       		.uleb128 0x1c
 1735 0978 01       		.byte	0x1
 1736 0979 51       		.byte	0x51
 1737 097a 05       		.byte	0x5
 1738 097b 03       		.byte	0x3
 1739 097c 48000000 		.4byte	.LC6
 1740 0980 1C       		.uleb128 0x1c
 1741 0981 01       		.byte	0x1
 1742 0982 50       		.byte	0x50
 1743 0983 05       		.byte	0x5
 1744 0984 03       		.byte	0x3
 1745 0985 00000000 		.4byte	.LANCHOR0
 1746 0989 00       		.byte	0
 1747 098a 1B       		.uleb128 0x1b
 1748 098b A4010000 		.4byte	.LVL27
ARM GAS  C:\Users\Elis\AppData\Local\Temp\ccwV5RfI.s 			page 32


 1749 098f C50A0000 		.4byte	0xac5
 1750 0993 A5090000 		.4byte	0x9a5
 1751 0997 1C       		.uleb128 0x1c
 1752 0998 01       		.byte	0x1
 1753 0999 52       		.byte	0x52
 1754 099a 02       		.byte	0x2
 1755 099b 09       		.byte	0x9
 1756 099c FF       		.byte	0xff
 1757 099d 1C       		.uleb128 0x1c
 1758 099e 01       		.byte	0x1
 1759 099f 51       		.byte	0x51
 1760 09a0 03       		.byte	0x3
 1761 09a1 91       		.byte	0x91
 1762 09a2 EC7E     		.sleb128 -148
 1763 09a4 00       		.byte	0
 1764 09a5 1B       		.uleb128 0x1b
 1765 09a6 B4010000 		.4byte	.LVL28
 1766 09aa 4A0A0000 		.4byte	0xa4a
 1767 09ae C5090000 		.4byte	0x9c5
 1768 09b2 1C       		.uleb128 0x1c
 1769 09b3 01       		.byte	0x1
 1770 09b4 51       		.byte	0x51
 1771 09b5 05       		.byte	0x5
 1772 09b6 03       		.byte	0x3
 1773 09b7 54000000 		.4byte	.LC7
 1774 09bb 1C       		.uleb128 0x1c
 1775 09bc 01       		.byte	0x1
 1776 09bd 50       		.byte	0x50
 1777 09be 05       		.byte	0x5
 1778 09bf 03       		.byte	0x3
 1779 09c0 00000000 		.4byte	.LANCHOR0
 1780 09c4 00       		.byte	0
 1781 09c5 1E       		.uleb128 0x1e
 1782 09c6 C2010000 		.4byte	.LVL29
 1783 09ca 4A0A0000 		.4byte	0xa4a
 1784 09ce 1C       		.uleb128 0x1c
 1785 09cf 01       		.byte	0x1
 1786 09d0 51       		.byte	0x51
 1787 09d1 05       		.byte	0x5
 1788 09d2 03       		.byte	0x3
 1789 09d3 5C000000 		.4byte	.LC8
 1790 09d7 1C       		.uleb128 0x1c
 1791 09d8 01       		.byte	0x1
 1792 09d9 50       		.byte	0x50
 1793 09da 05       		.byte	0x5
 1794 09db 03       		.byte	0x3
 1795 09dc 00000000 		.4byte	.LANCHOR0
 1796 09e0 00       		.byte	0
 1797 09e1 00       		.byte	0
 1798 09e2 04       		.uleb128 0x4
 1799 09e3 5B000000 		.4byte	0x5b
 1800 09e7 F3090000 		.4byte	0x9f3
 1801 09eb 1F       		.uleb128 0x1f
 1802 09ec 54000000 		.4byte	0x54
 1803 09f0 0401     		.2byte	0x104
 1804 09f2 00       		.byte	0
 1805 09f3 20       		.uleb128 0x20
ARM GAS  C:\Users\Elis\AppData\Local\Temp\ccwV5RfI.s 			page 33


 1806 09f4 2F000000 		.4byte	.LASF100
 1807 09f8 09       		.byte	0x9
 1808 09f9 F5       		.byte	0xf5
 1809 09fa 20050000 		.4byte	0x520
 1810 09fe 01       		.byte	0x1
 1811 09ff 01       		.byte	0x1
 1812 0a00 21       		.uleb128 0x21
 1813 0a01 4C030000 		.4byte	.LASF101
 1814 0a05 0F       		.byte	0xf
 1815 0a06 9806     		.2byte	0x698
 1816 0a08 6B060000 		.4byte	0x66b
 1817 0a0c 01       		.byte	0x1
 1818 0a0d 01       		.byte	0x1
 1819 0a0e 20       		.uleb128 0x20
 1820 0a0f 1B000000 		.4byte	.LASF102
 1821 0a13 10       		.byte	0x10
 1822 0a14 0A       		.byte	0xa
 1823 0a15 68030000 		.4byte	0x368
 1824 0a19 01       		.byte	0x1
 1825 0a1a 01       		.byte	0x1
 1826 0a1b 20       		.uleb128 0x20
 1827 0a1c 36000000 		.4byte	.LASF103
 1828 0a20 10       		.byte	0x10
 1829 0a21 0C       		.byte	0xc
 1830 0a22 0A060000 		.4byte	0x60a
 1831 0a26 01       		.byte	0x1
 1832 0a27 01       		.byte	0x1
 1833 0a28 22       		.uleb128 0x22
 1834 0a29 01       		.byte	0x1
 1835 0a2a 43010000 		.4byte	.LASF104
 1836 0a2e 11       		.byte	0x11
 1837 0a2f 0D       		.byte	0xd
 1838 0a30 01       		.byte	0x1
 1839 0a31 D8000000 		.4byte	0xd8
 1840 0a35 01       		.byte	0x1
 1841 0a36 4A0A0000 		.4byte	0xa4a
 1842 0a3a 11       		.uleb128 0x11
 1843 0a3b E6000000 		.4byte	0xe6
 1844 0a3f 11       		.uleb128 0x11
 1845 0a40 D8000000 		.4byte	0xd8
 1846 0a44 11       		.uleb128 0x11
 1847 0a45 9E010000 		.4byte	0x19e
 1848 0a49 00       		.byte	0
 1849 0a4a 22       		.uleb128 0x22
 1850 0a4b 01       		.byte	0x1
 1851 0a4c 28000000 		.4byte	.LASF105
 1852 0a50 12       		.byte	0x12
 1853 0a51 29       		.byte	0x29
 1854 0a52 01       		.byte	0x1
 1855 0a53 E6000000 		.4byte	0xe6
 1856 0a57 01       		.byte	0x1
 1857 0a58 670A0000 		.4byte	0xa67
 1858 0a5c 11       		.uleb128 0x11
 1859 0a5d 4A060000 		.4byte	0x64a
 1860 0a61 11       		.uleb128 0x11
 1861 0a62 4A060000 		.4byte	0x64a
 1862 0a66 00       		.byte	0
ARM GAS  C:\Users\Elis\AppData\Local\Temp\ccwV5RfI.s 			page 34


 1863 0a67 22       		.uleb128 0x22
 1864 0a68 01       		.byte	0x1
 1865 0a69 8E010000 		.4byte	.LASF106
 1866 0a6d 0E       		.byte	0xe
 1867 0a6e 26       		.byte	0x26
 1868 0a6f 01       		.byte	0x1
 1869 0a70 D8000000 		.4byte	0xd8
 1870 0a74 01       		.byte	0x1
 1871 0a75 980A0000 		.4byte	0xa98
 1872 0a79 11       		.uleb128 0x11
 1873 0a7a 4A060000 		.4byte	0x64a
 1874 0a7e 11       		.uleb128 0x11
 1875 0a7f 4A060000 		.4byte	0x64a
 1876 0a83 11       		.uleb128 0x11
 1877 0a84 D8000000 		.4byte	0xd8
 1878 0a88 11       		.uleb128 0x11
 1879 0a89 980A0000 		.4byte	0xa98
 1880 0a8d 11       		.uleb128 0x11
 1881 0a8e D8000000 		.4byte	0xd8
 1882 0a92 11       		.uleb128 0x11
 1883 0a93 D8000000 		.4byte	0xd8
 1884 0a97 00       		.byte	0
 1885 0a98 08       		.uleb128 0x8
 1886 0a99 04       		.byte	0x4
 1887 0a9a 7B060000 		.4byte	0x67b
 1888 0a9e 23       		.uleb128 0x23
 1889 0a9f 01       		.byte	0x1
 1890 0aa0 EA010000 		.4byte	.LASF115
 1891 0aa4 11       		.byte	0x11
 1892 0aa5 09       		.byte	0x9
 1893 0aa6 01       		.byte	0x1
 1894 0aa7 01       		.byte	0x1
 1895 0aa8 22       		.uleb128 0x22
 1896 0aa9 01       		.byte	0x1
 1897 0aaa 30010000 		.4byte	.LASF107
 1898 0aae 13       		.byte	0x13
 1899 0aaf 51       		.byte	0x51
 1900 0ab0 01       		.byte	0x1
 1901 0ab1 E7010000 		.4byte	0x1e7
 1902 0ab5 01       		.byte	0x1
 1903 0ab6 C50A0000 		.4byte	0xac5
 1904 0aba 11       		.uleb128 0x11
 1905 0abb 68030000 		.4byte	0x368
 1906 0abf 11       		.uleb128 0x11
 1907 0ac0 E7010000 		.4byte	0x1e7
 1908 0ac4 00       		.byte	0
 1909 0ac5 22       		.uleb128 0x22
 1910 0ac6 01       		.byte	0x1
 1911 0ac7 95030000 		.4byte	.LASF108
 1912 0acb 0C       		.byte	0xc
 1913 0acc 45       		.byte	0x45
 1914 0acd 01       		.byte	0x1
 1915 0ace E7010000 		.4byte	0x1e7
 1916 0ad2 01       		.byte	0x1
 1917 0ad3 E70A0000 		.4byte	0xae7
 1918 0ad7 11       		.uleb128 0x11
 1919 0ad8 E70A0000 		.4byte	0xae7
ARM GAS  C:\Users\Elis\AppData\Local\Temp\ccwV5RfI.s 			page 35


 1920 0adc 11       		.uleb128 0x11
 1921 0add E7010000 		.4byte	0x1e7
 1922 0ae1 11       		.uleb128 0x11
 1923 0ae2 FD010000 		.4byte	0x1fd
 1924 0ae6 00       		.byte	0
 1925 0ae7 08       		.uleb128 0x8
 1926 0ae8 04       		.byte	0x4
 1927 0ae9 0A060000 		.4byte	0x60a
 1928 0aed 22       		.uleb128 0x22
 1929 0aee 01       		.byte	0x1
 1930 0aef 42000000 		.4byte	.LASF109
 1931 0af3 12       		.byte	0x12
 1932 0af4 25       		.byte	0x25
 1933 0af5 01       		.byte	0x1
 1934 0af6 E6000000 		.4byte	0xe6
 1935 0afa 01       		.byte	0x1
 1936 0afb 0F0B0000 		.4byte	0xb0f
 1937 0aff 11       		.uleb128 0x11
 1938 0b00 E6000000 		.4byte	0xe6
 1939 0b04 11       		.uleb128 0x11
 1940 0b05 4A060000 		.4byte	0x64a
 1941 0b09 11       		.uleb128 0x11
 1942 0b0a 41010000 		.4byte	0x141
 1943 0b0e 00       		.byte	0
 1944 0b0f 24       		.uleb128 0x24
 1945 0b10 01       		.byte	0x1
 1946 0b11 F1020000 		.4byte	.LASF116
 1947 0b15 11       		.byte	0x11
 1948 0b16 0C       		.byte	0xc
 1949 0b17 01       		.byte	0x1
 1950 0b18 01       		.byte	0x1
 1951 0b19 230B0000 		.4byte	0xb23
 1952 0b1d 11       		.uleb128 0x11
 1953 0b1e E6000000 		.4byte	0xe6
 1954 0b22 00       		.byte	0
 1955 0b23 25       		.uleb128 0x25
 1956 0b24 01       		.byte	0x1
 1957 0b25 92040000 		.4byte	.LASF117
 1958 0b29 11       		.byte	0x11
 1959 0b2a 0B       		.byte	0xb
 1960 0b2b 01       		.byte	0x1
 1961 0b2c 01       		.byte	0x1
 1962 0b2d 11       		.uleb128 0x11
 1963 0b2e E6000000 		.4byte	0xe6
 1964 0b32 00       		.byte	0
 1965 0b33 00       		.byte	0
 1966              		.section	.debug_abbrev,"",%progbits
 1967              	.Ldebug_abbrev0:
 1968 0000 01       		.uleb128 0x1
 1969 0001 11       		.uleb128 0x11
 1970 0002 01       		.byte	0x1
 1971 0003 25       		.uleb128 0x25
 1972 0004 0E       		.uleb128 0xe
 1973 0005 13       		.uleb128 0x13
 1974 0006 0B       		.uleb128 0xb
 1975 0007 03       		.uleb128 0x3
 1976 0008 0E       		.uleb128 0xe
ARM GAS  C:\Users\Elis\AppData\Local\Temp\ccwV5RfI.s 			page 36


 1977 0009 1B       		.uleb128 0x1b
 1978 000a 0E       		.uleb128 0xe
 1979 000b 55       		.uleb128 0x55
 1980 000c 06       		.uleb128 0x6
 1981 000d 11       		.uleb128 0x11
 1982 000e 01       		.uleb128 0x1
 1983 000f 52       		.uleb128 0x52
 1984 0010 01       		.uleb128 0x1
 1985 0011 10       		.uleb128 0x10
 1986 0012 06       		.uleb128 0x6
 1987 0013 00       		.byte	0
 1988 0014 00       		.byte	0
 1989 0015 02       		.uleb128 0x2
 1990 0016 13       		.uleb128 0x13
 1991 0017 01       		.byte	0x1
 1992 0018 03       		.uleb128 0x3
 1993 0019 0E       		.uleb128 0xe
 1994 001a 0B       		.uleb128 0xb
 1995 001b 0B       		.uleb128 0xb
 1996 001c 3A       		.uleb128 0x3a
 1997 001d 0B       		.uleb128 0xb
 1998 001e 3B       		.uleb128 0x3b
 1999 001f 0B       		.uleb128 0xb
 2000 0020 01       		.uleb128 0x1
 2001 0021 13       		.uleb128 0x13
 2002 0022 00       		.byte	0
 2003 0023 00       		.byte	0
 2004 0024 03       		.uleb128 0x3
 2005 0025 0D       		.uleb128 0xd
 2006 0026 00       		.byte	0
 2007 0027 03       		.uleb128 0x3
 2008 0028 0E       		.uleb128 0xe
 2009 0029 3A       		.uleb128 0x3a
 2010 002a 0B       		.uleb128 0xb
 2011 002b 3B       		.uleb128 0x3b
 2012 002c 0B       		.uleb128 0xb
 2013 002d 49       		.uleb128 0x49
 2014 002e 13       		.uleb128 0x13
 2015 002f 38       		.uleb128 0x38
 2016 0030 0A       		.uleb128 0xa
 2017 0031 00       		.byte	0
 2018 0032 00       		.byte	0
 2019 0033 04       		.uleb128 0x4
 2020 0034 01       		.uleb128 0x1
 2021 0035 01       		.byte	0x1
 2022 0036 49       		.uleb128 0x49
 2023 0037 13       		.uleb128 0x13
 2024 0038 01       		.uleb128 0x1
 2025 0039 13       		.uleb128 0x13
 2026 003a 00       		.byte	0
 2027 003b 00       		.byte	0
 2028 003c 05       		.uleb128 0x5
 2029 003d 21       		.uleb128 0x21
 2030 003e 00       		.byte	0
 2031 003f 49       		.uleb128 0x49
 2032 0040 13       		.uleb128 0x13
 2033 0041 2F       		.uleb128 0x2f
ARM GAS  C:\Users\Elis\AppData\Local\Temp\ccwV5RfI.s 			page 37


 2034 0042 0B       		.uleb128 0xb
 2035 0043 00       		.byte	0
 2036 0044 00       		.byte	0
 2037 0045 06       		.uleb128 0x6
 2038 0046 24       		.uleb128 0x24
 2039 0047 00       		.byte	0
 2040 0048 0B       		.uleb128 0xb
 2041 0049 0B       		.uleb128 0xb
 2042 004a 3E       		.uleb128 0x3e
 2043 004b 0B       		.uleb128 0xb
 2044 004c 03       		.uleb128 0x3
 2045 004d 0E       		.uleb128 0xe
 2046 004e 00       		.byte	0
 2047 004f 00       		.byte	0
 2048 0050 07       		.uleb128 0x7
 2049 0051 0D       		.uleb128 0xd
 2050 0052 00       		.byte	0
 2051 0053 03       		.uleb128 0x3
 2052 0054 0E       		.uleb128 0xe
 2053 0055 3A       		.uleb128 0x3a
 2054 0056 0B       		.uleb128 0xb
 2055 0057 3B       		.uleb128 0x3b
 2056 0058 0B       		.uleb128 0xb
 2057 0059 49       		.uleb128 0x49
 2058 005a 13       		.uleb128 0x13
 2059 005b 0B       		.uleb128 0xb
 2060 005c 0B       		.uleb128 0xb
 2061 005d 0D       		.uleb128 0xd
 2062 005e 0B       		.uleb128 0xb
 2063 005f 0C       		.uleb128 0xc
 2064 0060 0B       		.uleb128 0xb
 2065 0061 38       		.uleb128 0x38
 2066 0062 0A       		.uleb128 0xa
 2067 0063 00       		.byte	0
 2068 0064 00       		.byte	0
 2069 0065 08       		.uleb128 0x8
 2070 0066 0F       		.uleb128 0xf
 2071 0067 00       		.byte	0
 2072 0068 0B       		.uleb128 0xb
 2073 0069 0B       		.uleb128 0xb
 2074 006a 49       		.uleb128 0x49
 2075 006b 13       		.uleb128 0x13
 2076 006c 00       		.byte	0
 2077 006d 00       		.byte	0
 2078 006e 09       		.uleb128 0x9
 2079 006f 24       		.uleb128 0x24
 2080 0070 00       		.byte	0
 2081 0071 0B       		.uleb128 0xb
 2082 0072 0B       		.uleb128 0xb
 2083 0073 3E       		.uleb128 0x3e
 2084 0074 0B       		.uleb128 0xb
 2085 0075 03       		.uleb128 0x3
 2086 0076 08       		.uleb128 0x8
 2087 0077 00       		.byte	0
 2088 0078 00       		.byte	0
 2089 0079 0A       		.uleb128 0xa
 2090 007a 16       		.uleb128 0x16
ARM GAS  C:\Users\Elis\AppData\Local\Temp\ccwV5RfI.s 			page 38


 2091 007b 00       		.byte	0
 2092 007c 03       		.uleb128 0x3
 2093 007d 0E       		.uleb128 0xe
 2094 007e 3A       		.uleb128 0x3a
 2095 007f 0B       		.uleb128 0xb
 2096 0080 3B       		.uleb128 0x3b
 2097 0081 0B       		.uleb128 0xb
 2098 0082 49       		.uleb128 0x49
 2099 0083 13       		.uleb128 0x13
 2100 0084 00       		.byte	0
 2101 0085 00       		.byte	0
 2102 0086 0B       		.uleb128 0xb
 2103 0087 0D       		.uleb128 0xd
 2104 0088 00       		.byte	0
 2105 0089 03       		.uleb128 0x3
 2106 008a 08       		.uleb128 0x8
 2107 008b 3A       		.uleb128 0x3a
 2108 008c 0B       		.uleb128 0xb
 2109 008d 3B       		.uleb128 0x3b
 2110 008e 0B       		.uleb128 0xb
 2111 008f 49       		.uleb128 0x49
 2112 0090 13       		.uleb128 0x13
 2113 0091 38       		.uleb128 0x38
 2114 0092 0A       		.uleb128 0xa
 2115 0093 00       		.byte	0
 2116 0094 00       		.byte	0
 2117 0095 0C       		.uleb128 0xc
 2118 0096 13       		.uleb128 0x13
 2119 0097 01       		.byte	0x1
 2120 0098 0B       		.uleb128 0xb
 2121 0099 0B       		.uleb128 0xb
 2122 009a 3A       		.uleb128 0x3a
 2123 009b 0B       		.uleb128 0xb
 2124 009c 3B       		.uleb128 0x3b
 2125 009d 0B       		.uleb128 0xb
 2126 009e 01       		.uleb128 0x1
 2127 009f 13       		.uleb128 0x13
 2128 00a0 00       		.byte	0
 2129 00a1 00       		.byte	0
 2130 00a2 0D       		.uleb128 0xd
 2131 00a3 0F       		.uleb128 0xf
 2132 00a4 00       		.byte	0
 2133 00a5 0B       		.uleb128 0xb
 2134 00a6 0B       		.uleb128 0xb
 2135 00a7 00       		.byte	0
 2136 00a8 00       		.byte	0
 2137 00a9 0E       		.uleb128 0xe
 2138 00aa 13       		.uleb128 0x13
 2139 00ab 01       		.byte	0x1
 2140 00ac 03       		.uleb128 0x3
 2141 00ad 0E       		.uleb128 0xe
 2142 00ae 0B       		.uleb128 0xb
 2143 00af 0B       		.uleb128 0xb
 2144 00b0 3A       		.uleb128 0x3a
 2145 00b1 0B       		.uleb128 0xb
 2146 00b2 3B       		.uleb128 0x3b
 2147 00b3 05       		.uleb128 0x5
ARM GAS  C:\Users\Elis\AppData\Local\Temp\ccwV5RfI.s 			page 39


 2148 00b4 01       		.uleb128 0x1
 2149 00b5 13       		.uleb128 0x13
 2150 00b6 00       		.byte	0
 2151 00b7 00       		.byte	0
 2152 00b8 0F       		.uleb128 0xf
 2153 00b9 0D       		.uleb128 0xd
 2154 00ba 00       		.byte	0
 2155 00bb 03       		.uleb128 0x3
 2156 00bc 08       		.uleb128 0x8
 2157 00bd 3A       		.uleb128 0x3a
 2158 00be 0B       		.uleb128 0xb
 2159 00bf 3B       		.uleb128 0x3b
 2160 00c0 05       		.uleb128 0x5
 2161 00c1 49       		.uleb128 0x49
 2162 00c2 13       		.uleb128 0x13
 2163 00c3 38       		.uleb128 0x38
 2164 00c4 0A       		.uleb128 0xa
 2165 00c5 00       		.byte	0
 2166 00c6 00       		.byte	0
 2167 00c7 10       		.uleb128 0x10
 2168 00c8 15       		.uleb128 0x15
 2169 00c9 01       		.byte	0x1
 2170 00ca 27       		.uleb128 0x27
 2171 00cb 0C       		.uleb128 0xc
 2172 00cc 01       		.uleb128 0x1
 2173 00cd 13       		.uleb128 0x13
 2174 00ce 00       		.byte	0
 2175 00cf 00       		.byte	0
 2176 00d0 11       		.uleb128 0x11
 2177 00d1 05       		.uleb128 0x5
 2178 00d2 00       		.byte	0
 2179 00d3 49       		.uleb128 0x49
 2180 00d4 13       		.uleb128 0x13
 2181 00d5 00       		.byte	0
 2182 00d6 00       		.byte	0
 2183 00d7 12       		.uleb128 0x12
 2184 00d8 35       		.uleb128 0x35
 2185 00d9 00       		.byte	0
 2186 00da 49       		.uleb128 0x49
 2187 00db 13       		.uleb128 0x13
 2188 00dc 00       		.byte	0
 2189 00dd 00       		.byte	0
 2190 00de 13       		.uleb128 0x13
 2191 00df 17       		.uleb128 0x17
 2192 00e0 01       		.byte	0x1
 2193 00e1 0B       		.uleb128 0xb
 2194 00e2 0B       		.uleb128 0xb
 2195 00e3 3A       		.uleb128 0x3a
 2196 00e4 0B       		.uleb128 0xb
 2197 00e5 3B       		.uleb128 0x3b
 2198 00e6 0B       		.uleb128 0xb
 2199 00e7 01       		.uleb128 0x1
 2200 00e8 13       		.uleb128 0x13
 2201 00e9 00       		.byte	0
 2202 00ea 00       		.byte	0
 2203 00eb 14       		.uleb128 0x14
 2204 00ec 0D       		.uleb128 0xd
ARM GAS  C:\Users\Elis\AppData\Local\Temp\ccwV5RfI.s 			page 40


 2205 00ed 00       		.byte	0
 2206 00ee 03       		.uleb128 0x3
 2207 00ef 0E       		.uleb128 0xe
 2208 00f0 3A       		.uleb128 0x3a
 2209 00f1 0B       		.uleb128 0xb
 2210 00f2 3B       		.uleb128 0x3b
 2211 00f3 0B       		.uleb128 0xb
 2212 00f4 49       		.uleb128 0x49
 2213 00f5 13       		.uleb128 0x13
 2214 00f6 00       		.byte	0
 2215 00f7 00       		.byte	0
 2216 00f8 15       		.uleb128 0x15
 2217 00f9 26       		.uleb128 0x26
 2218 00fa 00       		.byte	0
 2219 00fb 49       		.uleb128 0x49
 2220 00fc 13       		.uleb128 0x13
 2221 00fd 00       		.byte	0
 2222 00fe 00       		.byte	0
 2223 00ff 16       		.uleb128 0x16
 2224 0100 2E       		.uleb128 0x2e
 2225 0101 01       		.byte	0x1
 2226 0102 3F       		.uleb128 0x3f
 2227 0103 0C       		.uleb128 0xc
 2228 0104 03       		.uleb128 0x3
 2229 0105 0E       		.uleb128 0xe
 2230 0106 3A       		.uleb128 0x3a
 2231 0107 0B       		.uleb128 0xb
 2232 0108 3B       		.uleb128 0x3b
 2233 0109 0B       		.uleb128 0xb
 2234 010a 27       		.uleb128 0x27
 2235 010b 0C       		.uleb128 0xc
 2236 010c 49       		.uleb128 0x49
 2237 010d 13       		.uleb128 0x13
 2238 010e 11       		.uleb128 0x11
 2239 010f 01       		.uleb128 0x1
 2240 0110 12       		.uleb128 0x12
 2241 0111 01       		.uleb128 0x1
 2242 0112 40       		.uleb128 0x40
 2243 0113 06       		.uleb128 0x6
 2244 0114 9742     		.uleb128 0x2117
 2245 0116 0C       		.uleb128 0xc
 2246 0117 01       		.uleb128 0x1
 2247 0118 13       		.uleb128 0x13
 2248 0119 00       		.byte	0
 2249 011a 00       		.byte	0
 2250 011b 17       		.uleb128 0x17
 2251 011c 05       		.uleb128 0x5
 2252 011d 00       		.byte	0
 2253 011e 03       		.uleb128 0x3
 2254 011f 0E       		.uleb128 0xe
 2255 0120 3A       		.uleb128 0x3a
 2256 0121 0B       		.uleb128 0xb
 2257 0122 3B       		.uleb128 0x3b
 2258 0123 0B       		.uleb128 0xb
 2259 0124 49       		.uleb128 0x49
 2260 0125 13       		.uleb128 0x13
 2261 0126 02       		.uleb128 0x2
ARM GAS  C:\Users\Elis\AppData\Local\Temp\ccwV5RfI.s 			page 41


 2262 0127 06       		.uleb128 0x6
 2263 0128 00       		.byte	0
 2264 0129 00       		.byte	0
 2265 012a 18       		.uleb128 0x18
 2266 012b 34       		.uleb128 0x34
 2267 012c 00       		.byte	0
 2268 012d 03       		.uleb128 0x3
 2269 012e 0E       		.uleb128 0xe
 2270 012f 3A       		.uleb128 0x3a
 2271 0130 0B       		.uleb128 0xb
 2272 0131 3B       		.uleb128 0x3b
 2273 0132 0B       		.uleb128 0xb
 2274 0133 49       		.uleb128 0x49
 2275 0134 13       		.uleb128 0x13
 2276 0135 02       		.uleb128 0x2
 2277 0136 0A       		.uleb128 0xa
 2278 0137 00       		.byte	0
 2279 0138 00       		.byte	0
 2280 0139 19       		.uleb128 0x19
 2281 013a 34       		.uleb128 0x34
 2282 013b 00       		.byte	0
 2283 013c 03       		.uleb128 0x3
 2284 013d 08       		.uleb128 0x8
 2285 013e 3A       		.uleb128 0x3a
 2286 013f 0B       		.uleb128 0xb
 2287 0140 3B       		.uleb128 0x3b
 2288 0141 0B       		.uleb128 0xb
 2289 0142 49       		.uleb128 0x49
 2290 0143 13       		.uleb128 0x13
 2291 0144 02       		.uleb128 0x2
 2292 0145 0A       		.uleb128 0xa
 2293 0146 00       		.byte	0
 2294 0147 00       		.byte	0
 2295 0148 1A       		.uleb128 0x1a
 2296 0149 34       		.uleb128 0x34
 2297 014a 00       		.byte	0
 2298 014b 03       		.uleb128 0x3
 2299 014c 0E       		.uleb128 0xe
 2300 014d 3A       		.uleb128 0x3a
 2301 014e 0B       		.uleb128 0xb
 2302 014f 3B       		.uleb128 0x3b
 2303 0150 0B       		.uleb128 0xb
 2304 0151 49       		.uleb128 0x49
 2305 0152 13       		.uleb128 0x13
 2306 0153 02       		.uleb128 0x2
 2307 0154 06       		.uleb128 0x6
 2308 0155 00       		.byte	0
 2309 0156 00       		.byte	0
 2310 0157 1B       		.uleb128 0x1b
 2311 0158 898201   		.uleb128 0x4109
 2312 015b 01       		.byte	0x1
 2313 015c 11       		.uleb128 0x11
 2314 015d 01       		.uleb128 0x1
 2315 015e 31       		.uleb128 0x31
 2316 015f 13       		.uleb128 0x13
 2317 0160 01       		.uleb128 0x1
 2318 0161 13       		.uleb128 0x13
ARM GAS  C:\Users\Elis\AppData\Local\Temp\ccwV5RfI.s 			page 42


 2319 0162 00       		.byte	0
 2320 0163 00       		.byte	0
 2321 0164 1C       		.uleb128 0x1c
 2322 0165 8A8201   		.uleb128 0x410a
 2323 0168 00       		.byte	0
 2324 0169 02       		.uleb128 0x2
 2325 016a 0A       		.uleb128 0xa
 2326 016b 9142     		.uleb128 0x2111
 2327 016d 0A       		.uleb128 0xa
 2328 016e 00       		.byte	0
 2329 016f 00       		.byte	0
 2330 0170 1D       		.uleb128 0x1d
 2331 0171 898201   		.uleb128 0x4109
 2332 0174 00       		.byte	0
 2333 0175 11       		.uleb128 0x11
 2334 0176 01       		.uleb128 0x1
 2335 0177 31       		.uleb128 0x31
 2336 0178 13       		.uleb128 0x13
 2337 0179 00       		.byte	0
 2338 017a 00       		.byte	0
 2339 017b 1E       		.uleb128 0x1e
 2340 017c 898201   		.uleb128 0x4109
 2341 017f 01       		.byte	0x1
 2342 0180 11       		.uleb128 0x11
 2343 0181 01       		.uleb128 0x1
 2344 0182 31       		.uleb128 0x31
 2345 0183 13       		.uleb128 0x13
 2346 0184 00       		.byte	0
 2347 0185 00       		.byte	0
 2348 0186 1F       		.uleb128 0x1f
 2349 0187 21       		.uleb128 0x21
 2350 0188 00       		.byte	0
 2351 0189 49       		.uleb128 0x49
 2352 018a 13       		.uleb128 0x13
 2353 018b 2F       		.uleb128 0x2f
 2354 018c 05       		.uleb128 0x5
 2355 018d 00       		.byte	0
 2356 018e 00       		.byte	0
 2357 018f 20       		.uleb128 0x20
 2358 0190 34       		.uleb128 0x34
 2359 0191 00       		.byte	0
 2360 0192 03       		.uleb128 0x3
 2361 0193 0E       		.uleb128 0xe
 2362 0194 3A       		.uleb128 0x3a
 2363 0195 0B       		.uleb128 0xb
 2364 0196 3B       		.uleb128 0x3b
 2365 0197 0B       		.uleb128 0xb
 2366 0198 49       		.uleb128 0x49
 2367 0199 13       		.uleb128 0x13
 2368 019a 3F       		.uleb128 0x3f
 2369 019b 0C       		.uleb128 0xc
 2370 019c 3C       		.uleb128 0x3c
 2371 019d 0C       		.uleb128 0xc
 2372 019e 00       		.byte	0
 2373 019f 00       		.byte	0
 2374 01a0 21       		.uleb128 0x21
 2375 01a1 34       		.uleb128 0x34
ARM GAS  C:\Users\Elis\AppData\Local\Temp\ccwV5RfI.s 			page 43


 2376 01a2 00       		.byte	0
 2377 01a3 03       		.uleb128 0x3
 2378 01a4 0E       		.uleb128 0xe
 2379 01a5 3A       		.uleb128 0x3a
 2380 01a6 0B       		.uleb128 0xb
 2381 01a7 3B       		.uleb128 0x3b
 2382 01a8 05       		.uleb128 0x5
 2383 01a9 49       		.uleb128 0x49
 2384 01aa 13       		.uleb128 0x13
 2385 01ab 3F       		.uleb128 0x3f
 2386 01ac 0C       		.uleb128 0xc
 2387 01ad 3C       		.uleb128 0x3c
 2388 01ae 0C       		.uleb128 0xc
 2389 01af 00       		.byte	0
 2390 01b0 00       		.byte	0
 2391 01b1 22       		.uleb128 0x22
 2392 01b2 2E       		.uleb128 0x2e
 2393 01b3 01       		.byte	0x1
 2394 01b4 3F       		.uleb128 0x3f
 2395 01b5 0C       		.uleb128 0xc
 2396 01b6 03       		.uleb128 0x3
 2397 01b7 0E       		.uleb128 0xe
 2398 01b8 3A       		.uleb128 0x3a
 2399 01b9 0B       		.uleb128 0xb
 2400 01ba 3B       		.uleb128 0x3b
 2401 01bb 0B       		.uleb128 0xb
 2402 01bc 27       		.uleb128 0x27
 2403 01bd 0C       		.uleb128 0xc
 2404 01be 49       		.uleb128 0x49
 2405 01bf 13       		.uleb128 0x13
 2406 01c0 3C       		.uleb128 0x3c
 2407 01c1 0C       		.uleb128 0xc
 2408 01c2 01       		.uleb128 0x1
 2409 01c3 13       		.uleb128 0x13
 2410 01c4 00       		.byte	0
 2411 01c5 00       		.byte	0
 2412 01c6 23       		.uleb128 0x23
 2413 01c7 2E       		.uleb128 0x2e
 2414 01c8 00       		.byte	0
 2415 01c9 3F       		.uleb128 0x3f
 2416 01ca 0C       		.uleb128 0xc
 2417 01cb 03       		.uleb128 0x3
 2418 01cc 0E       		.uleb128 0xe
 2419 01cd 3A       		.uleb128 0x3a
 2420 01ce 0B       		.uleb128 0xb
 2421 01cf 3B       		.uleb128 0x3b
 2422 01d0 0B       		.uleb128 0xb
 2423 01d1 27       		.uleb128 0x27
 2424 01d2 0C       		.uleb128 0xc
 2425 01d3 3C       		.uleb128 0x3c
 2426 01d4 0C       		.uleb128 0xc
 2427 01d5 00       		.byte	0
 2428 01d6 00       		.byte	0
 2429 01d7 24       		.uleb128 0x24
 2430 01d8 2E       		.uleb128 0x2e
 2431 01d9 01       		.byte	0x1
 2432 01da 3F       		.uleb128 0x3f
ARM GAS  C:\Users\Elis\AppData\Local\Temp\ccwV5RfI.s 			page 44


 2433 01db 0C       		.uleb128 0xc
 2434 01dc 03       		.uleb128 0x3
 2435 01dd 0E       		.uleb128 0xe
 2436 01de 3A       		.uleb128 0x3a
 2437 01df 0B       		.uleb128 0xb
 2438 01e0 3B       		.uleb128 0x3b
 2439 01e1 0B       		.uleb128 0xb
 2440 01e2 27       		.uleb128 0x27
 2441 01e3 0C       		.uleb128 0xc
 2442 01e4 3C       		.uleb128 0x3c
 2443 01e5 0C       		.uleb128 0xc
 2444 01e6 01       		.uleb128 0x1
 2445 01e7 13       		.uleb128 0x13
 2446 01e8 00       		.byte	0
 2447 01e9 00       		.byte	0
 2448 01ea 25       		.uleb128 0x25
 2449 01eb 2E       		.uleb128 0x2e
 2450 01ec 01       		.byte	0x1
 2451 01ed 3F       		.uleb128 0x3f
 2452 01ee 0C       		.uleb128 0xc
 2453 01ef 03       		.uleb128 0x3
 2454 01f0 0E       		.uleb128 0xe
 2455 01f1 3A       		.uleb128 0x3a
 2456 01f2 0B       		.uleb128 0xb
 2457 01f3 3B       		.uleb128 0x3b
 2458 01f4 0B       		.uleb128 0xb
 2459 01f5 27       		.uleb128 0x27
 2460 01f6 0C       		.uleb128 0xc
 2461 01f7 3C       		.uleb128 0x3c
 2462 01f8 0C       		.uleb128 0xc
 2463 01f9 00       		.byte	0
 2464 01fa 00       		.byte	0
 2465 01fb 00       		.byte	0
 2466              		.section	.debug_loc,"",%progbits
 2467              	.Ldebug_loc0:
 2468              	.LLST0:
 2469 0000 00000000 		.4byte	.LFB118
 2470 0004 04000000 		.4byte	.LCFI0
 2471 0008 0200     		.2byte	0x2
 2472 000a 7D       		.byte	0x7d
 2473 000b 00       		.sleb128 0
 2474 000c 04000000 		.4byte	.LCFI0
 2475 0010 0E000000 		.4byte	.LCFI1
 2476 0014 0200     		.2byte	0x2
 2477 0016 7D       		.byte	0x7d
 2478 0017 20       		.sleb128 32
 2479 0018 0E000000 		.4byte	.LCFI1
 2480 001c 00020000 		.4byte	.LFE118
 2481 0020 0300     		.2byte	0x3
 2482 0022 7D       		.byte	0x7d
 2483 0023 A801     		.sleb128 168
 2484 0025 00000000 		.4byte	0
 2485 0029 00000000 		.4byte	0
 2486              	.LLST1:
 2487 002d 00000000 		.4byte	.LVL0
 2488 0031 10000000 		.4byte	.LVL1
 2489 0035 0100     		.2byte	0x1
ARM GAS  C:\Users\Elis\AppData\Local\Temp\ccwV5RfI.s 			page 45


 2490 0037 50       		.byte	0x50
 2491 0038 10000000 		.4byte	.LVL1
 2492 003c 00020000 		.4byte	.LFE118
 2493 0040 0400     		.2byte	0x4
 2494 0042 F3       		.byte	0xf3
 2495 0043 01       		.uleb128 0x1
 2496 0044 50       		.byte	0x50
 2497 0045 9F       		.byte	0x9f
 2498 0046 00000000 		.4byte	0
 2499 004a 00000000 		.4byte	0
 2500              	.LLST2:
 2501 004e 00000000 		.4byte	.LVL0
 2502 0052 10000000 		.4byte	.LVL1
 2503 0056 0200     		.2byte	0x2
 2504 0058 30       		.byte	0x30
 2505 0059 9F       		.byte	0x9f
 2506 005a 10000000 		.4byte	.LVL1
 2507 005e 4C000000 		.4byte	.LVL5
 2508 0062 0100     		.2byte	0x1
 2509 0064 57       		.byte	0x57
 2510 0065 4E000000 		.4byte	.LVL6
 2511 0069 30010000 		.4byte	.LVL20
 2512 006d 0100     		.2byte	0x1
 2513 006f 57       		.byte	0x57
 2514 0070 7A010000 		.4byte	.LVL25
 2515 0074 00020000 		.4byte	.LFE118
 2516 0078 0100     		.2byte	0x1
 2517 007a 57       		.byte	0x57
 2518 007b 00000000 		.4byte	0
 2519 007f 00000000 		.4byte	0
 2520              	.LLST3:
 2521 0083 00000000 		.4byte	.LVL0
 2522 0087 10000000 		.4byte	.LVL1
 2523 008b 0200     		.2byte	0x2
 2524 008d 30       		.byte	0x30
 2525 008e 9F       		.byte	0x9f
 2526 008f 10000000 		.4byte	.LVL1
 2527 0093 4E000000 		.4byte	.LVL6
 2528 0097 0100     		.2byte	0x1
 2529 0099 54       		.byte	0x54
 2530 009a 5A000000 		.4byte	.LVL7
 2531 009e A0000000 		.4byte	.LVL11
 2532 00a2 0200     		.2byte	0x2
 2533 00a4 30       		.byte	0x30
 2534 00a5 9F       		.byte	0x9f
 2535 00a6 A0000000 		.4byte	.LVL11
 2536 00aa 74010000 		.4byte	.LVL23
 2537 00ae 0100     		.2byte	0x1
 2538 00b0 54       		.byte	0x54
 2539 00b1 78010000 		.4byte	.LVL24
 2540 00b5 7A010000 		.4byte	.LVL25
 2541 00b9 0200     		.2byte	0x2
 2542 00bb 31       		.byte	0x31
 2543 00bc 9F       		.byte	0x9f
 2544 00bd 7A010000 		.4byte	.LVL25
 2545 00c1 C8010000 		.4byte	.LVL30
 2546 00c5 0100     		.2byte	0x1
ARM GAS  C:\Users\Elis\AppData\Local\Temp\ccwV5RfI.s 			page 46


 2547 00c7 54       		.byte	0x54
 2548 00c8 00000000 		.4byte	0
 2549 00cc 00000000 		.4byte	0
 2550              		.section	.debug_aranges,"",%progbits
 2551 0000 1C000000 		.4byte	0x1c
 2552 0004 0200     		.2byte	0x2
 2553 0006 00000000 		.4byte	.Ldebug_info0
 2554 000a 04       		.byte	0x4
 2555 000b 00       		.byte	0
 2556 000c 0000     		.2byte	0
 2557 000e 0000     		.2byte	0
 2558 0010 00000000 		.4byte	.LFB118
 2559 0014 00020000 		.4byte	.LFE118-.LFB118
 2560 0018 00000000 		.4byte	0
 2561 001c 00000000 		.4byte	0
 2562              		.section	.debug_ranges,"",%progbits
 2563              	.Ldebug_ranges0:
 2564 0000 00000000 		.4byte	.LFB118
 2565 0004 00020000 		.4byte	.LFE118
 2566 0008 00000000 		.4byte	0
 2567 000c 00000000 		.4byte	0
 2568              		.section	.debug_line,"",%progbits
 2569              	.Ldebug_line0:
 2570 0000 85030000 		.section	.debug_str,"MS",%progbits,1
 2570      02000003 
 2570      00000201 
 2570      FB0E0D00 
 2570      01010101 
 2571              	.LASF95:
 2572 0000 6E6F7469 		.ascii	"notification\000"
 2572      66696361 
 2572      74696F6E 
 2572      00
 2573              	.LASF15:
 2574 000d 6E657753 		.ascii	"newSms\000"
 2574      6D7300
 2575              	.LASF19:
 2576 0014 73697A65 		.ascii	"size_t\000"
 2576      5F7400
 2577              	.LASF102:
 2578 001b 63616C6C 		.ascii	"calls_thrd_h\000"
 2578      735F7468 
 2578      72645F68 
 2578      00
 2579              	.LASF105:
 2580 0028 73747273 		.ascii	"strstr\000"
 2580      747200
 2581              	.LASF100:
 2582 002f 76746C69 		.ascii	"vtlist\000"
 2582      737400
 2583              	.LASF103:
 2584 0036 67736D52 		.ascii	"gsmResponse\000"
 2584      6573706F 
 2584      6E736500 
 2585              	.LASF109:
 2586 0042 7374726E 		.ascii	"strncpy\000"
 2586      63707900 
ARM GAS  C:\Users\Elis\AppData\Local\Temp\ccwV5RfI.s 			page 47


 2587              	.LASF87:
 2588 004a 4D61696C 		.ascii	"Mailbox\000"
 2588      626F7800 
 2589              	.LASF28:
 2590 0052 6C6F6E67 		.ascii	"long long unsigned int\000"
 2590      206C6F6E 
 2590      6720756E 
 2590      7369676E 
 2590      65642069 
 2591              	.LASF89:
 2592 0069 65786974 		.ascii	"exitcode\000"
 2592      636F6465 
 2592      00
 2593              	.LASF111:
 2594 0072 2E2E2F2E 		.ascii	"../../workspace26/Mobile_phone/tasks/uart_t.c\000"
 2594      2E2F776F 
 2594      726B7370 
 2594      61636532 
 2594      362F4D6F 
 2595              	.LASF83:
 2596 00a0 6D625F77 		.ascii	"mb_wrptr\000"
 2596      72707472 
 2596      00
 2597              	.LASF13:
 2598 00a9 4E6F7469 		.ascii	"Notification\000"
 2598      66696361 
 2598      74696F6E 
 2598      00
 2599              	.LASF82:
 2600 00b6 6D625F74 		.ascii	"mb_top\000"
 2600      6F7000
 2601              	.LASF43:
 2602 00bd 705F7072 		.ascii	"p_prio\000"
 2602      696F00
 2603              	.LASF27:
 2604 00c4 6C6F6E67 		.ascii	"long long int\000"
 2604      206C6F6E 
 2604      6720696E 
 2604      7400
 2605              	.LASF18:
 2606 00d2 7369676E 		.ascii	"signed char\000"
 2606      65642063 
 2606      68617200 
 2607              	.LASF59:
 2608 00de 705F6D70 		.ascii	"p_mpool\000"
 2608      6F6F6C00 
 2609              	.LASF29:
 2610 00e6 626F6F6C 		.ascii	"bool_t\000"
 2610      5F7400
 2611              	.LASF78:
 2612 00ed 6D5F7175 		.ascii	"m_queue\000"
 2612      65756500 
 2613              	.LASF112:
 2614 00f5 433A5C43 		.ascii	"C:\\ChibiStudio\\workspace26\\Mobile_phone\000"
 2614      68696269 
 2614      53747564 
 2614      696F5C77 
ARM GAS  C:\Users\Elis\AppData\Local\Temp\ccwV5RfI.s 			page 48


 2614      6F726B73 
 2615              	.LASF34:
 2616 011d 74736C69 		.ascii	"tslices_t\000"
 2616      6365735F 
 2616      7400
 2617              	.LASF24:
 2618 0127 6C6F6E67 		.ascii	"long int\000"
 2618      20696E74 
 2618      00
 2619              	.LASF107:
 2620 0130 63684D73 		.ascii	"chMsgSend\000"
 2620      6753656E 
 2620      6400
 2621              	.LASF32:
 2622 013a 74737461 		.ascii	"tstate_t\000"
 2622      74655F74 
 2622      00
 2623              	.LASF104:
 2624 0143 73645265 		.ascii	"sdReadLine\000"
 2624      61644C69 
 2624      6E6500
 2625              	.LASF7:
 2626 014e 6E756D4F 		.ascii	"numOfCalls\000"
 2626      6643616C 
 2626      6C7300
 2627              	.LASF52:
 2628 0159 705F7469 		.ascii	"p_time\000"
 2628      6D6500
 2629              	.LASF96:
 2630 0160 62756666 		.ascii	"buffer\000"
 2630      657200
 2631              	.LASF45:
 2632 0167 705F6E65 		.ascii	"p_newer\000"
 2632      77657200 
 2633              	.LASF75:
 2634 016f 735F7175 		.ascii	"s_queue\000"
 2634      65756500 
 2635              	.LASF97:
 2636 0177 736D7349 		.ascii	"smsId\000"
 2636      6400
 2637              	.LASF62:
 2638 017d 72656761 		.ascii	"regarm_t\000"
 2638      726D5F74 
 2638      00
 2639              	.LASF68:
 2640 0186 76745F70 		.ascii	"vt_prev\000"
 2640      72657600 
 2641              	.LASF106:
 2642 018e 736C7265 		.ascii	"slre_match\000"
 2642      5F6D6174 
 2642      636800
 2643              	.LASF39:
 2644 0199 636E745F 		.ascii	"cnt_t\000"
 2644      7400
 2645              	.LASF11:
 2646 019f 756E7369 		.ascii	"unsigned int\000"
 2646      676E6564 
ARM GAS  C:\Users\Elis\AppData\Local\Temp\ccwV5RfI.s 			page 49


 2646      20696E74 
 2646      00
 2647              	.LASF67:
 2648 01ac 76745F6E 		.ascii	"vt_next\000"
 2648      65787400 
 2649              	.LASF54:
 2650 01b4 705F6D73 		.ascii	"p_msgqueue\000"
 2650      67717565 
 2650      756500
 2651              	.LASF86:
 2652 01bf 6D625F65 		.ascii	"mb_emptysem\000"
 2652      6D707479 
 2652      73656D00 
 2653              	.LASF66:
 2654 01cb 56697274 		.ascii	"VirtualTimer\000"
 2654      75616C54 
 2654      696D6572 
 2654      00
 2655              	.LASF76:
 2656 01d8 735F636E 		.ascii	"s_cnt\000"
 2656      7400
 2657              	.LASF5:
 2658 01de 6D697373 		.ascii	"missedCalls\000"
 2658      65644361 
 2658      6C6C7300 
 2659              	.LASF115:
 2660 01ea 68616E67 		.ascii	"hangUp\000"
 2660      557000
 2661              	.LASF22:
 2662 01f1 73686F72 		.ascii	"short unsigned int\000"
 2662      7420756E 
 2662      7369676E 
 2662      65642069 
 2662      6E7400
 2663              	.LASF36:
 2664 0204 6D73675F 		.ascii	"msg_t\000"
 2664      7400
 2665              	.LASF31:
 2666 020a 746D6F64 		.ascii	"tmode_t\000"
 2666      655F7400 
 2667              	.LASF61:
 2668 0212 54687265 		.ascii	"ThreadsList\000"
 2668      6164734C 
 2668      69737400 
 2669              	.LASF37:
 2670 021e 6576656E 		.ascii	"eventmask_t\000"
 2670      746D6173 
 2670      6B5F7400 
 2671              	.LASF6:
 2672 022a 63616C6C 		.ascii	"call\000"
 2672      00
 2673              	.LASF10:
 2674 022f 64656C65 		.ascii	"deleteCalls\000"
 2674      74654361 
 2674      6C6C7300 
 2675              	.LASF4:
 2676 023b 63616C6C 		.ascii	"callerTelNum\000"
ARM GAS  C:\Users\Elis\AppData\Local\Temp\ccwV5RfI.s 			page 50


 2676      65725465 
 2676      6C4E756D 
 2676      00
 2677              	.LASF69:
 2678 0248 76745F74 		.ascii	"vt_time\000"
 2678      696D6500 
 2679              	.LASF53:
 2680 0250 705F7761 		.ascii	"p_waiting\000"
 2680      6974696E 
 2680      6700
 2681              	.LASF0:
 2682 025a 73697A65 		.ascii	"sizetype\000"
 2682      74797065 
 2682      00
 2683              	.LASF84:
 2684 0263 6D625F72 		.ascii	"mb_rdptr\000"
 2684      64707472 
 2684      00
 2685              	.LASF77:
 2686 026c 4D757465 		.ascii	"Mutex\000"
 2686      7800
 2687              	.LASF16:
 2688 0272 63616C6C 		.ascii	"callStarted\000"
 2688      53746172 
 2688      74656400 
 2689              	.LASF114:
 2690 027e 70617261 		.ascii	"param\000"
 2690      6D00
 2691              	.LASF110:
 2692 0284 474E5520 		.ascii	"GNU C 4.7.4 20140401 (release) [ARM/embedded-4_7-br"
 2692      4320342E 
 2692      372E3420 
 2692      32303134 
 2692      30343031 
 2693 02b7 616E6368 		.ascii	"anch revision 209195]\000"
 2693      20726576 
 2693      6973696F 
 2693      6E203230 
 2693      39313935 
 2694              	.LASF46:
 2695 02cd 705F6F6C 		.ascii	"p_older\000"
 2695      64657200 
 2696              	.LASF60:
 2697 02d5 54687265 		.ascii	"ThreadsQueue\000"
 2697      61647351 
 2697      75657565 
 2697      00
 2698              	.LASF81:
 2699 02e2 6D625F62 		.ascii	"mb_buffer\000"
 2699      75666665 
 2699      7200
 2700              	.LASF98:
 2701 02ec 74696D65 		.ascii	"time\000"
 2701      00
 2702              	.LASF116:
 2703 02f1 67657453 		.ascii	"getSms\000"
 2703      6D7300
ARM GAS  C:\Users\Elis\AppData\Local\Temp\ccwV5RfI.s 			page 51


 2704              	.LASF14:
 2705 02f8 63616C6C 		.ascii	"caller\000"
 2705      657200
 2706              	.LASF33:
 2707 02ff 74726566 		.ascii	"trefs_t\000"
 2707      735F7400 
 2708              	.LASF42:
 2709 0307 705F7072 		.ascii	"p_prev\000"
 2709      657600
 2710              	.LASF35:
 2711 030e 74707269 		.ascii	"tprio_t\000"
 2711      6F5F7400 
 2712              	.LASF30:
 2713 0316 5F426F6F 		.ascii	"_Bool\000"
 2713      6C00
 2714              	.LASF23:
 2715 031c 696E7433 		.ascii	"int32_t\000"
 2715      325F7400 
 2716              	.LASF12:
 2717 0324 756E7369 		.ascii	"unsigned char\000"
 2717      676E6564 
 2717      20636861 
 2717      7200
 2718              	.LASF92:
 2719 0332 74687265 		.ascii	"threadreturn_t\000"
 2719      61647265 
 2719      7475726E 
 2719      5F7400
 2720              	.LASF8:
 2721 0341 6D697373 		.ascii	"missedCall\000"
 2721      65644361 
 2721      6C6C00
 2722              	.LASF101:
 2723 034c 49544D5F 		.ascii	"ITM_RxBuffer\000"
 2723      52784275 
 2723      66666572 
 2723      00
 2724              	.LASF57:
 2725 0359 705F6D74 		.ascii	"p_mtxlist\000"
 2725      786C6973 
 2725      7400
 2726              	.LASF21:
 2727 0363 73686F72 		.ascii	"short int\000"
 2727      7420696E 
 2727      7400
 2728              	.LASF48:
 2729 036d 705F7374 		.ascii	"p_state\000"
 2729      61746500 
 2730              	.LASF51:
 2731 0375 705F7072 		.ascii	"p_preempt\000"
 2731      65656D70 
 2731      7400
 2732              	.LASF91:
 2733 037f 65776D61 		.ascii	"ewmask\000"
 2733      736B00
 2734              	.LASF41:
 2735 0386 705F6E65 		.ascii	"p_next\000"
ARM GAS  C:\Users\Elis\AppData\Local\Temp\ccwV5RfI.s 			page 52


 2735      787400
 2736              	.LASF49:
 2737 038d 705F666C 		.ascii	"p_flags\000"
 2737      61677300 
 2738              	.LASF108:
 2739 0395 63684D42 		.ascii	"chMBPost\000"
 2739      506F7374 
 2739      00
 2740              	.LASF40:
 2741 039e 54687265 		.ascii	"Thread\000"
 2741      616400
 2742              	.LASF113:
 2743 03a5 75617274 		.ascii	"uart_t\000"
 2743      5F7400
 2744              	.LASF56:
 2745 03ac 705F6570 		.ascii	"p_epending\000"
 2745      656E6469 
 2745      6E6700
 2746              	.LASF25:
 2747 03b7 75696E74 		.ascii	"uint32_t\000"
 2747      33325F74 
 2747      00
 2748              	.LASF72:
 2749 03c0 76745F73 		.ascii	"vt_systime\000"
 2749      79737469 
 2749      6D6500
 2750              	.LASF99:
 2751 03cb 72656365 		.ascii	"receivingCall\000"
 2751      6976696E 
 2751      6743616C 
 2751      6C00
 2752              	.LASF26:
 2753 03d9 6C6F6E67 		.ascii	"long unsigned int\000"
 2753      20756E73 
 2753      69676E65 
 2753      6420696E 
 2753      7400
 2754              	.LASF1:
 2755 03eb 63686172 		.ascii	"char\000"
 2755      00
 2756              	.LASF17:
 2757 03f0 63616C6C 		.ascii	"callEnded\000"
 2757      456E6465 
 2757      6400
 2758              	.LASF9:
 2759 03fa 6765744D 		.ascii	"getMissedCalls\000"
 2759      69737365 
 2759      6443616C 
 2759      6C7300
 2760              	.LASF3:
 2761 0409 43616C6C 		.ascii	"Calls\000"
 2761      7300
 2762              	.LASF80:
 2763 040f 6D5F6E65 		.ascii	"m_next\000"
 2763      787400
 2764              	.LASF38:
 2765 0416 73797374 		.ascii	"systime_t\000"
ARM GAS  C:\Users\Elis\AppData\Local\Temp\ccwV5RfI.s 			page 53


 2765      696D655F 
 2765      7400
 2766              	.LASF58:
 2767 0420 705F7265 		.ascii	"p_realprio\000"
 2767      616C7072 
 2767      696F00
 2768              	.LASF65:
 2769 042b 76746675 		.ascii	"vtfunc_t\000"
 2769      6E635F74 
 2769      00
 2770              	.LASF93:
 2771 0434 736C7265 		.ascii	"slre_cap\000"
 2771      5F636170 
 2771      00
 2772              	.LASF64:
 2773 043d 636F6E74 		.ascii	"context\000"
 2773      65787400 
 2774              	.LASF63:
 2775 0445 696E7463 		.ascii	"intctx\000"
 2775      747800
 2776              	.LASF71:
 2777 044c 76745F70 		.ascii	"vt_par\000"
 2777      617200
 2778              	.LASF74:
 2779 0453 53656D61 		.ascii	"Semaphore\000"
 2779      70686F72 
 2779      6500
 2780              	.LASF85:
 2781 045d 6D625F66 		.ascii	"mb_fullsem\000"
 2781      756C6C73 
 2781      656D00
 2782              	.LASF88:
 2783 0468 7264796D 		.ascii	"rdymsg\000"
 2783      736700
 2784              	.LASF50:
 2785 046f 705F7265 		.ascii	"p_refs\000"
 2785      667300
 2786              	.LASF20:
 2787 0476 75696E74 		.ascii	"uint8_t\000"
 2787      385F7400 
 2788              	.LASF94:
 2789 047e 63616C6C 		.ascii	"calls\000"
 2789      7300
 2790              	.LASF90:
 2791 0484 77746F62 		.ascii	"wtobjp\000"
 2791      6A7000
 2792              	.LASF47:
 2793 048b 705F6E61 		.ascii	"p_name\000"
 2793      6D6500
 2794              	.LASF117:
 2795 0492 64656C65 		.ascii	"deleteSms\000"
 2795      7465536D 
 2795      7300
 2796              	.LASF55:
 2797 049c 705F6D73 		.ascii	"p_msg\000"
 2797      6700
 2798              	.LASF73:
ARM GAS  C:\Users\Elis\AppData\Local\Temp\ccwV5RfI.s 			page 54


 2799 04a2 56544C69 		.ascii	"VTList\000"
 2799      737400
 2800              	.LASF79:
 2801 04a9 6D5F6F77 		.ascii	"m_owner\000"
 2801      6E657200 
 2802              	.LASF2:
 2803 04b1 43616C6C 		.ascii	"Call\000"
 2803      00
 2804              	.LASF44:
 2805 04b6 705F6374 		.ascii	"p_ctx\000"
 2805      7800
 2806              	.LASF70:
 2807 04bc 76745F66 		.ascii	"vt_func\000"
 2807      756E6300 
 2808              		.ident	"GCC: (GNU Tools for ARM Embedded Processors) 4.7.4 20140401 (release) [ARM/embedded-4_7-br
ARM GAS  C:\Users\Elis\AppData\Local\Temp\ccwV5RfI.s 			page 55


DEFINED SYMBOLS
                            *ABS*:00000000 uart_t.c
C:\Users\Elis\AppData\Local\Temp\ccwV5RfI.s:19     .text.uart_t:00000000 $t
C:\Users\Elis\AppData\Local\Temp\ccwV5RfI.s:25     .text.uart_t:00000000 uart_t
C:\Users\Elis\AppData\Local\Temp\ccwV5RfI.s:320    .text.uart_t:000001cc $d
C:\Users\Elis\AppData\Local\Temp\ccwV5RfI.s:337    .bss.buffer.8409:00000000 $d
C:\Users\Elis\AppData\Local\Temp\ccwV5RfI.s:341    .bss.buffer.8409:00000000 buffer.8409
C:\Users\Elis\AppData\Local\Temp\ccwV5RfI.s:344    .rodata.str1.4:00000000 $d
                     .debug_frame:00000010 $d

UNDEFINED SYMBOLS
sdReadLine
strstr
slre_match
hangUp
chMsgSend
chMBPost
strncpy
getSms
deleteSms
vtlist
gsmResponse
calls_thrd_h
