ARM GAS  C:\Users\Elis\AppData\Local\Temp\ccwV5RfI.s 			page 1


   1              		.syntax unified
   2              		.cpu cortex-m4
   3              		.fpu softvfp
   4              		.eabi_attribute 20, 1
   5              		.eabi_attribute 21, 1
   6              		.eabi_attribute 23, 3
   7              		.eabi_attribute 24, 1
   8              		.eabi_attribute 25, 1
   9              		.eabi_attribute 26, 1
  10              		.eabi_attribute 30, 2
  11              		.eabi_attribute 34, 1
  12              		.eabi_attribute 18, 4
  13              		.thumb
  14              		.file	"uart_t.c"
  15              		.text
  16              	.Ltext0:
  17              		.cfi_sections	.debug_frame
  18              		.section	.text.uart_t,"ax",%progbits
  19              		.align	2
  20              		.p2align 4,,15
  21              		.global	uart_t
  22              		.thumb
  23              		.thumb_func
  24              		.type	uart_t, %function
  25              	uart_t:
  26              	.LFB118:
  27              		.file 1 "../../workspace26/Mobile_phone/tasks/uart_t.c"
  28              		.loc 1 3 0
  29              		.cfi_startproc
  30              		@ args = 0, pretend = 0, frame = 128
  31              		@ frame_needed = 0, uses_anonymous_args = 0
  32              	.LVL0:
  33 0000 2DE9F047 		push	{r4, r5, r6, r7, r8, r9, sl, lr}
  34              	.LCFI0:
  35              		.cfi_def_cfa_offset 32
  36              		.cfi_offset 4, -32
  37              		.cfi_offset 5, -28
  38              		.cfi_offset 6, -24
  39              		.cfi_offset 7, -20
  40              		.cfi_offset 8, -16
  41              		.cfi_offset 9, -12
  42              		.cfi_offset 10, -8
  43              		.cfi_offset 14, -4
  44              		.loc 1 25 0
  45 0004 0024     		movs	r4, #0
  46 0006 714E     		ldr	r6, .L24
  47 0008 DFF8F081 		ldr	r8, .L24+48
  48              		.loc 1 3 0
  49 000c A2B0     		sub	sp, sp, #136
  50              	.LCFI1:
  51              		.cfi_def_cfa_offset 168
  52              		.loc 1 21 0
  53 000e 2746     		mov	r7, r4
  54              	.LVL1:
  55              	.L20:
  56              		.loc 1 31 0
  57 0010 0022     		movs	r2, #0
ARM GAS  C:\Users\Elis\AppData\Local\Temp\ccwV5RfI.s 			page 2


  58 0012 6F48     		ldr	r0, .L24+4
  59 0014 40F20511 		movw	r1, #261
  60 0018 FFF7FEFF 		bl	sdReadLine
  61              	.LVL2:
  62 001c 0028     		cmp	r0, #0
  63 001e 61DD     		ble	.L4
  64              		.loc 1 35 0
  65 0020 6B48     		ldr	r0, .L24+4
  66 0022 6C49     		ldr	r1, .L24+8
  67 0024 FFF7FEFF 		bl	strstr
  68              	.LVL3:
  69 0028 0546     		mov	r5, r0
  70 002a 0028     		cmp	r0, #0
  71 002c 5DD0     		beq	.L5
  72              		.loc 1 39 0
  73 002e 0020     		movs	r0, #0
  74 0030 0125     		movs	r5, #1
  75 0032 0190     		str	r0, [sp, #4]
  76 0034 0095     		str	r5, [sp, #0]
  77 0036 6848     		ldr	r0, .L24+12
  78 0038 6549     		ldr	r1, .L24+4
  79 003a 40F20512 		movw	r2, #261
  80 003e 03AB     		add	r3, sp, #12
  81 0040 FFF7FEFF 		bl	slre_match
  82              	.LVL4:
  83 0044 0028     		cmp	r0, #0
  84 0046 4DDD     		ble	.L4
  85              		.loc 1 43 0
  86 0048 002C     		cmp	r4, #0
  87 004a 70D0     		beq	.L22
  88              	.LVL5:
  89              	.L7:
  90              		.loc 1 71 0
  91 004c F768     		ldr	r7, [r6, #12]
  92              	.LVL6:
  93              	.L8:
  94              		.loc 1 153 0
  95 004e F268     		ldr	r2, [r6, #12]
  96 0050 41F26F70 		movw	r0, #5999
  97 0054 D51B     		subs	r5, r2, r7
  98 0056 8542     		cmp	r5, r0
  99 0058 DAD9     		bls	.L20
 100              	.LVL7:
 101              		.loc 1 161 0
 102 005a FFF7FEFF 		bl	hangUp
 103              	.LVL8:
 104              		.loc 1 163 0
 105 005e 9DF88440 		ldrb	r4, [sp, #132]	@ zero_extendqisi2
 106              		.loc 1 171 0
 107 0062 D8F80000 		ldr	r0, [r8, #0]
 108              		.loc 1 165 0
 109 0066 44F00103 		orr	r3, r4, #1
 110              		.loc 1 167 0
 111 006a 03F0FD02 		and	r2, r3, #253
 112 006e 6FF38202 		bfc	r2, #2, #1
 113              		.loc 1 171 0
 114 0072 12A9     		add	r1, sp, #72
ARM GAS  C:\Users\Elis\AppData\Local\Temp\ccwV5RfI.s 			page 3


 115              		.loc 1 167 0
 116 0074 8DF88420 		strb	r2, [sp, #132]
 117              		.loc 1 171 0
 118 0078 FFF7FEFF 		bl	chMsgSend
 119              	.LVL9:
 120              		.loc 1 177 0
 121 007c 9DF84610 		ldrb	r1, [sp, #70]	@ zero_extendqisi2
 122              		.loc 1 181 0
 123 0080 5648     		ldr	r0, .L24+16
 124              		.loc 1 177 0
 125 0082 01F0FD05 		and	r5, r1, #253
 126              		.loc 1 179 0
 127 0086 45F00404 		orr	r4, r5, #4
 128 008a 6FF30004 		bfc	r4, #0, #1
 129              		.loc 1 181 0
 130 008e 05A9     		add	r1, sp, #20
 131 0090 4FF0FF32 		mov	r2, #-1
 132              		.loc 1 179 0
 133 0094 8DF84640 		strb	r4, [sp, #70]
 134              		.loc 1 157 0
 135 0098 0024     		movs	r4, #0
 136              		.loc 1 181 0
 137 009a FFF7FEFF 		bl	chMBPost
 138              	.LVL10:
 139 009e B7E7     		b	.L20
 140              	.LVL11:
 141              	.L9:
 142              		.loc 1 99 0
 143 00a0 4B48     		ldr	r0, .L24+4
 144 00a2 4F49     		ldr	r1, .L24+20
 145 00a4 FFF7FEFF 		bl	strstr
 146              	.LVL12:
 147 00a8 0028     		cmp	r0, #0
 148 00aa 66D0     		beq	.L10
 149              		.loc 1 101 0
 150 00ac 0125     		movs	r5, #1
 151 00ae 8DE82002 		stmia	sp, {r5, r9}
 152 00b2 4C48     		ldr	r0, .L24+24
 153 00b4 4649     		ldr	r1, .L24+4
 154 00b6 40F20512 		movw	r2, #261
 155 00ba 03AB     		add	r3, sp, #12
 156 00bc FFF7FEFF 		bl	slre_match
 157              	.LVL13:
 158 00c0 0028     		cmp	r0, #0
 159 00c2 0FDD     		ble	.L4
 160              		.loc 1 105 0
 161 00c4 9DF84620 		ldrb	r2, [sp, #70]	@ zero_extendqisi2
 162              		.loc 1 113 0
 163 00c8 4148     		ldr	r0, .L24+4
 164              		.loc 1 105 0
 165 00ca 69F34102 		bfi	r2, r9, #1, #1
 166              		.loc 1 107 0
 167 00ce 69F38202 		bfi	r2, r9, #2, #1
 168              		.loc 1 109 0
 169 00d2 D3B2     		uxtb	r3, r2
 170 00d4 2B43     		orrs	r3, r3, r5
 171              		.loc 1 113 0
ARM GAS  C:\Users\Elis\AppData\Local\Temp\ccwV5RfI.s 			page 4


 172 00d6 40F20511 		movw	r1, #261
 173 00da 2A46     		mov	r2, r5
 174              		.loc 1 109 0
 175 00dc 8DF84630 		strb	r3, [sp, #70]
 176              		.loc 1 113 0
 177 00e0 FFF7FEFF 		bl	sdReadLine
 178              	.LVL14:
 179              	.L4:
 180              		.loc 1 151 0
 181 00e4 002C     		cmp	r4, #0
 182 00e6 93D0     		beq	.L20
 183 00e8 B1E7     		b	.L8
 184              	.L5:
 185              		.loc 1 79 0
 186 00ea 3948     		ldr	r0, .L24+4
 187 00ec 3E49     		ldr	r1, .L24+28
 188 00ee FFF7FEFF 		bl	strstr
 189              	.LVL15:
 190 00f2 8146     		mov	r9, r0
 191 00f4 0028     		cmp	r0, #0
 192 00f6 D3D0     		beq	.L9
 193              		.loc 1 81 0
 194 00f8 0123     		movs	r3, #1
 195 00fa 8DE82800 		stmia	sp, {r3, r5}
 196 00fe 3B48     		ldr	r0, .L24+32
 197 0100 3349     		ldr	r1, .L24+4
 198 0102 40F20512 		movw	r2, #261
 199 0106 03AB     		add	r3, sp, #12
 200 0108 FFF7FEFF 		bl	slre_match
 201              	.LVL16:
 202 010c 0028     		cmp	r0, #0
 203 010e E9DD     		ble	.L4
 204              		.loc 1 83 0
 205 0110 0399     		ldr	r1, [sp, #12]
 206 0112 049A     		ldr	r2, [sp, #16]
 207 0114 02A8     		add	r0, sp, #8
 208 0116 FFF7FEFF 		bl	strncpy
 209              	.LVL17:
 210              		.loc 1 87 0
 211 011a 02A8     		add	r0, sp, #8
 212 011c FFF7FEFF 		bl	getSms
 213              	.LVL18:
 214              		.loc 1 91 0
 215 0120 02A8     		add	r0, sp, #8
 216 0122 FFF7FEFF 		bl	deleteSms
 217              	.LVL19:
 218              		.loc 1 151 0
 219 0126 002C     		cmp	r4, #0
 220 0128 3FF472AF 		beq	.L20
 221 012c 8FE7     		b	.L8
 222              	.L22:
 223              		.loc 1 47 0
 224 012e 049F     		ldr	r7, [sp, #16]
 225              	.LVL20:
 226 0130 DDF80CA0 		ldr	sl, [sp, #12]
 227              		.loc 1 49 0
 228 0134 22AB     		add	r3, sp, #136
ARM GAS  C:\Users\Elis\AppData\Local\Temp\ccwV5RfI.s 			page 5


 229 0136 03EB0709 		add	r9, r3, r7
 230              		.loc 1 47 0
 231 013a 3A46     		mov	r2, r7
 232 013c 5146     		mov	r1, sl
 233 013e 13A8     		add	r0, sp, #76
 234 0140 FFF7FEFF 		bl	strncpy
 235              	.LVL21:
 236              		.loc 1 51 0
 237 0144 3A46     		mov	r2, r7
 238 0146 5146     		mov	r1, sl
 239 0148 05A8     		add	r0, sp, #20
 240              		.loc 1 49 0
 241 014a 09F83C4C 		strb	r4, [r9, #-60]
 242              		.loc 1 51 0
 243 014e FFF7FEFF 		bl	strncpy
 244              	.LVL22:
 245              		.loc 1 53 0
 246 0152 09F8744C 		strb	r4, [r9, #-116]
 247              		.loc 1 57 0
 248 0156 9DF84610 		ldrb	r1, [sp, #70]	@ zero_extendqisi2
 249              		.loc 1 63 0
 250 015a 2048     		ldr	r0, .L24+16
 251              		.loc 1 59 0
 252 015c 41F00207 		orr	r7, r1, #2
 253 0160 64F38207 		bfi	r7, r4, #2, #1
 254              		.loc 1 61 0
 255 0164 64F30007 		bfi	r7, r4, #0, #1
 256              		.loc 1 63 0
 257 0168 05A9     		add	r1, sp, #20
 258 016a 4FF0FF32 		mov	r2, #-1
 259              		.loc 1 61 0
 260 016e 8DF84670 		strb	r7, [sp, #70]
 261              		.loc 1 65 0
 262 0172 2C46     		mov	r4, r5
 263              	.LVL23:
 264              		.loc 1 63 0
 265 0174 FFF7FEFF 		bl	chMBPost
 266              	.LVL24:
 267 0178 68E7     		b	.L7
 268              	.LVL25:
 269              	.L10:
 270              		.loc 1 124 0
 271 017a 1548     		ldr	r0, .L24+4
 272 017c 1C49     		ldr	r1, .L24+36
 273 017e FFF7FEFF 		bl	strstr
 274              	.LVL26:
 275 0182 98B1     		cbz	r0, .L23
 276              	.L11:
 277              		.loc 1 130 0
 278 0184 9DF84630 		ldrb	r3, [sp, #70]	@ zero_extendqisi2
 279              		.loc 1 134 0
 280 0188 1448     		ldr	r0, .L24+16
 281              		.loc 1 130 0
 282 018a 03F0FD01 		and	r1, r3, #253
 283              		.loc 1 132 0
 284 018e 41F00405 		orr	r5, r1, #4
 285 0192 6FF30005 		bfc	r5, #0, #1
ARM GAS  C:\Users\Elis\AppData\Local\Temp\ccwV5RfI.s 			page 6


 286              		.loc 1 134 0
 287 0196 05A9     		add	r1, sp, #20
 288 0198 4FF0FF32 		mov	r2, #-1
 289              		.loc 1 132 0
 290 019c 8DF84650 		strb	r5, [sp, #70]
 291              		.loc 1 134 0
 292 01a0 FFF7FEFF 		bl	chMBPost
 293              	.LVL27:
 294              		.loc 1 151 0
 295 01a4 002C     		cmp	r4, #0
 296 01a6 3FF433AF 		beq	.L20
 297 01aa 50E7     		b	.L8
 298              	.L23:
 299              		.loc 1 124 0 discriminator 1
 300 01ac 0848     		ldr	r0, .L24+4
 301 01ae 1149     		ldr	r1, .L24+40
 302 01b0 FFF7FEFF 		bl	strstr
 303              	.LVL28:
 304 01b4 0546     		mov	r5, r0
 305 01b6 0028     		cmp	r0, #0
 306 01b8 E4D1     		bne	.L11
 307              		.loc 1 138 0
 308 01ba 0548     		ldr	r0, .L24+4
 309 01bc 0E49     		ldr	r1, .L24+44
 310 01be FFF7FEFF 		bl	strstr
 311              	.LVL29:
 312 01c2 0028     		cmp	r0, #0
 313 01c4 8ED0     		beq	.L4
 314 01c6 2C46     		mov	r4, r5
 315              	.LVL30:
 316 01c8 22E7     		b	.L20
 317              	.L25:
 318 01ca 00BF     		.align	2
 319              	.L24:
 320 01cc 00000000 		.word	vtlist
 321 01d0 00000000 		.word	.LANCHOR0
 322 01d4 00000000 		.word	.LC0
 323 01d8 08000000 		.word	.LC1
 324 01dc 00000000 		.word	gsmResponse
 325 01e0 2C000000 		.word	.LC4
 326 01e4 34000000 		.word	.LC5
 327 01e8 14000000 		.word	.LC2
 328 01ec 1C000000 		.word	.LC3
 329 01f0 48000000 		.word	.LC6
 330 01f4 54000000 		.word	.LC7
 331 01f8 5C000000 		.word	.LC8
 332 01fc 00000000 		.word	calls_thrd_h
 333              		.cfi_endproc
 334              	.LFE118:
 335              		.size	uart_t, .-uart_t
 336              		.section	.bss.buffer.8409,"aw",%nobits
 337              		.align	2
 338              		.set	.LANCHOR0,. + 0
 339              		.type	buffer.8409, %object
 340              		.size	buffer.8409, 261
 341              	buffer.8409:
 342 0000 00000000 		.space	261
ARM GAS  C:\Users\Elis\AppData\Local\Temp\ccwV5RfI.s 			page 7


 342      00000000 
 342      00000000 
 342      00000000 
 342      00000000 
 343 0105 000000   		.section	.rodata.str1.4,"aMS",%progbits,1
 344              		.align	2
 345              	.LC0:
 346 0000 434C4950 		.ascii	"CLIP\000"
 346      00
 347 0005 000000   		.space	3
 348              	.LC1:
 349 0008 22285B5E 		.ascii	"\"([^\"]*)\"\000"
 349      225D2A29 
 349      2200
 350 0012 0000     		.space	2
 351              	.LC2:
 352 0014 434D5449 		.ascii	"CMTI\000"
 352      00
 353 0019 000000   		.space	3
 354              	.LC3:
 355 001c 285C642B 		.ascii	"(\\d+)[^\\d]*$\000"
 355      295B5E5C 
 355      645D2A24 
 355      00
 356 0029 000000   		.space	3
 357              	.LC4:
 358 002c 434D4752 		.ascii	"CMGR\000"
 358      00
 359 0031 000000   		.space	3
 360              	.LC5:
 361 0034 22282B5B 		.ascii	"\"(+[^/:a-zA-Z\"]*)\"\000"
 361      5E2F3A61 
 361      2D7A412D 
 361      5A225D2A 
 361      292200
 362 0047 00       		.space	1
 363              	.LC6:
 364 0048 4E4F2043 		.ascii	"NO CARRIER\000"
 364      41525249 
 364      455200
 365 0053 00       		.space	1
 366              	.LC7:
 367 0054 42555359 		.ascii	"BUSY\000"
 367      00
 368 0059 000000   		.space	3
 369              	.LC8:
 370 005c 4F4B00   		.ascii	"OK\000"
 371 005f 00       		.text
 372              	.Letext0:
 373              		.file 2 "../../workspace26/Mobile_phone/structures/structures.h"
 374              		.file 3 "c:\\chibistudio\\tools\\gnu tools arm embedded\\4.7 2014q2\\bin\\../lib/gcc/arm-none-eabi
 375              		.file 4 "c:\\chibistudio\\tools\\gnu tools arm embedded\\4.7 2014q2\\bin\\../lib/gcc/arm-none-eabi
 376              		.file 5 "../../chibios/os/ports/GCC/ARMCMx/chtypes.h"
 377              		.file 6 "../../chibios/os/kernel/include/chlists.h"
 378              		.file 7 "../../chibios/os/kernel/include/chthreads.h"
 379              		.file 8 "../../chibios/os/ports/GCC/ARMCMx/chcore_v7m.h"
 380              		.file 9 "../../chibios/os/kernel/include/chvt.h"
ARM GAS  C:\Users\Elis\AppData\Local\Temp\ccwV5RfI.s 			page 8


 381              		.file 10 "../../chibios/os/kernel/include/chsem.h"
 382              		.file 11 "../../chibios/os/kernel/include/chmtx.h"
 383              		.file 12 "../../chibios/os/kernel/include/chmboxes.h"
 384              		.file 13 "../../ugfx/src/gos/gos_chibios.h"
 385              		.file 14 "../../workspace26/Mobile_phone/regex/slre.h"
 386              		.file 15 "../../chibios/os/ports/common/ARMCMx/CMSIS/include/core_cm4.h"
 387              		.file 16 "../../workspace26/Mobile_phone/tasks/uart_t.h"
 388              		.file 17 "../../workspace26/Mobile_phone/gsm/gsm.h"
 389              		.file 18 "c:\\chibistudio\\tools\\gnu tools arm embedded\\4.7 2014q2\\bin\\../lib/gcc/arm-none-eab
 390              		.file 19 "../../chibios/os/kernel/include/chmsg.h"